ARM GAS  C:\Users\Austcha\AppData\Local\Temp\ccLjoqH7.s 			page 1


   1              		.syntax unified
   2              		.cpu cortex-m0
   3              		.fpu softvfp
   4              		.eabi_attribute 20, 1
   5              		.eabi_attribute 21, 1
   6              		.eabi_attribute 23, 3
   7              		.eabi_attribute 24, 1
   8              		.eabi_attribute 25, 1
   9              		.eabi_attribute 26, 1
  10              		.eabi_attribute 30, 1
  11              		.eabi_attribute 34, 0
  12              		.eabi_attribute 18, 4
  13              		.thumb
  14              		.syntax unified
  15              		.file	"ADC_SAR_Seq_1.c"
  16              		.text
  17              	.Ltext0:
  18              		.cfi_sections	.debug_frame
  19              		.section	.text.ADC_SAR_Seq_1_Init,"ax",%progbits
  20              		.align	2
  21              		.global	ADC_SAR_Seq_1_Init
  22              		.code	16
  23              		.thumb_func
  24              		.type	ADC_SAR_Seq_1_Init, %function
  25              	ADC_SAR_Seq_1_Init:
  26              	.LFB2:
  27              		.file 1 "Generated_Source\\PSoC4\\ADC_SAR_Seq_1.c"
   1:Generated_Source\PSoC4/ADC_SAR_Seq_1.c **** /*******************************************************************************
   2:Generated_Source\PSoC4/ADC_SAR_Seq_1.c **** * File Name: ADC_SAR_Seq_1.c
   3:Generated_Source\PSoC4/ADC_SAR_Seq_1.c **** * Version 2.50
   4:Generated_Source\PSoC4/ADC_SAR_Seq_1.c **** *
   5:Generated_Source\PSoC4/ADC_SAR_Seq_1.c **** * Description:
   6:Generated_Source\PSoC4/ADC_SAR_Seq_1.c **** *  This file provides the source code to the API for the Sequencing Successive
   7:Generated_Source\PSoC4/ADC_SAR_Seq_1.c **** *  Approximation ADC Component Component.
   8:Generated_Source\PSoC4/ADC_SAR_Seq_1.c **** *
   9:Generated_Source\PSoC4/ADC_SAR_Seq_1.c **** * Note:
  10:Generated_Source\PSoC4/ADC_SAR_Seq_1.c **** *
  11:Generated_Source\PSoC4/ADC_SAR_Seq_1.c **** ********************************************************************************
  12:Generated_Source\PSoC4/ADC_SAR_Seq_1.c **** * Copyright 2008-2017, Cypress Semiconductor Corporation.  All rights reserved.
  13:Generated_Source\PSoC4/ADC_SAR_Seq_1.c **** * You may use this file only in accordance with the license, terms, conditions,
  14:Generated_Source\PSoC4/ADC_SAR_Seq_1.c **** * disclaimers, and limitations in the end user license agreement accompanying
  15:Generated_Source\PSoC4/ADC_SAR_Seq_1.c **** * the software package with which this file was provided.
  16:Generated_Source\PSoC4/ADC_SAR_Seq_1.c **** *******************************************************************************/
  17:Generated_Source\PSoC4/ADC_SAR_Seq_1.c **** 
  18:Generated_Source\PSoC4/ADC_SAR_Seq_1.c **** #include "ADC_SAR_Seq_1.h"
  19:Generated_Source\PSoC4/ADC_SAR_Seq_1.c **** 
  20:Generated_Source\PSoC4/ADC_SAR_Seq_1.c **** 
  21:Generated_Source\PSoC4/ADC_SAR_Seq_1.c **** /***************************************
  22:Generated_Source\PSoC4/ADC_SAR_Seq_1.c **** * Global data allocation
  23:Generated_Source\PSoC4/ADC_SAR_Seq_1.c **** ***************************************/
  24:Generated_Source\PSoC4/ADC_SAR_Seq_1.c **** uint8 ADC_SAR_Seq_1_initVar = 0u;
  25:Generated_Source\PSoC4/ADC_SAR_Seq_1.c **** volatile int16 ADC_SAR_Seq_1_offset[ADC_SAR_Seq_1_TOTAL_CHANNELS_NUM];
  26:Generated_Source\PSoC4/ADC_SAR_Seq_1.c **** volatile int32 ADC_SAR_Seq_1_countsPer10Volt[ADC_SAR_Seq_1_TOTAL_CHANNELS_NUM];   /* Gain compensat
  27:Generated_Source\PSoC4/ADC_SAR_Seq_1.c **** 
  28:Generated_Source\PSoC4/ADC_SAR_Seq_1.c **** 
  29:Generated_Source\PSoC4/ADC_SAR_Seq_1.c **** /***************************************
  30:Generated_Source\PSoC4/ADC_SAR_Seq_1.c **** * Local data allocation
ARM GAS  C:\Users\Austcha\AppData\Local\Temp\ccLjoqH7.s 			page 2


  31:Generated_Source\PSoC4/ADC_SAR_Seq_1.c **** ***************************************/
  32:Generated_Source\PSoC4/ADC_SAR_Seq_1.c **** /* Channels configuration generated by customiser */
  33:Generated_Source\PSoC4/ADC_SAR_Seq_1.c **** static const uint32 CYCODE ADC_SAR_Seq_1_channelsConfig[] = { 0x00000000u };
  34:Generated_Source\PSoC4/ADC_SAR_Seq_1.c **** 
  35:Generated_Source\PSoC4/ADC_SAR_Seq_1.c **** 
  36:Generated_Source\PSoC4/ADC_SAR_Seq_1.c **** /*******************************************************************************
  37:Generated_Source\PSoC4/ADC_SAR_Seq_1.c **** * Function Name: ADC_SAR_Seq_1_Start
  38:Generated_Source\PSoC4/ADC_SAR_Seq_1.c **** ********************************************************************************
  39:Generated_Source\PSoC4/ADC_SAR_Seq_1.c **** *
  40:Generated_Source\PSoC4/ADC_SAR_Seq_1.c **** * Summary:
  41:Generated_Source\PSoC4/ADC_SAR_Seq_1.c **** *  Performs all required initialization for this component
  42:Generated_Source\PSoC4/ADC_SAR_Seq_1.c **** *  and enables the power. The power will be set to the appropriate
  43:Generated_Source\PSoC4/ADC_SAR_Seq_1.c **** *  power based on the clock frequency.
  44:Generated_Source\PSoC4/ADC_SAR_Seq_1.c **** *
  45:Generated_Source\PSoC4/ADC_SAR_Seq_1.c **** * Parameters:
  46:Generated_Source\PSoC4/ADC_SAR_Seq_1.c **** *  None.
  47:Generated_Source\PSoC4/ADC_SAR_Seq_1.c **** *
  48:Generated_Source\PSoC4/ADC_SAR_Seq_1.c **** * Return:
  49:Generated_Source\PSoC4/ADC_SAR_Seq_1.c **** *  None.
  50:Generated_Source\PSoC4/ADC_SAR_Seq_1.c **** *
  51:Generated_Source\PSoC4/ADC_SAR_Seq_1.c **** * Global variables:
  52:Generated_Source\PSoC4/ADC_SAR_Seq_1.c **** *  The ADC_SAR_Seq_1_initVar variable is used to indicate when/if initial
  53:Generated_Source\PSoC4/ADC_SAR_Seq_1.c **** *  configuration of this component has happened. The variable is initialized to
  54:Generated_Source\PSoC4/ADC_SAR_Seq_1.c **** *  zero and set to 1 the first time ADC_Start() is called. This allows for
  55:Generated_Source\PSoC4/ADC_SAR_Seq_1.c **** *  component Re-Start without re-initialization in all subsequent calls to the
  56:Generated_Source\PSoC4/ADC_SAR_Seq_1.c **** *  ADC_SAR_Seq_1_Start() routine.
  57:Generated_Source\PSoC4/ADC_SAR_Seq_1.c **** *  If re-initialization of the component is required the variable should be set
  58:Generated_Source\PSoC4/ADC_SAR_Seq_1.c **** *  to zero before call of ADC_SAR_Seq_1_Start() routine, or the user may call
  59:Generated_Source\PSoC4/ADC_SAR_Seq_1.c **** *  ADC_SAR_Seq_1_Init() and ADC_SAR_Seq_1_Enable() as done in the
  60:Generated_Source\PSoC4/ADC_SAR_Seq_1.c **** *  ADC_SAR_Seq_1_Start() routine.
  61:Generated_Source\PSoC4/ADC_SAR_Seq_1.c **** *
  62:Generated_Source\PSoC4/ADC_SAR_Seq_1.c **** *******************************************************************************/
  63:Generated_Source\PSoC4/ADC_SAR_Seq_1.c **** void ADC_SAR_Seq_1_Start(void)
  64:Generated_Source\PSoC4/ADC_SAR_Seq_1.c **** {
  65:Generated_Source\PSoC4/ADC_SAR_Seq_1.c ****     /* If not Initialized then initialize all required hardware and software */
  66:Generated_Source\PSoC4/ADC_SAR_Seq_1.c ****     if(ADC_SAR_Seq_1_initVar == 0u)
  67:Generated_Source\PSoC4/ADC_SAR_Seq_1.c ****     {
  68:Generated_Source\PSoC4/ADC_SAR_Seq_1.c ****         ADC_SAR_Seq_1_Init();
  69:Generated_Source\PSoC4/ADC_SAR_Seq_1.c ****         ADC_SAR_Seq_1_initVar = 1u;
  70:Generated_Source\PSoC4/ADC_SAR_Seq_1.c ****     }
  71:Generated_Source\PSoC4/ADC_SAR_Seq_1.c ****     ADC_SAR_Seq_1_Enable();
  72:Generated_Source\PSoC4/ADC_SAR_Seq_1.c **** }
  73:Generated_Source\PSoC4/ADC_SAR_Seq_1.c **** 
  74:Generated_Source\PSoC4/ADC_SAR_Seq_1.c **** 
  75:Generated_Source\PSoC4/ADC_SAR_Seq_1.c **** /*******************************************************************************
  76:Generated_Source\PSoC4/ADC_SAR_Seq_1.c **** * Function Name: ADC_SAR_Seq_1_Init
  77:Generated_Source\PSoC4/ADC_SAR_Seq_1.c **** ********************************************************************************
  78:Generated_Source\PSoC4/ADC_SAR_Seq_1.c **** *
  79:Generated_Source\PSoC4/ADC_SAR_Seq_1.c **** * Summary:
  80:Generated_Source\PSoC4/ADC_SAR_Seq_1.c **** *  Initialize component's parameters to the parameters set by user in the
  81:Generated_Source\PSoC4/ADC_SAR_Seq_1.c **** *  customizer of the component placed onto schematic. Usually called in
  82:Generated_Source\PSoC4/ADC_SAR_Seq_1.c **** *  ADC_SAR_Seq_1_Start().
  83:Generated_Source\PSoC4/ADC_SAR_Seq_1.c **** *
  84:Generated_Source\PSoC4/ADC_SAR_Seq_1.c **** * Parameters:
  85:Generated_Source\PSoC4/ADC_SAR_Seq_1.c **** *  None.
  86:Generated_Source\PSoC4/ADC_SAR_Seq_1.c **** *
  87:Generated_Source\PSoC4/ADC_SAR_Seq_1.c **** * Return:
ARM GAS  C:\Users\Austcha\AppData\Local\Temp\ccLjoqH7.s 			page 3


  88:Generated_Source\PSoC4/ADC_SAR_Seq_1.c **** *  None.
  89:Generated_Source\PSoC4/ADC_SAR_Seq_1.c **** *
  90:Generated_Source\PSoC4/ADC_SAR_Seq_1.c **** * Global variables:
  91:Generated_Source\PSoC4/ADC_SAR_Seq_1.c **** *  The ADC_SAR_Seq_1_offset variable is initialized.
  92:Generated_Source\PSoC4/ADC_SAR_Seq_1.c **** *
  93:Generated_Source\PSoC4/ADC_SAR_Seq_1.c **** *******************************************************************************/
  94:Generated_Source\PSoC4/ADC_SAR_Seq_1.c **** void ADC_SAR_Seq_1_Init(void)
  95:Generated_Source\PSoC4/ADC_SAR_Seq_1.c **** {
  28              		.loc 1 95 0
  29              		.cfi_startproc
  30              		@ args = 0, pretend = 0, frame = 0
  31              		@ frame_needed = 0, uses_anonymous_args = 0
  32 0000 10B5     		push	{r4, lr}
  33              		.cfi_def_cfa_offset 8
  34              		.cfi_offset 4, -8
  35              		.cfi_offset 14, -4
  96:Generated_Source\PSoC4/ADC_SAR_Seq_1.c ****     uint32 chNum;
  97:Generated_Source\PSoC4/ADC_SAR_Seq_1.c ****     uint32 tmpRegVal;
  98:Generated_Source\PSoC4/ADC_SAR_Seq_1.c ****     int32 counts;
  99:Generated_Source\PSoC4/ADC_SAR_Seq_1.c **** 
 100:Generated_Source\PSoC4/ADC_SAR_Seq_1.c ****     #if(ADC_SAR_Seq_1_TOTAL_CHANNELS_NUM > 1u)
 101:Generated_Source\PSoC4/ADC_SAR_Seq_1.c ****         static const uint8 CYCODE ADC_SAR_Seq_1_InputsPlacement[] =
 102:Generated_Source\PSoC4/ADC_SAR_Seq_1.c ****         {
 103:Generated_Source\PSoC4/ADC_SAR_Seq_1.c ****             (uint8)(ADC_SAR_Seq_1_cy_psoc4_sarmux_8__CH_0_PORT << 4u) |
 104:Generated_Source\PSoC4/ADC_SAR_Seq_1.c ****             (uint8)ADC_SAR_Seq_1_cy_psoc4_sarmux_8__CH_0_PIN
 105:Generated_Source\PSoC4/ADC_SAR_Seq_1.c ****             ,(uint8)(ADC_SAR_Seq_1_cy_psoc4_sarmux_8__CH_1_PORT << 4u) |
 106:Generated_Source\PSoC4/ADC_SAR_Seq_1.c ****              (uint8)ADC_SAR_Seq_1_cy_psoc4_sarmux_8__CH_1_PIN
 107:Generated_Source\PSoC4/ADC_SAR_Seq_1.c ****             #if(ADC_SAR_Seq_1_TOTAL_CHANNELS_NUM > 2u)
 108:Generated_Source\PSoC4/ADC_SAR_Seq_1.c ****                 ,(uint8)(ADC_SAR_Seq_1_cy_psoc4_sarmux_8__CH_2_PORT << 4u) |
 109:Generated_Source\PSoC4/ADC_SAR_Seq_1.c ****                  (uint8)ADC_SAR_Seq_1_cy_psoc4_sarmux_8__CH_2_PIN
 110:Generated_Source\PSoC4/ADC_SAR_Seq_1.c ****             #endif /* End ADC_SAR_Seq_1_TOTAL_CHANNELS_NUM > 2u */
 111:Generated_Source\PSoC4/ADC_SAR_Seq_1.c ****             #if(ADC_SAR_Seq_1_TOTAL_CHANNELS_NUM > 3u)
 112:Generated_Source\PSoC4/ADC_SAR_Seq_1.c ****                 ,(uint8)(ADC_SAR_Seq_1_cy_psoc4_sarmux_8__CH_3_PORT << 4u) |
 113:Generated_Source\PSoC4/ADC_SAR_Seq_1.c ****                  (uint8)ADC_SAR_Seq_1_cy_psoc4_sarmux_8__CH_3_PIN
 114:Generated_Source\PSoC4/ADC_SAR_Seq_1.c ****             #endif /* End ADC_SAR_Seq_1_TOTAL_CHANNELS_NUM > 3u */
 115:Generated_Source\PSoC4/ADC_SAR_Seq_1.c ****             #if(ADC_SAR_Seq_1_TOTAL_CHANNELS_NUM > 4u)
 116:Generated_Source\PSoC4/ADC_SAR_Seq_1.c ****                 ,(uint8)(ADC_SAR_Seq_1_cy_psoc4_sarmux_8__CH_4_PORT << 4u) |
 117:Generated_Source\PSoC4/ADC_SAR_Seq_1.c ****                  (uint8)ADC_SAR_Seq_1_cy_psoc4_sarmux_8__CH_4_PIN
 118:Generated_Source\PSoC4/ADC_SAR_Seq_1.c ****             #endif /* End ADC_SAR_Seq_1_TOTAL_CHANNELS_NUM > 4u */
 119:Generated_Source\PSoC4/ADC_SAR_Seq_1.c ****             #if(ADC_SAR_Seq_1_TOTAL_CHANNELS_NUM > 5u)
 120:Generated_Source\PSoC4/ADC_SAR_Seq_1.c ****                 ,(uint8)(ADC_SAR_Seq_1_cy_psoc4_sarmux_8__CH_5_PORT << 4u) |
 121:Generated_Source\PSoC4/ADC_SAR_Seq_1.c ****                  (uint8)ADC_SAR_Seq_1_cy_psoc4_sarmux_8__CH_5_PIN
 122:Generated_Source\PSoC4/ADC_SAR_Seq_1.c ****             #endif /* End ADC_SAR_Seq_1_TOTAL_CHANNELS_NUM > 5u */
 123:Generated_Source\PSoC4/ADC_SAR_Seq_1.c ****             #if(ADC_SAR_Seq_1_TOTAL_CHANNELS_NUM > 6u)
 124:Generated_Source\PSoC4/ADC_SAR_Seq_1.c ****                 ,(uint8)(ADC_SAR_Seq_1_cy_psoc4_sarmux_8__CH_6_PORT << 4u) |
 125:Generated_Source\PSoC4/ADC_SAR_Seq_1.c ****                  (uint8)ADC_SAR_Seq_1_cy_psoc4_sarmux_8__CH_6_PIN
 126:Generated_Source\PSoC4/ADC_SAR_Seq_1.c ****             #endif /* End ADC_SAR_Seq_1_TOTAL_CHANNELS_NUM > 6u */
 127:Generated_Source\PSoC4/ADC_SAR_Seq_1.c ****             #if(ADC_SAR_Seq_1_TOTAL_CHANNELS_NUM > 7u)
 128:Generated_Source\PSoC4/ADC_SAR_Seq_1.c ****                 ,(uint8)(ADC_SAR_Seq_1_cy_psoc4_sarmux_8__CH_7_PORT << 4u) |
 129:Generated_Source\PSoC4/ADC_SAR_Seq_1.c ****                  (uint8)ADC_SAR_Seq_1_cy_psoc4_sarmux_8__CH_7_PIN
 130:Generated_Source\PSoC4/ADC_SAR_Seq_1.c ****             #endif /* End ADC_SAR_Seq_1_TOTAL_CHANNELS_NUM > 7u */
 131:Generated_Source\PSoC4/ADC_SAR_Seq_1.c ****             #if(ADC_SAR_Seq_1_TOTAL_CHANNELS_NUM > 8u)
 132:Generated_Source\PSoC4/ADC_SAR_Seq_1.c ****                 ,(uint8)(ADC_SAR_Seq_1_cy_psoc4_sarmux_8__CH_8_PORT << 4u) |
 133:Generated_Source\PSoC4/ADC_SAR_Seq_1.c ****                  (uint8)ADC_SAR_Seq_1_cy_psoc4_sarmux_8__CH_8_PIN
 134:Generated_Source\PSoC4/ADC_SAR_Seq_1.c ****             #endif /* End ADC_SAR_Seq_1_TOTAL_CHANNELS_NUM > 8u */
 135:Generated_Source\PSoC4/ADC_SAR_Seq_1.c ****             #if(ADC_SAR_Seq_1_TOTAL_CHANNELS_NUM > 9u)
 136:Generated_Source\PSoC4/ADC_SAR_Seq_1.c ****                 ,(uint8)(ADC_SAR_Seq_1_cy_psoc4_sarmux_8__CH_9_PORT << 4u) |
ARM GAS  C:\Users\Austcha\AppData\Local\Temp\ccLjoqH7.s 			page 4


 137:Generated_Source\PSoC4/ADC_SAR_Seq_1.c ****                  (uint8)ADC_SAR_Seq_1_cy_psoc4_sarmux_8__CH_9_PIN
 138:Generated_Source\PSoC4/ADC_SAR_Seq_1.c ****             #endif /* End ADC_SAR_Seq_1_TOTAL_CHANNELS_NUM > 9u */
 139:Generated_Source\PSoC4/ADC_SAR_Seq_1.c ****             #if(ADC_SAR_Seq_1_TOTAL_CHANNELS_NUM > 10u)
 140:Generated_Source\PSoC4/ADC_SAR_Seq_1.c ****                 ,(uint8)(ADC_SAR_Seq_1_cy_psoc4_sarmux_8__CH_10_PORT << 4u) |
 141:Generated_Source\PSoC4/ADC_SAR_Seq_1.c ****                  (uint8)ADC_SAR_Seq_1_cy_psoc4_sarmux_8__CH_10_PIN
 142:Generated_Source\PSoC4/ADC_SAR_Seq_1.c ****             #endif /* End ADC_SAR_Seq_1_TOTAL_CHANNELS_NUM > 10u */
 143:Generated_Source\PSoC4/ADC_SAR_Seq_1.c ****             #if(ADC_SAR_Seq_1_TOTAL_CHANNELS_NUM > 11u)
 144:Generated_Source\PSoC4/ADC_SAR_Seq_1.c ****                 ,(uint8)(ADC_SAR_Seq_1_cy_psoc4_sarmux_8__CH_11_PORT << 4u) |
 145:Generated_Source\PSoC4/ADC_SAR_Seq_1.c ****                  (uint8)ADC_SAR_Seq_1_cy_psoc4_sarmux_8__CH_11_PIN
 146:Generated_Source\PSoC4/ADC_SAR_Seq_1.c ****             #endif /* End ADC_SAR_Seq_1_TOTAL_CHANNELS_NUM > 11u */
 147:Generated_Source\PSoC4/ADC_SAR_Seq_1.c ****             #if(ADC_SAR_Seq_1_TOTAL_CHANNELS_NUM > 12u)
 148:Generated_Source\PSoC4/ADC_SAR_Seq_1.c ****                 ,(uint8)(ADC_SAR_Seq_1_cy_psoc4_sarmux_8__CH_12_PORT << 4u) |
 149:Generated_Source\PSoC4/ADC_SAR_Seq_1.c ****                  (uint8)ADC_SAR_Seq_1_cy_psoc4_sarmux_8__CH_12_PIN
 150:Generated_Source\PSoC4/ADC_SAR_Seq_1.c ****             #endif /* End ADC_SAR_Seq_1_TOTAL_CHANNELS_NUM > 12u */
 151:Generated_Source\PSoC4/ADC_SAR_Seq_1.c ****             #if(ADC_SAR_Seq_1_TOTAL_CHANNELS_NUM > 13u)
 152:Generated_Source\PSoC4/ADC_SAR_Seq_1.c ****                 ,(uint8)(ADC_SAR_Seq_1_cy_psoc4_sarmux_8__CH_13_PORT << 4u) |
 153:Generated_Source\PSoC4/ADC_SAR_Seq_1.c ****                  (uint8)ADC_SAR_Seq_1_cy_psoc4_sarmux_8__CH_13_PIN
 154:Generated_Source\PSoC4/ADC_SAR_Seq_1.c ****             #endif /* End ADC_SAR_Seq_1_TOTAL_CHANNELS_NUM > 13u */
 155:Generated_Source\PSoC4/ADC_SAR_Seq_1.c ****             #if(ADC_SAR_Seq_1_TOTAL_CHANNELS_NUM > 14u)
 156:Generated_Source\PSoC4/ADC_SAR_Seq_1.c ****                 ,(uint8)(ADC_SAR_Seq_1_cy_psoc4_sarmux_8__CH_14_PORT << 4u) |
 157:Generated_Source\PSoC4/ADC_SAR_Seq_1.c ****                  (uint8)ADC_SAR_Seq_1_cy_psoc4_sarmux_8__CH_14_PIN
 158:Generated_Source\PSoC4/ADC_SAR_Seq_1.c ****             #endif /* End ADC_SAR_Seq_1_TOTAL_CHANNELS_NUM > 14u */
 159:Generated_Source\PSoC4/ADC_SAR_Seq_1.c ****             #if(ADC_SAR_Seq_1_TOTAL_CHANNELS_NUM > 15u)
 160:Generated_Source\PSoC4/ADC_SAR_Seq_1.c ****                 ,(uint8)(ADC_SAR_Seq_1_cy_psoc4_sarmux_8__CH_15_PORT << 4u) |
 161:Generated_Source\PSoC4/ADC_SAR_Seq_1.c ****                  (uint8)ADC_SAR_Seq_1_cy_psoc4_sarmux_8__CH_15_PIN
 162:Generated_Source\PSoC4/ADC_SAR_Seq_1.c ****             #endif /* End ADC_SAR_Seq_1_TOTAL_CHANNELS_NUM > 15u */
 163:Generated_Source\PSoC4/ADC_SAR_Seq_1.c ****             #if(ADC_SAR_Seq_1_TOTAL_CHANNELS_NUM > 16u)
 164:Generated_Source\PSoC4/ADC_SAR_Seq_1.c ****                 ,(uint8)(ADC_SAR_Seq_1_cy_psoc4_sarmux_8__CH_16_PORT << 4u) |
 165:Generated_Source\PSoC4/ADC_SAR_Seq_1.c ****                  (uint8)ADC_SAR_Seq_1_cy_psoc4_sarmux_8__CH_16_PIN
 166:Generated_Source\PSoC4/ADC_SAR_Seq_1.c ****             #endif /* End ADC_SAR_Seq_1_TOTAL_CHANNELS_NUM > 16u */
 167:Generated_Source\PSoC4/ADC_SAR_Seq_1.c ****         };
 168:Generated_Source\PSoC4/ADC_SAR_Seq_1.c ****     #endif /* End ADC_SAR_Seq_1_TOTAL_CHANNELS_NUM > 1u */
 169:Generated_Source\PSoC4/ADC_SAR_Seq_1.c **** 
 170:Generated_Source\PSoC4/ADC_SAR_Seq_1.c ****     #if(ADC_SAR_Seq_1_IRQ_REMOVE == 0u)
 171:Generated_Source\PSoC4/ADC_SAR_Seq_1.c ****         /* Start and set interrupt vector */
 172:Generated_Source\PSoC4/ADC_SAR_Seq_1.c ****         CyIntSetPriority(ADC_SAR_Seq_1_INTC_NUMBER, ADC_SAR_Seq_1_INTC_PRIOR_NUMBER);
  36              		.loc 1 172 0
  37 0002 0321     		movs	r1, #3
  38 0004 1120     		movs	r0, #17
  39 0006 FFF7FEFF 		bl	CyIntSetPriority
  40              	.LVL0:
 173:Generated_Source\PSoC4/ADC_SAR_Seq_1.c ****         (void)CyIntSetVector(ADC_SAR_Seq_1_INTC_NUMBER, &ADC_SAR_Seq_1_ISR);
  41              		.loc 1 173 0
  42 000a 2349     		ldr	r1, .L6
  43 000c 1120     		movs	r0, #17
  44 000e FFF7FEFF 		bl	CyIntSetVector
  45              	.LVL1:
 174:Generated_Source\PSoC4/ADC_SAR_Seq_1.c ****     #endif   /* End ADC_SAR_Seq_1_IRQ_REMOVE */
 175:Generated_Source\PSoC4/ADC_SAR_Seq_1.c **** 
 176:Generated_Source\PSoC4/ADC_SAR_Seq_1.c ****     /* Init SAR and MUX registers */
 177:Generated_Source\PSoC4/ADC_SAR_Seq_1.c ****     ADC_SAR_Seq_1_SAR_CHAN_EN_REG = ADC_SAR_Seq_1_DEFAULT_EN_CHANNELS;
  46              		.loc 1 177 0
  47 0012 0122     		movs	r2, #1
  48 0014 214B     		ldr	r3, .L6+4
  49 0016 1A60     		str	r2, [r3]
 178:Generated_Source\PSoC4/ADC_SAR_Seq_1.c ****     ADC_SAR_Seq_1_SAR_CTRL_REG |= ADC_SAR_Seq_1_DEFAULT_CTRL_REG_CFG | 
 179:Generated_Source\PSoC4/ADC_SAR_Seq_1.c ****         /* Enable the SAR internal pump when global pump is enabled */
ARM GAS  C:\Users\Austcha\AppData\Local\Temp\ccLjoqH7.s 			page 5


 180:Generated_Source\PSoC4/ADC_SAR_Seq_1.c ****         (((ADC_SAR_Seq_1_PUMP_CTRL_REG & ADC_SAR_Seq_1_PUMP_CTRL_ENABLED) != 0u) ? 
  50              		.loc 1 180 0
  51 0018 214B     		ldr	r3, .L6+8
  52 001a 1B68     		ldr	r3, [r3]
 178:Generated_Source\PSoC4/ADC_SAR_Seq_1.c ****     ADC_SAR_Seq_1_SAR_CTRL_REG |= ADC_SAR_Seq_1_DEFAULT_CTRL_REG_CFG | 
  53              		.loc 1 178 0
  54 001c 002B     		cmp	r3, #0
  55 001e 01DA     		bge	.L5
  56 0020 2049     		ldr	r1, .L6+12
  57 0022 00E0     		b	.L2
  58              	.L5:
  59 0024 2049     		ldr	r1, .L6+16
  60              	.L2:
 178:Generated_Source\PSoC4/ADC_SAR_Seq_1.c ****     ADC_SAR_Seq_1_SAR_CTRL_REG |= ADC_SAR_Seq_1_DEFAULT_CTRL_REG_CFG | 
  61              		.loc 1 178 0 is_stmt 0 discriminator 4
  62 0026 214A     		ldr	r2, .L6+20
  63 0028 1368     		ldr	r3, [r2]
  64 002a 0B43     		orrs	r3, r1
  65 002c 1360     		str	r3, [r2]
 181:Generated_Source\PSoC4/ADC_SAR_Seq_1.c ****         ADC_SAR_Seq_1_BOOSTPUMP_EN : 0u);
 182:Generated_Source\PSoC4/ADC_SAR_Seq_1.c ****     ADC_SAR_Seq_1_SAR_SAMPLE_CTRL_REG = ADC_SAR_Seq_1_DEFAULT_SAMPLE_CTRL_REG_CFG;
  66              		.loc 1 182 0 is_stmt 1 discriminator 4
  67 002e 204A     		ldr	r2, .L6+24
  68 0030 204B     		ldr	r3, .L6+28
  69 0032 1A60     		str	r2, [r3]
 183:Generated_Source\PSoC4/ADC_SAR_Seq_1.c ****     ADC_SAR_Seq_1_SAR_RANGE_THRES_REG = ADC_SAR_Seq_1_DEFAULT_RANGE_THRES_REG_CFG;
  70              		.loc 1 183 0 discriminator 4
  71 0034 204A     		ldr	r2, .L6+32
  72 0036 214B     		ldr	r3, .L6+36
  73 0038 1A60     		str	r2, [r3]
 184:Generated_Source\PSoC4/ADC_SAR_Seq_1.c ****     ADC_SAR_Seq_1_SAR_RANGE_COND_REG  = ADC_SAR_Seq_1_COMPARE_MODE;
  74              		.loc 1 184 0 discriminator 4
  75 003a 0023     		movs	r3, #0
  76 003c 204A     		ldr	r2, .L6+40
  77 003e 1360     		str	r3, [r2]
 185:Generated_Source\PSoC4/ADC_SAR_Seq_1.c ****     ADC_SAR_Seq_1_SAR_SAMPLE_TIME01_REG = ADC_SAR_Seq_1_DEFAULT_SAMPLE_TIME01_REG_CFG;
  78              		.loc 1 185 0 discriminator 4
  79 0040 204A     		ldr	r2, .L6+44
  80 0042 2149     		ldr	r1, .L6+48
  81 0044 0A60     		str	r2, [r1]
 186:Generated_Source\PSoC4/ADC_SAR_Seq_1.c ****     ADC_SAR_Seq_1_SAR_SAMPLE_TIME23_REG = ADC_SAR_Seq_1_DEFAULT_SAMPLE_TIME23_REG_CFG;
  82              		.loc 1 186 0 discriminator 4
  83 0046 2149     		ldr	r1, .L6+52
  84 0048 0A60     		str	r2, [r1]
 187:Generated_Source\PSoC4/ADC_SAR_Seq_1.c ****     
 188:Generated_Source\PSoC4/ADC_SAR_Seq_1.c ****     /* Connect Vm to VSSA when even one channel is single-ended or multiple channels configured */
 189:Generated_Source\PSoC4/ADC_SAR_Seq_1.c ****     #if(ADC_SAR_Seq_1_DEFAULT_MUX_SWITCH0 != 0u)
 190:Generated_Source\PSoC4/ADC_SAR_Seq_1.c ****         ADC_SAR_Seq_1_MUX_SWITCH0_REG |= ADC_SAR_Seq_1_DEFAULT_MUX_SWITCH0;
  85              		.loc 1 190 0 discriminator 4
  86 004a 2149     		ldr	r1, .L6+56
  87 004c 0A68     		ldr	r2, [r1]
  88 004e 8020     		movs	r0, #128
  89 0050 4002     		lsls	r0, r0, #9
  90 0052 0243     		orrs	r2, r0
  91 0054 0A60     		str	r2, [r1]
 191:Generated_Source\PSoC4/ADC_SAR_Seq_1.c ****         /* Set MUX_HW_CTRL_VSSA in MUX_SWITCH_HW_CTRL when multiple channels enabled */
 192:Generated_Source\PSoC4/ADC_SAR_Seq_1.c ****         #if(ADC_SAR_Seq_1_TOTAL_CHANNELS_NUM > 1u)
ARM GAS  C:\Users\Austcha\AppData\Local\Temp\ccLjoqH7.s 			page 6


 193:Generated_Source\PSoC4/ADC_SAR_Seq_1.c ****             ADC_SAR_Seq_1_MUX_SWITCH_HW_CTRL_REG |= ADC_SAR_Seq_1_DEFAULT_MUX_SWITCH0;
 194:Generated_Source\PSoC4/ADC_SAR_Seq_1.c ****         #endif /* ADC_SAR_Seq_1_TOTAL_CHANNELS_NUM > 1u */
 195:Generated_Source\PSoC4/ADC_SAR_Seq_1.c ****     #endif /*ADC_SAR_Seq_1_CHANNELS_MODE !=0 */
 196:Generated_Source\PSoC4/ADC_SAR_Seq_1.c **** 
 197:Generated_Source\PSoC4/ADC_SAR_Seq_1.c ****     ADC_SAR_Seq_1_SAR_SATURATE_INTR_MASK_REG = 0u;
  92              		.loc 1 197 0 discriminator 4
  93 0056 1F4A     		ldr	r2, .L6+60
  94 0058 1360     		str	r3, [r2]
 198:Generated_Source\PSoC4/ADC_SAR_Seq_1.c ****     ADC_SAR_Seq_1_SAR_RANGE_INTR_MASK_REG = 0u;
  95              		.loc 1 198 0 discriminator 4
  96 005a 1F4A     		ldr	r2, .L6+64
  97 005c 1360     		str	r3, [r2]
 199:Generated_Source\PSoC4/ADC_SAR_Seq_1.c ****     ADC_SAR_Seq_1_SAR_INTR_MASK_REG = ADC_SAR_Seq_1_SAR_INTR_MASK;
  98              		.loc 1 199 0 discriminator 4
  99 005e 0122     		movs	r2, #1
 100 0060 1E4B     		ldr	r3, .L6+68
 101 0062 1A60     		str	r2, [r3]
 200:Generated_Source\PSoC4/ADC_SAR_Seq_1.c **** 
 201:Generated_Source\PSoC4/ADC_SAR_Seq_1.c ****     #if(ADC_SAR_Seq_1_CY_SAR_IP_VER == ADC_SAR_Seq_1_CY_SAR_IP_VER0)
 202:Generated_Source\PSoC4/ADC_SAR_Seq_1.c ****         ADC_SAR_Seq_1_ANA_TRIM_REG = ADC_SAR_Seq_1_TRIM_COEF;
 203:Generated_Source\PSoC4/ADC_SAR_Seq_1.c ****     #endif /* (ADC_SAR_Seq_1_CY_SAR_IP_VER == ADC_SAR_Seq_1_CY_SAR_IP_VER0) */
 204:Generated_Source\PSoC4/ADC_SAR_Seq_1.c **** 
 205:Generated_Source\PSoC4/ADC_SAR_Seq_1.c ****     /* Read and modify default configuration based on characterization */
 206:Generated_Source\PSoC4/ADC_SAR_Seq_1.c ****     tmpRegVal = ADC_SAR_Seq_1_SAR_DFT_CTRL_REG;
 102              		.loc 1 206 0 discriminator 4
 103 0064 1E4A     		ldr	r2, .L6+72
 104 0066 1168     		ldr	r1, [r2]
 105              	.LVL2:
 106 0068 1E4B     		ldr	r3, .L6+76
 107 006a 0B40     		ands	r3, r1
 207:Generated_Source\PSoC4/ADC_SAR_Seq_1.c ****     tmpRegVal &= (uint32)~ADC_SAR_Seq_1_DCEN;
 208:Generated_Source\PSoC4/ADC_SAR_Seq_1.c ****     
 209:Generated_Source\PSoC4/ADC_SAR_Seq_1.c ****     #if(ADC_SAR_Seq_1_CY_SAR_IP_VER == ADC_SAR_Seq_1_CY_SAR_IP_VER0)
 210:Generated_Source\PSoC4/ADC_SAR_Seq_1.c ****         #if(ADC_SAR_Seq_1_NOMINAL_CLOCK_FREQ > (ADC_SAR_Seq_1_MAX_FREQUENCY / 2))
 211:Generated_Source\PSoC4/ADC_SAR_Seq_1.c ****             tmpRegVal |= ADC_SAR_Seq_1_SEL_CSEL_DFT_CHAR;
 212:Generated_Source\PSoC4/ADC_SAR_Seq_1.c ****         #else  /* clock speed < 9 Mhz */
 213:Generated_Source\PSoC4/ADC_SAR_Seq_1.c ****             tmpRegVal |= ADC_SAR_Seq_1_DLY_INC;
 214:Generated_Source\PSoC4/ADC_SAR_Seq_1.c ****         #endif /* clock speed > 9 Mhz */
 215:Generated_Source\PSoC4/ADC_SAR_Seq_1.c ****     #else
 216:Generated_Source\PSoC4/ADC_SAR_Seq_1.c ****         #if ((ADC_SAR_Seq_1_DEFAULT_VREF_SEL == ADC_SAR_Seq_1__INTERNAL1024) || \
 217:Generated_Source\PSoC4/ADC_SAR_Seq_1.c ****              (ADC_SAR_Seq_1_DEFAULT_VREF_SEL == ADC_SAR_Seq_1__INTERNALVREF))
 218:Generated_Source\PSoC4/ADC_SAR_Seq_1.c ****             tmpRegVal |= ADC_SAR_Seq_1_DLY_INC;
 219:Generated_Source\PSoC4/ADC_SAR_Seq_1.c ****         #else
 220:Generated_Source\PSoC4/ADC_SAR_Seq_1.c ****             tmpRegVal |= ADC_SAR_Seq_1_DCEN;
 221:Generated_Source\PSoC4/ADC_SAR_Seq_1.c ****             tmpRegVal &= (uint32)~ADC_SAR_Seq_1_DLY_INC;
 108              		.loc 1 221 0 discriminator 4
 109 006c 8021     		movs	r1, #128
 110              	.LVL3:
 111 006e 8905     		lsls	r1, r1, #22
 112 0070 0B43     		orrs	r3, r1
 113              	.LVL4:
 222:Generated_Source\PSoC4/ADC_SAR_Seq_1.c ****         #endif /* ((ADC_SAR_Seq_1_DEFAULT_VREF_SEL == ADC_SAR_Seq_1__INTERNAL1024) || \
 223:Generated_Source\PSoC4/ADC_SAR_Seq_1.c ****                    (ADC_SAR_Seq_1_DEFAULT_VREF_SEL == ADC_SAR_Seq_1__INTERNALVREF)) */
 224:Generated_Source\PSoC4/ADC_SAR_Seq_1.c ****     #endif /* (ADC_SAR_Seq_1_CY_SAR_IP_VER == ADC_SAR_Seq_1_CY_SAR_IP_VER0) */
 225:Generated_Source\PSoC4/ADC_SAR_Seq_1.c ****     
 226:Generated_Source\PSoC4/ADC_SAR_Seq_1.c ****     ADC_SAR_Seq_1_SAR_DFT_CTRL_REG = tmpRegVal;
 114              		.loc 1 226 0 discriminator 4
ARM GAS  C:\Users\Austcha\AppData\Local\Temp\ccLjoqH7.s 			page 7


 115 0072 1360     		str	r3, [r2]
 116              	.LVL5:
 227:Generated_Source\PSoC4/ADC_SAR_Seq_1.c **** 
 228:Generated_Source\PSoC4/ADC_SAR_Seq_1.c ****     #if(ADC_SAR_Seq_1_MAX_RESOLUTION != ADC_SAR_Seq_1_RESOLUTION_12)
 229:Generated_Source\PSoC4/ADC_SAR_Seq_1.c ****         ADC_SAR_Seq_1_WOUNDING_REG = ADC_SAR_Seq_1_ALT_WOUNDING;
 230:Generated_Source\PSoC4/ADC_SAR_Seq_1.c ****     #endif /* ADC_SAR_Seq_1_MAX_RESOLUTION != ADC_SAR_Seq_1_RESOLUTION_12 */
 231:Generated_Source\PSoC4/ADC_SAR_Seq_1.c **** 
 232:Generated_Source\PSoC4/ADC_SAR_Seq_1.c ****     for(chNum = 0u; chNum < ADC_SAR_Seq_1_TOTAL_CHANNELS_NUM; chNum++)
 117              		.loc 1 232 0 discriminator 4
 118 0074 0023     		movs	r3, #0
 119              	.LVL6:
 120 0076 0BE0     		b	.L3
 121              	.LVL7:
 122              	.L4:
 233:Generated_Source\PSoC4/ADC_SAR_Seq_1.c ****     {
 234:Generated_Source\PSoC4/ADC_SAR_Seq_1.c ****         tmpRegVal = (ADC_SAR_Seq_1_channelsConfig[chNum] & ADC_SAR_Seq_1_CHANNEL_CONFIG_MASK);
 235:Generated_Source\PSoC4/ADC_SAR_Seq_1.c ****         #if(ADC_SAR_Seq_1_TOTAL_CHANNELS_NUM > 1u)
 236:Generated_Source\PSoC4/ADC_SAR_Seq_1.c ****             tmpRegVal |= ADC_SAR_Seq_1_InputsPlacement[chNum];
 237:Generated_Source\PSoC4/ADC_SAR_Seq_1.c ****         #endif /* End ADC_SAR_Seq_1_TOTAL_CHANNELS_NUM > 1u */
 238:Generated_Source\PSoC4/ADC_SAR_Seq_1.c ****         
 239:Generated_Source\PSoC4/ADC_SAR_Seq_1.c ****         
 240:Generated_Source\PSoC4/ADC_SAR_Seq_1.c ****         /* When the part is limited to 10-bit then the SUB_RESOLUTION bit
 241:Generated_Source\PSoC4/ADC_SAR_Seq_1.c ****         *  will be ignored and the RESOLUTION bit selects between 10-bit
 242:Generated_Source\PSoC4/ADC_SAR_Seq_1.c ****         *  (0) and 8-bit (1) resolution.
 243:Generated_Source\PSoC4/ADC_SAR_Seq_1.c ****         */
 244:Generated_Source\PSoC4/ADC_SAR_Seq_1.c ****         #if((ADC_SAR_Seq_1_MAX_RESOLUTION != ADC_SAR_Seq_1_RESOLUTION_12) && \
 245:Generated_Source\PSoC4/ADC_SAR_Seq_1.c ****             (ADC_SAR_Seq_1_ALT_WOUNDING == ADC_SAR_Seq_1_WOUNDING_10BIT))
 246:Generated_Source\PSoC4/ADC_SAR_Seq_1.c ****             tmpRegVal &= (uint32)(~ADC_SAR_Seq_1_ALT_RESOLUTION_ON);
 247:Generated_Source\PSoC4/ADC_SAR_Seq_1.c ****         #endif /* ADC_SAR_Seq_1_MAX_RESOLUTION != ADC_SAR_Seq_1_RESOLUTION_12 */
 248:Generated_Source\PSoC4/ADC_SAR_Seq_1.c **** 
 249:Generated_Source\PSoC4/ADC_SAR_Seq_1.c ****         #if(ADC_SAR_Seq_1_INJ_CHANNEL_ENABLED)
 250:Generated_Source\PSoC4/ADC_SAR_Seq_1.c ****         if(chNum < ADC_SAR_Seq_1_SEQUENCED_CHANNELS_NUM)
 251:Generated_Source\PSoC4/ADC_SAR_Seq_1.c ****         #endif /* ADC_SAR_Seq_1_INJ_CHANNEL_ENABLED */
 252:Generated_Source\PSoC4/ADC_SAR_Seq_1.c ****         {
 253:Generated_Source\PSoC4/ADC_SAR_Seq_1.c ****             CY_SET_REG32((reg32 *)(ADC_SAR_Seq_1_SAR_CHAN_CONFIG_IND + (uint32)(chNum << 2)), tmpRe
 123              		.loc 1 253 0
 124 0078 9A00     		lsls	r2, r3, #2
 125 007a 1B49     		ldr	r1, .L6+80
 126 007c 5018     		adds	r0, r2, r1
 127 007e 0021     		movs	r1, #0
 128 0080 0160     		str	r1, [r0]
 129              	.LVL8:
 254:Generated_Source\PSoC4/ADC_SAR_Seq_1.c **** 
 255:Generated_Source\PSoC4/ADC_SAR_Seq_1.c ****             if((ADC_SAR_Seq_1_channelsConfig[chNum] & ADC_SAR_Seq_1_IS_SATURATE_EN_MASK) != 0u)
 256:Generated_Source\PSoC4/ADC_SAR_Seq_1.c ****             {
 257:Generated_Source\PSoC4/ADC_SAR_Seq_1.c ****                 ADC_SAR_Seq_1_SAR_SATURATE_INTR_MASK_REG |= (uint16)((uint16)1 << chNum);
 258:Generated_Source\PSoC4/ADC_SAR_Seq_1.c ****             }
 259:Generated_Source\PSoC4/ADC_SAR_Seq_1.c **** 
 260:Generated_Source\PSoC4/ADC_SAR_Seq_1.c ****             if((ADC_SAR_Seq_1_channelsConfig[chNum] & ADC_SAR_Seq_1_IS_RANGE_CTRL_EN_MASK) != 0u)
 261:Generated_Source\PSoC4/ADC_SAR_Seq_1.c ****             {
 262:Generated_Source\PSoC4/ADC_SAR_Seq_1.c ****                 ADC_SAR_Seq_1_SAR_RANGE_INTR_MASK_REG |= (uint16)((uint16)1 << chNum);
 263:Generated_Source\PSoC4/ADC_SAR_Seq_1.c ****             }
 264:Generated_Source\PSoC4/ADC_SAR_Seq_1.c ****         }
 265:Generated_Source\PSoC4/ADC_SAR_Seq_1.c ****         #if(ADC_SAR_Seq_1_INJ_CHANNEL_ENABLED)
 266:Generated_Source\PSoC4/ADC_SAR_Seq_1.c ****             else
 267:Generated_Source\PSoC4/ADC_SAR_Seq_1.c ****             {
 268:Generated_Source\PSoC4/ADC_SAR_Seq_1.c ****                 CY_SET_REG32(ADC_SAR_Seq_1_SAR_INJ_CHAN_CONFIG_PTR, tmpRegVal | ADC_SAR_Seq_1_INJ_T
ARM GAS  C:\Users\Austcha\AppData\Local\Temp\ccLjoqH7.s 			page 8


 269:Generated_Source\PSoC4/ADC_SAR_Seq_1.c **** 
 270:Generated_Source\PSoC4/ADC_SAR_Seq_1.c ****                 if((ADC_SAR_Seq_1_channelsConfig[chNum] & ADC_SAR_Seq_1_IS_SATURATE_EN_MASK) != 0u)
 271:Generated_Source\PSoC4/ADC_SAR_Seq_1.c ****                 {
 272:Generated_Source\PSoC4/ADC_SAR_Seq_1.c ****                     ADC_SAR_Seq_1_SAR_INTR_MASK_REG |= ADC_SAR_Seq_1_INJ_SATURATE_MASK;
 273:Generated_Source\PSoC4/ADC_SAR_Seq_1.c ****                 }
 274:Generated_Source\PSoC4/ADC_SAR_Seq_1.c **** 
 275:Generated_Source\PSoC4/ADC_SAR_Seq_1.c ****                 if((ADC_SAR_Seq_1_channelsConfig[chNum] & ADC_SAR_Seq_1_IS_RANGE_CTRL_EN_MASK) != 0
 276:Generated_Source\PSoC4/ADC_SAR_Seq_1.c ****                 {
 277:Generated_Source\PSoC4/ADC_SAR_Seq_1.c ****                     ADC_SAR_Seq_1_SAR_INTR_MASK_REG |= ADC_SAR_Seq_1_INJ_RANGE_MASK;
 278:Generated_Source\PSoC4/ADC_SAR_Seq_1.c ****                 }
 279:Generated_Source\PSoC4/ADC_SAR_Seq_1.c ****             }
 280:Generated_Source\PSoC4/ADC_SAR_Seq_1.c ****         #endif /* ADC_SAR_Seq_1_INJ_CHANNEL_ENABLED */
 281:Generated_Source\PSoC4/ADC_SAR_Seq_1.c **** 
 282:Generated_Source\PSoC4/ADC_SAR_Seq_1.c ****         if((ADC_SAR_Seq_1_channelsConfig[chNum] & ADC_SAR_Seq_1_ALT_RESOLUTION_ON) != 0u)
 283:Generated_Source\PSoC4/ADC_SAR_Seq_1.c ****         {
 284:Generated_Source\PSoC4/ADC_SAR_Seq_1.c ****                counts = (int32)ADC_SAR_Seq_1_DEFAULT_MAX_WRK_ALT;
 285:Generated_Source\PSoC4/ADC_SAR_Seq_1.c ****         }
 286:Generated_Source\PSoC4/ADC_SAR_Seq_1.c ****         else
 287:Generated_Source\PSoC4/ADC_SAR_Seq_1.c ****         {
 288:Generated_Source\PSoC4/ADC_SAR_Seq_1.c ****                counts = (int32)ADC_SAR_Seq_1_SAR_WRK_MAX_12BIT;
 289:Generated_Source\PSoC4/ADC_SAR_Seq_1.c ****         }
 290:Generated_Source\PSoC4/ADC_SAR_Seq_1.c **** 
 291:Generated_Source\PSoC4/ADC_SAR_Seq_1.c ****         if((ADC_SAR_Seq_1_channelsConfig[chNum] & ADC_SAR_Seq_1_DIFFERENTIAL_EN) == 0u)
 292:Generated_Source\PSoC4/ADC_SAR_Seq_1.c ****         {
 293:Generated_Source\PSoC4/ADC_SAR_Seq_1.c ****             #if((ADC_SAR_Seq_1_DEFAULT_SE_RESULT_FORMAT_SEL == ADC_SAR_Seq_1__FSIGNED) && \
 294:Generated_Source\PSoC4/ADC_SAR_Seq_1.c ****                 (ADC_SAR_Seq_1_DEFAULT_NEG_INPUT_SEL == ADC_SAR_Seq_1__VREF))
 295:Generated_Source\PSoC4/ADC_SAR_Seq_1.c ****                 /* Set offset to the minus half scale to convert results to unsigned format */
 296:Generated_Source\PSoC4/ADC_SAR_Seq_1.c ****                 ADC_SAR_Seq_1_offset[chNum] = (int16)(counts / -2);
 297:Generated_Source\PSoC4/ADC_SAR_Seq_1.c ****             #else
 298:Generated_Source\PSoC4/ADC_SAR_Seq_1.c ****                 ADC_SAR_Seq_1_offset[chNum] = 0;
 130              		.loc 1 298 0
 131 0082 5C00     		lsls	r4, r3, #1
 132 0084 1948     		ldr	r0, .L6+84
 133 0086 2152     		strh	r1, [r4, r0]
 299:Generated_Source\PSoC4/ADC_SAR_Seq_1.c ****             #endif /* end DEFAULT_SE_RESULT_FORMAT_SEL == ADC_SAR_Seq_1__FSIGNED */
 300:Generated_Source\PSoC4/ADC_SAR_Seq_1.c ****         }
 301:Generated_Source\PSoC4/ADC_SAR_Seq_1.c ****         else    /* Differential channel */
 302:Generated_Source\PSoC4/ADC_SAR_Seq_1.c ****         {
 303:Generated_Source\PSoC4/ADC_SAR_Seq_1.c ****             #if(ADC_SAR_Seq_1_DEFAULT_DIFF_RESULT_FORMAT_SEL == ADC_SAR_Seq_1__FUNSIGNED)
 304:Generated_Source\PSoC4/ADC_SAR_Seq_1.c ****                 /* Set offset to the half scale to convert results to signed format */
 305:Generated_Source\PSoC4/ADC_SAR_Seq_1.c ****                 ADC_SAR_Seq_1_offset[chNum] = (int16)(counts / 2);
 306:Generated_Source\PSoC4/ADC_SAR_Seq_1.c ****             #else
 307:Generated_Source\PSoC4/ADC_SAR_Seq_1.c ****                 ADC_SAR_Seq_1_offset[chNum] = 0;
 308:Generated_Source\PSoC4/ADC_SAR_Seq_1.c ****             #endif /* end ADC_SAR_Seq_1_DEFAULT_DIFF_RESULT_FORMAT_SEL == ADC_SAR_Seq_1__FUNSIGNED 
 309:Generated_Source\PSoC4/ADC_SAR_Seq_1.c ****         }
 310:Generated_Source\PSoC4/ADC_SAR_Seq_1.c ****         /* Calculate gain in counts per 10 volts with rounding */
 311:Generated_Source\PSoC4/ADC_SAR_Seq_1.c ****         ADC_SAR_Seq_1_countsPer10Volt[chNum] = (int16)(((counts * ADC_SAR_Seq_1_10MV_COUNTS) +
 134              		.loc 1 311 0
 135 0088 1948     		ldr	r0, .L6+88
 136 008a 1A49     		ldr	r1, .L6+92
 137 008c 5050     		str	r0, [r2, r1]
 232:Generated_Source\PSoC4/ADC_SAR_Seq_1.c ****     {
 138              		.loc 1 232 0
 139 008e 0133     		adds	r3, r3, #1
 140              	.LVL9:
 141              	.L3:
 232:Generated_Source\PSoC4/ADC_SAR_Seq_1.c ****     {
ARM GAS  C:\Users\Austcha\AppData\Local\Temp\ccLjoqH7.s 			page 9


 142              		.loc 1 232 0 is_stmt 0 discriminator 1
 143 0090 002B     		cmp	r3, #0
 144 0092 F1D0     		beq	.L4
 312:Generated_Source\PSoC4/ADC_SAR_Seq_1.c ****                             ADC_SAR_Seq_1_DEFAULT_VREF_MV_VALUE) / (ADC_SAR_Seq_1_DEFAULT_VREF_MV_V
 313:Generated_Source\PSoC4/ADC_SAR_Seq_1.c ****     }
 314:Generated_Source\PSoC4/ADC_SAR_Seq_1.c **** }
 145              		.loc 1 314 0 is_stmt 1
 146              		@ sp needed
 147 0094 10BD     		pop	{r4, pc}
 148              	.L7:
 149 0096 C046     		.align	2
 150              	.L6:
 151 0098 00000000 		.word	ADC_SAR_Seq_1_ISR
 152 009c 20003A40 		.word	1077542944
 153 00a0 80033A40 		.word	1077543808
 154 00a4 C0021051 		.word	1360003776
 155 00a8 C0020051 		.word	1358955200
 156 00ac 00003A40 		.word	1077542912
 157 00b0 8C000080 		.word	-2147483508
 158 00b4 04003A40 		.word	1077542916
 159 00b8 0000FF07 		.word	134152192
 160 00bc 18003A40 		.word	1077542936
 161 00c0 1C003A40 		.word	1077542940
 162 00c4 02000200 		.word	131074
 163 00c8 10003A40 		.word	1077542928
 164 00cc 14003A40 		.word	1077542932
 165 00d0 00033A40 		.word	1077543680
 166 00d4 28023A40 		.word	1077543464
 167 00d8 38023A40 		.word	1077543480
 168 00dc 18023A40 		.word	1077543448
 169 00e0 30003A40 		.word	1077542960
 170 00e4 FEFFFFDF 		.word	-536870914
 171 00e8 80003A40 		.word	1077543040
 172 00ec 00000000 		.word	ADC_SAR_Seq_1_offset
 173 00f0 204E0000 		.word	20000
 174 00f4 00000000 		.word	ADC_SAR_Seq_1_countsPer10Volt
 175              		.cfi_endproc
 176              	.LFE2:
 177              		.size	ADC_SAR_Seq_1_Init, .-ADC_SAR_Seq_1_Init
 178              		.section	.text.ADC_SAR_Seq_1_Enable,"ax",%progbits
 179              		.align	2
 180              		.global	ADC_SAR_Seq_1_Enable
 181              		.code	16
 182              		.thumb_func
 183              		.type	ADC_SAR_Seq_1_Enable, %function
 184              	ADC_SAR_Seq_1_Enable:
 185              	.LFB3:
 315:Generated_Source\PSoC4/ADC_SAR_Seq_1.c **** 
 316:Generated_Source\PSoC4/ADC_SAR_Seq_1.c **** /*******************************************************************************
 317:Generated_Source\PSoC4/ADC_SAR_Seq_1.c **** * Function Name: ADC_SAR_1_Enable
 318:Generated_Source\PSoC4/ADC_SAR_Seq_1.c **** ********************************************************************************
 319:Generated_Source\PSoC4/ADC_SAR_Seq_1.c **** *
 320:Generated_Source\PSoC4/ADC_SAR_Seq_1.c **** * Summary:
 321:Generated_Source\PSoC4/ADC_SAR_Seq_1.c **** *  Enables the clock and analog power for SAR ADC.
 322:Generated_Source\PSoC4/ADC_SAR_Seq_1.c **** *
 323:Generated_Source\PSoC4/ADC_SAR_Seq_1.c **** * Parameters:
 324:Generated_Source\PSoC4/ADC_SAR_Seq_1.c **** *  None.
ARM GAS  C:\Users\Austcha\AppData\Local\Temp\ccLjoqH7.s 			page 10


 325:Generated_Source\PSoC4/ADC_SAR_Seq_1.c **** *
 326:Generated_Source\PSoC4/ADC_SAR_Seq_1.c **** * Return:
 327:Generated_Source\PSoC4/ADC_SAR_Seq_1.c **** *  None.
 328:Generated_Source\PSoC4/ADC_SAR_Seq_1.c **** *
 329:Generated_Source\PSoC4/ADC_SAR_Seq_1.c **** *******************************************************************************/
 330:Generated_Source\PSoC4/ADC_SAR_Seq_1.c **** void ADC_SAR_Seq_1_Enable(void)
 331:Generated_Source\PSoC4/ADC_SAR_Seq_1.c **** {
 186              		.loc 1 331 0
 187              		.cfi_startproc
 188              		@ args = 0, pretend = 0, frame = 0
 189              		@ frame_needed = 0, uses_anonymous_args = 0
 190 0000 10B5     		push	{r4, lr}
 191              		.cfi_def_cfa_offset 8
 192              		.cfi_offset 4, -8
 193              		.cfi_offset 14, -4
 332:Generated_Source\PSoC4/ADC_SAR_Seq_1.c ****     if (0u == (ADC_SAR_Seq_1_SAR_CTRL_REG & ADC_SAR_Seq_1_ENABLE))
 194              		.loc 1 332 0
 195 0002 094B     		ldr	r3, .L11
 196 0004 1B68     		ldr	r3, [r3]
 197 0006 002B     		cmp	r3, #0
 198 0008 0CDB     		blt	.L8
 199              	.L10:
 333:Generated_Source\PSoC4/ADC_SAR_Seq_1.c ****     {
 334:Generated_Source\PSoC4/ADC_SAR_Seq_1.c ****         #if(ADC_SAR_Seq_1_CY_SAR_IP_VER != ADC_SAR_Seq_1_CY_SAR_IP_VER0)
 335:Generated_Source\PSoC4/ADC_SAR_Seq_1.c **** 
 336:Generated_Source\PSoC4/ADC_SAR_Seq_1.c ****             while (0u != (ADC_SAR_Seq_1_SAR_STATUS_REG & ADC_SAR_Seq_1_STATUS_BUSY))
 200              		.loc 1 336 0 discriminator 1
 201 000a 084B     		ldr	r3, .L11+4
 202 000c 1B68     		ldr	r3, [r3]
 203 000e 002B     		cmp	r3, #0
 204 0010 FBDB     		blt	.L10
 337:Generated_Source\PSoC4/ADC_SAR_Seq_1.c ****             {
 338:Generated_Source\PSoC4/ADC_SAR_Seq_1.c ****                 /* wait for SAR to go idle to avoid deadlock */
 339:Generated_Source\PSoC4/ADC_SAR_Seq_1.c ****             }
 340:Generated_Source\PSoC4/ADC_SAR_Seq_1.c ****         #endif /* (ADC_SAR_Seq_1_CY_SAR_IP_VER != ADC_SAR_Seq_1_CY_SAR_IP_VER0) */
 341:Generated_Source\PSoC4/ADC_SAR_Seq_1.c ****         
 342:Generated_Source\PSoC4/ADC_SAR_Seq_1.c ****         ADC_SAR_Seq_1_SAR_CTRL_REG |= ADC_SAR_Seq_1_ENABLE;
 205              		.loc 1 342 0
 206 0012 054A     		ldr	r2, .L11
 207 0014 1368     		ldr	r3, [r2]
 208 0016 8021     		movs	r1, #128
 209 0018 0906     		lsls	r1, r1, #24
 210 001a 0B43     		orrs	r3, r1
 211 001c 1360     		str	r3, [r2]
 343:Generated_Source\PSoC4/ADC_SAR_Seq_1.c ****         
 344:Generated_Source\PSoC4/ADC_SAR_Seq_1.c ****         /* The block is ready to use 10 us after the enable signal is set high. */
 345:Generated_Source\PSoC4/ADC_SAR_Seq_1.c ****         CyDelayUs(ADC_SAR_Seq_1_10US_DELAY);         
 212              		.loc 1 345 0
 213 001e 0A20     		movs	r0, #10
 214 0020 FFF7FEFF 		bl	CyDelayUs
 215              	.LVL10:
 216              	.L8:
 346:Generated_Source\PSoC4/ADC_SAR_Seq_1.c ****     }
 347:Generated_Source\PSoC4/ADC_SAR_Seq_1.c **** }
 217              		.loc 1 347 0
 218              		@ sp needed
 219 0024 10BD     		pop	{r4, pc}
ARM GAS  C:\Users\Austcha\AppData\Local\Temp\ccLjoqH7.s 			page 11


 220              	.L12:
 221 0026 C046     		.align	2
 222              	.L11:
 223 0028 00003A40 		.word	1077542912
 224 002c 08023A40 		.word	1077543432
 225              		.cfi_endproc
 226              	.LFE3:
 227              		.size	ADC_SAR_Seq_1_Enable, .-ADC_SAR_Seq_1_Enable
 228              		.section	.text.ADC_SAR_Seq_1_Start,"ax",%progbits
 229              		.align	2
 230              		.global	ADC_SAR_Seq_1_Start
 231              		.code	16
 232              		.thumb_func
 233              		.type	ADC_SAR_Seq_1_Start, %function
 234              	ADC_SAR_Seq_1_Start:
 235              	.LFB1:
  64:Generated_Source\PSoC4/ADC_SAR_Seq_1.c ****     /* If not Initialized then initialize all required hardware and software */
 236              		.loc 1 64 0
 237              		.cfi_startproc
 238              		@ args = 0, pretend = 0, frame = 0
 239              		@ frame_needed = 0, uses_anonymous_args = 0
 240 0000 10B5     		push	{r4, lr}
 241              		.cfi_def_cfa_offset 8
 242              		.cfi_offset 4, -8
 243              		.cfi_offset 14, -4
  66:Generated_Source\PSoC4/ADC_SAR_Seq_1.c ****     {
 244              		.loc 1 66 0
 245 0002 064B     		ldr	r3, .L15
 246 0004 1B78     		ldrb	r3, [r3]
 247 0006 002B     		cmp	r3, #0
 248 0008 04D1     		bne	.L14
  68:Generated_Source\PSoC4/ADC_SAR_Seq_1.c ****         ADC_SAR_Seq_1_initVar = 1u;
 249              		.loc 1 68 0
 250 000a FFF7FEFF 		bl	ADC_SAR_Seq_1_Init
 251              	.LVL11:
  69:Generated_Source\PSoC4/ADC_SAR_Seq_1.c ****     }
 252              		.loc 1 69 0
 253 000e 0122     		movs	r2, #1
 254 0010 024B     		ldr	r3, .L15
 255 0012 1A70     		strb	r2, [r3]
 256              	.L14:
  71:Generated_Source\PSoC4/ADC_SAR_Seq_1.c **** }
 257              		.loc 1 71 0
 258 0014 FFF7FEFF 		bl	ADC_SAR_Seq_1_Enable
 259              	.LVL12:
  72:Generated_Source\PSoC4/ADC_SAR_Seq_1.c **** 
 260              		.loc 1 72 0
 261              		@ sp needed
 262 0018 10BD     		pop	{r4, pc}
 263              	.L16:
 264 001a C046     		.align	2
 265              	.L15:
 266 001c 00000000 		.word	.LANCHOR0
 267              		.cfi_endproc
 268              	.LFE1:
 269              		.size	ADC_SAR_Seq_1_Start, .-ADC_SAR_Seq_1_Start
 270              		.section	.text.ADC_SAR_Seq_1_Stop,"ax",%progbits
ARM GAS  C:\Users\Austcha\AppData\Local\Temp\ccLjoqH7.s 			page 12


 271              		.align	2
 272              		.global	ADC_SAR_Seq_1_Stop
 273              		.code	16
 274              		.thumb_func
 275              		.type	ADC_SAR_Seq_1_Stop, %function
 276              	ADC_SAR_Seq_1_Stop:
 277              	.LFB4:
 348:Generated_Source\PSoC4/ADC_SAR_Seq_1.c **** 
 349:Generated_Source\PSoC4/ADC_SAR_Seq_1.c **** 
 350:Generated_Source\PSoC4/ADC_SAR_Seq_1.c **** /*******************************************************************************
 351:Generated_Source\PSoC4/ADC_SAR_Seq_1.c **** * Function Name: ADC_SAR_Seq_1_Stop
 352:Generated_Source\PSoC4/ADC_SAR_Seq_1.c **** ********************************************************************************
 353:Generated_Source\PSoC4/ADC_SAR_Seq_1.c **** *
 354:Generated_Source\PSoC4/ADC_SAR_Seq_1.c **** * Summary:
 355:Generated_Source\PSoC4/ADC_SAR_Seq_1.c **** *  This function stops ADC conversions and puts the ADC into its lowest power
 356:Generated_Source\PSoC4/ADC_SAR_Seq_1.c **** *  mode.
 357:Generated_Source\PSoC4/ADC_SAR_Seq_1.c **** *
 358:Generated_Source\PSoC4/ADC_SAR_Seq_1.c **** * Parameters:
 359:Generated_Source\PSoC4/ADC_SAR_Seq_1.c **** *  None.
 360:Generated_Source\PSoC4/ADC_SAR_Seq_1.c **** *
 361:Generated_Source\PSoC4/ADC_SAR_Seq_1.c **** * Return:
 362:Generated_Source\PSoC4/ADC_SAR_Seq_1.c **** *  None.
 363:Generated_Source\PSoC4/ADC_SAR_Seq_1.c **** *
 364:Generated_Source\PSoC4/ADC_SAR_Seq_1.c **** *******************************************************************************/
 365:Generated_Source\PSoC4/ADC_SAR_Seq_1.c **** void ADC_SAR_Seq_1_Stop(void)
 366:Generated_Source\PSoC4/ADC_SAR_Seq_1.c **** {
 278              		.loc 1 366 0
 279              		.cfi_startproc
 280              		@ args = 0, pretend = 0, frame = 0
 281              		@ frame_needed = 0, uses_anonymous_args = 0
 282              		@ link register save eliminated.
 367:Generated_Source\PSoC4/ADC_SAR_Seq_1.c ****     ADC_SAR_Seq_1_SAR_CTRL_REG &= (uint32)~ADC_SAR_Seq_1_ENABLE;
 283              		.loc 1 367 0
 284 0000 024A     		ldr	r2, .L18
 285 0002 1368     		ldr	r3, [r2]
 286 0004 5B00     		lsls	r3, r3, #1
 287 0006 5B08     		lsrs	r3, r3, #1
 288 0008 1360     		str	r3, [r2]
 368:Generated_Source\PSoC4/ADC_SAR_Seq_1.c **** }
 289              		.loc 1 368 0
 290              		@ sp needed
 291 000a 7047     		bx	lr
 292              	.L19:
 293              		.align	2
 294              	.L18:
 295 000c 00003A40 		.word	1077542912
 296              		.cfi_endproc
 297              	.LFE4:
 298              		.size	ADC_SAR_Seq_1_Stop, .-ADC_SAR_Seq_1_Stop
 299              		.section	.text.ADC_SAR_Seq_1_StartConvert,"ax",%progbits
 300              		.align	2
 301              		.global	ADC_SAR_Seq_1_StartConvert
 302              		.code	16
 303              		.thumb_func
 304              		.type	ADC_SAR_Seq_1_StartConvert, %function
 305              	ADC_SAR_Seq_1_StartConvert:
 306              	.LFB5:
ARM GAS  C:\Users\Austcha\AppData\Local\Temp\ccLjoqH7.s 			page 13


 369:Generated_Source\PSoC4/ADC_SAR_Seq_1.c **** 
 370:Generated_Source\PSoC4/ADC_SAR_Seq_1.c **** 
 371:Generated_Source\PSoC4/ADC_SAR_Seq_1.c **** /*******************************************************************************
 372:Generated_Source\PSoC4/ADC_SAR_Seq_1.c **** * Function Name: ADC_SAR_Seq_1_StartConvert
 373:Generated_Source\PSoC4/ADC_SAR_Seq_1.c **** ********************************************************************************
 374:Generated_Source\PSoC4/ADC_SAR_Seq_1.c **** *
 375:Generated_Source\PSoC4/ADC_SAR_Seq_1.c **** * Summary:
 376:Generated_Source\PSoC4/ADC_SAR_Seq_1.c **** *  Description:
 377:Generated_Source\PSoC4/ADC_SAR_Seq_1.c **** *  For free running mode, this API starts the conversion process and it
 378:Generated_Source\PSoC4/ADC_SAR_Seq_1.c **** *  runs continuously.
 379:Generated_Source\PSoC4/ADC_SAR_Seq_1.c **** *
 380:Generated_Source\PSoC4/ADC_SAR_Seq_1.c **** *  In a triggered mode, this routine triggers every conversion by
 381:Generated_Source\PSoC4/ADC_SAR_Seq_1.c **** *  writing into the FW_TRIGGER bit in SAR_START_CTRL reg. In triggered mode,
 382:Generated_Source\PSoC4/ADC_SAR_Seq_1.c **** *  every conversion has to start by this API.
 383:Generated_Source\PSoC4/ADC_SAR_Seq_1.c **** *
 384:Generated_Source\PSoC4/ADC_SAR_Seq_1.c **** * Parameters:
 385:Generated_Source\PSoC4/ADC_SAR_Seq_1.c **** *  None.
 386:Generated_Source\PSoC4/ADC_SAR_Seq_1.c **** *
 387:Generated_Source\PSoC4/ADC_SAR_Seq_1.c **** * Return:
 388:Generated_Source\PSoC4/ADC_SAR_Seq_1.c **** *  None.
 389:Generated_Source\PSoC4/ADC_SAR_Seq_1.c **** *
 390:Generated_Source\PSoC4/ADC_SAR_Seq_1.c **** *******************************************************************************/
 391:Generated_Source\PSoC4/ADC_SAR_Seq_1.c **** void ADC_SAR_Seq_1_StartConvert(void)
 392:Generated_Source\PSoC4/ADC_SAR_Seq_1.c **** {
 307              		.loc 1 392 0
 308              		.cfi_startproc
 309              		@ args = 0, pretend = 0, frame = 0
 310              		@ frame_needed = 0, uses_anonymous_args = 0
 311              		@ link register save eliminated.
 393:Generated_Source\PSoC4/ADC_SAR_Seq_1.c ****     #if(ADC_SAR_Seq_1_DEFAULT_SAMPLE_MODE_SEL == ADC_SAR_Seq_1__FREERUNNING)
 394:Generated_Source\PSoC4/ADC_SAR_Seq_1.c ****         ADC_SAR_Seq_1_SAR_SAMPLE_CTRL_REG |= ADC_SAR_Seq_1_CONTINUOUS_EN;
 312              		.loc 1 394 0
 313 0000 034A     		ldr	r2, .L21
 314 0002 1368     		ldr	r3, [r2]
 315 0004 8021     		movs	r1, #128
 316 0006 4902     		lsls	r1, r1, #9
 317 0008 0B43     		orrs	r3, r1
 318 000a 1360     		str	r3, [r2]
 395:Generated_Source\PSoC4/ADC_SAR_Seq_1.c ****     #else /* Firmware trigger */
 396:Generated_Source\PSoC4/ADC_SAR_Seq_1.c ****         ADC_SAR_Seq_1_SAR_START_CTRL_REG = ADC_SAR_Seq_1_FW_TRIGGER;
 397:Generated_Source\PSoC4/ADC_SAR_Seq_1.c ****     #endif /* End ADC_SAR_Seq_1_DEFAULT_SAMPLE_MODE == ADC_SAR_Seq_1__FREERUNNING */
 398:Generated_Source\PSoC4/ADC_SAR_Seq_1.c **** 
 399:Generated_Source\PSoC4/ADC_SAR_Seq_1.c **** }
 319              		.loc 1 399 0
 320              		@ sp needed
 321 000c 7047     		bx	lr
 322              	.L22:
 323 000e C046     		.align	2
 324              	.L21:
 325 0010 04003A40 		.word	1077542916
 326              		.cfi_endproc
 327              	.LFE5:
 328              		.size	ADC_SAR_Seq_1_StartConvert, .-ADC_SAR_Seq_1_StartConvert
 329              		.section	.text.ADC_SAR_Seq_1_StopConvert,"ax",%progbits
 330              		.align	2
 331              		.global	ADC_SAR_Seq_1_StopConvert
 332              		.code	16
ARM GAS  C:\Users\Austcha\AppData\Local\Temp\ccLjoqH7.s 			page 14


 333              		.thumb_func
 334              		.type	ADC_SAR_Seq_1_StopConvert, %function
 335              	ADC_SAR_Seq_1_StopConvert:
 336              	.LFB6:
 400:Generated_Source\PSoC4/ADC_SAR_Seq_1.c **** 
 401:Generated_Source\PSoC4/ADC_SAR_Seq_1.c **** 
 402:Generated_Source\PSoC4/ADC_SAR_Seq_1.c **** /*******************************************************************************
 403:Generated_Source\PSoC4/ADC_SAR_Seq_1.c **** * Function Name: ADC_SAR_Seq_1_StopConvert
 404:Generated_Source\PSoC4/ADC_SAR_Seq_1.c **** ********************************************************************************
 405:Generated_Source\PSoC4/ADC_SAR_Seq_1.c **** *
 406:Generated_Source\PSoC4/ADC_SAR_Seq_1.c **** * Summary:
 407:Generated_Source\PSoC4/ADC_SAR_Seq_1.c **** *  Forces the ADC to stop all conversions.
 408:Generated_Source\PSoC4/ADC_SAR_Seq_1.c **** *
 409:Generated_Source\PSoC4/ADC_SAR_Seq_1.c **** * Parameters:
 410:Generated_Source\PSoC4/ADC_SAR_Seq_1.c **** *  None.
 411:Generated_Source\PSoC4/ADC_SAR_Seq_1.c **** *
 412:Generated_Source\PSoC4/ADC_SAR_Seq_1.c **** * Return:
 413:Generated_Source\PSoC4/ADC_SAR_Seq_1.c **** *  None.
 414:Generated_Source\PSoC4/ADC_SAR_Seq_1.c **** *
 415:Generated_Source\PSoC4/ADC_SAR_Seq_1.c **** *******************************************************************************/
 416:Generated_Source\PSoC4/ADC_SAR_Seq_1.c **** void ADC_SAR_Seq_1_StopConvert(void)
 417:Generated_Source\PSoC4/ADC_SAR_Seq_1.c **** {
 337              		.loc 1 417 0
 338              		.cfi_startproc
 339              		@ args = 0, pretend = 0, frame = 0
 340              		@ frame_needed = 0, uses_anonymous_args = 0
 341              		@ link register save eliminated.
 418:Generated_Source\PSoC4/ADC_SAR_Seq_1.c ****     #if(ADC_SAR_Seq_1_DEFAULT_SAMPLE_MODE_SEL == ADC_SAR_Seq_1__FREERUNNING)
 419:Generated_Source\PSoC4/ADC_SAR_Seq_1.c ****         ADC_SAR_Seq_1_SAR_SAMPLE_CTRL_REG &= (uint32)(~ADC_SAR_Seq_1_CONTINUOUS_EN);
 342              		.loc 1 419 0
 343 0000 024A     		ldr	r2, .L24
 344 0002 1168     		ldr	r1, [r2]
 345 0004 024B     		ldr	r3, .L24+4
 346 0006 0B40     		ands	r3, r1
 347 0008 1360     		str	r3, [r2]
 420:Generated_Source\PSoC4/ADC_SAR_Seq_1.c ****     #endif /* ADC_SAR_Seq_1_DEFAULT_SAMPLE_MODE == ADC_SAR_Seq_1__FREERUNNING */
 421:Generated_Source\PSoC4/ADC_SAR_Seq_1.c **** }
 348              		.loc 1 421 0
 349              		@ sp needed
 350 000a 7047     		bx	lr
 351              	.L25:
 352              		.align	2
 353              	.L24:
 354 000c 04003A40 		.word	1077542916
 355 0010 FFFFFEFF 		.word	-65537
 356              		.cfi_endproc
 357              	.LFE6:
 358              		.size	ADC_SAR_Seq_1_StopConvert, .-ADC_SAR_Seq_1_StopConvert
 359              		.section	.text.ADC_SAR_Seq_1_IsEndConversion,"ax",%progbits
 360              		.align	2
 361              		.global	ADC_SAR_Seq_1_IsEndConversion
 362              		.code	16
 363              		.thumb_func
 364              		.type	ADC_SAR_Seq_1_IsEndConversion, %function
 365              	ADC_SAR_Seq_1_IsEndConversion:
 366              	.LFB7:
 422:Generated_Source\PSoC4/ADC_SAR_Seq_1.c **** 
ARM GAS  C:\Users\Austcha\AppData\Local\Temp\ccLjoqH7.s 			page 15


 423:Generated_Source\PSoC4/ADC_SAR_Seq_1.c **** 
 424:Generated_Source\PSoC4/ADC_SAR_Seq_1.c **** /*******************************************************************************
 425:Generated_Source\PSoC4/ADC_SAR_Seq_1.c **** * Function Name: ADC_SAR_Seq_1_IsEndConversion
 426:Generated_Source\PSoC4/ADC_SAR_Seq_1.c **** ********************************************************************************
 427:Generated_Source\PSoC4/ADC_SAR_Seq_1.c **** *
 428:Generated_Source\PSoC4/ADC_SAR_Seq_1.c **** * Summary:
 429:Generated_Source\PSoC4/ADC_SAR_Seq_1.c **** *  Description: Checks for ADC end of conversion for the case one
 430:Generated_Source\PSoC4/ADC_SAR_Seq_1.c **** *  channel and end of scan for the case of multiple channels. It acts
 431:Generated_Source\PSoC4/ADC_SAR_Seq_1.c **** *  as a software version of the EOC. This function provides the
 432:Generated_Source\PSoC4/ADC_SAR_Seq_1.c **** *  programmer with two options. In one mode this function
 433:Generated_Source\PSoC4/ADC_SAR_Seq_1.c **** *  immediately returns with the conversion status. In the other mode,
 434:Generated_Source\PSoC4/ADC_SAR_Seq_1.c **** *  the function does not return (blocking) until the conversion has
 435:Generated_Source\PSoC4/ADC_SAR_Seq_1.c **** *  completed.
 436:Generated_Source\PSoC4/ADC_SAR_Seq_1.c **** *
 437:Generated_Source\PSoC4/ADC_SAR_Seq_1.c **** * Parameters:
 438:Generated_Source\PSoC4/ADC_SAR_Seq_1.c **** *  ADC_RETURN_STATUS        -> Immediately returns conversion result status
 439:Generated_Source\PSoC4/ADC_SAR_Seq_1.c **** *  ADC_WAIT_FOR_RESULT      -> Does not return until ADC complete
 440:Generated_Source\PSoC4/ADC_SAR_Seq_1.c **** *  ADC_RETURN_STATUS_INJ    -> Immediately returns conversion result status
 441:Generated_Source\PSoC4/ADC_SAR_Seq_1.c **** *                              for injection channel
 442:Generated_Source\PSoC4/ADC_SAR_Seq_1.c **** *  ADC_WAIT_FOR_RESULT_INJ  -> Does not return until ADC completes injection
 443:Generated_Source\PSoC4/ADC_SAR_Seq_1.c **** *                              channel conversion
 444:Generated_Source\PSoC4/ADC_SAR_Seq_1.c **** *
 445:Generated_Source\PSoC4/ADC_SAR_Seq_1.c **** * Return:
 446:Generated_Source\PSoC4/ADC_SAR_Seq_1.c **** *  If a non-zero value is returned, the last conversion or scan has completed.
 447:Generated_Source\PSoC4/ADC_SAR_Seq_1.c **** *  If the returned value is zero, the ADC is still in the process of a scan.
 448:Generated_Source\PSoC4/ADC_SAR_Seq_1.c **** *
 449:Generated_Source\PSoC4/ADC_SAR_Seq_1.c **** *******************************************************************************/
 450:Generated_Source\PSoC4/ADC_SAR_Seq_1.c **** uint32 ADC_SAR_Seq_1_IsEndConversion(uint32 retMode)
 451:Generated_Source\PSoC4/ADC_SAR_Seq_1.c **** {
 367              		.loc 1 451 0
 368              		.cfi_startproc
 369              		@ args = 0, pretend = 0, frame = 0
 370              		@ frame_needed = 0, uses_anonymous_args = 0
 371              		@ link register save eliminated.
 372              	.LVL13:
 373 0000 0200     		movs	r2, r0
 374              	.LVL14:
 452:Generated_Source\PSoC4/ADC_SAR_Seq_1.c ****     uint32 status = 0u;
 453:Generated_Source\PSoC4/ADC_SAR_Seq_1.c **** 
 454:Generated_Source\PSoC4/ADC_SAR_Seq_1.c ****     if((retMode & (ADC_SAR_Seq_1_RETURN_STATUS | ADC_SAR_Seq_1_WAIT_FOR_RESULT)) != 0u)
 375              		.loc 1 454 0
 376 0002 8307     		lsls	r3, r0, #30
 377 0004 0CD0     		beq	.L30
 378              	.LVL15:
 379              	.L29:
 455:Generated_Source\PSoC4/ADC_SAR_Seq_1.c ****     {
 456:Generated_Source\PSoC4/ADC_SAR_Seq_1.c ****         do
 457:Generated_Source\PSoC4/ADC_SAR_Seq_1.c ****         {
 458:Generated_Source\PSoC4/ADC_SAR_Seq_1.c ****             status = ADC_SAR_Seq_1_SAR_INTR_REG & ADC_SAR_Seq_1_EOS_MASK;
 380              		.loc 1 458 0 discriminator 2
 381 0006 074B     		ldr	r3, .L31
 382 0008 1B68     		ldr	r3, [r3]
 383 000a 0120     		movs	r0, #1
 384 000c 1840     		ands	r0, r3
 385              	.LVL16:
 459:Generated_Source\PSoC4/ADC_SAR_Seq_1.c ****         }while((status == 0u) && ((retMode & ADC_SAR_Seq_1_WAIT_FOR_RESULT) != 0u));
 386              		.loc 1 459 0 discriminator 2
ARM GAS  C:\Users\Austcha\AppData\Local\Temp\ccLjoqH7.s 			page 16


 387 000e 01D1     		bne	.L28
 388              		.loc 1 459 0 is_stmt 0 discriminator 1
 389 0010 9307     		lsls	r3, r2, #30
 390 0012 F8D4     		bmi	.L29
 391              	.L28:
 460:Generated_Source\PSoC4/ADC_SAR_Seq_1.c **** 
 461:Generated_Source\PSoC4/ADC_SAR_Seq_1.c ****         if(status != 0u)
 392              		.loc 1 461 0 is_stmt 1
 393 0014 0028     		cmp	r0, #0
 394 0016 04D0     		beq	.L27
 462:Generated_Source\PSoC4/ADC_SAR_Seq_1.c ****         {
 463:Generated_Source\PSoC4/ADC_SAR_Seq_1.c ****             /* Clear EOS bit */
 464:Generated_Source\PSoC4/ADC_SAR_Seq_1.c ****             ADC_SAR_Seq_1_SAR_INTR_REG = ADC_SAR_Seq_1_EOS_MASK;
 395              		.loc 1 464 0
 396 0018 0122     		movs	r2, #1
 397              	.LVL17:
 398 001a 024B     		ldr	r3, .L31
 399 001c 1A60     		str	r2, [r3]
 400 001e 00E0     		b	.L27
 401              	.LVL18:
 402              	.L30:
 452:Generated_Source\PSoC4/ADC_SAR_Seq_1.c **** 
 403              		.loc 1 452 0
 404 0020 0020     		movs	r0, #0
 405              	.LVL19:
 406              	.L27:
 465:Generated_Source\PSoC4/ADC_SAR_Seq_1.c ****         }
 466:Generated_Source\PSoC4/ADC_SAR_Seq_1.c ****     }
 467:Generated_Source\PSoC4/ADC_SAR_Seq_1.c **** 
 468:Generated_Source\PSoC4/ADC_SAR_Seq_1.c ****     #if(ADC_SAR_Seq_1_INJ_CHANNEL_ENABLED)
 469:Generated_Source\PSoC4/ADC_SAR_Seq_1.c ****         if((retMode & (ADC_SAR_Seq_1_RETURN_STATUS_INJ | ADC_SAR_Seq_1_WAIT_FOR_RESULT_INJ)) != 0u)
 470:Generated_Source\PSoC4/ADC_SAR_Seq_1.c ****         {
 471:Generated_Source\PSoC4/ADC_SAR_Seq_1.c ****             do
 472:Generated_Source\PSoC4/ADC_SAR_Seq_1.c ****             {
 473:Generated_Source\PSoC4/ADC_SAR_Seq_1.c ****                 status |= ADC_SAR_Seq_1_SAR_INTR_REG & ADC_SAR_Seq_1_INJ_EOC_MASK;
 474:Generated_Source\PSoC4/ADC_SAR_Seq_1.c ****             }while(((status & ADC_SAR_Seq_1_INJ_EOC_MASK) == 0u) &&
 475:Generated_Source\PSoC4/ADC_SAR_Seq_1.c ****                    ((retMode & ADC_SAR_Seq_1_WAIT_FOR_RESULT_INJ) != 0u));
 476:Generated_Source\PSoC4/ADC_SAR_Seq_1.c **** 
 477:Generated_Source\PSoC4/ADC_SAR_Seq_1.c ****             if((status & ADC_SAR_Seq_1_INJ_EOC_MASK) != 0u)
 478:Generated_Source\PSoC4/ADC_SAR_Seq_1.c ****             {
 479:Generated_Source\PSoC4/ADC_SAR_Seq_1.c ****                 /* Clear Injection EOS bit */
 480:Generated_Source\PSoC4/ADC_SAR_Seq_1.c ****                 ADC_SAR_Seq_1_SAR_INTR_REG = ADC_SAR_Seq_1_INJ_EOC_MASK;
 481:Generated_Source\PSoC4/ADC_SAR_Seq_1.c ****             }
 482:Generated_Source\PSoC4/ADC_SAR_Seq_1.c ****         }
 483:Generated_Source\PSoC4/ADC_SAR_Seq_1.c ****     #endif /* ADC_SAR_Seq_1_INJ_CHANNEL_ENABLED */
 484:Generated_Source\PSoC4/ADC_SAR_Seq_1.c **** 
 485:Generated_Source\PSoC4/ADC_SAR_Seq_1.c ****     return (status);
 486:Generated_Source\PSoC4/ADC_SAR_Seq_1.c **** }
 407              		.loc 1 486 0
 408              		@ sp needed
 409 0022 7047     		bx	lr
 410              	.L32:
 411              		.align	2
 412              	.L31:
 413 0024 10023A40 		.word	1077543440
 414              		.cfi_endproc
 415              	.LFE7:
ARM GAS  C:\Users\Austcha\AppData\Local\Temp\ccLjoqH7.s 			page 17


 416              		.size	ADC_SAR_Seq_1_IsEndConversion, .-ADC_SAR_Seq_1_IsEndConversion
 417              		.section	.text.ADC_SAR_Seq_1_GetResult16,"ax",%progbits
 418              		.align	2
 419              		.global	ADC_SAR_Seq_1_GetResult16
 420              		.code	16
 421              		.thumb_func
 422              		.type	ADC_SAR_Seq_1_GetResult16, %function
 423              	ADC_SAR_Seq_1_GetResult16:
 424              	.LFB8:
 487:Generated_Source\PSoC4/ADC_SAR_Seq_1.c **** 
 488:Generated_Source\PSoC4/ADC_SAR_Seq_1.c **** 
 489:Generated_Source\PSoC4/ADC_SAR_Seq_1.c **** /*******************************************************************************
 490:Generated_Source\PSoC4/ADC_SAR_Seq_1.c **** * Function Name: ADC_SAR_Seq_1_GetResult16
 491:Generated_Source\PSoC4/ADC_SAR_Seq_1.c **** ********************************************************************************
 492:Generated_Source\PSoC4/ADC_SAR_Seq_1.c **** *
 493:Generated_Source\PSoC4/ADC_SAR_Seq_1.c **** * Summary:
 494:Generated_Source\PSoC4/ADC_SAR_Seq_1.c **** *  Gets the data available in the SAR DATA register.
 495:Generated_Source\PSoC4/ADC_SAR_Seq_1.c **** *
 496:Generated_Source\PSoC4/ADC_SAR_Seq_1.c **** * Parameters:
 497:Generated_Source\PSoC4/ADC_SAR_Seq_1.c **** *  chan: The ADC channel in which to return the result. The first channel
 498:Generated_Source\PSoC4/ADC_SAR_Seq_1.c **** *  is 0 and the injection channel if enabled is the number of valid channels.
 499:Generated_Source\PSoC4/ADC_SAR_Seq_1.c **** *
 500:Generated_Source\PSoC4/ADC_SAR_Seq_1.c **** * Return:
 501:Generated_Source\PSoC4/ADC_SAR_Seq_1.c **** *  Returns converted data as a signed 16-bit integer
 502:Generated_Source\PSoC4/ADC_SAR_Seq_1.c **** *
 503:Generated_Source\PSoC4/ADC_SAR_Seq_1.c **** *******************************************************************************/
 504:Generated_Source\PSoC4/ADC_SAR_Seq_1.c **** int16 ADC_SAR_Seq_1_GetResult16(uint32 chan)
 505:Generated_Source\PSoC4/ADC_SAR_Seq_1.c **** {
 425              		.loc 1 505 0
 426              		.cfi_startproc
 427              		@ args = 0, pretend = 0, frame = 0
 428              		@ frame_needed = 0, uses_anonymous_args = 0
 429              	.LVL20:
 430 0000 10B5     		push	{r4, lr}
 431              		.cfi_def_cfa_offset 8
 432              		.cfi_offset 4, -8
 433              		.cfi_offset 14, -4
 434 0002 041E     		subs	r4, r0, #0
 506:Generated_Source\PSoC4/ADC_SAR_Seq_1.c ****     uint32 result;
 507:Generated_Source\PSoC4/ADC_SAR_Seq_1.c **** 
 508:Generated_Source\PSoC4/ADC_SAR_Seq_1.c ****     /* Halt CPU in debug mode if channel is out of valid range */
 509:Generated_Source\PSoC4/ADC_SAR_Seq_1.c ****     CYASSERT(chan < ADC_SAR_Seq_1_TOTAL_CHANNELS_NUM);
 435              		.loc 1 509 0
 436 0004 02D0     		beq	.L34
 437              		.loc 1 509 0 is_stmt 0 discriminator 1
 438 0006 0020     		movs	r0, #0
 439              	.LVL21:
 440 0008 FFF7FEFF 		bl	CyHalt
 441              	.LVL22:
 442              	.L34:
 510:Generated_Source\PSoC4/ADC_SAR_Seq_1.c **** 
 511:Generated_Source\PSoC4/ADC_SAR_Seq_1.c ****     if(chan < ADC_SAR_Seq_1_SEQUENCED_CHANNELS_NUM)
 443              		.loc 1 511 0 is_stmt 1
 444 000c 002C     		cmp	r4, #0
 445 000e 07D1     		bne	.L36
 512:Generated_Source\PSoC4/ADC_SAR_Seq_1.c ****     {
 513:Generated_Source\PSoC4/ADC_SAR_Seq_1.c ****         result = CY_GET_REG32((reg32 *)(ADC_SAR_Seq_1_SAR_CHAN_RESULT_IND + (uint32)(chan << 2u))) 
ARM GAS  C:\Users\Austcha\AppData\Local\Temp\ccLjoqH7.s 			page 18


 446              		.loc 1 513 0
 447 0010 A400     		lsls	r4, r4, #2
 448              	.LVL23:
 449 0012 054B     		ldr	r3, .L37
 450 0014 9C46     		mov	ip, r3
 451 0016 6444     		add	r4, r4, ip
 452 0018 2068     		ldr	r0, [r4]
 453 001a 0004     		lsls	r0, r0, #16
 454 001c 000C     		lsrs	r0, r0, #16
 455              	.LVL24:
 456 001e 00E0     		b	.L35
 457              	.LVL25:
 458              	.L36:
 514:Generated_Source\PSoC4/ADC_SAR_Seq_1.c ****                 ADC_SAR_Seq_1_RESULT_MASK;
 515:Generated_Source\PSoC4/ADC_SAR_Seq_1.c ****     }
 516:Generated_Source\PSoC4/ADC_SAR_Seq_1.c ****     else
 517:Generated_Source\PSoC4/ADC_SAR_Seq_1.c ****     {
 518:Generated_Source\PSoC4/ADC_SAR_Seq_1.c ****         #if(ADC_SAR_Seq_1_INJ_CHANNEL_ENABLED)
 519:Generated_Source\PSoC4/ADC_SAR_Seq_1.c ****             result = ADC_SAR_Seq_1_SAR_INJ_RESULT_REG & ADC_SAR_Seq_1_RESULT_MASK;
 520:Generated_Source\PSoC4/ADC_SAR_Seq_1.c ****         #else
 521:Generated_Source\PSoC4/ADC_SAR_Seq_1.c ****             result = 0u;
 459              		.loc 1 521 0
 460 0020 0020     		movs	r0, #0
 461              	.LVL26:
 462              	.L35:
 522:Generated_Source\PSoC4/ADC_SAR_Seq_1.c ****         #endif /* ADC_SAR_Seq_1_INJ_CHANNEL_ENABLED */
 523:Generated_Source\PSoC4/ADC_SAR_Seq_1.c ****     }
 524:Generated_Source\PSoC4/ADC_SAR_Seq_1.c **** 
 525:Generated_Source\PSoC4/ADC_SAR_Seq_1.c ****     return ( (int16)result );
 463              		.loc 1 525 0
 464 0022 00B2     		sxth	r0, r0
 465              	.LVL27:
 526:Generated_Source\PSoC4/ADC_SAR_Seq_1.c **** }
 466              		.loc 1 526 0
 467              		@ sp needed
 468 0024 10BD     		pop	{r4, pc}
 469              	.L38:
 470 0026 C046     		.align	2
 471              	.L37:
 472 0028 80013A40 		.word	1077543296
 473              		.cfi_endproc
 474              	.LFE8:
 475              		.size	ADC_SAR_Seq_1_GetResult16, .-ADC_SAR_Seq_1_GetResult16
 476              		.section	.text.ADC_SAR_Seq_1_SetChanMask,"ax",%progbits
 477              		.align	2
 478              		.global	ADC_SAR_Seq_1_SetChanMask
 479              		.code	16
 480              		.thumb_func
 481              		.type	ADC_SAR_Seq_1_SetChanMask, %function
 482              	ADC_SAR_Seq_1_SetChanMask:
 483              	.LFB9:
 527:Generated_Source\PSoC4/ADC_SAR_Seq_1.c **** 
 528:Generated_Source\PSoC4/ADC_SAR_Seq_1.c **** 
 529:Generated_Source\PSoC4/ADC_SAR_Seq_1.c **** /*******************************************************************************
 530:Generated_Source\PSoC4/ADC_SAR_Seq_1.c **** * Function Name: ADC_SAR_Seq_1_SetChanMask
 531:Generated_Source\PSoC4/ADC_SAR_Seq_1.c **** ********************************************************************************
 532:Generated_Source\PSoC4/ADC_SAR_Seq_1.c **** *
ARM GAS  C:\Users\Austcha\AppData\Local\Temp\ccLjoqH7.s 			page 19


 533:Generated_Source\PSoC4/ADC_SAR_Seq_1.c **** * Summary:
 534:Generated_Source\PSoC4/ADC_SAR_Seq_1.c **** *  Sets the channel enable mask.
 535:Generated_Source\PSoC4/ADC_SAR_Seq_1.c **** *
 536:Generated_Source\PSoC4/ADC_SAR_Seq_1.c **** * Parameters:
 537:Generated_Source\PSoC4/ADC_SAR_Seq_1.c **** *  mask: Sets which channels that will be
 538:Generated_Source\PSoC4/ADC_SAR_Seq_1.c **** *  scanned. Setting bits for channels that do not exist will have no
 539:Generated_Source\PSoC4/ADC_SAR_Seq_1.c **** *  effect. For example, if only 6 channels were enabled, setting a
 540:Generated_Source\PSoC4/ADC_SAR_Seq_1.c **** *  mask of 0x0103 would only enable the last two channels (0 and 1).
 541:Generated_Source\PSoC4/ADC_SAR_Seq_1.c **** *  This API will not enable the injection channel.
 542:Generated_Source\PSoC4/ADC_SAR_Seq_1.c **** *  Examples: If the component is setup to sequence through 8
 543:Generated_Source\PSoC4/ADC_SAR_Seq_1.c **** *  channels, a mask of 0x000F would enable channels 0, 1, 2, and 3.
 544:Generated_Source\PSoC4/ADC_SAR_Seq_1.c **** *
 545:Generated_Source\PSoC4/ADC_SAR_Seq_1.c **** * Return:
 546:Generated_Source\PSoC4/ADC_SAR_Seq_1.c **** *  None.
 547:Generated_Source\PSoC4/ADC_SAR_Seq_1.c **** *
 548:Generated_Source\PSoC4/ADC_SAR_Seq_1.c **** *******************************************************************************/
 549:Generated_Source\PSoC4/ADC_SAR_Seq_1.c **** void ADC_SAR_Seq_1_SetChanMask(uint32 mask)
 550:Generated_Source\PSoC4/ADC_SAR_Seq_1.c **** {
 484              		.loc 1 550 0
 485              		.cfi_startproc
 486              		@ args = 0, pretend = 0, frame = 0
 487              		@ frame_needed = 0, uses_anonymous_args = 0
 488              		@ link register save eliminated.
 489              	.LVL28:
 551:Generated_Source\PSoC4/ADC_SAR_Seq_1.c ****     ADC_SAR_Seq_1_SAR_CHAN_EN_REG = mask & ADC_SAR_Seq_1_MAX_CHANNELS_EN_MASK;
 490              		.loc 1 551 0
 491 0000 0123     		movs	r3, #1
 492 0002 1840     		ands	r0, r3
 493              	.LVL29:
 494 0004 014B     		ldr	r3, .L40
 495 0006 1860     		str	r0, [r3]
 552:Generated_Source\PSoC4/ADC_SAR_Seq_1.c **** }
 496              		.loc 1 552 0
 497              		@ sp needed
 498 0008 7047     		bx	lr
 499              	.L41:
 500 000a C046     		.align	2
 501              	.L40:
 502 000c 20003A40 		.word	1077542944
 503              		.cfi_endproc
 504              	.LFE9:
 505              		.size	ADC_SAR_Seq_1_SetChanMask, .-ADC_SAR_Seq_1_SetChanMask
 506              		.section	.text.ADC_SAR_Seq_1_SetLowLimit,"ax",%progbits
 507              		.align	2
 508              		.global	ADC_SAR_Seq_1_SetLowLimit
 509              		.code	16
 510              		.thumb_func
 511              		.type	ADC_SAR_Seq_1_SetLowLimit, %function
 512              	ADC_SAR_Seq_1_SetLowLimit:
 513              	.LFB10:
 553:Generated_Source\PSoC4/ADC_SAR_Seq_1.c **** 
 554:Generated_Source\PSoC4/ADC_SAR_Seq_1.c **** #if(ADC_SAR_Seq_1_INJ_CHANNEL_ENABLED)
 555:Generated_Source\PSoC4/ADC_SAR_Seq_1.c **** 
 556:Generated_Source\PSoC4/ADC_SAR_Seq_1.c **** 
 557:Generated_Source\PSoC4/ADC_SAR_Seq_1.c ****     /*******************************************************************************
 558:Generated_Source\PSoC4/ADC_SAR_Seq_1.c ****     * Function Name: ADC_SAR_Seq_1_EnableInjection
 559:Generated_Source\PSoC4/ADC_SAR_Seq_1.c ****     ********************************************************************************
ARM GAS  C:\Users\Austcha\AppData\Local\Temp\ccLjoqH7.s 			page 20


 560:Generated_Source\PSoC4/ADC_SAR_Seq_1.c ****     *
 561:Generated_Source\PSoC4/ADC_SAR_Seq_1.c ****     * Summary:
 562:Generated_Source\PSoC4/ADC_SAR_Seq_1.c ****     *  Enables the injection channel for the next scan only.
 563:Generated_Source\PSoC4/ADC_SAR_Seq_1.c ****     *
 564:Generated_Source\PSoC4/ADC_SAR_Seq_1.c ****     * Parameters:
 565:Generated_Source\PSoC4/ADC_SAR_Seq_1.c ****     *  None.
 566:Generated_Source\PSoC4/ADC_SAR_Seq_1.c ****     *
 567:Generated_Source\PSoC4/ADC_SAR_Seq_1.c ****     * Return:
 568:Generated_Source\PSoC4/ADC_SAR_Seq_1.c ****     *  None.
 569:Generated_Source\PSoC4/ADC_SAR_Seq_1.c ****     *
 570:Generated_Source\PSoC4/ADC_SAR_Seq_1.c ****     *******************************************************************************/
 571:Generated_Source\PSoC4/ADC_SAR_Seq_1.c ****     void ADC_SAR_Seq_1_EnableInjection(void)
 572:Generated_Source\PSoC4/ADC_SAR_Seq_1.c ****     {
 573:Generated_Source\PSoC4/ADC_SAR_Seq_1.c ****         ADC_SAR_Seq_1_SAR_INJ_CHAN_CONFIG_REG |= ADC_SAR_Seq_1_INJ_CHAN_EN;
 574:Generated_Source\PSoC4/ADC_SAR_Seq_1.c ****     }
 575:Generated_Source\PSoC4/ADC_SAR_Seq_1.c **** 
 576:Generated_Source\PSoC4/ADC_SAR_Seq_1.c **** #endif /* ADC_SAR_Seq_1_INJ_CHANNEL_ENABLED */
 577:Generated_Source\PSoC4/ADC_SAR_Seq_1.c **** 
 578:Generated_Source\PSoC4/ADC_SAR_Seq_1.c **** 
 579:Generated_Source\PSoC4/ADC_SAR_Seq_1.c **** /*******************************************************************************
 580:Generated_Source\PSoC4/ADC_SAR_Seq_1.c **** * Function Name: ADC_SAR_Seq_1_SetLowLimit
 581:Generated_Source\PSoC4/ADC_SAR_Seq_1.c **** ********************************************************************************
 582:Generated_Source\PSoC4/ADC_SAR_Seq_1.c **** *
 583:Generated_Source\PSoC4/ADC_SAR_Seq_1.c **** * Summary:
 584:Generated_Source\PSoC4/ADC_SAR_Seq_1.c **** *  Sets the low limit parameter for a limit condition.
 585:Generated_Source\PSoC4/ADC_SAR_Seq_1.c **** *
 586:Generated_Source\PSoC4/ADC_SAR_Seq_1.c **** * Parameters:
 587:Generated_Source\PSoC4/ADC_SAR_Seq_1.c **** *  lowLimit: The low limit for a limit condition.
 588:Generated_Source\PSoC4/ADC_SAR_Seq_1.c **** *
 589:Generated_Source\PSoC4/ADC_SAR_Seq_1.c **** * Return:
 590:Generated_Source\PSoC4/ADC_SAR_Seq_1.c **** *  None.
 591:Generated_Source\PSoC4/ADC_SAR_Seq_1.c **** *
 592:Generated_Source\PSoC4/ADC_SAR_Seq_1.c **** *******************************************************************************/
 593:Generated_Source\PSoC4/ADC_SAR_Seq_1.c **** void ADC_SAR_Seq_1_SetLowLimit(uint32 lowLimit)
 594:Generated_Source\PSoC4/ADC_SAR_Seq_1.c **** {
 514              		.loc 1 594 0
 515              		.cfi_startproc
 516              		@ args = 0, pretend = 0, frame = 0
 517              		@ frame_needed = 0, uses_anonymous_args = 0
 518              		@ link register save eliminated.
 519              	.LVL30:
 595:Generated_Source\PSoC4/ADC_SAR_Seq_1.c ****     ADC_SAR_Seq_1_SAR_RANGE_THRES_REG &= (uint32)(~ADC_SAR_Seq_1_RANGE_LOW_MASK);
 520              		.loc 1 595 0
 521 0000 054A     		ldr	r2, .L43
 522 0002 1368     		ldr	r3, [r2]
 523 0004 1B0C     		lsrs	r3, r3, #16
 524 0006 1B04     		lsls	r3, r3, #16
 525 0008 1360     		str	r3, [r2]
 596:Generated_Source\PSoC4/ADC_SAR_Seq_1.c ****     ADC_SAR_Seq_1_SAR_RANGE_THRES_REG |= lowLimit & ADC_SAR_Seq_1_RANGE_LOW_MASK;
 526              		.loc 1 596 0
 527 000a 1368     		ldr	r3, [r2]
 528 000c 0004     		lsls	r0, r0, #16
 529              	.LVL31:
 530 000e 000C     		lsrs	r0, r0, #16
 531 0010 1843     		orrs	r0, r3
 532 0012 1060     		str	r0, [r2]
 597:Generated_Source\PSoC4/ADC_SAR_Seq_1.c **** }
ARM GAS  C:\Users\Austcha\AppData\Local\Temp\ccLjoqH7.s 			page 21


 533              		.loc 1 597 0
 534              		@ sp needed
 535 0014 7047     		bx	lr
 536              	.L44:
 537 0016 C046     		.align	2
 538              	.L43:
 539 0018 18003A40 		.word	1077542936
 540              		.cfi_endproc
 541              	.LFE10:
 542              		.size	ADC_SAR_Seq_1_SetLowLimit, .-ADC_SAR_Seq_1_SetLowLimit
 543              		.section	.text.ADC_SAR_Seq_1_SetHighLimit,"ax",%progbits
 544              		.align	2
 545              		.global	ADC_SAR_Seq_1_SetHighLimit
 546              		.code	16
 547              		.thumb_func
 548              		.type	ADC_SAR_Seq_1_SetHighLimit, %function
 549              	ADC_SAR_Seq_1_SetHighLimit:
 550              	.LFB11:
 598:Generated_Source\PSoC4/ADC_SAR_Seq_1.c **** 
 599:Generated_Source\PSoC4/ADC_SAR_Seq_1.c **** 
 600:Generated_Source\PSoC4/ADC_SAR_Seq_1.c **** /*******************************************************************************
 601:Generated_Source\PSoC4/ADC_SAR_Seq_1.c **** * Function Name: ADC_SAR_Seq_1_SetHighLimit
 602:Generated_Source\PSoC4/ADC_SAR_Seq_1.c **** ********************************************************************************
 603:Generated_Source\PSoC4/ADC_SAR_Seq_1.c **** *
 604:Generated_Source\PSoC4/ADC_SAR_Seq_1.c **** * Summary:
 605:Generated_Source\PSoC4/ADC_SAR_Seq_1.c **** *  Sets the low limit parameter for a limit condition.
 606:Generated_Source\PSoC4/ADC_SAR_Seq_1.c **** *
 607:Generated_Source\PSoC4/ADC_SAR_Seq_1.c **** * Parameters:
 608:Generated_Source\PSoC4/ADC_SAR_Seq_1.c **** *  highLimit: The high limit for a limit condition.
 609:Generated_Source\PSoC4/ADC_SAR_Seq_1.c **** *
 610:Generated_Source\PSoC4/ADC_SAR_Seq_1.c **** * Return:
 611:Generated_Source\PSoC4/ADC_SAR_Seq_1.c **** *  None.
 612:Generated_Source\PSoC4/ADC_SAR_Seq_1.c **** *
 613:Generated_Source\PSoC4/ADC_SAR_Seq_1.c **** *******************************************************************************/
 614:Generated_Source\PSoC4/ADC_SAR_Seq_1.c **** void ADC_SAR_Seq_1_SetHighLimit(uint32 highLimit)
 615:Generated_Source\PSoC4/ADC_SAR_Seq_1.c **** {
 551              		.loc 1 615 0
 552              		.cfi_startproc
 553              		@ args = 0, pretend = 0, frame = 0
 554              		@ frame_needed = 0, uses_anonymous_args = 0
 555              		@ link register save eliminated.
 556              	.LVL32:
 616:Generated_Source\PSoC4/ADC_SAR_Seq_1.c ****     ADC_SAR_Seq_1_SAR_RANGE_THRES_REG &= (uint32)(~ADC_SAR_Seq_1_RANGE_HIGH_MASK);
 557              		.loc 1 616 0
 558 0000 044A     		ldr	r2, .L46
 559 0002 1368     		ldr	r3, [r2]
 560 0004 1B04     		lsls	r3, r3, #16
 561 0006 1B0C     		lsrs	r3, r3, #16
 562 0008 1360     		str	r3, [r2]
 617:Generated_Source\PSoC4/ADC_SAR_Seq_1.c ****     ADC_SAR_Seq_1_SAR_RANGE_THRES_REG |= (uint32)(highLimit << ADC_SAR_Seq_1_RANGE_HIGH_OFFSET);
 563              		.loc 1 617 0
 564 000a 1368     		ldr	r3, [r2]
 565 000c 0004     		lsls	r0, r0, #16
 566              	.LVL33:
 567 000e 1843     		orrs	r0, r3
 568 0010 1060     		str	r0, [r2]
 618:Generated_Source\PSoC4/ADC_SAR_Seq_1.c **** }
ARM GAS  C:\Users\Austcha\AppData\Local\Temp\ccLjoqH7.s 			page 22


 569              		.loc 1 618 0
 570              		@ sp needed
 571 0012 7047     		bx	lr
 572              	.L47:
 573              		.align	2
 574              	.L46:
 575 0014 18003A40 		.word	1077542936
 576              		.cfi_endproc
 577              	.LFE11:
 578              		.size	ADC_SAR_Seq_1_SetHighLimit, .-ADC_SAR_Seq_1_SetHighLimit
 579              		.section	.text.ADC_SAR_Seq_1_SetLimitMask,"ax",%progbits
 580              		.align	2
 581              		.global	ADC_SAR_Seq_1_SetLimitMask
 582              		.code	16
 583              		.thumb_func
 584              		.type	ADC_SAR_Seq_1_SetLimitMask, %function
 585              	ADC_SAR_Seq_1_SetLimitMask:
 586              	.LFB12:
 619:Generated_Source\PSoC4/ADC_SAR_Seq_1.c **** 
 620:Generated_Source\PSoC4/ADC_SAR_Seq_1.c **** 
 621:Generated_Source\PSoC4/ADC_SAR_Seq_1.c **** /*******************************************************************************
 622:Generated_Source\PSoC4/ADC_SAR_Seq_1.c **** * Function Name: ADC_SAR_Seq_1_SetLimitMask
 623:Generated_Source\PSoC4/ADC_SAR_Seq_1.c **** ********************************************************************************
 624:Generated_Source\PSoC4/ADC_SAR_Seq_1.c **** *
 625:Generated_Source\PSoC4/ADC_SAR_Seq_1.c **** * Summary:
 626:Generated_Source\PSoC4/ADC_SAR_Seq_1.c **** *  Sets the channel limit condition mask.
 627:Generated_Source\PSoC4/ADC_SAR_Seq_1.c **** *
 628:Generated_Source\PSoC4/ADC_SAR_Seq_1.c **** * Parameters:
 629:Generated_Source\PSoC4/ADC_SAR_Seq_1.c **** *  mask: Sets which channels that may cause a
 630:Generated_Source\PSoC4/ADC_SAR_Seq_1.c **** *  limit condition interrupt. Setting bits for channels that do not exist
 631:Generated_Source\PSoC4/ADC_SAR_Seq_1.c **** *  will have no effect. For example, if only 6 channels were enabled,
 632:Generated_Source\PSoC4/ADC_SAR_Seq_1.c **** *  setting a mask of 0x0103 would only enable the last two channels (0 and 1).
 633:Generated_Source\PSoC4/ADC_SAR_Seq_1.c **** *
 634:Generated_Source\PSoC4/ADC_SAR_Seq_1.c **** * Return:
 635:Generated_Source\PSoC4/ADC_SAR_Seq_1.c **** *  None.
 636:Generated_Source\PSoC4/ADC_SAR_Seq_1.c **** *
 637:Generated_Source\PSoC4/ADC_SAR_Seq_1.c **** *******************************************************************************/
 638:Generated_Source\PSoC4/ADC_SAR_Seq_1.c **** void ADC_SAR_Seq_1_SetLimitMask(uint32 mask)
 639:Generated_Source\PSoC4/ADC_SAR_Seq_1.c **** {
 587              		.loc 1 639 0
 588              		.cfi_startproc
 589              		@ args = 0, pretend = 0, frame = 0
 590              		@ frame_needed = 0, uses_anonymous_args = 0
 591              		@ link register save eliminated.
 592              	.LVL34:
 640:Generated_Source\PSoC4/ADC_SAR_Seq_1.c ****     ADC_SAR_Seq_1_SAR_RANGE_INTR_MASK_REG = mask & ADC_SAR_Seq_1_MAX_CHANNELS_EN_MASK;
 593              		.loc 1 640 0
 594 0000 0123     		movs	r3, #1
 595 0002 1840     		ands	r0, r3
 596              	.LVL35:
 597 0004 014B     		ldr	r3, .L49
 598 0006 1860     		str	r0, [r3]
 641:Generated_Source\PSoC4/ADC_SAR_Seq_1.c **** }
 599              		.loc 1 641 0
 600              		@ sp needed
 601 0008 7047     		bx	lr
 602              	.L50:
ARM GAS  C:\Users\Austcha\AppData\Local\Temp\ccLjoqH7.s 			page 23


 603 000a C046     		.align	2
 604              	.L49:
 605 000c 38023A40 		.word	1077543480
 606              		.cfi_endproc
 607              	.LFE12:
 608              		.size	ADC_SAR_Seq_1_SetLimitMask, .-ADC_SAR_Seq_1_SetLimitMask
 609              		.section	.text.ADC_SAR_Seq_1_SetSatMask,"ax",%progbits
 610              		.align	2
 611              		.global	ADC_SAR_Seq_1_SetSatMask
 612              		.code	16
 613              		.thumb_func
 614              		.type	ADC_SAR_Seq_1_SetSatMask, %function
 615              	ADC_SAR_Seq_1_SetSatMask:
 616              	.LFB13:
 642:Generated_Source\PSoC4/ADC_SAR_Seq_1.c **** 
 643:Generated_Source\PSoC4/ADC_SAR_Seq_1.c **** 
 644:Generated_Source\PSoC4/ADC_SAR_Seq_1.c **** /*******************************************************************************
 645:Generated_Source\PSoC4/ADC_SAR_Seq_1.c **** * Function Name: ADC_SAR_Seq_1_SetSatMask
 646:Generated_Source\PSoC4/ADC_SAR_Seq_1.c **** ********************************************************************************
 647:Generated_Source\PSoC4/ADC_SAR_Seq_1.c **** *
 648:Generated_Source\PSoC4/ADC_SAR_Seq_1.c **** * Summary:
 649:Generated_Source\PSoC4/ADC_SAR_Seq_1.c **** *  Sets the channel saturation event mask.
 650:Generated_Source\PSoC4/ADC_SAR_Seq_1.c **** *
 651:Generated_Source\PSoC4/ADC_SAR_Seq_1.c **** * Parameters:
 652:Generated_Source\PSoC4/ADC_SAR_Seq_1.c **** *  mask: Sets which channels that may cause a
 653:Generated_Source\PSoC4/ADC_SAR_Seq_1.c **** *  saturation event interrupt. Setting bits for channels that do not exist
 654:Generated_Source\PSoC4/ADC_SAR_Seq_1.c **** *  will have no effect. For example, if only 8 channels were enabled,
 655:Generated_Source\PSoC4/ADC_SAR_Seq_1.c **** *  setting a mask of 0x01C0 would only enable two channels (6 and 7).
 656:Generated_Source\PSoC4/ADC_SAR_Seq_1.c **** *
 657:Generated_Source\PSoC4/ADC_SAR_Seq_1.c **** * Return:
 658:Generated_Source\PSoC4/ADC_SAR_Seq_1.c **** *  None.
 659:Generated_Source\PSoC4/ADC_SAR_Seq_1.c **** *
 660:Generated_Source\PSoC4/ADC_SAR_Seq_1.c **** *******************************************************************************/
 661:Generated_Source\PSoC4/ADC_SAR_Seq_1.c **** void ADC_SAR_Seq_1_SetSatMask(uint32 mask)
 662:Generated_Source\PSoC4/ADC_SAR_Seq_1.c **** {
 617              		.loc 1 662 0
 618              		.cfi_startproc
 619              		@ args = 0, pretend = 0, frame = 0
 620              		@ frame_needed = 0, uses_anonymous_args = 0
 621              		@ link register save eliminated.
 622              	.LVL36:
 663:Generated_Source\PSoC4/ADC_SAR_Seq_1.c ****     ADC_SAR_Seq_1_SAR_SATURATE_INTR_MASK_REG = mask & ADC_SAR_Seq_1_MAX_CHANNELS_EN_MASK;
 623              		.loc 1 663 0
 624 0000 0123     		movs	r3, #1
 625 0002 1840     		ands	r0, r3
 626              	.LVL37:
 627 0004 014B     		ldr	r3, .L52
 628 0006 1860     		str	r0, [r3]
 664:Generated_Source\PSoC4/ADC_SAR_Seq_1.c **** }
 629              		.loc 1 664 0
 630              		@ sp needed
 631 0008 7047     		bx	lr
 632              	.L53:
 633 000a C046     		.align	2
 634              	.L52:
 635 000c 28023A40 		.word	1077543464
 636              		.cfi_endproc
ARM GAS  C:\Users\Austcha\AppData\Local\Temp\ccLjoqH7.s 			page 24


 637              	.LFE13:
 638              		.size	ADC_SAR_Seq_1_SetSatMask, .-ADC_SAR_Seq_1_SetSatMask
 639              		.section	.text.ADC_SAR_Seq_1_SetOffset,"ax",%progbits
 640              		.align	2
 641              		.global	ADC_SAR_Seq_1_SetOffset
 642              		.code	16
 643              		.thumb_func
 644              		.type	ADC_SAR_Seq_1_SetOffset, %function
 645              	ADC_SAR_Seq_1_SetOffset:
 646              	.LFB14:
 665:Generated_Source\PSoC4/ADC_SAR_Seq_1.c **** 
 666:Generated_Source\PSoC4/ADC_SAR_Seq_1.c **** 
 667:Generated_Source\PSoC4/ADC_SAR_Seq_1.c **** /*******************************************************************************
 668:Generated_Source\PSoC4/ADC_SAR_Seq_1.c **** * Function Name: ADC_SAR_Seq_1_SetOffset
 669:Generated_Source\PSoC4/ADC_SAR_Seq_1.c **** ********************************************************************************
 670:Generated_Source\PSoC4/ADC_SAR_Seq_1.c **** *
 671:Generated_Source\PSoC4/ADC_SAR_Seq_1.c **** * Summary:
 672:Generated_Source\PSoC4/ADC_SAR_Seq_1.c **** *   Description: Sets the ADC offset which is used by the functions
 673:Generated_Source\PSoC4/ADC_SAR_Seq_1.c **** *   ADC_CountsTo_uVolts, ADC_CountsTo_mVolts and ADC_CountsTo_Volts
 674:Generated_Source\PSoC4/ADC_SAR_Seq_1.c **** *   to substract the offset from the given reading
 675:Generated_Source\PSoC4/ADC_SAR_Seq_1.c **** *   before calculating the voltage conversion.
 676:Generated_Source\PSoC4/ADC_SAR_Seq_1.c **** *
 677:Generated_Source\PSoC4/ADC_SAR_Seq_1.c **** * Parameters:
 678:Generated_Source\PSoC4/ADC_SAR_Seq_1.c **** *  chan: ADC channel number.
 679:Generated_Source\PSoC4/ADC_SAR_Seq_1.c **** *  offset: This value is a measured value when the
 680:Generated_Source\PSoC4/ADC_SAR_Seq_1.c **** *          inputs are shorted or connected to the same input voltage.
 681:Generated_Source\PSoC4/ADC_SAR_Seq_1.c **** *
 682:Generated_Source\PSoC4/ADC_SAR_Seq_1.c **** * Return:
 683:Generated_Source\PSoC4/ADC_SAR_Seq_1.c **** *  None.
 684:Generated_Source\PSoC4/ADC_SAR_Seq_1.c **** *
 685:Generated_Source\PSoC4/ADC_SAR_Seq_1.c **** * Global variables:
 686:Generated_Source\PSoC4/ADC_SAR_Seq_1.c **** *  ADC_SAR_Seq_1_Offset:  Modified to set the user provided offset.
 687:Generated_Source\PSoC4/ADC_SAR_Seq_1.c **** *
 688:Generated_Source\PSoC4/ADC_SAR_Seq_1.c **** *******************************************************************************/
 689:Generated_Source\PSoC4/ADC_SAR_Seq_1.c **** void ADC_SAR_Seq_1_SetOffset(uint32 chan, int16 offset)
 690:Generated_Source\PSoC4/ADC_SAR_Seq_1.c **** {
 647              		.loc 1 690 0
 648              		.cfi_startproc
 649              		@ args = 0, pretend = 0, frame = 0
 650              		@ frame_needed = 0, uses_anonymous_args = 0
 651              	.LVL38:
 652 0000 70B5     		push	{r4, r5, r6, lr}
 653              		.cfi_def_cfa_offset 16
 654              		.cfi_offset 4, -16
 655              		.cfi_offset 5, -12
 656              		.cfi_offset 6, -8
 657              		.cfi_offset 14, -4
 658 0002 0400     		movs	r4, r0
 659 0004 0D00     		movs	r5, r1
 691:Generated_Source\PSoC4/ADC_SAR_Seq_1.c ****     /* Halt CPU in debug mode if channel is out of valid range */
 692:Generated_Source\PSoC4/ADC_SAR_Seq_1.c ****     CYASSERT(chan < ADC_SAR_Seq_1_TOTAL_CHANNELS_NUM);
 660              		.loc 1 692 0
 661 0006 0028     		cmp	r0, #0
 662 0008 02D0     		beq	.L55
 663              		.loc 1 692 0 is_stmt 0 discriminator 1
 664 000a 0020     		movs	r0, #0
 665              	.LVL39:
ARM GAS  C:\Users\Austcha\AppData\Local\Temp\ccLjoqH7.s 			page 25


 666 000c FFF7FEFF 		bl	CyHalt
 667              	.LVL40:
 668              	.L55:
 693:Generated_Source\PSoC4/ADC_SAR_Seq_1.c **** 
 694:Generated_Source\PSoC4/ADC_SAR_Seq_1.c ****     ADC_SAR_Seq_1_offset[chan] = offset;
 669              		.loc 1 694 0 is_stmt 1
 670 0010 6400     		lsls	r4, r4, #1
 671              	.LVL41:
 672 0012 014B     		ldr	r3, .L56
 673 0014 E552     		strh	r5, [r4, r3]
 695:Generated_Source\PSoC4/ADC_SAR_Seq_1.c **** }
 674              		.loc 1 695 0
 675              		@ sp needed
 676 0016 70BD     		pop	{r4, r5, r6, pc}
 677              	.L57:
 678              		.align	2
 679              	.L56:
 680 0018 00000000 		.word	ADC_SAR_Seq_1_offset
 681              		.cfi_endproc
 682              	.LFE14:
 683              		.size	ADC_SAR_Seq_1_SetOffset, .-ADC_SAR_Seq_1_SetOffset
 684              		.section	.text.ADC_SAR_Seq_1_SetGain,"ax",%progbits
 685              		.align	2
 686              		.global	ADC_SAR_Seq_1_SetGain
 687              		.code	16
 688              		.thumb_func
 689              		.type	ADC_SAR_Seq_1_SetGain, %function
 690              	ADC_SAR_Seq_1_SetGain:
 691              	.LFB15:
 696:Generated_Source\PSoC4/ADC_SAR_Seq_1.c **** 
 697:Generated_Source\PSoC4/ADC_SAR_Seq_1.c **** 
 698:Generated_Source\PSoC4/ADC_SAR_Seq_1.c **** /*******************************************************************************
 699:Generated_Source\PSoC4/ADC_SAR_Seq_1.c **** * Function Name: ADC_SAR_Seq_1_SetGain
 700:Generated_Source\PSoC4/ADC_SAR_Seq_1.c **** ********************************************************************************
 701:Generated_Source\PSoC4/ADC_SAR_Seq_1.c **** *
 702:Generated_Source\PSoC4/ADC_SAR_Seq_1.c **** * Summary:
 703:Generated_Source\PSoC4/ADC_SAR_Seq_1.c **** *  Description: Sets the ADC gain in counts per 10 volt for the voltage
 704:Generated_Source\PSoC4/ADC_SAR_Seq_1.c **** *  conversion functions below. This value is set by default by the
 705:Generated_Source\PSoC4/ADC_SAR_Seq_1.c **** *  reference and input range settings. It should only be used to further
 706:Generated_Source\PSoC4/ADC_SAR_Seq_1.c **** *  calibrate the ADC with a known input or if an external reference is
 707:Generated_Source\PSoC4/ADC_SAR_Seq_1.c **** *  used. Affects the ADC_CountsTo_uVolts, ADC_CountsTo_mVolts
 708:Generated_Source\PSoC4/ADC_SAR_Seq_1.c **** *  and ADC_CountsTo_Volts functions by supplying the correct
 709:Generated_Source\PSoC4/ADC_SAR_Seq_1.c **** *  conversion between ADC counts and voltage.
 710:Generated_Source\PSoC4/ADC_SAR_Seq_1.c **** *
 711:Generated_Source\PSoC4/ADC_SAR_Seq_1.c **** * Parameters:
 712:Generated_Source\PSoC4/ADC_SAR_Seq_1.c **** *  chan: ADC channel number.
 713:Generated_Source\PSoC4/ADC_SAR_Seq_1.c **** *  adcGain: ADC gain in counts per 10 volts.
 714:Generated_Source\PSoC4/ADC_SAR_Seq_1.c **** *
 715:Generated_Source\PSoC4/ADC_SAR_Seq_1.c **** * Return:
 716:Generated_Source\PSoC4/ADC_SAR_Seq_1.c **** *  None.
 717:Generated_Source\PSoC4/ADC_SAR_Seq_1.c **** *
 718:Generated_Source\PSoC4/ADC_SAR_Seq_1.c **** * Global variables:
 719:Generated_Source\PSoC4/ADC_SAR_Seq_1.c **** *  ADC_SAR_Seq_1_CountsPer10Volt:  modified to set the ADC gain in counts
 720:Generated_Source\PSoC4/ADC_SAR_Seq_1.c **** *   per 10 volt.
 721:Generated_Source\PSoC4/ADC_SAR_Seq_1.c **** *
 722:Generated_Source\PSoC4/ADC_SAR_Seq_1.c **** *******************************************************************************/
 723:Generated_Source\PSoC4/ADC_SAR_Seq_1.c **** void ADC_SAR_Seq_1_SetGain(uint32 chan, int32 adcGain)
ARM GAS  C:\Users\Austcha\AppData\Local\Temp\ccLjoqH7.s 			page 26


 724:Generated_Source\PSoC4/ADC_SAR_Seq_1.c **** {
 692              		.loc 1 724 0
 693              		.cfi_startproc
 694              		@ args = 0, pretend = 0, frame = 0
 695              		@ frame_needed = 0, uses_anonymous_args = 0
 696              	.LVL42:
 697 0000 70B5     		push	{r4, r5, r6, lr}
 698              		.cfi_def_cfa_offset 16
 699              		.cfi_offset 4, -16
 700              		.cfi_offset 5, -12
 701              		.cfi_offset 6, -8
 702              		.cfi_offset 14, -4
 703 0002 0400     		movs	r4, r0
 704 0004 0D00     		movs	r5, r1
 725:Generated_Source\PSoC4/ADC_SAR_Seq_1.c ****     /* Halt CPU in debug mode if channel is out of valid range */
 726:Generated_Source\PSoC4/ADC_SAR_Seq_1.c ****     CYASSERT(chan < ADC_SAR_Seq_1_TOTAL_CHANNELS_NUM);
 705              		.loc 1 726 0
 706 0006 0028     		cmp	r0, #0
 707 0008 02D0     		beq	.L59
 708              		.loc 1 726 0 is_stmt 0 discriminator 1
 709 000a 0020     		movs	r0, #0
 710              	.LVL43:
 711 000c FFF7FEFF 		bl	CyHalt
 712              	.LVL44:
 713              	.L59:
 727:Generated_Source\PSoC4/ADC_SAR_Seq_1.c **** 
 728:Generated_Source\PSoC4/ADC_SAR_Seq_1.c ****     ADC_SAR_Seq_1_countsPer10Volt[chan] = adcGain;
 714              		.loc 1 728 0 is_stmt 1
 715 0010 A400     		lsls	r4, r4, #2
 716              	.LVL45:
 717 0012 014B     		ldr	r3, .L60
 718 0014 E550     		str	r5, [r4, r3]
 729:Generated_Source\PSoC4/ADC_SAR_Seq_1.c **** }
 719              		.loc 1 729 0
 720              		@ sp needed
 721              	.LVL46:
 722 0016 70BD     		pop	{r4, r5, r6, pc}
 723              	.L61:
 724              		.align	2
 725              	.L60:
 726 0018 00000000 		.word	ADC_SAR_Seq_1_countsPer10Volt
 727              		.cfi_endproc
 728              	.LFE15:
 729              		.size	ADC_SAR_Seq_1_SetGain, .-ADC_SAR_Seq_1_SetGain
 730              		.global	__aeabi_idiv
 731              		.section	.text.ADC_SAR_Seq_1_CountsTo_mVolts,"ax",%progbits
 732              		.align	2
 733              		.global	ADC_SAR_Seq_1_CountsTo_mVolts
 734              		.code	16
 735              		.thumb_func
 736              		.type	ADC_SAR_Seq_1_CountsTo_mVolts, %function
 737              	ADC_SAR_Seq_1_CountsTo_mVolts:
 738              	.LFB16:
 730:Generated_Source\PSoC4/ADC_SAR_Seq_1.c **** 
 731:Generated_Source\PSoC4/ADC_SAR_Seq_1.c **** 
 732:Generated_Source\PSoC4/ADC_SAR_Seq_1.c **** #if(ADC_SAR_Seq_1_DEFAULT_JUSTIFICATION_SEL == ADC_SAR_Seq_1__RIGHT)
 733:Generated_Source\PSoC4/ADC_SAR_Seq_1.c **** 
ARM GAS  C:\Users\Austcha\AppData\Local\Temp\ccLjoqH7.s 			page 27


 734:Generated_Source\PSoC4/ADC_SAR_Seq_1.c **** 
 735:Generated_Source\PSoC4/ADC_SAR_Seq_1.c ****     /*******************************************************************************
 736:Generated_Source\PSoC4/ADC_SAR_Seq_1.c ****     * Function Name: ADC_SAR_Seq_1_CountsTo_mVolts
 737:Generated_Source\PSoC4/ADC_SAR_Seq_1.c ****     ********************************************************************************
 738:Generated_Source\PSoC4/ADC_SAR_Seq_1.c ****     *
 739:Generated_Source\PSoC4/ADC_SAR_Seq_1.c ****     * Summary:
 740:Generated_Source\PSoC4/ADC_SAR_Seq_1.c ****     *  This function converts ADC counts to mVolts
 741:Generated_Source\PSoC4/ADC_SAR_Seq_1.c ****     *  This function is not available when left data format justification selected.
 742:Generated_Source\PSoC4/ADC_SAR_Seq_1.c ****     *
 743:Generated_Source\PSoC4/ADC_SAR_Seq_1.c ****     * Parameters:
 744:Generated_Source\PSoC4/ADC_SAR_Seq_1.c ****     *  chan: The ADC channel number.
 745:Generated_Source\PSoC4/ADC_SAR_Seq_1.c ****     *  adcCounts: Result from the ADC conversion
 746:Generated_Source\PSoC4/ADC_SAR_Seq_1.c ****     *
 747:Generated_Source\PSoC4/ADC_SAR_Seq_1.c ****     * Return:
 748:Generated_Source\PSoC4/ADC_SAR_Seq_1.c ****     *  Results in mVolts
 749:Generated_Source\PSoC4/ADC_SAR_Seq_1.c ****     *
 750:Generated_Source\PSoC4/ADC_SAR_Seq_1.c ****     * Global variables:
 751:Generated_Source\PSoC4/ADC_SAR_Seq_1.c ****     *  ADC_SAR_Seq_1_countsPer10Volt:  used to convert ADC counts to mVolts.
 752:Generated_Source\PSoC4/ADC_SAR_Seq_1.c ****     *  ADC_SAR_Seq_1_Offset:  Used as the offset while converting ADC counts
 753:Generated_Source\PSoC4/ADC_SAR_Seq_1.c ****     *   to mVolts.
 754:Generated_Source\PSoC4/ADC_SAR_Seq_1.c ****     *
 755:Generated_Source\PSoC4/ADC_SAR_Seq_1.c ****     *******************************************************************************/
 756:Generated_Source\PSoC4/ADC_SAR_Seq_1.c ****     int16 ADC_SAR_Seq_1_CountsTo_mVolts(uint32 chan, int16 adcCounts)
 757:Generated_Source\PSoC4/ADC_SAR_Seq_1.c ****     {
 739              		.loc 1 757 0
 740              		.cfi_startproc
 741              		@ args = 0, pretend = 0, frame = 0
 742              		@ frame_needed = 0, uses_anonymous_args = 0
 743              	.LVL47:
 744 0000 70B5     		push	{r4, r5, r6, lr}
 745              		.cfi_def_cfa_offset 16
 746              		.cfi_offset 4, -16
 747              		.cfi_offset 5, -12
 748              		.cfi_offset 6, -8
 749              		.cfi_offset 14, -4
 750 0002 0400     		movs	r4, r0
 751 0004 0D00     		movs	r5, r1
 758:Generated_Source\PSoC4/ADC_SAR_Seq_1.c ****         int16 mVolts;
 759:Generated_Source\PSoC4/ADC_SAR_Seq_1.c **** 
 760:Generated_Source\PSoC4/ADC_SAR_Seq_1.c ****         /* Halt CPU in debug mode if channel is out of valid range */
 761:Generated_Source\PSoC4/ADC_SAR_Seq_1.c ****         CYASSERT(chan < ADC_SAR_Seq_1_TOTAL_CHANNELS_NUM);
 752              		.loc 1 761 0
 753 0006 0028     		cmp	r0, #0
 754 0008 02D0     		beq	.L63
 755              		.loc 1 761 0 is_stmt 0 discriminator 1
 756 000a 0020     		movs	r0, #0
 757              	.LVL48:
 758 000c FFF7FEFF 		bl	CyHalt
 759              	.LVL49:
 760              	.L63:
 762:Generated_Source\PSoC4/ADC_SAR_Seq_1.c **** 
 763:Generated_Source\PSoC4/ADC_SAR_Seq_1.c ****         /* Divide the adcCount when accumulate averaging mode selected */
 764:Generated_Source\PSoC4/ADC_SAR_Seq_1.c ****         #if(ADC_SAR_Seq_1_DEFAULT_AVG_MODE == ADC_SAR_Seq_1__ACCUMULATE)
 765:Generated_Source\PSoC4/ADC_SAR_Seq_1.c ****             if((ADC_SAR_Seq_1_channelsConfig[chan] & ADC_SAR_Seq_1_AVERAGING_EN) != 0u)
 766:Generated_Source\PSoC4/ADC_SAR_Seq_1.c ****             {
 767:Generated_Source\PSoC4/ADC_SAR_Seq_1.c ****                 adcCounts /= ADC_SAR_Seq_1_DEFAULT_AVG_SAMPLES_DIV;
 768:Generated_Source\PSoC4/ADC_SAR_Seq_1.c ****             }
ARM GAS  C:\Users\Austcha\AppData\Local\Temp\ccLjoqH7.s 			page 28


 769:Generated_Source\PSoC4/ADC_SAR_Seq_1.c ****         #endif /* ADC_SAR_Seq_1_DEFAULT_AVG_MODE == ADC_SAR_Seq_1__ACCUMULATE */
 770:Generated_Source\PSoC4/ADC_SAR_Seq_1.c **** 
 771:Generated_Source\PSoC4/ADC_SAR_Seq_1.c ****         /* Subtract ADC offset */
 772:Generated_Source\PSoC4/ADC_SAR_Seq_1.c ****         adcCounts -= ADC_SAR_Seq_1_offset[chan];
 761              		.loc 1 772 0 is_stmt 1
 762 0010 6300     		lsls	r3, r4, #1
 763 0012 0F4A     		ldr	r2, .L66
 764 0014 995A     		ldrh	r1, [r3, r2]
 765 0016 09B2     		sxth	r1, r1
 766 0018 691A     		subs	r1, r5, r1
 767 001a 09B2     		sxth	r1, r1
 768              	.LVL50:
 773:Generated_Source\PSoC4/ADC_SAR_Seq_1.c **** 
 774:Generated_Source\PSoC4/ADC_SAR_Seq_1.c ****         mVolts = (int16)((((int32)adcCounts * ADC_SAR_Seq_1_10MV_COUNTS) + ( (adcCounts > 0) ?
 769              		.loc 1 774 0
 770 001c 0D48     		ldr	r0, .L66+4
 771 001e 4843     		muls	r0, r1
 775:Generated_Source\PSoC4/ADC_SAR_Seq_1.c ****                  (ADC_SAR_Seq_1_countsPer10Volt[chan] / 2) : (-(ADC_SAR_Seq_1_countsPer10Volt[chan]
 772              		.loc 1 775 0
 773 0020 0029     		cmp	r1, #0
 774 0022 06DD     		ble	.L64
 775              		.loc 1 775 0 is_stmt 0 discriminator 1
 776 0024 A300     		lsls	r3, r4, #2
 777 0026 0C4A     		ldr	r2, .L66+8
 778 0028 9A58     		ldr	r2, [r3, r2]
 779 002a D30F     		lsrs	r3, r2, #31
 780 002c 9A18     		adds	r2, r3, r2
 781 002e 5310     		asrs	r3, r2, #1
 782 0030 06E0     		b	.L65
 783              	.L64:
 784              		.loc 1 775 0 discriminator 2
 785 0032 A300     		lsls	r3, r4, #2
 786 0034 084A     		ldr	r2, .L66+8
 787 0036 9A58     		ldr	r2, [r3, r2]
 788 0038 D30F     		lsrs	r3, r2, #31
 789 003a 9A18     		adds	r2, r3, r2
 790 003c 5210     		asrs	r2, r2, #1
 791 003e 5342     		rsbs	r3, r2, #0
 792              	.L65:
 774:Generated_Source\PSoC4/ADC_SAR_Seq_1.c ****                  (ADC_SAR_Seq_1_countsPer10Volt[chan] / 2) : (-(ADC_SAR_Seq_1_countsPer10Volt[chan]
 793              		.loc 1 774 0 is_stmt 1
 794 0040 1818     		adds	r0, r3, r0
 776:Generated_Source\PSoC4/ADC_SAR_Seq_1.c ****                  / ADC_SAR_Seq_1_countsPer10Volt[chan]);
 795              		.loc 1 776 0
 796 0042 A400     		lsls	r4, r4, #2
 797              	.LVL51:
 798 0044 044B     		ldr	r3, .L66+8
 799 0046 E158     		ldr	r1, [r4, r3]
 800              	.LVL52:
 801 0048 FFF7FEFF 		bl	__aeabi_idiv
 802              	.LVL53:
 774:Generated_Source\PSoC4/ADC_SAR_Seq_1.c ****                  (ADC_SAR_Seq_1_countsPer10Volt[chan] / 2) : (-(ADC_SAR_Seq_1_countsPer10Volt[chan]
 803              		.loc 1 774 0
 804 004c 00B2     		sxth	r0, r0
 805              	.LVL54:
 777:Generated_Source\PSoC4/ADC_SAR_Seq_1.c **** 
 778:Generated_Source\PSoC4/ADC_SAR_Seq_1.c ****         return( mVolts );
ARM GAS  C:\Users\Austcha\AppData\Local\Temp\ccLjoqH7.s 			page 29


 779:Generated_Source\PSoC4/ADC_SAR_Seq_1.c ****     }
 806              		.loc 1 779 0
 807              		@ sp needed
 808 004e 70BD     		pop	{r4, r5, r6, pc}
 809              	.L67:
 810              		.align	2
 811              	.L66:
 812 0050 00000000 		.word	ADC_SAR_Seq_1_offset
 813 0054 10270000 		.word	10000
 814 0058 00000000 		.word	ADC_SAR_Seq_1_countsPer10Volt
 815              		.cfi_endproc
 816              	.LFE16:
 817              		.size	ADC_SAR_Seq_1_CountsTo_mVolts, .-ADC_SAR_Seq_1_CountsTo_mVolts
 818              		.global	__aeabi_lmul
 819              		.global	__aeabi_ldivmod
 820              		.section	.text.ADC_SAR_Seq_1_CountsTo_uVolts,"ax",%progbits
 821              		.align	2
 822              		.global	ADC_SAR_Seq_1_CountsTo_uVolts
 823              		.code	16
 824              		.thumb_func
 825              		.type	ADC_SAR_Seq_1_CountsTo_uVolts, %function
 826              	ADC_SAR_Seq_1_CountsTo_uVolts:
 827              	.LFB17:
 780:Generated_Source\PSoC4/ADC_SAR_Seq_1.c **** 
 781:Generated_Source\PSoC4/ADC_SAR_Seq_1.c **** 
 782:Generated_Source\PSoC4/ADC_SAR_Seq_1.c ****     /*******************************************************************************
 783:Generated_Source\PSoC4/ADC_SAR_Seq_1.c ****     * Function Name: ADC_SAR_Seq_1_CountsTo_uVolts
 784:Generated_Source\PSoC4/ADC_SAR_Seq_1.c ****     ********************************************************************************
 785:Generated_Source\PSoC4/ADC_SAR_Seq_1.c ****     *
 786:Generated_Source\PSoC4/ADC_SAR_Seq_1.c ****     * Summary:
 787:Generated_Source\PSoC4/ADC_SAR_Seq_1.c ****     *  This function converts ADC counts to micro Volts
 788:Generated_Source\PSoC4/ADC_SAR_Seq_1.c ****     *  This function is not available when left data format justification selected.
 789:Generated_Source\PSoC4/ADC_SAR_Seq_1.c ****     *
 790:Generated_Source\PSoC4/ADC_SAR_Seq_1.c ****     * Parameters:
 791:Generated_Source\PSoC4/ADC_SAR_Seq_1.c ****     *  chan: The ADC channel number.
 792:Generated_Source\PSoC4/ADC_SAR_Seq_1.c ****     *  adcCounts: Result from the ADC conversion
 793:Generated_Source\PSoC4/ADC_SAR_Seq_1.c ****     *
 794:Generated_Source\PSoC4/ADC_SAR_Seq_1.c ****     * Return:
 795:Generated_Source\PSoC4/ADC_SAR_Seq_1.c ****     *  Results in uVolts
 796:Generated_Source\PSoC4/ADC_SAR_Seq_1.c ****     *
 797:Generated_Source\PSoC4/ADC_SAR_Seq_1.c ****     * Global variables:
 798:Generated_Source\PSoC4/ADC_SAR_Seq_1.c ****     *  ADC_SAR_Seq_1_countsPer10Volt:  used to convert ADC counts to uVolts.
 799:Generated_Source\PSoC4/ADC_SAR_Seq_1.c ****     *  ADC_SAR_Seq_1_Offset:  Used as the offset while converting ADC counts
 800:Generated_Source\PSoC4/ADC_SAR_Seq_1.c ****     *   to mVolts.
 801:Generated_Source\PSoC4/ADC_SAR_Seq_1.c ****     *
 802:Generated_Source\PSoC4/ADC_SAR_Seq_1.c ****     * Theory:
 803:Generated_Source\PSoC4/ADC_SAR_Seq_1.c ****     *  Care must be taken to not exceed the maximum value for a 31 bit signed
 804:Generated_Source\PSoC4/ADC_SAR_Seq_1.c ****     *  number in the conversion to uVolts and at the same time not loose
 805:Generated_Source\PSoC4/ADC_SAR_Seq_1.c ****     *  resolution.
 806:Generated_Source\PSoC4/ADC_SAR_Seq_1.c ****     *  To convert adcCounts to microVolts it is required to be multiplied
 807:Generated_Source\PSoC4/ADC_SAR_Seq_1.c ****     *  on 10 million and later divide on gain in counts per 10V.
 808:Generated_Source\PSoC4/ADC_SAR_Seq_1.c ****     *
 809:Generated_Source\PSoC4/ADC_SAR_Seq_1.c ****     *******************************************************************************/
 810:Generated_Source\PSoC4/ADC_SAR_Seq_1.c ****     int32 ADC_SAR_Seq_1_CountsTo_uVolts(uint32 chan, int16 adcCounts)
 811:Generated_Source\PSoC4/ADC_SAR_Seq_1.c ****     {
 828              		.loc 1 811 0
 829              		.cfi_startproc
ARM GAS  C:\Users\Austcha\AppData\Local\Temp\ccLjoqH7.s 			page 30


 830              		@ args = 0, pretend = 0, frame = 0
 831              		@ frame_needed = 0, uses_anonymous_args = 0
 832              	.LVL55:
 833 0000 70B5     		push	{r4, r5, r6, lr}
 834              		.cfi_def_cfa_offset 16
 835              		.cfi_offset 4, -16
 836              		.cfi_offset 5, -12
 837              		.cfi_offset 6, -8
 838              		.cfi_offset 14, -4
 839 0002 0500     		movs	r5, r0
 840 0004 0C00     		movs	r4, r1
 812:Generated_Source\PSoC4/ADC_SAR_Seq_1.c ****         int64 uVolts;
 813:Generated_Source\PSoC4/ADC_SAR_Seq_1.c **** 
 814:Generated_Source\PSoC4/ADC_SAR_Seq_1.c ****         /* Halt CPU in debug mode if channel is out of valid range */
 815:Generated_Source\PSoC4/ADC_SAR_Seq_1.c ****         CYASSERT(chan < ADC_SAR_Seq_1_TOTAL_CHANNELS_NUM);
 841              		.loc 1 815 0
 842 0006 0028     		cmp	r0, #0
 843 0008 02D0     		beq	.L69
 844              		.loc 1 815 0 is_stmt 0 discriminator 1
 845 000a 0020     		movs	r0, #0
 846              	.LVL56:
 847 000c FFF7FEFF 		bl	CyHalt
 848              	.LVL57:
 849              	.L69:
 816:Generated_Source\PSoC4/ADC_SAR_Seq_1.c **** 
 817:Generated_Source\PSoC4/ADC_SAR_Seq_1.c ****         /* Divide the adcCount when accumulate averaging mode selected */
 818:Generated_Source\PSoC4/ADC_SAR_Seq_1.c ****         #if(ADC_SAR_Seq_1_DEFAULT_AVG_MODE == ADC_SAR_Seq_1__ACCUMULATE)
 819:Generated_Source\PSoC4/ADC_SAR_Seq_1.c ****             if((ADC_SAR_Seq_1_channelsConfig[chan] & ADC_SAR_Seq_1_AVERAGING_EN) != 0u)
 820:Generated_Source\PSoC4/ADC_SAR_Seq_1.c ****             {
 821:Generated_Source\PSoC4/ADC_SAR_Seq_1.c ****                 adcCounts /= ADC_SAR_Seq_1_DEFAULT_AVG_SAMPLES_DIV;
 822:Generated_Source\PSoC4/ADC_SAR_Seq_1.c ****             }
 823:Generated_Source\PSoC4/ADC_SAR_Seq_1.c ****         #endif /* ADC_SAR_Seq_1_DEFAULT_AVG_MODE == ADC_SAR_Seq_1__ACCUMULATE */
 824:Generated_Source\PSoC4/ADC_SAR_Seq_1.c **** 
 825:Generated_Source\PSoC4/ADC_SAR_Seq_1.c ****         /* Subtract ADC offset */
 826:Generated_Source\PSoC4/ADC_SAR_Seq_1.c ****         adcCounts -= ADC_SAR_Seq_1_offset[chan];
 850              		.loc 1 826 0 is_stmt 1
 851 0010 6A00     		lsls	r2, r5, #1
 852 0012 084B     		ldr	r3, .L70
 853 0014 D05A     		ldrh	r0, [r2, r3]
 854 0016 00B2     		sxth	r0, r0
 855 0018 201A     		subs	r0, r4, r0
 856 001a 00B2     		sxth	r0, r0
 857              	.LVL58:
 827:Generated_Source\PSoC4/ADC_SAR_Seq_1.c **** 
 828:Generated_Source\PSoC4/ADC_SAR_Seq_1.c ****         uVolts = ((int64)adcCounts * ADC_SAR_Seq_1_10UV_COUNTS) / ADC_SAR_Seq_1_countsPer10Volt[cha
 858              		.loc 1 828 0
 859 001c C117     		asrs	r1, r0, #31
 860 001e 064A     		ldr	r2, .L70+4
 861 0020 0023     		movs	r3, #0
 862 0022 FFF7FEFF 		bl	__aeabi_lmul
 863              	.LVL59:
 864 0026 AD00     		lsls	r5, r5, #2
 865              	.LVL60:
 866 0028 044B     		ldr	r3, .L70+8
 867 002a EA58     		ldr	r2, [r5, r3]
 868 002c D317     		asrs	r3, r2, #31
 869 002e FFF7FEFF 		bl	__aeabi_ldivmod
ARM GAS  C:\Users\Austcha\AppData\Local\Temp\ccLjoqH7.s 			page 31


 870              	.LVL61:
 829:Generated_Source\PSoC4/ADC_SAR_Seq_1.c **** 
 830:Generated_Source\PSoC4/ADC_SAR_Seq_1.c ****         return( (int32)uVolts );
 831:Generated_Source\PSoC4/ADC_SAR_Seq_1.c ****     }
 871              		.loc 1 831 0
 872              		@ sp needed
 873 0032 70BD     		pop	{r4, r5, r6, pc}
 874              	.L71:
 875              		.align	2
 876              	.L70:
 877 0034 00000000 		.word	ADC_SAR_Seq_1_offset
 878 0038 80969800 		.word	10000000
 879 003c 00000000 		.word	ADC_SAR_Seq_1_countsPer10Volt
 880              		.cfi_endproc
 881              	.LFE17:
 882              		.size	ADC_SAR_Seq_1_CountsTo_uVolts, .-ADC_SAR_Seq_1_CountsTo_uVolts
 883              		.global	__aeabi_i2f
 884              		.global	__aeabi_fmul
 885              		.global	__aeabi_fdiv
 886              		.section	.text.ADC_SAR_Seq_1_CountsTo_Volts,"ax",%progbits
 887              		.align	2
 888              		.global	ADC_SAR_Seq_1_CountsTo_Volts
 889              		.code	16
 890              		.thumb_func
 891              		.type	ADC_SAR_Seq_1_CountsTo_Volts, %function
 892              	ADC_SAR_Seq_1_CountsTo_Volts:
 893              	.LFB18:
 832:Generated_Source\PSoC4/ADC_SAR_Seq_1.c **** 
 833:Generated_Source\PSoC4/ADC_SAR_Seq_1.c **** 
 834:Generated_Source\PSoC4/ADC_SAR_Seq_1.c ****     /*******************************************************************************
 835:Generated_Source\PSoC4/ADC_SAR_Seq_1.c ****     * Function Name: ADC_SAR_Seq_1_CountsTo_Volts
 836:Generated_Source\PSoC4/ADC_SAR_Seq_1.c ****     ********************************************************************************
 837:Generated_Source\PSoC4/ADC_SAR_Seq_1.c ****     *
 838:Generated_Source\PSoC4/ADC_SAR_Seq_1.c ****     * Summary:
 839:Generated_Source\PSoC4/ADC_SAR_Seq_1.c ****     *  Converts the ADC output to Volts as a floating point number.
 840:Generated_Source\PSoC4/ADC_SAR_Seq_1.c ****     *  This function is not available when left data format justification selected.
 841:Generated_Source\PSoC4/ADC_SAR_Seq_1.c ****     *
 842:Generated_Source\PSoC4/ADC_SAR_Seq_1.c ****     * Parameters:
 843:Generated_Source\PSoC4/ADC_SAR_Seq_1.c ****     *  chan: The ADC channel number.
 844:Generated_Source\PSoC4/ADC_SAR_Seq_1.c ****     *  Result from the ADC conversion
 845:Generated_Source\PSoC4/ADC_SAR_Seq_1.c ****     *
 846:Generated_Source\PSoC4/ADC_SAR_Seq_1.c ****     * Return:
 847:Generated_Source\PSoC4/ADC_SAR_Seq_1.c ****     *  Results in Volts
 848:Generated_Source\PSoC4/ADC_SAR_Seq_1.c ****     *
 849:Generated_Source\PSoC4/ADC_SAR_Seq_1.c ****     * Global variables:
 850:Generated_Source\PSoC4/ADC_SAR_Seq_1.c ****     *  ADC_SAR_Seq_1_countsPer10Volt:  used to convert ADC counts to Volts.
 851:Generated_Source\PSoC4/ADC_SAR_Seq_1.c ****     *  ADC_SAR_Seq_1_Offset:  Used as the offset while converting ADC counts
 852:Generated_Source\PSoC4/ADC_SAR_Seq_1.c ****     *   to mVolts.
 853:Generated_Source\PSoC4/ADC_SAR_Seq_1.c ****     *
 854:Generated_Source\PSoC4/ADC_SAR_Seq_1.c ****     *******************************************************************************/
 855:Generated_Source\PSoC4/ADC_SAR_Seq_1.c ****     float32 ADC_SAR_Seq_1_CountsTo_Volts(uint32 chan, int16 adcCounts)
 856:Generated_Source\PSoC4/ADC_SAR_Seq_1.c ****     {
 894              		.loc 1 856 0
 895              		.cfi_startproc
 896              		@ args = 0, pretend = 0, frame = 0
 897              		@ frame_needed = 0, uses_anonymous_args = 0
 898              	.LVL62:
ARM GAS  C:\Users\Austcha\AppData\Local\Temp\ccLjoqH7.s 			page 32


 899 0000 70B5     		push	{r4, r5, r6, lr}
 900              		.cfi_def_cfa_offset 16
 901              		.cfi_offset 4, -16
 902              		.cfi_offset 5, -12
 903              		.cfi_offset 6, -8
 904              		.cfi_offset 14, -4
 905 0002 0400     		movs	r4, r0
 906 0004 0D00     		movs	r5, r1
 857:Generated_Source\PSoC4/ADC_SAR_Seq_1.c ****         float32 volts;
 858:Generated_Source\PSoC4/ADC_SAR_Seq_1.c **** 
 859:Generated_Source\PSoC4/ADC_SAR_Seq_1.c ****         /* Halt CPU in debug mode if channel is out of valid range */
 860:Generated_Source\PSoC4/ADC_SAR_Seq_1.c ****         CYASSERT(chan < ADC_SAR_Seq_1_TOTAL_CHANNELS_NUM);
 907              		.loc 1 860 0
 908 0006 0028     		cmp	r0, #0
 909 0008 02D0     		beq	.L73
 910              		.loc 1 860 0 is_stmt 0 discriminator 1
 911 000a 0020     		movs	r0, #0
 912              	.LVL63:
 913 000c FFF7FEFF 		bl	CyHalt
 914              	.LVL64:
 915              	.L73:
 861:Generated_Source\PSoC4/ADC_SAR_Seq_1.c **** 
 862:Generated_Source\PSoC4/ADC_SAR_Seq_1.c ****         /* Divide the adcCount when accumulate averaging mode selected */
 863:Generated_Source\PSoC4/ADC_SAR_Seq_1.c ****         #if(ADC_SAR_Seq_1_DEFAULT_AVG_MODE == ADC_SAR_Seq_1__ACCUMULATE)
 864:Generated_Source\PSoC4/ADC_SAR_Seq_1.c ****             if((ADC_SAR_Seq_1_channelsConfig[chan] & ADC_SAR_Seq_1_AVERAGING_EN) != 0u)
 865:Generated_Source\PSoC4/ADC_SAR_Seq_1.c ****             {
 866:Generated_Source\PSoC4/ADC_SAR_Seq_1.c ****                 adcCounts /= ADC_SAR_Seq_1_DEFAULT_AVG_SAMPLES_DIV;
 867:Generated_Source\PSoC4/ADC_SAR_Seq_1.c ****             }
 868:Generated_Source\PSoC4/ADC_SAR_Seq_1.c ****         #endif /* ADC_SAR_Seq_1_DEFAULT_AVG_MODE == ADC_SAR_Seq_1__ACCUMULATE */
 869:Generated_Source\PSoC4/ADC_SAR_Seq_1.c **** 
 870:Generated_Source\PSoC4/ADC_SAR_Seq_1.c ****         /* Subtract ADC offset */
 871:Generated_Source\PSoC4/ADC_SAR_Seq_1.c ****         adcCounts -= ADC_SAR_Seq_1_offset[chan];
 916              		.loc 1 871 0 is_stmt 1
 917 0010 6200     		lsls	r2, r4, #1
 918 0012 0A4B     		ldr	r3, .L74
 919 0014 D05A     		ldrh	r0, [r2, r3]
 920 0016 00B2     		sxth	r0, r0
 921 0018 281A     		subs	r0, r5, r0
 922 001a 00B2     		sxth	r0, r0
 923              	.LVL65:
 872:Generated_Source\PSoC4/ADC_SAR_Seq_1.c **** 
 873:Generated_Source\PSoC4/ADC_SAR_Seq_1.c ****         volts = ((float32)adcCounts * ADC_SAR_Seq_1_10V_COUNTS) / (float32)ADC_SAR_Seq_1_countsPer1
 924              		.loc 1 873 0
 925 001c FFF7FEFF 		bl	__aeabi_i2f
 926              	.LVL66:
 927 0020 0749     		ldr	r1, .L74+4
 928 0022 FFF7FEFF 		bl	__aeabi_fmul
 929              	.LVL67:
 930 0026 051C     		adds	r5, r0, #0
 931 0028 A400     		lsls	r4, r4, #2
 932              	.LVL68:
 933 002a 064B     		ldr	r3, .L74+8
 934 002c E058     		ldr	r0, [r4, r3]
 935 002e FFF7FEFF 		bl	__aeabi_i2f
 936              	.LVL69:
 937 0032 011C     		adds	r1, r0, #0
 938 0034 281C     		adds	r0, r5, #0
ARM GAS  C:\Users\Austcha\AppData\Local\Temp\ccLjoqH7.s 			page 33


 939 0036 FFF7FEFF 		bl	__aeabi_fdiv
 940              	.LVL70:
 874:Generated_Source\PSoC4/ADC_SAR_Seq_1.c **** 
 875:Generated_Source\PSoC4/ADC_SAR_Seq_1.c ****         return( volts );
 876:Generated_Source\PSoC4/ADC_SAR_Seq_1.c ****     }
 941              		.loc 1 876 0
 942              		@ sp needed
 943 003a 70BD     		pop	{r4, r5, r6, pc}
 944              	.L75:
 945              		.align	2
 946              	.L74:
 947 003c 00000000 		.word	ADC_SAR_Seq_1_offset
 948 0040 00002041 		.word	1092616192
 949 0044 00000000 		.word	ADC_SAR_Seq_1_countsPer10Volt
 950              		.cfi_endproc
 951              	.LFE18:
 952              		.size	ADC_SAR_Seq_1_CountsTo_Volts, .-ADC_SAR_Seq_1_CountsTo_Volts
 953              		.comm	ADC_SAR_Seq_1_countsPer10Volt,4,4
 954              		.comm	ADC_SAR_Seq_1_offset,2,4
 955              		.global	ADC_SAR_Seq_1_initVar
 956              		.bss
 957              		.set	.LANCHOR0,. + 0
 958              		.type	ADC_SAR_Seq_1_initVar, %object
 959              		.size	ADC_SAR_Seq_1_initVar, 1
 960              	ADC_SAR_Seq_1_initVar:
 961 0000 00       		.space	1
 962              		.text
 963              	.Letext0:
 964              		.file 2 "Generated_Source\\PSoC4\\cytypes.h"
 965              		.file 3 "Generated_Source\\PSoC4\\CyLib.h"