ARM GAS  C:\Users\Austcha\AppData\Local\Temp\ccFHMreR.s 			page 1


   1              		.syntax unified
   2              		.cpu cortex-m0
   3              		.fpu softvfp
   4              		.eabi_attribute 20, 1
   5              		.eabi_attribute 21, 1
   6              		.eabi_attribute 23, 3
   7              		.eabi_attribute 24, 1
   8              		.eabi_attribute 25, 1
   9              		.eabi_attribute 26, 1
  10              		.eabi_attribute 30, 6
  11              		.eabi_attribute 34, 0
  12              		.eabi_attribute 18, 4
  13              		.thumb
  14              		.syntax unified
  15              		.file	"CANCommon.c"
  16              		.text
  17              	.Ltext0:
  18              		.cfi_sections	.debug_frame
  19              		.section	.text.AssembleEmergencyStopPacket,"ax",%progbits
  20              		.align	2
  21              		.global	AssembleEmergencyStopPacket
  22              		.code	16
  23              		.thumb_func
  24              		.type	AssembleEmergencyStopPacket, %function
  25              	AssembleEmergencyStopPacket:
  26              	.LFB0:
  27              		.file 1 "..\\CANLib\\CANCommon.c"
   1:..\CANLib/CANCommon.c **** /* File:         CANCommon.c
   2:..\CANLib/CANCommon.c ****  * Authors:      Jaden Bottemiller, Benton Kwong, Dylan Tomberlin.
   3:..\CANLib/CANCommon.c ****  * Organization: Husky Robotics Team
   4:..\CANLib/CANCommon.c ****  * 
   5:..\CANLib/CANCommon.c ****  * This file includes fuction definitions for Common Mode CAN Communication
   6:..\CANLib/CANCommon.c ****  * using the Hindsight CAN Communication standard.
   7:..\CANLib/CANCommon.c ****  * Documentation: https://huskyroboticsteam.slite.com/app/channels/iU0BryG7M9/collections/aXvWTcIR6
   8:..\CANLib/CANCommon.c ****  */
   9:..\CANLib/CANCommon.c **** 
  10:..\CANLib/CANCommon.c **** #include "CANPacket.h"
  11:..\CANLib/CANCommon.c **** #include "CANCommon.h"
  12:..\CANLib/CANCommon.c **** #include "Port.h"
  13:..\CANLib/CANCommon.c **** // Assembles Emergency Stop Packet with given parameters
  14:..\CANLib/CANCommon.c **** // Inputs:
  15:..\CANLib/CANCommon.c **** //      packet:                     CAN Packet to assemble (will overwrite).
  16:..\CANLib/CANCommon.c **** //      targetDeviceGroup:          Group to target
  17:..\CANLib/CANCommon.c **** //      targetDeviceSerialNumber:   Serial number of target device
  18:..\CANLib/CANCommon.c **** //      errorCode:                  Emergency stop error code. E.G. ESTOP_ERR_GENERAL
  19:..\CANLib/CANCommon.c **** void AssembleEmergencyStopPacket(CANPacket *packet,
  20:..\CANLib/CANCommon.c ****     uint8_t targetDeviceGroup,
  21:..\CANLib/CANCommon.c ****     uint8_t targetDeviceSerialNumber,
  22:..\CANLib/CANCommon.c ****     uint8_t errorCode)
  23:..\CANLib/CANCommon.c **** {
  28              		.loc 1 23 0
  29              		.cfi_startproc
  30              		@ args = 0, pretend = 0, frame = 16
  31              		@ frame_needed = 1, uses_anonymous_args = 0
  32 0000 90B5     		push	{r4, r7, lr}
  33              		.cfi_def_cfa_offset 12
  34              		.cfi_offset 4, -12
ARM GAS  C:\Users\Austcha\AppData\Local\Temp\ccFHMreR.s 			page 2


  35              		.cfi_offset 7, -8
  36              		.cfi_offset 14, -4
  37 0002 85B0     		sub	sp, sp, #20
  38              		.cfi_def_cfa_offset 32
  39 0004 00AF     		add	r7, sp, #0
  40              		.cfi_def_cfa_register 7
  41 0006 7860     		str	r0, [r7, #4]
  42 0008 0C00     		movs	r4, r1
  43 000a 1000     		movs	r0, r2
  44 000c 1900     		movs	r1, r3
  45 000e FB1C     		adds	r3, r7, #3
  46 0010 221C     		adds	r2, r4, #0
  47 0012 1A70     		strb	r2, [r3]
  48 0014 BB1C     		adds	r3, r7, #2
  49 0016 021C     		adds	r2, r0, #0
  50 0018 1A70     		strb	r2, [r3]
  51 001a 7B1C     		adds	r3, r7, #1
  52 001c 0A1C     		adds	r2, r1, #0
  53 001e 1A70     		strb	r2, [r3]
  24:..\CANLib/CANCommon.c ****     packet->dlc = DLC_ESTOP;
  54              		.loc 1 24 0
  55 0020 7B68     		ldr	r3, [r7, #4]
  56 0022 0322     		movs	r2, #3
  57 0024 9A70     		strb	r2, [r3, #2]
  25:..\CANLib/CANCommon.c ****     packet->id = ConstructCANID(PACKET_PRIORITY_HIGH, targetDeviceGroup, targetDeviceSerialNumber);
  58              		.loc 1 25 0
  59 0026 BB1C     		adds	r3, r7, #2
  60 0028 1A78     		ldrb	r2, [r3]
  61 002a FB1C     		adds	r3, r7, #3
  62 002c 1B78     		ldrb	r3, [r3]
  63 002e 1900     		movs	r1, r3
  64 0030 0020     		movs	r0, #0
  65 0032 FFF7FEFF 		bl	ConstructCANID
  66 0036 0300     		movs	r3, r0
  67 0038 1A00     		movs	r2, r3
  68 003a 7B68     		ldr	r3, [r7, #4]
  69 003c 1A80     		strh	r2, [r3]
  26:..\CANLib/CANCommon.c ****     int nextByte = WriteSenderSerialAndPacketID(packet->data, ID_ESTOP);
  70              		.loc 1 26 0
  71 003e 7B68     		ldr	r3, [r7, #4]
  72 0040 0333     		adds	r3, r3, #3
  73 0042 3021     		movs	r1, #48
  74 0044 1800     		movs	r0, r3
  75 0046 FFF7FEFF 		bl	WriteSenderSerialAndPacketID
  76 004a 0300     		movs	r3, r0
  77 004c FB60     		str	r3, [r7, #12]
  27:..\CANLib/CANCommon.c ****     packet->data[nextByte] = errorCode;
  78              		.loc 1 27 0
  79 004e 7A68     		ldr	r2, [r7, #4]
  80 0050 FB68     		ldr	r3, [r7, #12]
  81 0052 D318     		adds	r3, r2, r3
  82 0054 0333     		adds	r3, r3, #3
  83 0056 7A1C     		adds	r2, r7, #1
  84 0058 1278     		ldrb	r2, [r2]
  85 005a 1A70     		strb	r2, [r3]
  28:..\CANLib/CANCommon.c **** }
  86              		.loc 1 28 0
ARM GAS  C:\Users\Austcha\AppData\Local\Temp\ccFHMreR.s 			page 3


  87 005c C046     		nop
  88 005e BD46     		mov	sp, r7
  89 0060 05B0     		add	sp, sp, #20
  90              		@ sp needed
  91 0062 90BD     		pop	{r4, r7, pc}
  92              		.cfi_endproc
  93              	.LFE0:
  94              		.size	AssembleEmergencyStopPacket, .-AssembleEmergencyStopPacket
  95              		.section	.text.AssembleGroupBroadcastingEmergencyStopPacket,"ax",%progbits
  96              		.align	2
  97              		.global	AssembleGroupBroadcastingEmergencyStopPacket
  98              		.code	16
  99              		.thumb_func
 100              		.type	AssembleGroupBroadcastingEmergencyStopPacket, %function
 101              	AssembleGroupBroadcastingEmergencyStopPacket:
 102              	.LFB1:
  29:..\CANLib/CANCommon.c **** 
  30:..\CANLib/CANCommon.c **** // Assembles Emergency Stop Packet with given parameters.
  31:..\CANLib/CANCommon.c **** // This will broadcast the emergency stop command to a desired device group.
  32:..\CANLib/CANCommon.c **** // Inputs:
  33:..\CANLib/CANCommon.c **** //      packet:                     CAN Packet to assemble (will overwrite).
  34:..\CANLib/CANCommon.c **** //      deviceGroup:                Group to target
  35:..\CANLib/CANCommon.c **** //      errorCode:                  Emergency stop error code. E.G. ESTOP_ERR_GENERAL
  36:..\CANLib/CANCommon.c **** void AssembleGroupBroadcastingEmergencyStopPacket(CANPacket *packet, 
  37:..\CANLib/CANCommon.c ****     uint8_t groupCode, 
  38:..\CANLib/CANCommon.c ****     uint8_t errorCode)
  39:..\CANLib/CANCommon.c **** {
 103              		.loc 1 39 0
 104              		.cfi_startproc
 105              		@ args = 0, pretend = 0, frame = 8
 106              		@ frame_needed = 1, uses_anonymous_args = 0
 107 0000 80B5     		push	{r7, lr}
 108              		.cfi_def_cfa_offset 8
 109              		.cfi_offset 7, -8
 110              		.cfi_offset 14, -4
 111 0002 82B0     		sub	sp, sp, #8
 112              		.cfi_def_cfa_offset 16
 113 0004 00AF     		add	r7, sp, #0
 114              		.cfi_def_cfa_register 7
 115 0006 7860     		str	r0, [r7, #4]
 116 0008 0800     		movs	r0, r1
 117 000a 1100     		movs	r1, r2
 118 000c FB1C     		adds	r3, r7, #3
 119 000e 021C     		adds	r2, r0, #0
 120 0010 1A70     		strb	r2, [r3]
 121 0012 BB1C     		adds	r3, r7, #2
 122 0014 0A1C     		adds	r2, r1, #0
 123 0016 1A70     		strb	r2, [r3]
  40:..\CANLib/CANCommon.c ****     AssembleEmergencyStopPacket(packet, groupCode, DEVICE_SERIAL_BROADCAST, errorCode);
 124              		.loc 1 40 0
 125 0018 BB1C     		adds	r3, r7, #2
 126 001a 1A78     		ldrb	r2, [r3]
 127 001c FB1C     		adds	r3, r7, #3
 128 001e 1978     		ldrb	r1, [r3]
 129 0020 7868     		ldr	r0, [r7, #4]
 130 0022 1300     		movs	r3, r2
 131 0024 0022     		movs	r2, #0
ARM GAS  C:\Users\Austcha\AppData\Local\Temp\ccFHMreR.s 			page 4


 132 0026 FFF7FEFF 		bl	AssembleEmergencyStopPacket
  41:..\CANLib/CANCommon.c **** }
 133              		.loc 1 41 0
 134 002a C046     		nop
 135 002c BD46     		mov	sp, r7
 136 002e 02B0     		add	sp, sp, #8
 137              		@ sp needed
 138 0030 80BD     		pop	{r7, pc}
 139              		.cfi_endproc
 140              	.LFE1:
 141              		.size	AssembleGroupBroadcastingEmergencyStopPacket, .-AssembleGroupBroadcastingEmergencyStopPacket
 142 0032 C046     		.section	.text.AssembleBrodcastEmergencyStopPacket,"ax",%progbits
 143              		.align	2
 144              		.global	AssembleBrodcastEmergencyStopPacket
 145              		.code	16
 146              		.thumb_func
 147              		.type	AssembleBrodcastEmergencyStopPacket, %function
 148              	AssembleBrodcastEmergencyStopPacket:
 149              	.LFB2:
  42:..\CANLib/CANCommon.c **** 
  43:..\CANLib/CANCommon.c **** // Assembles Emergency Stop Packet with given parameters.
  44:..\CANLib/CANCommon.c **** // This will broadcast the emergency stop command to all devices
  45:..\CANLib/CANCommon.c **** // Inputs:
  46:..\CANLib/CANCommon.c **** //      packet:                     CAN Packet to assemble (will overwrite).
  47:..\CANLib/CANCommon.c **** //      errorCode:                  Emergency stop error code. E.G. ESTOP_ERR_GENERAL
  48:..\CANLib/CANCommon.c **** void AssembleBrodcastEmergencyStopPacket(CANPacket *packet, 
  49:..\CANLib/CANCommon.c ****     uint8_t errorCode)
  50:..\CANLib/CANCommon.c **** {
 150              		.loc 1 50 0
 151              		.cfi_startproc
 152              		@ args = 0, pretend = 0, frame = 8
 153              		@ frame_needed = 1, uses_anonymous_args = 0
 154 0000 80B5     		push	{r7, lr}
 155              		.cfi_def_cfa_offset 8
 156              		.cfi_offset 7, -8
 157              		.cfi_offset 14, -4
 158 0002 82B0     		sub	sp, sp, #8
 159              		.cfi_def_cfa_offset 16
 160 0004 00AF     		add	r7, sp, #0
 161              		.cfi_def_cfa_register 7
 162 0006 7860     		str	r0, [r7, #4]
 163 0008 0A00     		movs	r2, r1
 164 000a FB1C     		adds	r3, r7, #3
 165 000c 1A70     		strb	r2, [r3]
  51:..\CANLib/CANCommon.c ****     AssembleGroupBroadcastingEmergencyStopPacket(packet, DEVICE_GROUP_BROADCAST, errorCode);
 166              		.loc 1 51 0
 167 000e FB1C     		adds	r3, r7, #3
 168 0010 1A78     		ldrb	r2, [r3]
 169 0012 7B68     		ldr	r3, [r7, #4]
 170 0014 0021     		movs	r1, #0
 171 0016 1800     		movs	r0, r3
 172 0018 FFF7FEFF 		bl	AssembleGroupBroadcastingEmergencyStopPacket
  52:..\CANLib/CANCommon.c **** }
 173              		.loc 1 52 0
 174 001c C046     		nop
 175 001e BD46     		mov	sp, r7
 176 0020 02B0     		add	sp, sp, #8
ARM GAS  C:\Users\Austcha\AppData\Local\Temp\ccFHMreR.s 			page 5


 177              		@ sp needed
 178 0022 80BD     		pop	{r7, pc}
 179              		.cfi_endproc
 180              	.LFE2:
 181              		.size	AssembleBrodcastEmergencyStopPacket, .-AssembleBrodcastEmergencyStopPacket
 182              		.section	.text.GetEmergencyStopErrorCode,"ax",%progbits
 183              		.align	2
 184              		.global	GetEmergencyStopErrorCode
 185              		.code	16
 186              		.thumb_func
 187              		.type	GetEmergencyStopErrorCode, %function
 188              	GetEmergencyStopErrorCode:
 189              	.LFB3:
  53:..\CANLib/CANCommon.c **** 
  54:..\CANLib/CANCommon.c **** // Gets the Error Code reported from an emergency stop packet.
  55:..\CANLib/CANCommon.c **** // Inputs:
  56:..\CANLib/CANCommon.c **** //      packet:     Packet to check.
  57:..\CANLib/CANCommon.c **** uint8_t GetEmergencyStopErrorCode(CANPacket *packet)
  58:..\CANLib/CANCommon.c **** {
 190              		.loc 1 58 0
 191              		.cfi_startproc
 192              		@ args = 0, pretend = 0, frame = 8
 193              		@ frame_needed = 1, uses_anonymous_args = 0
 194 0000 80B5     		push	{r7, lr}
 195              		.cfi_def_cfa_offset 8
 196              		.cfi_offset 7, -8
 197              		.cfi_offset 14, -4
 198 0002 82B0     		sub	sp, sp, #8
 199              		.cfi_def_cfa_offset 16
 200 0004 00AF     		add	r7, sp, #0
 201              		.cfi_def_cfa_register 7
 202 0006 7860     		str	r0, [r7, #4]
  59:..\CANLib/CANCommon.c ****     if (PacketIsOfID(packet, ID_ESTOP))
 203              		.loc 1 59 0
 204 0008 7B68     		ldr	r3, [r7, #4]
 205 000a 3021     		movs	r1, #48
 206 000c 1800     		movs	r0, r3
 207 000e FFF7FEFF 		bl	PacketIsOfID
 208 0012 031E     		subs	r3, r0, #0
 209 0014 02D0     		beq	.L5
  60:..\CANLib/CANCommon.c ****     {
  61:..\CANLib/CANCommon.c ****         return packet->data[2];
 210              		.loc 1 61 0
 211 0016 7B68     		ldr	r3, [r7, #4]
 212 0018 5B79     		ldrb	r3, [r3, #5]
 213 001a 00E0     		b	.L6
 214              	.L5:
  62:..\CANLib/CANCommon.c ****     }
  63:..\CANLib/CANCommon.c ****     else { return -1; }
 215              		.loc 1 63 0
 216 001c FF23     		movs	r3, #255
 217              	.L6:
  64:..\CANLib/CANCommon.c **** }
 218              		.loc 1 64 0
 219 001e 1800     		movs	r0, r3
 220 0020 BD46     		mov	sp, r7
 221 0022 02B0     		add	sp, sp, #8
ARM GAS  C:\Users\Austcha\AppData\Local\Temp\ccFHMreR.s 			page 6


 222              		@ sp needed
 223 0024 80BD     		pop	{r7, pc}
 224              		.cfi_endproc
 225              	.LFE3:
 226              		.size	GetEmergencyStopErrorCode, .-GetEmergencyStopErrorCode
 227 0026 C046     		.section	.text.GetTimeBetweenHeartbeatPacket,"ax",%progbits
 228              		.align	2
 229              		.global	GetTimeBetweenHeartbeatPacket
 230              		.code	16
 231              		.thumb_func
 232              		.type	GetTimeBetweenHeartbeatPacket, %function
 233              	GetTimeBetweenHeartbeatPacket:
 234              	.LFB4:
  65:..\CANLib/CANCommon.c **** 
  66:..\CANLib/CANCommon.c **** // Validates the Heartbeat Packet, returns time between previous Heartbeat packets
  67:..\CANLib/CANCommon.c **** // Inputs:
  68:..\CANLib/CANCommon.c **** //      packet:         CAN Packet to check
  69:..\CANLib/CANCommon.c **** //      lastHeartbeat:  Timestamp (ms) of last detected heartbeat
  70:..\CANLib/CANCommon.c **** // Outputs:
  71:..\CANLib/CANCommon.c **** //                  Time (in ms) between this heartbeat and the previous detected heartbeat
  72:..\CANLib/CANCommon.c **** //                  Negative value if packet is not valid heartbeat packet
  73:..\CANLib/CANCommon.c **** uint32_t GetTimeBetweenHeartbeatPacket(CANPacket *packet, uint32_t lastHeartbeat)
  74:..\CANLib/CANCommon.c **** {
 235              		.loc 1 74 0
 236              		.cfi_startproc
 237              		@ args = 0, pretend = 0, frame = 8
 238              		@ frame_needed = 1, uses_anonymous_args = 0
 239 0000 80B5     		push	{r7, lr}
 240              		.cfi_def_cfa_offset 8
 241              		.cfi_offset 7, -8
 242              		.cfi_offset 14, -4
 243 0002 82B0     		sub	sp, sp, #8
 244              		.cfi_def_cfa_offset 16
 245 0004 00AF     		add	r7, sp, #0
 246              		.cfi_def_cfa_register 7
 247 0006 7860     		str	r0, [r7, #4]
 248 0008 3960     		str	r1, [r7]
  75:..\CANLib/CANCommon.c ****     if (PacketIsOfID(packet, ID_HEARTBEAT)) 
 249              		.loc 1 75 0
 250 000a 7B68     		ldr	r3, [r7, #4]
 251 000c 3121     		movs	r1, #49
 252 000e 1800     		movs	r0, r3
 253 0010 FFF7FEFF 		bl	PacketIsOfID
 254 0014 031E     		subs	r3, r0, #0
 255 0016 07D0     		beq	.L8
  76:..\CANLib/CANCommon.c ****     {
  77:..\CANLib/CANCommon.c ****         return GetHeartbeatTimeStamp(packet) - lastHeartbeat;
 256              		.loc 1 77 0
 257 0018 7B68     		ldr	r3, [r7, #4]
 258 001a 1800     		movs	r0, r3
 259 001c FFF7FEFF 		bl	GetHeartbeatTimeStamp
 260 0020 0200     		movs	r2, r0
 261 0022 3B68     		ldr	r3, [r7]
 262 0024 D31A     		subs	r3, r2, r3
 263 0026 01E0     		b	.L9
 264              	.L8:
  78:..\CANLib/CANCommon.c ****     }
ARM GAS  C:\Users\Austcha\AppData\Local\Temp\ccFHMreR.s 			page 7


  79:..\CANLib/CANCommon.c ****     else { return -1; }
 265              		.loc 1 79 0
 266 0028 0123     		movs	r3, #1
 267 002a 5B42     		rsbs	r3, r3, #0
 268              	.L9:
  80:..\CANLib/CANCommon.c **** }
 269              		.loc 1 80 0
 270 002c 1800     		movs	r0, r3
 271 002e BD46     		mov	sp, r7
 272 0030 02B0     		add	sp, sp, #8
 273              		@ sp needed
 274 0032 80BD     		pop	{r7, pc}
 275              		.cfi_endproc
 276              	.LFE4:
 277              		.size	GetTimeBetweenHeartbeatPacket, .-GetTimeBetweenHeartbeatPacket
 278              		.section	.text.GetHeartbeatTimeStamp,"ax",%progbits
 279              		.align	2
 280              		.global	GetHeartbeatTimeStamp
 281              		.code	16
 282              		.thumb_func
 283              		.type	GetHeartbeatTimeStamp, %function
 284              	GetHeartbeatTimeStamp:
 285              	.LFB5:
  81:..\CANLib/CANCommon.c **** 
  82:..\CANLib/CANCommon.c **** // Validates the Heartbeat Packet, returns time between previous Heartbeat packets
  83:..\CANLib/CANCommon.c **** // Inputs:
  84:..\CANLib/CANCommon.c **** //      packet:         CAN Packet to check
  85:..\CANLib/CANCommon.c **** //      lastHeartbeat:  Timestamp (ms) of last detected heartbeat
  86:..\CANLib/CANCommon.c **** // Outputs:
  87:..\CANLib/CANCommon.c **** //                  Time (in ms) of the timestamp within the packet
  88:..\CANLib/CANCommon.c **** //                  Default return value is uint32 max value, which is used
  89:..\CANLib/CANCommon.c **** //                  if the packet is corrupt or not a heartbeat packet.
  90:..\CANLib/CANCommon.c **** uint32_t GetHeartbeatTimeStamp(CANPacket *packet)
  91:..\CANLib/CANCommon.c **** {
 286              		.loc 1 91 0
 287              		.cfi_startproc
 288              		@ args = 0, pretend = 0, frame = 16
 289              		@ frame_needed = 1, uses_anonymous_args = 0
 290 0000 80B5     		push	{r7, lr}
 291              		.cfi_def_cfa_offset 8
 292              		.cfi_offset 7, -8
 293              		.cfi_offset 14, -4
 294 0002 84B0     		sub	sp, sp, #16
 295              		.cfi_def_cfa_offset 24
 296 0004 00AF     		add	r7, sp, #0
 297              		.cfi_def_cfa_register 7
 298 0006 7860     		str	r0, [r7, #4]
  92:..\CANLib/CANCommon.c ****     if (PacketIsOfID(packet, ID_HEARTBEAT)) 
 299              		.loc 1 92 0
 300 0008 7B68     		ldr	r3, [r7, #4]
 301 000a 3121     		movs	r1, #49
 302 000c 1800     		movs	r0, r3
 303 000e FFF7FEFF 		bl	PacketIsOfID
 304 0012 031E     		subs	r3, r0, #0
 305 0014 17D0     		beq	.L11
 306              	.LBB2:
  93:..\CANLib/CANCommon.c ****     {
ARM GAS  C:\Users\Austcha\AppData\Local\Temp\ccFHMreR.s 			page 8


  94:..\CANLib/CANCommon.c ****         uint32_t time = ((uint32_t)packet->data[3] << 24);
 307              		.loc 1 94 0
 308 0016 7B68     		ldr	r3, [r7, #4]
 309 0018 9B79     		ldrb	r3, [r3, #6]
 310 001a 1B06     		lsls	r3, r3, #24
 311 001c FB60     		str	r3, [r7, #12]
  95:..\CANLib/CANCommon.c ****         time |= ((uint32_t)packet->data[4] << 16);
 312              		.loc 1 95 0
 313 001e 7B68     		ldr	r3, [r7, #4]
 314 0020 DB79     		ldrb	r3, [r3, #7]
 315 0022 1B04     		lsls	r3, r3, #16
 316 0024 FA68     		ldr	r2, [r7, #12]
 317 0026 1343     		orrs	r3, r2
 318 0028 FB60     		str	r3, [r7, #12]
  96:..\CANLib/CANCommon.c ****         time |= ((uint32_t)packet->data[5] << 8);
 319              		.loc 1 96 0
 320 002a 7B68     		ldr	r3, [r7, #4]
 321 002c 1B7A     		ldrb	r3, [r3, #8]
 322 002e 1B02     		lsls	r3, r3, #8
 323 0030 FA68     		ldr	r2, [r7, #12]
 324 0032 1343     		orrs	r3, r2
 325 0034 FB60     		str	r3, [r7, #12]
  97:..\CANLib/CANCommon.c ****         time |= packet->data[6]; 
 326              		.loc 1 97 0
 327 0036 7B68     		ldr	r3, [r7, #4]
 328 0038 5B7A     		ldrb	r3, [r3, #9]
 329 003a 1A00     		movs	r2, r3
 330 003c FB68     		ldr	r3, [r7, #12]
 331 003e 1343     		orrs	r3, r2
 332 0040 FB60     		str	r3, [r7, #12]
  98:..\CANLib/CANCommon.c ****         return time;
 333              		.loc 1 98 0
 334 0042 FB68     		ldr	r3, [r7, #12]
 335 0044 01E0     		b	.L12
 336              	.L11:
 337              	.LBE2:
  99:..\CANLib/CANCommon.c ****     }
 100:..\CANLib/CANCommon.c ****     else { return -1; }
 338              		.loc 1 100 0
 339 0046 0123     		movs	r3, #1
 340 0048 5B42     		rsbs	r3, r3, #0
 341              	.L12:
 101:..\CANLib/CANCommon.c **** }
 342              		.loc 1 101 0
 343 004a 1800     		movs	r0, r3
 344 004c BD46     		mov	sp, r7
 345 004e 04B0     		add	sp, sp, #16
 346              		@ sp needed
 347 0050 80BD     		pop	{r7, pc}
 348              		.cfi_endproc
 349              	.LFE5:
 350              		.size	GetHeartbeatTimeStamp, .-GetHeartbeatTimeStamp
 351 0052 C046     		.section	.text.GetHeartbeatLeniencyCode,"ax",%progbits
 352              		.align	2
 353              		.global	GetHeartbeatLeniencyCode
 354              		.code	16
 355              		.thumb_func
ARM GAS  C:\Users\Austcha\AppData\Local\Temp\ccFHMreR.s 			page 9


 356              		.type	GetHeartbeatLeniencyCode, %function
 357              	GetHeartbeatLeniencyCode:
 358              	.LFB6:
 102:..\CANLib/CANCommon.c **** 
 103:..\CANLib/CANCommon.c **** // Validates the Heartbeat Packet, returns the heartbeat leniency code of the packet
 104:..\CANLib/CANCommon.c **** // Inputs:
 105:..\CANLib/CANCommon.c **** //      packet:     CAN Packet to check
 106:..\CANLib/CANCommon.c **** // Outputs:
 107:..\CANLib/CANCommon.c **** //                  Heartbeat leniency code of given packet
 108:..\CANLib/CANCommon.c **** uint8_t GetHeartbeatLeniencyCode(CANPacket *packet)
 109:..\CANLib/CANCommon.c **** {
 359              		.loc 1 109 0
 360              		.cfi_startproc
 361              		@ args = 0, pretend = 0, frame = 8
 362              		@ frame_needed = 1, uses_anonymous_args = 0
 363 0000 80B5     		push	{r7, lr}
 364              		.cfi_def_cfa_offset 8
 365              		.cfi_offset 7, -8
 366              		.cfi_offset 14, -4
 367 0002 82B0     		sub	sp, sp, #8
 368              		.cfi_def_cfa_offset 16
 369 0004 00AF     		add	r7, sp, #0
 370              		.cfi_def_cfa_register 7
 371 0006 7860     		str	r0, [r7, #4]
 110:..\CANLib/CANCommon.c ****     if (PacketIsOfID(packet, ID_HEARTBEAT))
 372              		.loc 1 110 0
 373 0008 7B68     		ldr	r3, [r7, #4]
 374 000a 3121     		movs	r1, #49
 375 000c 1800     		movs	r0, r3
 376 000e FFF7FEFF 		bl	PacketIsOfID
 377 0012 031E     		subs	r3, r0, #0
 378 0014 02D0     		beq	.L14
 111:..\CANLib/CANCommon.c ****     {
 112:..\CANLib/CANCommon.c ****         return packet->data[2];
 379              		.loc 1 112 0
 380 0016 7B68     		ldr	r3, [r7, #4]
 381 0018 5B79     		ldrb	r3, [r3, #5]
 382 001a 00E0     		b	.L15
 383              	.L14:
 113:..\CANLib/CANCommon.c ****     } else {
 114:..\CANLib/CANCommon.c ****         return 0x00;
 384              		.loc 1 114 0
 385 001c 0023     		movs	r3, #0
 386              	.L15:
 115:..\CANLib/CANCommon.c ****     }
 116:..\CANLib/CANCommon.c **** }
 387              		.loc 1 116 0
 388 001e 1800     		movs	r0, r3
 389 0020 BD46     		mov	sp, r7
 390 0022 02B0     		add	sp, sp, #8
 391              		@ sp needed
 392 0024 80BD     		pop	{r7, pc}
 393              		.cfi_endproc
 394              	.LFE6:
 395              		.size	GetHeartbeatLeniencyCode, .-GetHeartbeatLeniencyCode
 396 0026 C046     		.section	.text.AssembleHeartbeatPacket,"ax",%progbits
 397              		.align	2
ARM GAS  C:\Users\Austcha\AppData\Local\Temp\ccFHMreR.s 			page 10


 398              		.global	AssembleHeartbeatPacket
 399              		.code	16
 400              		.thumb_func
 401              		.type	AssembleHeartbeatPacket, %function
 402              	AssembleHeartbeatPacket:
 403              	.LFB7:
 117:..\CANLib/CANCommon.c **** 
 118:..\CANLib/CANCommon.c **** // Assembles Heartbeat Packet with given parameters
 119:..\CANLib/CANCommon.c **** // Inputs:
 120:..\CANLib/CANCommon.c **** //      packetToAssemble:       CAN Packet to assemble (will overwrite).
 121:..\CANLib/CANCommon.c **** //      broadcast:              1 if broadcast to all devices. 0 to return to MAIN_CPU / Jetson.
 122:..\CANLib/CANCommon.c **** //      heartbeatLeniencyCode:  Max time between heartbeats before system automatically enters a sa
 123:..\CANLib/CANCommon.c **** //      timestamp:              Current timestamp as seen by the sender device. (ms)
 124:..\CANLib/CANCommon.c **** //TODO, upon approval from @jaden, delete senderGroup and senderSerial params, as these are handled
 125:..\CANLib/CANCommon.c **** void AssembleHeartbeatPacket(CANPacket *packetToAssemble, 
 126:..\CANLib/CANCommon.c ****     int broadcast, 
 127:..\CANLib/CANCommon.c ****     uint8_t heartbeatLeniencyCode,
 128:..\CANLib/CANCommon.c ****     uint32_t timestamp)
 129:..\CANLib/CANCommon.c **** {
 404              		.loc 1 129 0
 405              		.cfi_startproc
 406              		@ args = 0, pretend = 0, frame = 24
 407              		@ frame_needed = 1, uses_anonymous_args = 0
 408 0000 80B5     		push	{r7, lr}
 409              		.cfi_def_cfa_offset 8
 410              		.cfi_offset 7, -8
 411              		.cfi_offset 14, -4
 412 0002 86B0     		sub	sp, sp, #24
 413              		.cfi_def_cfa_offset 32
 414 0004 00AF     		add	r7, sp, #0
 415              		.cfi_def_cfa_register 7
 416 0006 F860     		str	r0, [r7, #12]
 417 0008 B960     		str	r1, [r7, #8]
 418 000a 3B60     		str	r3, [r7]
 419 000c FB1D     		adds	r3, r7, #7
 420 000e 1A70     		strb	r2, [r3]
 130:..\CANLib/CANCommon.c ****     packetToAssemble->id = ConstructCANID(PACKET_PRIORITY_HIGH, DEVICE_GROUP_BROADCAST, DEVICE_SERI
 421              		.loc 1 130 0
 422 0010 0022     		movs	r2, #0
 423 0012 0021     		movs	r1, #0
 424 0014 0020     		movs	r0, #0
 425 0016 FFF7FEFF 		bl	ConstructCANID
 426 001a 0300     		movs	r3, r0
 427 001c 1A00     		movs	r2, r3
 428 001e FB68     		ldr	r3, [r7, #12]
 429 0020 1A80     		strh	r2, [r3]
 131:..\CANLib/CANCommon.c ****     if (!broadcast)
 430              		.loc 1 131 0
 431 0022 BB68     		ldr	r3, [r7, #8]
 432 0024 002B     		cmp	r3, #0
 433 0026 08D1     		bne	.L17
 132:..\CANLib/CANCommon.c ****     { 
 133:..\CANLib/CANCommon.c ****         packetToAssemble->id = ConstructCANID(PACKET_PRIORITY_HIGH, DEVICE_GROUP_JETSON, DEVICE_SER
 434              		.loc 1 133 0
 435 0028 0122     		movs	r2, #1
 436 002a 0221     		movs	r1, #2
 437 002c 0020     		movs	r0, #0
ARM GAS  C:\Users\Austcha\AppData\Local\Temp\ccFHMreR.s 			page 11


 438 002e FFF7FEFF 		bl	ConstructCANID
 439 0032 0300     		movs	r3, r0
 440 0034 1A00     		movs	r2, r3
 441 0036 FB68     		ldr	r3, [r7, #12]
 442 0038 1A80     		strh	r2, [r3]
 443              	.L17:
 134:..\CANLib/CANCommon.c ****     }
 135:..\CANLib/CANCommon.c ****     packetToAssemble->dlc = DLC_HEARTBEAT;
 444              		.loc 1 135 0
 445 003a FB68     		ldr	r3, [r7, #12]
 446 003c 0722     		movs	r2, #7
 447 003e 9A70     		strb	r2, [r3, #2]
 136:..\CANLib/CANCommon.c ****     int nextByte = WriteSenderSerialAndPacketID(packetToAssemble->data, ID_HEARTBEAT);
 448              		.loc 1 136 0
 449 0040 FB68     		ldr	r3, [r7, #12]
 450 0042 0333     		adds	r3, r3, #3
 451 0044 3121     		movs	r1, #49
 452 0046 1800     		movs	r0, r3
 453 0048 FFF7FEFF 		bl	WriteSenderSerialAndPacketID
 454 004c 0300     		movs	r3, r0
 455 004e 7B61     		str	r3, [r7, #20]
 137:..\CANLib/CANCommon.c ****     packetToAssemble->data[nextByte] = heartbeatLeniencyCode;
 456              		.loc 1 137 0
 457 0050 FA68     		ldr	r2, [r7, #12]
 458 0052 7B69     		ldr	r3, [r7, #20]
 459 0054 D318     		adds	r3, r2, r3
 460 0056 0333     		adds	r3, r3, #3
 461 0058 FA1D     		adds	r2, r7, #7
 462 005a 1278     		ldrb	r2, [r2]
 463 005c 1A70     		strb	r2, [r3]
 138:..\CANLib/CANCommon.c ****     PackIntIntoDataMSBFirst(packetToAssemble->data, timestamp, 3);
 464              		.loc 1 138 0
 465 005e FB68     		ldr	r3, [r7, #12]
 466 0060 0333     		adds	r3, r3, #3
 467 0062 3968     		ldr	r1, [r7]
 468 0064 0322     		movs	r2, #3
 469 0066 1800     		movs	r0, r3
 470 0068 FFF7FEFF 		bl	PackIntIntoDataMSBFirst
 139:..\CANLib/CANCommon.c **** }
 471              		.loc 1 139 0
 472 006c C046     		nop
 473 006e BD46     		mov	sp, r7
 474 0070 06B0     		add	sp, sp, #24
 475              		@ sp needed
 476 0072 80BD     		pop	{r7, pc}
 477              		.cfi_endproc
 478              	.LFE7:
 479              		.size	AssembleHeartbeatPacket, .-AssembleHeartbeatPacket
 480              		.section	.text.AssembleFailReportPacket,"ax",%progbits
 481              		.align	2
 482              		.global	AssembleFailReportPacket
 483              		.code	16
 484              		.thumb_func
 485              		.type	AssembleFailReportPacket, %function
 486              	AssembleFailReportPacket:
 487              	.LFB8:
 140:..\CANLib/CANCommon.c **** 
ARM GAS  C:\Users\Austcha\AppData\Local\Temp\ccFHMreR.s 			page 12


 141:..\CANLib/CANCommon.c **** void AssembleFailReportPacket(CANPacket *packetToAssemble, 
 142:..\CANLib/CANCommon.c ****     uint8_t targetGroup, 
 143:..\CANLib/CANCommon.c ****     uint8_t targetSerial,
 144:..\CANLib/CANCommon.c ****     uint8_t failedPacketID)
 145:..\CANLib/CANCommon.c **** {
 488              		.loc 1 145 0
 489              		.cfi_startproc
 490              		@ args = 0, pretend = 0, frame = 16
 491              		@ frame_needed = 1, uses_anonymous_args = 0
 492 0000 90B5     		push	{r4, r7, lr}
 493              		.cfi_def_cfa_offset 12
 494              		.cfi_offset 4, -12
 495              		.cfi_offset 7, -8
 496              		.cfi_offset 14, -4
 497 0002 85B0     		sub	sp, sp, #20
 498              		.cfi_def_cfa_offset 32
 499 0004 00AF     		add	r7, sp, #0
 500              		.cfi_def_cfa_register 7
 501 0006 7860     		str	r0, [r7, #4]
 502 0008 0C00     		movs	r4, r1
 503 000a 1000     		movs	r0, r2
 504 000c 1900     		movs	r1, r3
 505 000e FB1C     		adds	r3, r7, #3
 506 0010 221C     		adds	r2, r4, #0
 507 0012 1A70     		strb	r2, [r3]
 508 0014 BB1C     		adds	r3, r7, #2
 509 0016 021C     		adds	r2, r0, #0
 510 0018 1A70     		strb	r2, [r3]
 511 001a 7B1C     		adds	r3, r7, #1
 512 001c 0A1C     		adds	r2, r1, #0
 513 001e 1A70     		strb	r2, [r3]
 146:..\CANLib/CANCommon.c ****     packetToAssemble->id = ConstructCANID(PACKET_PRIORITY_NORMAL, targetGroup, targetSerial);
 514              		.loc 1 146 0
 515 0020 BB1C     		adds	r3, r7, #2
 516 0022 1A78     		ldrb	r2, [r3]
 517 0024 FB1C     		adds	r3, r7, #3
 518 0026 1B78     		ldrb	r3, [r3]
 519 0028 1900     		movs	r1, r3
 520 002a 0120     		movs	r0, #1
 521 002c FFF7FEFF 		bl	ConstructCANID
 522 0030 0300     		movs	r3, r0
 523 0032 1A00     		movs	r2, r3
 524 0034 7B68     		ldr	r3, [r7, #4]
 525 0036 1A80     		strh	r2, [r3]
 147:..\CANLib/CANCommon.c ****     packetToAssemble->dlc = DLC_FAIL_REPORT;
 526              		.loc 1 147 0
 527 0038 7B68     		ldr	r3, [r7, #4]
 528 003a 0322     		movs	r2, #3
 529 003c 9A70     		strb	r2, [r3, #2]
 148:..\CANLib/CANCommon.c ****     int nextByte = WriteSenderSerialAndPacketID(packetToAssemble->data, ID_FAIL_REPORT);
 530              		.loc 1 148 0
 531 003e 7B68     		ldr	r3, [r7, #4]
 532 0040 0333     		adds	r3, r3, #3
 533 0042 3221     		movs	r1, #50
 534 0044 1800     		movs	r0, r3
 535 0046 FFF7FEFF 		bl	WriteSenderSerialAndPacketID
 536 004a 0300     		movs	r3, r0
ARM GAS  C:\Users\Austcha\AppData\Local\Temp\ccFHMreR.s 			page 13


 537 004c FB60     		str	r3, [r7, #12]
 149:..\CANLib/CANCommon.c ****     packetToAssemble->data[nextByte] = failedPacketID;
 538              		.loc 1 149 0
 539 004e 7A68     		ldr	r2, [r7, #4]
 540 0050 FB68     		ldr	r3, [r7, #12]
 541 0052 D318     		adds	r3, r2, r3
 542 0054 0333     		adds	r3, r3, #3
 543 0056 7A1C     		adds	r2, r7, #1
 544 0058 1278     		ldrb	r2, [r2]
 545 005a 1A70     		strb	r2, [r3]
 150:..\CANLib/CANCommon.c **** }
 546              		.loc 1 150 0
 547 005c C046     		nop
 548 005e BD46     		mov	sp, r7
 549 0060 05B0     		add	sp, sp, #20
 550              		@ sp needed
 551 0062 90BD     		pop	{r4, r7, pc}
 552              		.cfi_endproc
 553              	.LFE8:
 554              		.size	AssembleFailReportPacket, .-AssembleFailReportPacket
 555              		.section	.text.AssembleOverrideProtectionPacket,"ax",%progbits
 556              		.align	2
 557              		.global	AssembleOverrideProtectionPacket
 558              		.code	16
 559              		.thumb_func
 560              		.type	AssembleOverrideProtectionPacket, %function
 561              	AssembleOverrideProtectionPacket:
 562              	.LFB9:
 151:..\CANLib/CANCommon.c **** 
 152:..\CANLib/CANCommon.c **** // Assembles override protection packet with given parameters
 153:..\CANLib/CANCommon.c **** // Inputs:
 154:..\CANLib/CANCommon.c **** //      packetToAssemble:       CAN Packet to assemble (will overwrite).
 155:..\CANLib/CANCommon.c **** //      targetGroup:            Device gorup of target device.
 156:..\CANLib/CANCommon.c **** //      targetSerial:           Device serial of target device.
 157:..\CANLib/CANCommon.c **** void AssembleOverrideProtectionPacket(CANPacket *packetToAssemble, uint8_t targetGroup, uint8_t tar
 158:..\CANLib/CANCommon.c **** {
 563              		.loc 1 158 0
 564              		.cfi_startproc
 565              		@ args = 0, pretend = 0, frame = 8
 566              		@ frame_needed = 1, uses_anonymous_args = 0
 567 0000 80B5     		push	{r7, lr}
 568              		.cfi_def_cfa_offset 8
 569              		.cfi_offset 7, -8
 570              		.cfi_offset 14, -4
 571 0002 82B0     		sub	sp, sp, #8
 572              		.cfi_def_cfa_offset 16
 573 0004 00AF     		add	r7, sp, #0
 574              		.cfi_def_cfa_register 7
 575 0006 7860     		str	r0, [r7, #4]
 576 0008 0800     		movs	r0, r1
 577 000a 1100     		movs	r1, r2
 578 000c FB1C     		adds	r3, r7, #3
 579 000e 021C     		adds	r2, r0, #0
 580 0010 1A70     		strb	r2, [r3]
 581 0012 BB1C     		adds	r3, r7, #2
 582 0014 0A1C     		adds	r2, r1, #0
 583 0016 1A70     		strb	r2, [r3]
ARM GAS  C:\Users\Austcha\AppData\Local\Temp\ccFHMreR.s 			page 14


 159:..\CANLib/CANCommon.c ****     packetToAssemble->id = ConstructCANID(PACKET_PRIORITY_NORMAL, targetGroup, targetSerial);
 584              		.loc 1 159 0
 585 0018 BB1C     		adds	r3, r7, #2
 586 001a 1A78     		ldrb	r2, [r3]
 587 001c FB1C     		adds	r3, r7, #3
 588 001e 1B78     		ldrb	r3, [r3]
 589 0020 1900     		movs	r1, r3
 590 0022 0120     		movs	r0, #1
 591 0024 FFF7FEFF 		bl	ConstructCANID
 592 0028 0300     		movs	r3, r0
 593 002a 1A00     		movs	r2, r3
 594 002c 7B68     		ldr	r3, [r7, #4]
 595 002e 1A80     		strh	r2, [r3]
 160:..\CANLib/CANCommon.c ****     packetToAssemble->dlc = DLC_OVRD_PROTECTION;
 596              		.loc 1 160 0
 597 0030 7B68     		ldr	r3, [r7, #4]
 598 0032 0122     		movs	r2, #1
 599 0034 9A70     		strb	r2, [r3, #2]
 161:..\CANLib/CANCommon.c ****     WritePacketIDOnly(packetToAssemble->data, ID_OVRD_PROTECTION);
 600              		.loc 1 161 0
 601 0036 7B68     		ldr	r3, [r7, #4]
 602 0038 0333     		adds	r3, r3, #3
 603 003a 3321     		movs	r1, #51
 604 003c 1800     		movs	r0, r3
 605 003e FFF7FEFF 		bl	WritePacketIDOnly
 162:..\CANLib/CANCommon.c **** }
 606              		.loc 1 162 0
 607 0042 C046     		nop
 608 0044 BD46     		mov	sp, r7
 609 0046 02B0     		add	sp, sp, #8
 610              		@ sp needed
 611 0048 80BD     		pop	{r7, pc}
 612              		.cfi_endproc
 613              	.LFE9:
 614              		.size	AssembleOverrideProtectionPacket, .-AssembleOverrideProtectionPacket
 615 004a C046     		.section	.text.AssembleChipTypePullPacket,"ax",%progbits
 616              		.align	2
 617              		.global	AssembleChipTypePullPacket
 618              		.code	16
 619              		.thumb_func
 620              		.type	AssembleChipTypePullPacket, %function
 621              	AssembleChipTypePullPacket:
 622              	.LFB10:
 163:..\CANLib/CANCommon.c **** 
 164:..\CANLib/CANCommon.c **** void AssembleChipTypePullPacket(CANPacket *packetToAssemble,
 165:..\CANLib/CANCommon.c ****     uint8_t targetDeviceGroup,
 166:..\CANLib/CANCommon.c ****     uint8_t targetDeviceSerial)
 167:..\CANLib/CANCommon.c **** {
 623              		.loc 1 167 0
 624              		.cfi_startproc
 625              		@ args = 0, pretend = 0, frame = 16
 626              		@ frame_needed = 1, uses_anonymous_args = 0
 627 0000 80B5     		push	{r7, lr}
 628              		.cfi_def_cfa_offset 8
 629              		.cfi_offset 7, -8
 630              		.cfi_offset 14, -4
 631 0002 84B0     		sub	sp, sp, #16
ARM GAS  C:\Users\Austcha\AppData\Local\Temp\ccFHMreR.s 			page 15


 632              		.cfi_def_cfa_offset 24
 633 0004 00AF     		add	r7, sp, #0
 634              		.cfi_def_cfa_register 7
 635 0006 7860     		str	r0, [r7, #4]
 636 0008 0800     		movs	r0, r1
 637 000a 1100     		movs	r1, r2
 638 000c FB1C     		adds	r3, r7, #3
 639 000e 021C     		adds	r2, r0, #0
 640 0010 1A70     		strb	r2, [r3]
 641 0012 BB1C     		adds	r3, r7, #2
 642 0014 0A1C     		adds	r2, r1, #0
 643 0016 1A70     		strb	r2, [r3]
 168:..\CANLib/CANCommon.c ****     packetToAssemble->id = ConstructCANID(PACKET_PRIORITY_NORMAL, targetDeviceGroup, targetDeviceSe
 644              		.loc 1 168 0
 645 0018 BB1C     		adds	r3, r7, #2
 646 001a 1A78     		ldrb	r2, [r3]
 647 001c FB1C     		adds	r3, r7, #3
 648 001e 1B78     		ldrb	r3, [r3]
 649 0020 1900     		movs	r1, r3
 650 0022 0120     		movs	r0, #1
 651 0024 FFF7FEFF 		bl	ConstructCANID
 652 0028 0300     		movs	r3, r0
 653 002a 1A00     		movs	r2, r3
 654 002c 7B68     		ldr	r3, [r7, #4]
 655 002e 1A80     		strh	r2, [r3]
 169:..\CANLib/CANCommon.c ****     packetToAssemble->dlc = DLC_CHIP_TYPE_PULL;
 656              		.loc 1 169 0
 657 0030 7B68     		ldr	r3, [r7, #4]
 658 0032 0322     		movs	r2, #3
 659 0034 9A70     		strb	r2, [r3, #2]
 170:..\CANLib/CANCommon.c ****     int nextByte = WriteSenderSerialAndPacketID(packetToAssemble->data, ID_CHIP_TYPE_PULL);
 660              		.loc 1 170 0
 661 0036 7B68     		ldr	r3, [r7, #4]
 662 0038 0333     		adds	r3, r3, #3
 663 003a 3821     		movs	r1, #56
 664 003c 1800     		movs	r0, r3
 665 003e FFF7FEFF 		bl	WriteSenderSerialAndPacketID
 666 0042 0300     		movs	r3, r0
 667 0044 FB60     		str	r3, [r7, #12]
 171:..\CANLib/CANCommon.c ****     packetToAssemble->data[nextByte] = getChipType();
 668              		.loc 1 171 0
 669 0046 FFF7FEFF 		bl	getChipType
 670 004a 0300     		movs	r3, r0
 671 004c 1900     		movs	r1, r3
 672 004e 7A68     		ldr	r2, [r7, #4]
 673 0050 FB68     		ldr	r3, [r7, #12]
 674 0052 D318     		adds	r3, r2, r3
 675 0054 0333     		adds	r3, r3, #3
 676 0056 0A1C     		adds	r2, r1, #0
 677 0058 1A70     		strb	r2, [r3]
 172:..\CANLib/CANCommon.c **** }
 678              		.loc 1 172 0
 679 005a C046     		nop
 680 005c BD46     		mov	sp, r7
 681 005e 04B0     		add	sp, sp, #16
 682              		@ sp needed
 683 0060 80BD     		pop	{r7, pc}
ARM GAS  C:\Users\Austcha\AppData\Local\Temp\ccFHMreR.s 			page 16


 684              		.cfi_endproc
 685              	.LFE10:
 686              		.size	AssembleChipTypePullPacket, .-AssembleChipTypePullPacket
 687 0062 C046     		.section	.text.AssembleChipTypeReportPacket,"ax",%progbits
 688              		.align	2
 689              		.global	AssembleChipTypeReportPacket
 690              		.code	16
 691              		.thumb_func
 692              		.type	AssembleChipTypeReportPacket, %function
 693              	AssembleChipTypeReportPacket:
 694              	.LFB11:
 173:..\CANLib/CANCommon.c **** 
 174:..\CANLib/CANCommon.c **** void AssembleChipTypeReportPacket(CANPacket *packetToAssemble,
 175:..\CANLib/CANCommon.c ****     uint8_t targetDeviceGroup,
 176:..\CANLib/CANCommon.c ****     uint8_t targetDeviceSerial)
 177:..\CANLib/CANCommon.c **** {
 695              		.loc 1 177 0
 696              		.cfi_startproc
 697              		@ args = 0, pretend = 0, frame = 16
 698              		@ frame_needed = 1, uses_anonymous_args = 0
 699 0000 80B5     		push	{r7, lr}
 700              		.cfi_def_cfa_offset 8
 701              		.cfi_offset 7, -8
 702              		.cfi_offset 14, -4
 703 0002 84B0     		sub	sp, sp, #16
 704              		.cfi_def_cfa_offset 24
 705 0004 00AF     		add	r7, sp, #0
 706              		.cfi_def_cfa_register 7
 707 0006 7860     		str	r0, [r7, #4]
 708 0008 0800     		movs	r0, r1
 709 000a 1100     		movs	r1, r2
 710 000c FB1C     		adds	r3, r7, #3
 711 000e 021C     		adds	r2, r0, #0
 712 0010 1A70     		strb	r2, [r3]
 713 0012 BB1C     		adds	r3, r7, #2
 714 0014 0A1C     		adds	r2, r1, #0
 715 0016 1A70     		strb	r2, [r3]
 178:..\CANLib/CANCommon.c ****     packetToAssemble->id = ConstructCANID(PACKET_PRIORITY_NORMAL, targetDeviceGroup, targetDeviceSe
 716              		.loc 1 178 0
 717 0018 BB1C     		adds	r3, r7, #2
 718 001a 1A78     		ldrb	r2, [r3]
 719 001c FB1C     		adds	r3, r7, #3
 720 001e 1B78     		ldrb	r3, [r3]
 721 0020 1900     		movs	r1, r3
 722 0022 0120     		movs	r0, #1
 723 0024 FFF7FEFF 		bl	ConstructCANID
 724 0028 0300     		movs	r3, r0
 725 002a 1A00     		movs	r2, r3
 726 002c 7B68     		ldr	r3, [r7, #4]
 727 002e 1A80     		strh	r2, [r3]
 179:..\CANLib/CANCommon.c ****     packetToAssemble->dlc = DLC_CHIP_TYPE_REP;
 728              		.loc 1 179 0
 729 0030 7B68     		ldr	r3, [r7, #4]
 730 0032 0322     		movs	r2, #3
 731 0034 9A70     		strb	r2, [r3, #2]
 180:..\CANLib/CANCommon.c ****     int nextByte = WriteSenderSerialAndPacketID(packetToAssemble->data, ID_CHIP_TYPE_REP);
 732              		.loc 1 180 0
ARM GAS  C:\Users\Austcha\AppData\Local\Temp\ccFHMreR.s 			page 17


 733 0036 7B68     		ldr	r3, [r7, #4]
 734 0038 0333     		adds	r3, r3, #3
 735 003a 3921     		movs	r1, #57
 736 003c 1800     		movs	r0, r3
 737 003e FFF7FEFF 		bl	WriteSenderSerialAndPacketID
 738 0042 0300     		movs	r3, r0
 739 0044 FB60     		str	r3, [r7, #12]
 181:..\CANLib/CANCommon.c ****     packetToAssemble->data[nextByte] = getChipType();
 740              		.loc 1 181 0
 741 0046 FFF7FEFF 		bl	getChipType
 742 004a 0300     		movs	r3, r0
 743 004c 1900     		movs	r1, r3
 744 004e 7A68     		ldr	r2, [r7, #4]
 745 0050 FB68     		ldr	r3, [r7, #12]
 746 0052 D318     		adds	r3, r2, r3
 747 0054 0333     		adds	r3, r3, #3
 748 0056 0A1C     		adds	r2, r1, #0
 749 0058 1A70     		strb	r2, [r3]
 182:..\CANLib/CANCommon.c **** }
 750              		.loc 1 182 0
 751 005a C046     		nop
 752 005c BD46     		mov	sp, r7
 753 005e 04B0     		add	sp, sp, #16
 754              		@ sp needed
 755 0060 80BD     		pop	{r7, pc}
 756              		.cfi_endproc
 757              	.LFE11:
 758              		.size	AssembleChipTypeReportPacket, .-AssembleChipTypeReportPacket
 759 0062 C046     		.section	.text.GetChipTypeFromPacket,"ax",%progbits
 760              		.align	2
 761              		.global	GetChipTypeFromPacket
 762              		.code	16
 763              		.thumb_func
 764              		.type	GetChipTypeFromPacket, %function
 765              	GetChipTypeFromPacket:
 766              	.LFB12:
 183:..\CANLib/CANCommon.c **** 
 184:..\CANLib/CANCommon.c **** uint8_t GetChipTypeFromPacket(CANPacket *packet)
 185:..\CANLib/CANCommon.c **** {
 767              		.loc 1 185 0
 768              		.cfi_startproc
 769              		@ args = 0, pretend = 0, frame = 8
 770              		@ frame_needed = 1, uses_anonymous_args = 0
 771 0000 80B5     		push	{r7, lr}
 772              		.cfi_def_cfa_offset 8
 773              		.cfi_offset 7, -8
 774              		.cfi_offset 14, -4
 775 0002 82B0     		sub	sp, sp, #8
 776              		.cfi_def_cfa_offset 16
 777 0004 00AF     		add	r7, sp, #0
 778              		.cfi_def_cfa_register 7
 779 0006 7860     		str	r0, [r7, #4]
 186:..\CANLib/CANCommon.c ****     return packet->data[1];
 780              		.loc 1 186 0
 781 0008 7B68     		ldr	r3, [r7, #4]
 782 000a 1B79     		ldrb	r3, [r3, #4]
 187:..\CANLib/CANCommon.c **** }
ARM GAS  C:\Users\Austcha\AppData\Local\Temp\ccFHMreR.s 			page 18


 783              		.loc 1 187 0
 784 000c 1800     		movs	r0, r3
 785 000e BD46     		mov	sp, r7
 786 0010 02B0     		add	sp, sp, #8
 787              		@ sp needed
 788 0012 80BD     		pop	{r7, pc}
 789              		.cfi_endproc
 790              	.LFE12:
 791              		.size	GetChipTypeFromPacket, .-GetChipTypeFromPacket
 792              		.section	.text.AssembleTelemetryTimingPacket,"ax",%progbits
 793              		.align	2
 794              		.global	AssembleTelemetryTimingPacket
 795              		.code	16
 796              		.thumb_func
 797              		.type	AssembleTelemetryTimingPacket, %function
 798              	AssembleTelemetryTimingPacket:
 799              	.LFB13:
 188:..\CANLib/CANCommon.c **** 
 189:..\CANLib/CANCommon.c **** void AssembleTelemetryTimingPacket(CANPacket *packetToAssemble, 
 190:..\CANLib/CANCommon.c ****     uint8_t targetGroup, 
 191:..\CANLib/CANCommon.c ****     uint8_t targetSerial, 
 192:..\CANLib/CANCommon.c ****     uint8_t telemetryTypeCode,
 193:..\CANLib/CANCommon.c ****     uint32_t msBetweenReports)
 194:..\CANLib/CANCommon.c **** {
 800              		.loc 1 194 0
 801              		.cfi_startproc
 802              		@ args = 4, pretend = 0, frame = 16
 803              		@ frame_needed = 1, uses_anonymous_args = 0
 804 0000 90B5     		push	{r4, r7, lr}
 805              		.cfi_def_cfa_offset 12
 806              		.cfi_offset 4, -12
 807              		.cfi_offset 7, -8
 808              		.cfi_offset 14, -4
 809 0002 85B0     		sub	sp, sp, #20
 810              		.cfi_def_cfa_offset 32
 811 0004 00AF     		add	r7, sp, #0
 812              		.cfi_def_cfa_register 7
 813 0006 7860     		str	r0, [r7, #4]
 814 0008 0C00     		movs	r4, r1
 815 000a 1000     		movs	r0, r2
 816 000c 1900     		movs	r1, r3
 817 000e FB1C     		adds	r3, r7, #3
 818 0010 221C     		adds	r2, r4, #0
 819 0012 1A70     		strb	r2, [r3]
 820 0014 BB1C     		adds	r3, r7, #2
 821 0016 021C     		adds	r2, r0, #0
 822 0018 1A70     		strb	r2, [r3]
 823 001a 7B1C     		adds	r3, r7, #1
 824 001c 0A1C     		adds	r2, r1, #0
 825 001e 1A70     		strb	r2, [r3]
 195:..\CANLib/CANCommon.c ****     packetToAssemble->id = ConstructCANID(PACKET_PRIORITY_NORMAL, targetGroup, targetSerial);
 826              		.loc 1 195 0
 827 0020 BB1C     		adds	r3, r7, #2
 828 0022 1A78     		ldrb	r2, [r3]
 829 0024 FB1C     		adds	r3, r7, #3
 830 0026 1B78     		ldrb	r3, [r3]
 831 0028 1900     		movs	r1, r3
ARM GAS  C:\Users\Austcha\AppData\Local\Temp\ccFHMreR.s 			page 19


 832 002a 0120     		movs	r0, #1
 833 002c FFF7FEFF 		bl	ConstructCANID
 834 0030 0300     		movs	r3, r0
 835 0032 1A00     		movs	r2, r3
 836 0034 7B68     		ldr	r3, [r7, #4]
 837 0036 1A80     		strh	r2, [r3]
 196:..\CANLib/CANCommon.c ****     packetToAssemble->dlc = DLC_TELEMETRY_TIMING;
 838              		.loc 1 196 0
 839 0038 7B68     		ldr	r3, [r7, #4]
 840 003a 0622     		movs	r2, #6
 841 003c 9A70     		strb	r2, [r3, #2]
 197:..\CANLib/CANCommon.c ****     int nextByte = WritePacketIDOnly(packetToAssemble->data, ID_TELEMETRY_TIMING);
 842              		.loc 1 197 0
 843 003e 7B68     		ldr	r3, [r7, #4]
 844 0040 0333     		adds	r3, r3, #3
 845 0042 3421     		movs	r1, #52
 846 0044 1800     		movs	r0, r3
 847 0046 FFF7FEFF 		bl	WritePacketIDOnly
 848 004a 0300     		movs	r3, r0
 849 004c FB60     		str	r3, [r7, #12]
 198:..\CANLib/CANCommon.c ****     packetToAssemble->data[nextByte] = telemetryTypeCode;
 850              		.loc 1 198 0
 851 004e 7A68     		ldr	r2, [r7, #4]
 852 0050 FB68     		ldr	r3, [r7, #12]
 853 0052 D318     		adds	r3, r2, r3
 854 0054 0333     		adds	r3, r3, #3
 855 0056 7A1C     		adds	r2, r7, #1
 856 0058 1278     		ldrb	r2, [r2]
 857 005a 1A70     		strb	r2, [r3]
 199:..\CANLib/CANCommon.c ****     PackIntIntoDataMSBFirst(packetToAssemble->data, msBetweenReports, 3);
 858              		.loc 1 199 0
 859 005c 7B68     		ldr	r3, [r7, #4]
 860 005e 0333     		adds	r3, r3, #3
 861 0060 396A     		ldr	r1, [r7, #32]
 862 0062 0322     		movs	r2, #3
 863 0064 1800     		movs	r0, r3
 864 0066 FFF7FEFF 		bl	PackIntIntoDataMSBFirst
 200:..\CANLib/CANCommon.c **** }
 865              		.loc 1 200 0
 866 006a C046     		nop
 867 006c BD46     		mov	sp, r7
 868 006e 05B0     		add	sp, sp, #20
 869              		@ sp needed
 870 0070 90BD     		pop	{r4, r7, pc}
 871              		.cfi_endproc
 872              	.LFE13:
 873              		.size	AssembleTelemetryTimingPacket, .-AssembleTelemetryTimingPacket
 874 0072 C046     		.section	.text.GetTelemetryTimingFromPacket,"ax",%progbits
 875              		.align	2
 876              		.global	GetTelemetryTimingFromPacket
 877              		.code	16
 878              		.thumb_func
 879              		.type	GetTelemetryTimingFromPacket, %function
 880              	GetTelemetryTimingFromPacket:
 881              	.LFB14:
 201:..\CANLib/CANCommon.c **** uint32_t GetTelemetryTimingFromPacket(CANPacket *packetToAssemble)
 202:..\CANLib/CANCommon.c **** {
ARM GAS  C:\Users\Austcha\AppData\Local\Temp\ccFHMreR.s 			page 20


 882              		.loc 1 202 0
 883              		.cfi_startproc
 884              		@ args = 0, pretend = 0, frame = 8
 885              		@ frame_needed = 1, uses_anonymous_args = 0
 886 0000 80B5     		push	{r7, lr}
 887              		.cfi_def_cfa_offset 8
 888              		.cfi_offset 7, -8
 889              		.cfi_offset 14, -4
 890 0002 82B0     		sub	sp, sp, #8
 891              		.cfi_def_cfa_offset 16
 892 0004 00AF     		add	r7, sp, #0
 893              		.cfi_def_cfa_register 7
 894 0006 7860     		str	r0, [r7, #4]
 203:..\CANLib/CANCommon.c ****     return DecodeTelemetryDataUnsigned(packetToAssemble);
 895              		.loc 1 203 0
 896 0008 7B68     		ldr	r3, [r7, #4]
 897 000a 1800     		movs	r0, r3
 898 000c FFF7FEFF 		bl	DecodeTelemetryDataUnsigned
 899 0010 0300     		movs	r3, r0
 204:..\CANLib/CANCommon.c **** }
 900              		.loc 1 204 0
 901 0012 1800     		movs	r0, r3
 902 0014 BD46     		mov	sp, r7
 903 0016 02B0     		add	sp, sp, #8
 904              		@ sp needed
 905 0018 80BD     		pop	{r7, pc}
 906              		.cfi_endproc
 907              	.LFE14:
 908              		.size	GetTelemetryTimingFromPacket, .-GetTelemetryTimingFromPacket
 909 001a C046     		.section	.text.AssembleTelemetryPullPacket,"ax",%progbits
 910              		.align	2
 911              		.global	AssembleTelemetryPullPacket
 912              		.code	16
 913              		.thumb_func
 914              		.type	AssembleTelemetryPullPacket, %function
 915              	AssembleTelemetryPullPacket:
 916              	.LFB15:
 205:..\CANLib/CANCommon.c **** 
 206:..\CANLib/CANCommon.c **** void AssembleTelemetryPullPacket(CANPacket *packetToAssemble, 
 207:..\CANLib/CANCommon.c ****     uint8_t targetGroup, 
 208:..\CANLib/CANCommon.c ****     uint8_t targetSerial, 
 209:..\CANLib/CANCommon.c ****     uint8_t telemetryTypeCode)
 210:..\CANLib/CANCommon.c **** {
 917              		.loc 1 210 0
 918              		.cfi_startproc
 919              		@ args = 0, pretend = 0, frame = 16
 920              		@ frame_needed = 1, uses_anonymous_args = 0
 921 0000 90B5     		push	{r4, r7, lr}
 922              		.cfi_def_cfa_offset 12
 923              		.cfi_offset 4, -12
 924              		.cfi_offset 7, -8
 925              		.cfi_offset 14, -4
 926 0002 85B0     		sub	sp, sp, #20
 927              		.cfi_def_cfa_offset 32
 928 0004 00AF     		add	r7, sp, #0
 929              		.cfi_def_cfa_register 7
 930 0006 7860     		str	r0, [r7, #4]
ARM GAS  C:\Users\Austcha\AppData\Local\Temp\ccFHMreR.s 			page 21


 931 0008 0C00     		movs	r4, r1
 932 000a 1000     		movs	r0, r2
 933 000c 1900     		movs	r1, r3
 934 000e FB1C     		adds	r3, r7, #3
 935 0010 221C     		adds	r2, r4, #0
 936 0012 1A70     		strb	r2, [r3]
 937 0014 BB1C     		adds	r3, r7, #2
 938 0016 021C     		adds	r2, r0, #0
 939 0018 1A70     		strb	r2, [r3]
 940 001a 7B1C     		adds	r3, r7, #1
 941 001c 0A1C     		adds	r2, r1, #0
 942 001e 1A70     		strb	r2, [r3]
 211:..\CANLib/CANCommon.c ****     packetToAssemble->id = ConstructCANID(PACKET_PRIORITY_NORMAL, targetGroup, targetSerial);
 943              		.loc 1 211 0
 944 0020 BB1C     		adds	r3, r7, #2
 945 0022 1A78     		ldrb	r2, [r3]
 946 0024 FB1C     		adds	r3, r7, #3
 947 0026 1B78     		ldrb	r3, [r3]
 948 0028 1900     		movs	r1, r3
 949 002a 0120     		movs	r0, #1
 950 002c FFF7FEFF 		bl	ConstructCANID
 951 0030 0300     		movs	r3, r0
 952 0032 1A00     		movs	r2, r3
 953 0034 7B68     		ldr	r3, [r7, #4]
 954 0036 1A80     		strh	r2, [r3]
 212:..\CANLib/CANCommon.c ****     packetToAssemble->dlc = DLC_TELEMETRY_PULL;
 955              		.loc 1 212 0
 956 0038 7B68     		ldr	r3, [r7, #4]
 957 003a 0322     		movs	r2, #3
 958 003c 9A70     		strb	r2, [r3, #2]
 213:..\CANLib/CANCommon.c ****     int nextByte = WriteSenderSerialAndPacketID(packetToAssemble->data, ID_TELEMETRY_PULL);
 959              		.loc 1 213 0
 960 003e 7B68     		ldr	r3, [r7, #4]
 961 0040 0333     		adds	r3, r3, #3
 962 0042 3521     		movs	r1, #53
 963 0044 1800     		movs	r0, r3
 964 0046 FFF7FEFF 		bl	WriteSenderSerialAndPacketID
 965 004a 0300     		movs	r3, r0
 966 004c FB60     		str	r3, [r7, #12]
 214:..\CANLib/CANCommon.c ****     packetToAssemble->data[nextByte] = telemetryTypeCode;
 967              		.loc 1 214 0
 968 004e 7A68     		ldr	r2, [r7, #4]
 969 0050 FB68     		ldr	r3, [r7, #12]
 970 0052 D318     		adds	r3, r2, r3
 971 0054 0333     		adds	r3, r3, #3
 972 0056 7A1C     		adds	r2, r7, #1
 973 0058 1278     		ldrb	r2, [r2]
 974 005a 1A70     		strb	r2, [r3]
 215:..\CANLib/CANCommon.c **** }
 975              		.loc 1 215 0
 976 005c C046     		nop
 977 005e BD46     		mov	sp, r7
 978 0060 05B0     		add	sp, sp, #20
 979              		@ sp needed
 980 0062 90BD     		pop	{r4, r7, pc}
 981              		.cfi_endproc
 982              	.LFE15:
ARM GAS  C:\Users\Austcha\AppData\Local\Temp\ccFHMreR.s 			page 22


 983              		.size	AssembleTelemetryPullPacket, .-AssembleTelemetryPullPacket
 984              		.section	.text.AssembleTelemetryReportPacket,"ax",%progbits
 985              		.align	2
 986              		.global	AssembleTelemetryReportPacket
 987              		.code	16
 988              		.thumb_func
 989              		.type	AssembleTelemetryReportPacket, %function
 990              	AssembleTelemetryReportPacket:
 991              	.LFB16:
 216:..\CANLib/CANCommon.c **** 
 217:..\CANLib/CANCommon.c **** void AssembleTelemetryReportPacket(CANPacket *packetToAssemble, 
 218:..\CANLib/CANCommon.c ****     uint8_t targetGroup, 
 219:..\CANLib/CANCommon.c ****     uint8_t targetSerial,
 220:..\CANLib/CANCommon.c ****     uint8_t telemetryTypeCode,
 221:..\CANLib/CANCommon.c ****     int32_t data)
 222:..\CANLib/CANCommon.c **** {
 992              		.loc 1 222 0
 993              		.cfi_startproc
 994              		@ args = 4, pretend = 0, frame = 16
 995              		@ frame_needed = 1, uses_anonymous_args = 0
 996 0000 90B5     		push	{r4, r7, lr}
 997              		.cfi_def_cfa_offset 12
 998              		.cfi_offset 4, -12
 999              		.cfi_offset 7, -8
 1000              		.cfi_offset 14, -4
 1001 0002 85B0     		sub	sp, sp, #20
 1002              		.cfi_def_cfa_offset 32
 1003 0004 00AF     		add	r7, sp, #0
 1004              		.cfi_def_cfa_register 7
 1005 0006 7860     		str	r0, [r7, #4]
 1006 0008 0C00     		movs	r4, r1
 1007 000a 1000     		movs	r0, r2
 1008 000c 1900     		movs	r1, r3
 1009 000e FB1C     		adds	r3, r7, #3
 1010 0010 221C     		adds	r2, r4, #0
 1011 0012 1A70     		strb	r2, [r3]
 1012 0014 BB1C     		adds	r3, r7, #2
 1013 0016 021C     		adds	r2, r0, #0
 1014 0018 1A70     		strb	r2, [r3]
 1015 001a 7B1C     		adds	r3, r7, #1
 1016 001c 0A1C     		adds	r2, r1, #0
 1017 001e 1A70     		strb	r2, [r3]
 223:..\CANLib/CANCommon.c ****     packetToAssemble->id = ConstructCANID(PACKET_PRIORITY_NORMAL, targetGroup, targetSerial);
 1018              		.loc 1 223 0
 1019 0020 BB1C     		adds	r3, r7, #2
 1020 0022 1A78     		ldrb	r2, [r3]
 1021 0024 FB1C     		adds	r3, r7, #3
 1022 0026 1B78     		ldrb	r3, [r3]
 1023 0028 1900     		movs	r1, r3
 1024 002a 0120     		movs	r0, #1
 1025 002c FFF7FEFF 		bl	ConstructCANID
 1026 0030 0300     		movs	r3, r0
 1027 0032 1A00     		movs	r2, r3
 1028 0034 7B68     		ldr	r3, [r7, #4]
 1029 0036 1A80     		strh	r2, [r3]
 224:..\CANLib/CANCommon.c ****     packetToAssemble->dlc = DLC_TELEMETRY_REPORT;
 1030              		.loc 1 224 0
ARM GAS  C:\Users\Austcha\AppData\Local\Temp\ccFHMreR.s 			page 23


 1031 0038 7B68     		ldr	r3, [r7, #4]
 1032 003a 0722     		movs	r2, #7
 1033 003c 9A70     		strb	r2, [r3, #2]
 225:..\CANLib/CANCommon.c ****     int nextByte = WriteSenderSerialAndPacketID(packetToAssemble->data, ID_TELEMETRY_REPORT);
 1034              		.loc 1 225 0
 1035 003e 7B68     		ldr	r3, [r7, #4]
 1036 0040 0333     		adds	r3, r3, #3
 1037 0042 3621     		movs	r1, #54
 1038 0044 1800     		movs	r0, r3
 1039 0046 FFF7FEFF 		bl	WriteSenderSerialAndPacketID
 1040 004a 0300     		movs	r3, r0
 1041 004c FB60     		str	r3, [r7, #12]
 226:..\CANLib/CANCommon.c ****     packetToAssemble->data[nextByte] = telemetryTypeCode;
 1042              		.loc 1 226 0
 1043 004e 7A68     		ldr	r2, [r7, #4]
 1044 0050 FB68     		ldr	r3, [r7, #12]
 1045 0052 D318     		adds	r3, r2, r3
 1046 0054 0333     		adds	r3, r3, #3
 1047 0056 7A1C     		adds	r2, r7, #1
 1048 0058 1278     		ldrb	r2, [r2]
 1049 005a 1A70     		strb	r2, [r3]
 227:..\CANLib/CANCommon.c ****     PackIntIntoDataMSBFirst(packetToAssemble->data, data, 3);
 1050              		.loc 1 227 0
 1051 005c 7B68     		ldr	r3, [r7, #4]
 1052 005e 0333     		adds	r3, r3, #3
 1053 0060 396A     		ldr	r1, [r7, #32]
 1054 0062 0322     		movs	r2, #3
 1055 0064 1800     		movs	r0, r3
 1056 0066 FFF7FEFF 		bl	PackIntIntoDataMSBFirst
 228:..\CANLib/CANCommon.c **** }
 1057              		.loc 1 228 0
 1058 006a C046     		nop
 1059 006c BD46     		mov	sp, r7
 1060 006e 05B0     		add	sp, sp, #20
 1061              		@ sp needed
 1062 0070 90BD     		pop	{r4, r7, pc}
 1063              		.cfi_endproc
 1064              	.LFE16:
 1065              		.size	AssembleTelemetryReportPacket, .-AssembleTelemetryReportPacket
 1066 0072 C046     		.section	.text.DecodeTelemetryDataSigned,"ax",%progbits
 1067              		.align	2
 1068              		.global	DecodeTelemetryDataSigned
 1069              		.code	16
 1070              		.thumb_func
 1071              		.type	DecodeTelemetryDataSigned, %function
 1072              	DecodeTelemetryDataSigned:
 1073              	.LFB17:
 229:..\CANLib/CANCommon.c **** 
 230:..\CANLib/CANCommon.c **** int32_t DecodeTelemetryDataSigned(CANPacket *packet)
 231:..\CANLib/CANCommon.c **** {
 1074              		.loc 1 231 0
 1075              		.cfi_startproc
 1076              		@ args = 0, pretend = 0, frame = 8
 1077              		@ frame_needed = 1, uses_anonymous_args = 0
 1078 0000 80B5     		push	{r7, lr}
 1079              		.cfi_def_cfa_offset 8
 1080              		.cfi_offset 7, -8
ARM GAS  C:\Users\Austcha\AppData\Local\Temp\ccFHMreR.s 			page 24


 1081              		.cfi_offset 14, -4
 1082 0002 82B0     		sub	sp, sp, #8
 1083              		.cfi_def_cfa_offset 16
 1084 0004 00AF     		add	r7, sp, #0
 1085              		.cfi_def_cfa_register 7
 1086 0006 7860     		str	r0, [r7, #4]
 232:..\CANLib/CANCommon.c ****     return DecodeBytesToIntMSBFirst(packet->data, 3, 7);
 1087              		.loc 1 232 0
 1088 0008 7B68     		ldr	r3, [r7, #4]
 1089 000a 0333     		adds	r3, r3, #3
 1090 000c 0722     		movs	r2, #7
 1091 000e 0321     		movs	r1, #3
 1092 0010 1800     		movs	r0, r3
 1093 0012 FFF7FEFF 		bl	DecodeBytesToIntMSBFirst
 1094 0016 0300     		movs	r3, r0
 233:..\CANLib/CANCommon.c **** }
 1095              		.loc 1 233 0
 1096 0018 1800     		movs	r0, r3
 1097 001a BD46     		mov	sp, r7
 1098 001c 02B0     		add	sp, sp, #8
 1099              		@ sp needed
 1100 001e 80BD     		pop	{r7, pc}
 1101              		.cfi_endproc
 1102              	.LFE17:
 1103              		.size	DecodeTelemetryDataSigned, .-DecodeTelemetryDataSigned
 1104              		.section	.text.DecodeTelemetryDataUnsigned,"ax",%progbits
 1105              		.align	2
 1106              		.global	DecodeTelemetryDataUnsigned
 1107              		.code	16
 1108              		.thumb_func
 1109              		.type	DecodeTelemetryDataUnsigned, %function
 1110              	DecodeTelemetryDataUnsigned:
 1111              	.LFB18:
 234:..\CANLib/CANCommon.c **** 
 235:..\CANLib/CANCommon.c **** uint32_t DecodeTelemetryDataUnsigned(CANPacket *packet)
 236:..\CANLib/CANCommon.c **** {
 1112              		.loc 1 236 0
 1113              		.cfi_startproc
 1114              		@ args = 0, pretend = 0, frame = 8
 1115              		@ frame_needed = 1, uses_anonymous_args = 0
 1116 0000 80B5     		push	{r7, lr}
 1117              		.cfi_def_cfa_offset 8
 1118              		.cfi_offset 7, -8
 1119              		.cfi_offset 14, -4
 1120 0002 82B0     		sub	sp, sp, #8
 1121              		.cfi_def_cfa_offset 16
 1122 0004 00AF     		add	r7, sp, #0
 1123              		.cfi_def_cfa_register 7
 1124 0006 7860     		str	r0, [r7, #4]
 237:..\CANLib/CANCommon.c ****     return (uint32_t) DecodeTelemetryDataSigned(packet);
 1125              		.loc 1 237 0
 1126 0008 7B68     		ldr	r3, [r7, #4]
 1127 000a 1800     		movs	r0, r3
 1128 000c FFF7FEFF 		bl	DecodeTelemetryDataSigned
 1129 0010 0300     		movs	r3, r0
 238:..\CANLib/CANCommon.c **** }
 1130              		.loc 1 238 0
ARM GAS  C:\Users\Austcha\AppData\Local\Temp\ccFHMreR.s 			page 25


 1131 0012 1800     		movs	r0, r3
 1132 0014 BD46     		mov	sp, r7
 1133 0016 02B0     		add	sp, sp, #8
 1134              		@ sp needed
 1135 0018 80BD     		pop	{r7, pc}
 1136              		.cfi_endproc
 1137              	.LFE18:
 1138              		.size	DecodeTelemetryDataUnsigned, .-DecodeTelemetryDataUnsigned
 1139 001a C046     		.section	.text.DecodeTelemetryType,"ax",%progbits
 1140              		.align	2
 1141              		.global	DecodeTelemetryType
 1142              		.code	16
 1143              		.thumb_func
 1144              		.type	DecodeTelemetryType, %function
 1145              	DecodeTelemetryType:
 1146              	.LFB19:
 239:..\CANLib/CANCommon.c **** 
 240:..\CANLib/CANCommon.c **** uint8_t DecodeTelemetryType(CANPacket *packet)
 241:..\CANLib/CANCommon.c **** {
 1147              		.loc 1 241 0
 1148              		.cfi_startproc
 1149              		@ args = 0, pretend = 0, frame = 8
 1150              		@ frame_needed = 1, uses_anonymous_args = 0
 1151 0000 80B5     		push	{r7, lr}
 1152              		.cfi_def_cfa_offset 8
 1153              		.cfi_offset 7, -8
 1154              		.cfi_offset 14, -4
 1155 0002 82B0     		sub	sp, sp, #8
 1156              		.cfi_def_cfa_offset 16
 1157 0004 00AF     		add	r7, sp, #0
 1158              		.cfi_def_cfa_register 7
 1159 0006 7860     		str	r0, [r7, #4]
 242:..\CANLib/CANCommon.c ****     return packet->data[2];
 1160              		.loc 1 242 0
 1161 0008 7B68     		ldr	r3, [r7, #4]
 1162 000a 5B79     		ldrb	r3, [r3, #5]
 243:..\CANLib/CANCommon.c **** }
 1163              		.loc 1 243 0
 1164 000c 1800     		movs	r0, r3
 1165 000e BD46     		mov	sp, r7
 1166 0010 02B0     		add	sp, sp, #8
 1167              		@ sp needed
 1168 0012 80BD     		pop	{r7, pc}
 1169              		.cfi_endproc
 1170              	.LFE19:
 1171              		.size	DecodeTelemetryType, .-DecodeTelemetryType
 1172              		.section	.text.AssembleRGBColorPacket,"ax",%progbits
 1173              		.align	2
 1174              		.global	AssembleRGBColorPacket
 1175              		.code	16
 1176              		.thumb_func
 1177              		.type	AssembleRGBColorPacket, %function
 1178              	AssembleRGBColorPacket:
 1179              	.LFB20:
 244:..\CANLib/CANCommon.c **** 
 245:..\CANLib/CANCommon.c **** void AssembleRGBColorPacket(CANPacket *packetToAssemble,
 246:..\CANLib/CANCommon.c ****     uint8_t targetGroup,
ARM GAS  C:\Users\Austcha\AppData\Local\Temp\ccFHMreR.s 			page 26


 247:..\CANLib/CANCommon.c ****     uint8_t targetSerial,
 248:..\CANLib/CANCommon.c ****     uint8_t addrLED,
 249:..\CANLib/CANCommon.c ****     uint8_t R,
 250:..\CANLib/CANCommon.c ****     uint8_t G,
 251:..\CANLib/CANCommon.c ****     uint8_t B)
 252:..\CANLib/CANCommon.c **** {
 1180              		.loc 1 252 0
 1181              		.cfi_startproc
 1182              		@ args = 12, pretend = 0, frame = 16
 1183              		@ frame_needed = 1, uses_anonymous_args = 0
 1184 0000 90B5     		push	{r4, r7, lr}
 1185              		.cfi_def_cfa_offset 12
 1186              		.cfi_offset 4, -12
 1187              		.cfi_offset 7, -8
 1188              		.cfi_offset 14, -4
 1189 0002 85B0     		sub	sp, sp, #20
 1190              		.cfi_def_cfa_offset 32
 1191 0004 00AF     		add	r7, sp, #0
 1192              		.cfi_def_cfa_register 7
 1193 0006 7860     		str	r0, [r7, #4]
 1194 0008 0C00     		movs	r4, r1
 1195 000a 1000     		movs	r0, r2
 1196 000c 1900     		movs	r1, r3
 1197 000e FB1C     		adds	r3, r7, #3
 1198 0010 221C     		adds	r2, r4, #0
 1199 0012 1A70     		strb	r2, [r3]
 1200 0014 BB1C     		adds	r3, r7, #2
 1201 0016 021C     		adds	r2, r0, #0
 1202 0018 1A70     		strb	r2, [r3]
 1203 001a 7B1C     		adds	r3, r7, #1
 1204 001c 0A1C     		adds	r2, r1, #0
 1205 001e 1A70     		strb	r2, [r3]
 253:..\CANLib/CANCommon.c ****     packetToAssemble->id = ConstructCANID(PACKET_PRIORITY_NORMAL, targetGroup, targetSerial);
 1206              		.loc 1 253 0
 1207 0020 BB1C     		adds	r3, r7, #2
 1208 0022 1A78     		ldrb	r2, [r3]
 1209 0024 FB1C     		adds	r3, r7, #3
 1210 0026 1B78     		ldrb	r3, [r3]
 1211 0028 1900     		movs	r1, r3
 1212 002a 0120     		movs	r0, #1
 1213 002c FFF7FEFF 		bl	ConstructCANID
 1214 0030 0300     		movs	r3, r0
 1215 0032 1A00     		movs	r2, r3
 1216 0034 7B68     		ldr	r3, [r7, #4]
 1217 0036 1A80     		strh	r2, [r3]
 254:..\CANLib/CANCommon.c ****     packetToAssemble->dlc = DLC_LED_COLOR;
 1218              		.loc 1 254 0
 1219 0038 7B68     		ldr	r3, [r7, #4]
 1220 003a 0622     		movs	r2, #6
 1221 003c 9A70     		strb	r2, [r3, #2]
 255:..\CANLib/CANCommon.c ****     int nextByte = WritePacketIDOnly(packetToAssemble->data, ID_LED_COLOR);
 1222              		.loc 1 255 0
 1223 003e 7B68     		ldr	r3, [r7, #4]
 1224 0040 0333     		adds	r3, r3, #3
 1225 0042 3721     		movs	r1, #55
 1226 0044 1800     		movs	r0, r3
 1227 0046 FFF7FEFF 		bl	WritePacketIDOnly
ARM GAS  C:\Users\Austcha\AppData\Local\Temp\ccFHMreR.s 			page 27


 1228 004a 0300     		movs	r3, r0
 1229 004c FB60     		str	r3, [r7, #12]
 256:..\CANLib/CANCommon.c ****     packetToAssemble->data[nextByte] = R;
 1230              		.loc 1 256 0
 1231 004e 7A68     		ldr	r2, [r7, #4]
 1232 0050 FB68     		ldr	r3, [r7, #12]
 1233 0052 D318     		adds	r3, r2, r3
 1234 0054 0333     		adds	r3, r3, #3
 1235 0056 2022     		movs	r2, #32
 1236 0058 BA18     		adds	r2, r7, r2
 1237 005a 1278     		ldrb	r2, [r2]
 1238 005c 1A70     		strb	r2, [r3]
 257:..\CANLib/CANCommon.c ****     packetToAssemble->data[nextByte + 1] = G;
 1239              		.loc 1 257 0
 1240 005e FB68     		ldr	r3, [r7, #12]
 1241 0060 0133     		adds	r3, r3, #1
 1242 0062 7A68     		ldr	r2, [r7, #4]
 1243 0064 D318     		adds	r3, r2, r3
 1244 0066 2422     		movs	r2, #36
 1245 0068 BA18     		adds	r2, r7, r2
 1246 006a 1278     		ldrb	r2, [r2]
 1247 006c DA70     		strb	r2, [r3, #3]
 258:..\CANLib/CANCommon.c ****     packetToAssemble->data[nextByte + 2] = B;
 1248              		.loc 1 258 0
 1249 006e FB68     		ldr	r3, [r7, #12]
 1250 0070 0233     		adds	r3, r3, #2
 1251 0072 7A68     		ldr	r2, [r7, #4]
 1252 0074 D318     		adds	r3, r2, r3
 1253 0076 2822     		movs	r2, #40
 1254 0078 BA18     		adds	r2, r7, r2
 1255 007a 1278     		ldrb	r2, [r2]
 1256 007c DA70     		strb	r2, [r3, #3]
 259:..\CANLib/CANCommon.c ****     packetToAssemble->data[nextByte + 3] = addrLED;   
 1257              		.loc 1 259 0
 1258 007e FB68     		ldr	r3, [r7, #12]
 1259 0080 0333     		adds	r3, r3, #3
 1260 0082 7A68     		ldr	r2, [r7, #4]
 1261 0084 D318     		adds	r3, r2, r3
 1262 0086 7A1C     		adds	r2, r7, #1
 1263 0088 1278     		ldrb	r2, [r2]
 1264 008a DA70     		strb	r2, [r3, #3]
 260:..\CANLib/CANCommon.c **** }
 1265              		.loc 1 260 0
 1266 008c C046     		nop
 1267 008e BD46     		mov	sp, r7
 1268 0090 05B0     		add	sp, sp, #20
 1269              		@ sp needed
 1270 0092 90BD     		pop	{r4, r7, pc}
 1271              		.cfi_endproc
 1272              	.LFE20:
 1273              		.size	AssembleRGBColorPacket, .-AssembleRGBColorPacket
 1274              		.text
 1275              	.Letext0:
 1276              		.file 2 "c:\\program files (x86)\\cypress\\psoc creator\\4.3\\psoc creator\\import\\gnu\\arm\\5.4.
 1277              		.file 3 "c:\\program files (x86)\\cypress\\psoc creator\\4.3\\psoc creator\\import\\gnu\\arm\\5.4.
 1278              		.file 4 "..\\CANLib\\CANPacket.h"