ARM GAS  C:\Users\Austcha\AppData\Local\Temp\ccFHMreR.s 			page 1


   1              		.syntax unified
   2              		.cpu cortex-m0
   3              		.fpu softvfp
   4              		.eabi_attribute 20, 1
   5              		.eabi_attribute 21, 1
   6              		.eabi_attribute 23, 3
   7              		.eabi_attribute 24, 1
   8              		.eabi_attribute 25, 1
   9              		.eabi_attribute 26, 1
  10              		.eabi_attribute 30, 6
  11              		.eabi_attribute 34, 0
  12              		.eabi_attribute 18, 4
  13              		.thumb
  14              		.syntax unified
  15              		.file	"CANCommon.c"
  16              		.text
  17              	.Ltext0:
  18              		.cfi_sections	.debug_frame
  19              		.section	.text.AssembleEmergencyStopPacket,"ax",%progbits
  20              		.align	2
  21              		.global	AssembleEmergencyStopPacket
  22              		.code	16
  23              		.thumb_func
  24              		.type	AssembleEmergencyStopPacket, %function
  25              	AssembleEmergencyStopPacket:
  26              	.LFB0:
  27              		.file 1 "..\\CANLib\\CANCommon.c"
   1:..\CANLib/CANCommon.c **** /* File:         CANCommon.c
   2:..\CANLib/CANCommon.c ****  * Authors:      Jaden Bottemiller, Benton Kwong, Dylan Tomberlin.
   3:..\CANLib/CANCommon.c ****  * Organization: Husky Robotics Team
   4:..\CANLib/CANCommon.c ****  * 
   5:..\CANLib/CANCommon.c ****  * This file includes fuction definitions for Common Mode CAN Communication
   6:..\CANLib/CANCommon.c ****  * using the Hindsight CAN Communication standard.
   7:..\CANLib/CANCommon.c ****  * Documentation: https://huskyroboticsteam.slite.com/app/channels/iU0BryG7M9/collections/aXvWTcIR6
   8:..\CANLib/CANCommon.c ****  */
   9:..\CANLib/CANCommon.c **** 
  10:..\CANLib/CANCommon.c **** #include "CANPacket.h"
  11:..\CANLib/CANCommon.c **** #include "CANCommon.h"
  12:..\CANLib/CANCommon.c **** #include "Port.h"
  13:..\CANLib/CANCommon.c **** // Assembles Emergency Stop Packet with given parameters
  14:..\CANLib/CANCommon.c **** // Inputs:
  15:..\CANLib/CANCommon.c **** //      packet:                     CAN Packet to assemble (will overwrite).
  16:..\CANLib/CANCommon.c **** //      targetDeviceGroup:          Group to target
  17:..\CANLib/CANCommon.c **** //      targetDeviceSerialNumber:   Serial number of target device
  18:..\CANLib/CANCommon.c **** //      errorCode:                  Emergency stop error code. E.G. ESTOP_ERR_GENERAL
  19:..\CANLib/CANCommon.c **** void AssembleEmergencyStopPacket(CANPacket *packet,
  20:..\CANLib/CANCommon.c ****     uint8_t targetDeviceGroup,
  21:..\CANLib/CANCommon.c ****     uint8_t targetDeviceSerialNumber,
  22:..\CANLib/CANCommon.c ****     uint8_t errorCode)
  23:..\CANLib/CANCommon.c **** {
  28              		.loc 1 23 0
  29              		.cfi_startproc
  30              		@ args = 0, pretend = 0, frame = 16
  31              		@ frame_needed = 1, uses_anonymous_args = 0
  32 0000 90B5     		push	{r4, r7, lr}
  33              		.cfi_def_cfa_offset 12
  34              		.cfi_offset 4, -12
ARM GAS  C:\Users\Austcha\AppData\Local\Temp\ccFHMreR.s 			page 2


  35              		.cfi_offset 7, -8
  36              		.cfi_offset 14, -4
  37 0002 85B0     		sub	sp, sp, #20
  38              		.cfi_def_cfa_offset 32
  39 0004 00AF     		add	r7, sp, #0
  40              		.cfi_def_cfa_register 7
  41 0006 7860     		str	r0, [r7, #4]
  42 0008 0C00     		movs	r4, r1
  43 000a 1000     		movs	r0, r2
  44 000c 1900     		movs	r1, r3
  45 000e FB1C     		adds	r3, r7, #3
  46 0010 221C     		adds	r2, r4, #0
  47 0012 1A70     		strb	r2, [r3]
  48 0014 BB1C     		adds	r3, r7, #2
  49 0016 021C     		adds	r2, r0, #0
  50 0018 1A70     		strb	r2, [r3]
  51 001a 7B1C     		adds	r3, r7, #1
  52 001c 0A1C     		adds	r2, r1, #0
  53 001e 1A70     		strb	r2, [r3]
  24:..\CANLib/CANCommon.c ****     packet->dlc = DLC_ESTOP;
  54              		.loc 1 24 0
  55 0020 7B68     		ldr	r3, [r7, #4]
  56 0022 0322     		movs	r2, #3
  57 0024 9A70     		strb	r2, [r3, #2]
  25:..\CANLib/CANCommon.c ****     packet->id = ConstructCANID(PACKET_PRIORITY_HIGH, targetDeviceGroup, targetDeviceSerialNumber);
  58              		.loc 1 25 0
  59 0026 BB1C     		adds	r3, r7, #2
  60 0028 1A78     		ldrb	r2, [r3]
  61 002a FB1C     		adds	r3, r7, #3
  62 002c 1B78     		ldrb	r3, [r3]
  63 002e 1900     		movs	r1, r3
  64 0030 0020     		movs	r0, #0
  65 0032 FFF7FEFF 		bl	ConstructCANID
  66 0036 0300     		movs	r3, r0
  67 0038 1A00     		movs	r2, r3
  68 003a 7B68     		ldr	r3, [r7, #4]
  69 003c 1A80     		strh	r2, [r3]
  26:..\CANLib/CANCommon.c ****     int nextByte = WriteSenderSerialAndPacketID(packet->data, ID_ESTOP);
  70              		.loc 1 26 0
  71 003e 7B68     		ldr	r3, [r7, #4]
  72 0040 0333     		adds	r3, r3, #3
  73 0042 3021     		movs	r1, #48
  74 0044 1800     		movs	r0, r3
  75 0046 FFF7FEFF 		bl	WriteSenderSerialAndPacketID
  76 004a 0300     		movs	r3, r0
  77 004c FB60     		str	r3, [r7, #12]
  27:..\CANLib/CANCommon.c ****     packet->data[nextByte] = errorCode;
  78              		.loc 1 27 0
  79 004e 7A68     		ldr	r2, [r7, #4]
  80 0050 FB68     		ldr	r3, [r7, #12]
  81 0052 D318     		adds	r3, r2, r3
  82 0054 0333     		adds	r3, r3, #3
  83 0056 7A1C     		adds	r2, r7, #1
  84 0058 1278     		ldrb	r2, [r2]
  85 005a 1A70     		strb	r2, [r3]
  28:..\CANLib/CANCommon.c **** }
  86              		.loc 1 28 0
ARM GAS  C:\Users\Austcha\AppData\Local\Temp\ccFHMreR.s 			page 3


  87 005c C046     		nop
  88 005e BD46     		mov	sp, r7
  89 0060 05B0     		add	sp, sp, #20
  90              		@ sp needed
  91 0062 90BD     		pop	{r4, r7, pc}
  92              		.cfi_endproc
  93              	.LFE0:
  94              		.size	AssembleEmergencyStopPacket, .-AssembleEmergencyStopPacket
  95              		.section	.text.AssembleGroupBroadcastingEmergencyStopPacket,"ax",%progbits
  96              		.align	2
  97              		.global	AssembleGroupBroadcastingEmergencyStopPacket
  98              		.code	16
  99              		.thumb_func
 100              		.type	AssembleGroupBroadcastingEmergencyStopPacket, %function
 101              	AssembleGroupBroadcastingEmergencyStopPacket:
 102              	.LFB1:
  29:..\CANLib/CANCommon.c **** 
  30:..\CANLib/CANCommon.c **** // Assembles Emergency Stop Packet with given parameters.
  31:..\CANLib/CANCommon.c **** // This will broadcast the emergency stop command to a desired device group.
  32:..\CANLib/CANCommon.c **** // Inputs:
  33:..\CANLib/CANCommon.c **** //      packet:                     CAN Packet to assemble (will overwrite).
  34:..\CANLib/CANCommon.c **** //      deviceGroup:                Group to target
  35:..\CANLib/CANCommon.c **** //      errorCode:                  Emergency stop error code. E.G. ESTOP_ERR_GENERAL
  36:..\CANLib/CANCommon.c **** void AssembleGroupBroadcastingEmergencyStopPacket(CANPacket *packet, 
  37:..\CANLib/CANCommon.c ****     uint8_t groupCode, 
  38:..\CANLib/CANCommon.c ****     uint8_t errorCode)
  39:..\CANLib/CANCommon.c **** {
 103              		.loc 1 39 0
 104              		.cfi_startproc
 105              		@ args = 0, pretend = 0, frame = 8
 106              		@ frame_needed = 1, uses_anonymous_args = 0
 107 0000 80B5     		push	{r7, lr}
 108              		.cfi_def_cfa_offset 8
 109              		.cfi_offset 7, -8
 110              		.cfi_offset 14, -4
 111 0002 82B0     		sub	sp, sp, #8
 112              		.cfi_def_cfa_offset 16
 113 0004 00AF     		add	r7, sp, #0
 114              		.cfi_def_cfa_register 7
 115 0006 7860     		str	r0, [r7, #4]
 116 0008 0800     		movs	r0, r1
 117 000a 1100     		movs	r1, r2
 118 000c FB1C     		adds	r3, r7, #3
 119 000e 021C     		adds	r2, r0, #0
 120 0010 1A70     		strb	r2, [r3]
 121 0012 BB1C     		adds	r3, r7, #2
 122 0014 0A1C     		adds	r2, r1, #0
 123 0016 1A70     		strb	r2, [r3]
  40:..\CANLib/CANCommon.c ****     AssembleEmergencyStopPacket(packet, groupCode, DEVICE_SERIAL_BROADCAST, errorCode);
 124              		.loc 1 40 0
 125 0018 BB1C     		adds	r3, r7, #2
 126 001a 1A78     		ldrb	r2, [r3]
 127 001c FB1C     		adds	r3, r7, #3
 128 001e 1978     		ldrb	r1, [r3]
 129 0020 7868     		ldr	r0, [r7, #4]
 130 0022 1300     		movs	r3, r2
 131 0024 0022     		movs	r2, #0
ARM GAS  C:\Users\Austcha\AppData\Local\Temp\ccFHMreR.s 			page 4


 132 0026 FFF7FEFF 		bl	AssembleEmergencyStopPacket
  41:..\CANLib/CANCommon.c **** }
 133              		.loc 1 41 0
 134 002a C046     		nop
 135 002c BD46     		mov	sp, r7
 136 002e 02B0     		add	sp, sp, #8
 137              		@ sp needed
 138 0030 80BD     		pop	{r7, pc}
 139              		.cfi_endproc
 140              	.LFE1:
 141              		.size	AssembleGroupBroadcastingEmergencyStopPacket, .-AssembleGroupBroadcastingEmergencyStopPacket
 142 0032 C046     		.section	.text.AssembleBrodcastEmergencyStopPacket,"ax",%progbits
 143              		.align	2
 144              		.global	AssembleBrodcastEmergencyStopPacket
 145              		.code	16
 146              		.thumb_func
 147              		.type	AssembleBrodcastEmergencyStopPacket, %function
 148              	AssembleBrodcastEmergencyStopPacket:
 149              	.LFB2:
  42:..\CANLib/CANCommon.c **** 
  43:..\CANLib/CANCommon.c **** // Assembles Emergency Stop Packet with given parameters.
  44:..\CANLib/CANCommon.c **** // This will broadcast the emergency stop command to all devices
  45:..\CANLib/CANCommon.c **** // Inputs:
  46:..\CANLib/CANCommon.c **** //      packet:                     CAN Packet to assemble (will overwrite).
  47:..\CANLib/CANCommon.c **** //      errorCode:                  Emergency stop error code. E.G. ESTOP_ERR_GENERAL
  48:..\CANLib/CANCommon.c **** void AssembleBrodcastEmergencyStopPacket(CANPacket *packet, 
  49:..\CANLib/CANCommon.c ****     uint8_t errorCode)
  50:..\CANLib/CANCommon.c **** {
 150              		.loc 1 50 0
 151              		.cfi_startproc
 152              		@ args = 0, pretend = 0, frame = 8
 153              		@ frame_needed = 1, uses_anonymous_args = 0
 154 0000 80B5     		push	{r7, lr}
 155              		.cfi_def_cfa_offset 8
 156              		.cfi_offset 7, -8
 157              		.cfi_offset 14, -4
 158 0002 82B0     		sub	sp, sp, #8
 159              		.cfi_def_cfa_offset 16
 160 0004 00AF     		add	r7, sp, #0
 161              		.cfi_def_cfa_register 7
 162 0006 7860     		str	r0, [r7, #4]
 163 0008 0A00     		movs	r2, r1
 164 000a FB1C     		adds	r3, r7, #3
 165 000c 1A70     		strb	r2, [r3]
  51:..\CANLib/CANCommon.c ****     AssembleGroupBroadcastingEmergencyStopPacket(packet, DEVICE_GROUP_BROADCAST, errorCode);
 166              		.loc 1 51 0
 167 000e FB1C     		adds	r3, r7, #3
 168 0010 1A78     		ldrb	r2, [r3]
 169 0012 7B68     		ldr	r3, [r7, #4]
 170 0014 0021     		movs	r1, #0
 171 0016 1800     		movs	r0, r3
 172 0018 FFF7FEFF 		bl	AssembleGroupBroadcastingEmergencyStopPacket
  52:..\CANLib/CANCommon.c **** }
 173              		.loc 1 52 0
 174 001c C046     		nop
 175 001e BD46     		mov	sp, r7
 176 0020 02B0     		add	sp, sp, #8
ARM GAS  C:\Users\Austcha\AppData\Local\Temp\ccFHMreR.s 			page 5


 177              		@ sp needed
 178 0022 80BD     		pop	{r7, pc}
 179              		.cfi_endproc
 180              	.LFE2:
 181              		.size	AssembleBrodcastEmergencyStopPacket, .-AssembleBrodcastEmergencyStopPacket
 182              		.section	.text.GetEmergencyStopErrorCode,"ax",%progbits
 183              		.align	2
 184              		.global	GetEmergencyStopErrorCode
 185              		.code	16
 186              		.thumb_func
 187              		.type	GetEmergencyStopErrorCode, %function
 188              	GetEmergencyStopErrorCode:
 189              	.LFB3:
  53:..\CANLib/CANCommon.c **** 
  54:..\CANLib/CANCommon.c **** // Gets the Error Code reported from an emergency stop packet.
  55:..\CANLib/CANCommon.c **** // Inputs:
  56:..\CANLib/CANCommon.c **** //      packet:     Packet to check.
  57:..\CANLib/CANCommon.c **** uint8_t GetEmergencyStopErrorCode(CANPacket *packet)
  58:..\CANLib/CANCommon.c **** {
 190              		.loc 1 58 0
 191              		.cfi_startproc
 192              		@ args = 0, pretend = 0, frame = 8
 193              		@ frame_needed = 1, uses_anonymous_args = 0
 194 0000 80B5     		push	{r7, lr}
 195              		.cfi_def_cfa_offset 8
 196              		.cfi_offset 7, -8
 197              		.cfi_offset 14, -4
 198 0002 82B0     		sub	sp, sp, #8
 199              		.cfi_def_cfa_offset 16
 200 0004 00AF     		add	r7, sp, #0
 201              		.cfi_def_cfa_register 7
 202 0006 7860     		str	r0, [r7, #4]
  59:..\CANLib/CANCommon.c ****     if (PacketIsOfID(packet, ID_ESTOP))
 203              		.loc 1 59 0
 204 0008 7B68     		ldr	r3, [r7, #4]
 205 000a 3021     		movs	r1, #48
 206 000c 1800     		movs	r0, r3
 207 000e FFF7FEFF 		bl	PacketIsOfID
 208 0012 031E     		subs	r3, r0, #0
 209 0014 02D0     		beq	.L5
  60:..\CANLib/CANCommon.c ****     {
  61:..\CANLib/CANCommon.c ****         return packet->data[2];
 210              		.loc 1 61 0
 211 0016 7B68     		ldr	r3, [r7, #4]
 212 0018 5B79     		ldrb	r3, [r3, #5]
 213 001a 00E0     		b	.L6
 214              	.L5:
  62:..\CANLib/CANCommon.c ****     }
  63:..\CANLib/CANCommon.c ****     else { return -1; }
 215              		.loc 1 63 0
 216 001c FF23     		movs	r3, #255
 217              	.L6:
  64:..\CANLib/CANCommon.c **** }
 218              		.loc 1 64 0
 219 001e 1800     		movs	r0, r3
 220 0020 BD46     		mov	sp, r7
 221 0022 02B0     		add	sp, sp, #8
ARM GAS  C:\Users\Austcha\AppData\Local\Temp\ccFHMreR.s 			page 6


 222              		@ sp needed
 223 0024 80BD     		pop	{r7, pc}
 224              		.cfi_endproc
 225              	.LFE3:
 226              		.size	GetEmergencyStopErrorCode, .-GetEmergencyStopErrorCode
 227 0026 C046     		.section	.text.GetTimeBetweenHeartbeatPacket,"ax",%progbits
 228              		.align	2
 229              		.global	GetTimeBetweenHeartbeatPacket
 230              		.code	16
 231              		.thumb_func
 232              		.type	GetTimeBetweenHeartbeatPacket, %function
 233              	GetTimeBetweenHeartbeatPacket:
 234              	.LFB4:
  65:..\CANLib/CANCommon.c **** 
  66:..\CANLib/CANCommon.c **** // Validates the Heartbeat Packet, returns time between previous Heartbeat packets
  67:..\CANLib/CANCommon.c **** // Inputs:
  68:..\CANLib/CANCommon.c **** //      packet:         CAN Packet to check
  69:..\CANLib/CANCommon.c **** //      lastHeartbeat:  Timestamp (ms) of last detected heartbeat
  70:..\CANLib/CANCommon.c **** // Outputs:
  71:..\CANLib/CANCommon.c **** //                  Time (in ms) between this heartbeat and the previous detected heartbeat
  72:..\CANLib/CANCommon.c **** //                  Negative value if packet is not valid heartbeat packet
  73:..\CANLib/CANCommon.c **** uint32_t GetTimeBetweenHeartbeatPacket(CANPacket *packet, uint32_t lastHeartbeat)
  74:..\CANLib/CANCommon.c **** {
 235              		.loc 1 74 0
 236              		.cfi_startproc
 237              		@ args = 0, pretend = 0, frame = 8
 238              		@ frame_needed = 1, uses_anonymous_args = 0
 239 0000 80B5     		push	{r7, lr}
 240              		.cfi_def_cfa_offset 8
 241              		.cfi_offset 7, -8
 242              		.cfi_offset 14, -4
 243 0002 82B0     		sub	sp, sp, #8
 244              		.cfi_def_cfa_offset 16
 245 0004 00AF     		add	r7, sp, #0
 246              		.cfi_def_cfa_register 7
 247 0006 7860     		str	r0, [r7, #4]
 248 0008 3960     		str	r1, [r7]
  75:..\CANLib/CANCommon.c ****     if (PacketIsOfID(packet, ID_HEARTBEAT)) 
 249              		.loc 1 75 0
 250 000a 7B68     		ldr	r3, [r7, #4]
 251 000c 3121     		movs	r1, #49
 252 000e 1800     		movs	r0, r3
 253 0010 FFF7FEFF 		bl	PacketIsOfID
 254 0014 031E     		subs	r3, r0, #0
 255 0016 07D0     		beq	.L8
  76:..\CANLib/CANCommon.c ****     {
  77:..\CANLib/CANCommon.c ****         return GetHeartbeatTimeStamp(packet) - lastHeartbeat;
 256              		.loc 1 77 0
 257 0018 7B68     		ldr	r3, [r7, #4]
 258 001a 1800     		movs	r0, r3
 259 001c FFF7FEFF 		bl	GetHeartbeatTimeStamp
 260 0020 0200     		movs	r2, r0
 261 0022 3B68     		ldr	r3, [r7]
 262 0024 D31A     		subs	r3, r2, r3
 263 0026 01E0     		b	.L9
 264              	.L8:
  78:..\CANLib/CANCommon.c ****     }
ARM GAS  C:\Users\Austcha\AppData\Local\Temp\ccFHMreR.s 			page 7


  79:..\CANLib/CANCommon.c ****     else { return -1; }
 265              		.loc 1 79 0
 266 0028 0123     		movs	r3, #1
 267 002a 5B42     		rsbs	r3, r3, #0
 268              	.L9:
  80:..\CANLib/CANCommon.c **** }
 269              		.loc 1 80 0
 270 002c 1800     		movs	r0, r3
 271 002e BD46     		mov	sp, r7
 272 0030 02B0     		add	sp, sp, #8
 273              		@ sp needed
 274 0032 80BD     		pop	{r7, pc}
 275              		.cfi_endproc
 276              	.LFE4:
 277              		.size	GetTimeBetweenHeartbeatPacket, .-GetTimeBetweenHeartbeatPacket
 278              		.section	.text.GetHeartbeatTimeStamp,"ax",%progbits
 279              		.align	2
 280              		.global	GetHeartbeatTimeStamp
 281              		.code	16
 282              		.thumb_func
 283              		.type	GetHeartbeatTimeStamp, %function
 284              	GetHeartbeatTimeStamp:
 285              	.LFB5:
  81:..\CANLib/CANCommon.c **** 
  82:..\CANLib/CANCommon.c **** // Validates the Heartbeat Packet, returns time between previous Heartbeat packets
  83:..\CANLib/CANCommon.c **** // Inputs:
  84:..\CANLib/CANCommon.c **** //      packet:         CAN Packet to check
  85:..\CANLib/CANCommon.c **** //      lastHeartbeat:  Timestamp (ms) of last detected heartbeat
  86:..\CANLib/CANCommon.c **** // Outputs:
  87:..\CANLib/CANCommon.c **** //                  Time (in ms) of the timestamp within the packet
  88:..\CANLib/CANCommon.c **** //                  Default return value is uint32 max value, which is used
  89:..\CANLib/CANCommon.c **** //                  if the packet is corrupt or not a heartbeat packet.
  90:..\CANLib/CANCommon.c **** uint32_t GetHeartbeatTimeStamp(CANPacket *packet)
  91:..\CANLib/CANCommon.c **** {
 286              		.loc 1 91 0
 287              		.cfi_startproc
 288              		@ args = 0, pretend = 0, frame = 16
 289              		@ frame_needed = 1, uses_anonymous_args = 0
 290 0000 80B5     		push	{r7, lr}
 291              		.cfi_def_cfa_offset 8
 292              		.cfi_offset 7, -8
 293              		.cfi_offset 14, -4
 294 0002 84B0     		sub	sp, sp, #16
 295              		.cfi_def_cfa_offset 24
 296 0004 00AF     		add	r7, sp, #0
 297              		.cfi_def_cfa_register 7
 298 0006 7860     		str	r0, [r7, #4]
  92:..\CANLib/CANCommon.c ****     if (PacketIsOfID(packet, ID_HEARTBEAT)) 
 299              		.loc 1 92 0
 300 0008 7B68     		ldr	r3, [r7, #4]
 301 000a 3121     		movs	r1, #49
 302 000c 1800     		movs	r0, r3
 303 000e FFF7FEFF 		bl	PacketIsOfID
 304 0012 031E     		subs	r3, r0, #0
 305 0014 17D0     		beq	.L11
 306              	.LBB2:
  93:..\CANLib/CANCommon.c ****     {
ARM GAS  C:\Users\Austcha\AppData\Local\Temp\ccFHMreR.s 			page 8


  94:..\CANLib/CANCommon.c ****         uint32_t time = ((uint32_t)packet->data[3] << 24);
 307              		.loc 1 94 0
 308 0016 7B68     		ldr	r3, [r7, #4]
 309 0018 9B79     		ldrb	r3, [r3, #6]
 310 001a 1B06     		lsls	r3, r3, #24
 311 001c FB60     		str	r3, [r7, #12]
  95:..\CANLib/CANCommon.c ****         time |= ((uint32_t)packet->data[4] << 16);
 312              		.loc 1 95 0
 313 001e 7B68     		ldr	r3, [r7, #4]
 314 0020 DB79     		ldrb	r3, [r3, #7]
 315 0022 1B04     		lsls	r3, r3, #16
 316 0024 FA68     		ldr	r2, [r7, #12]
 317 0026 1343     		orrs	r3, r2
 318 0028 FB60     		str	r3, [r7, #12]
  96:..\CANLib/CANCommon.c ****         time |= ((uint32_t)packet->data[5] << 8);
 319              		.loc 1 96 0
 320 002a 7B68     		ldr	r3, [r7, #4]
 321 002c 1B7A     		ldrb	r3, [r3, #8]
 322 002e 1B02     		lsls	r3, r3, #8
 323 0030 FA68     		ldr	r2, [r7, #12]
 324 0032 1343     		orrs	r3, r2
 325 0034 FB60     		str	r3, [r7, #12]
  97:..\CANLib/CANCommon.c ****         time |= packet->data[6]; 
 326              		.loc 1 97 0
 327 0036 7B68     		ldr	r3, [r7, #4]
 328 0038 5B7A     		ldrb	r3, [r3, #9]
 329 003a 1A00     		movs	r2, r3
 330 003c FB68     		ldr	r3, [r7, #12]
 331 003e 1343     		orrs	r3, r2
 332 0040 FB60     		str	r3, [r7, #12]
  98:..\CANLib/CANCommon.c ****         return time;
 333              		.loc 1 98 0
 334 0042 FB68     		ldr	r3, [r7, #12]
 335 0044 01E0     		b	.L12
 336              	.L11:
 337              	.LBE2:
  99:..\CANLib/CANCommon.c ****     }
 100:..\CANLib/CANCommon.c ****     else { return -1; }
 338              		.loc 1 100 0
 339 0046 0123     		movs	r3, #1
 340 0048 5B42     		rsbs	r3, r3, #0
 341              	.L12:
 101:..\CANLib/CANCommon.c **** }
 342              		.loc 1 101 0
 343 004a 1800     		movs	r0, r3
 344 004c BD46     		mov	sp, r7
 345 004e 04B0     		add	sp, sp, #16
 346              		@ sp needed
 347 0050 80BD     		pop	{r7, pc}
 348              		.cfi_endproc
 349              	.LFE5:
 350              		.size	GetHeartbeatTimeStamp, .-GetHeartbeatTimeStamp
 351 0052 C046     		.section	.text.GetHeartbeatLeniencyCode,"ax",%progbits
 352              		.align	2
 353              		.global	GetHeartbeatLeniencyCode
 354              		.code	16
 355              		.thumb_func
ARM GAS  C:\Users\Austcha\AppData\Local\Temp\ccFHMreR.s 			page 9


 356              		.type	GetHeartbeatLeniencyCode, %function
 357              	GetHeartbeatLeniencyCode:
 358              	.LFB6:
 102:..\CANLib/CANCommon.c **** 
 103:..\CANLib/CANCommon.c **** // Validates the Heartbeat Packet, returns the heartbeat leniency code of the packet
 104:..\CANLib/CANCommon.c **** // Inputs:
 105:..\CANLib/CANCommon.c **** //      packet:     CAN Packet to check
 106:..\CANLib/CANCommon.c **** // Outputs:
 107:..\CANLib/CANCommon.c **** //                  Heartbeat leniency code of given packet
 108:..\CANLib/CANCommon.c **** uint8_t GetHeartbeatLeniencyCode(CANPacket *packet)
 109:..\CANLib/CANCommon.c **** {
 359              		.loc 1 109 0
 360              		.cfi_startproc
 361              		@ args = 0, pretend = 0, frame = 8
 362              		@ frame_needed = 1, uses_anonymous_args = 0
 363 0000 80B5     		push	{r7, lr}
 364              		.cfi_def_cfa_offset 8
 365              		.cfi_offset 7, -8
 366              		.cfi_offset 14, -4
 367 0002 82B0     		sub	sp, sp, #8
 368              		.cfi_def_cfa_offset 16
 369 0004 00AF     		add	r7, sp, #0
 370              		.cfi_def_cfa_register 7
 371 0006 7860     		str	r0, [r7, #4]
 110:..\CANLib/CANCommon.c ****     if (PacketIsOfID(packet, ID_HEARTBEAT))
 372              		.loc 1 110 0
 373 0008 7B68     		ldr	r3, [r7, #4]
 374 000a 3121     		movs	r1, #49
 375 000c 1800     		movs	r0, r3
 376 000e FFF7FEFF 		bl	PacketIsOfID
 377 0012 031E     		subs	r3, r0, #0
 378 0014 02D0     		beq	.L14
 111:..\CANLib/CANCommon.c ****     {
 112:..\CANLib/CANCommon.c ****         return packet->data[2];
 379              		.loc 1 112 0
 380 0016 7B68     		ldr	r3, [r7, #4]
 381 0018 5B79     		ldrb	r3, [r3, #5]
 382 001a 00E0     		b	.L15
 383              	.L14:
 113:..\CANLib/CANCommon.c ****     } else {
 114:..\CANLib/CANCommon.c ****         return 0x00;
 384              		.loc 1 114 0
 385 001c 0023     		movs	r3, #0
 386              	.L15:
 115:..\CANLib/CANCommon.c ****     }
 116:..\CANLib/CANCommon.c **** }
 387              		.loc 1 116 0
 388 001e 1800     		movs	r0, r3
 389 0020 BD46     		mov	sp, r7
 390 0022 02B0     		add	sp, sp, #8
 391              		@ sp needed
 392 0024 80BD     		pop	{r7, pc}
 393              		.cfi_endproc
 394              	.LFE6:
 395              		.size	GetHeartbeatLeniencyCode, .-GetHeartbeatLeniencyCode
 396 0026 C046     		.section	.text.AssembleHeartbeatPacket,"ax",%progbits
 397              		.align	2
ARM GAS  C:\Users\Austcha\AppData\Local\Temp\ccFHMreR.s 			page 10


 398              		.global	AssembleHeartbeatPacket
 399              		.code	16
 400              		.thumb_func
 401              		.type	AssembleHeartbeatPacket, %function
 402              	AssembleHeartbeatPacket:
 403              	.LFB7:
 117:..\CANLib/CANCommon.c **** 
 118:..\CANLib/CANCommon.c **** // Assembles Heartbeat Packet with given parameters
 119:..\CANLib/CANCommon.c **** // Inputs:
 120:..\CANLib/CANCommon.c **** //      packetToAssemble:       CAN Packet to assemble (will overwrite).
 121:..\CANLib/CANCommon.c **** //      broadcast:              1 if broadcast to all devices. 0 to return to MAIN_CPU / Jetson.
 122:..\CANLib/CANCommon.c **** //      heartbeatLeniencyCode:  Max time between heartbeats before system automatically enters a sa
 123:..\CANLib/CANCommon.c **** //      timestamp:              Current timestamp as seen by the sender device. (ms)
 124:..\CANLib/CANCommon.c **** //TODO, upon approval from @jaden, delete senderGroup and senderSerial params, as these are handled
 125:..\CANLib/CANCommon.c **** void AssembleHeartbeatPacket(CANPacket *packetToAssemble, 
 126:..\CANLib/CANCommon.c ****     int broadcast, 
 127:..\CANLib/CANCommon.c ****     uint8_t heartbeatLeniencyCode,
 128:..\CANLib/CANCommon.c ****     uint32_t timestamp)
 129:..\CANLib/CANCommon.c **** {
 404              		.loc 1 129 0
 405              		.cfi_startproc
 406              		@ args = 0, pretend = 0, frame = 24
 407              		@ frame_needed = 1, uses_anonymous_args = 0
 408 0000 80B5     		push	{r7, lr}
 409              		.cfi_def_cfa_offset 8
 410              		.cfi_offset 7, -8
 411              		.cfi_offset 14, -4
 412 0002 86B0     		sub	sp, sp, #24
 413              		.cfi_def_cfa_offset 32
 414 0004 00AF     		add	r7, sp, #0
 415              		.cfi_def_cfa_register 7
 416 0006 F860     		str	r0, [r7, #12]
 417 0008 B960     		str	r1, [r7, #8]
 418 000a 3B60     		str	r3, [r7]
 419 000c FB1D     		adds	r3, r7, #7
 420 000e 1A70     		strb	r2, [r3]
 130:..\CANLib/CANCommon.c ****     packetToAssemble->id = ConstructCANID(PACKET_PRIORITY_HIGH, DEVICE_GROUP_BROADCAST, DEVICE_SERI
 421              		.loc 1 130 0
 422 0010 0022     		movs	r2, #0
 423 0012 0021     		movs	r1, #0
 424 0014 0020     		movs	r0, #0
 425 0016 FFF7FEFF 		bl	ConstructCANID
 426 001a 0300     		movs	r3, r0
 427 001c 1A00     		movs	r2, r3
 428 001e FB68     		ldr	r3, [r7, #12]
 429 0020 1A80     		strh	r2, [r3]
 131:..\CANLib/CANCommon.c ****     if (!broadcast)
 430              		.loc 1 131 0
 431 0022 BB68     		ldr	r3, [r7, #8]
 432 0024 002B     		cmp	r3, #0
 433 0026 08D1     		bne	.L17
 132:..\CANLib/CANCommon.c ****     { 
 133:..\CANLib/CANCommon.c ****         packetToAssemble->id = ConstructCANID(PACKET_PRIORITY_HIGH, DEVICE_GROUP_JETSON, DEVICE_SER
 434              		.loc 1 133 0
 435 0028 0122     		movs	r2, #1
 436 002a 0221     		movs	r1, #2
 437 002c 0020     		movs	r0, #0
ARM GAS  C:\Users\Austcha\AppData\Local\Temp\ccFHMreR.s 			page 11


 438 002e FFF7FEFF 		bl	ConstructCANID
 439 0032 0300     		movs	r3, r0
 440 0034 1A00     		movs	r2, r3
 441 0036 FB68     		ldr	r3, [r7, #12]
 442 0038 1A80     		strh	r2, [r3]
 443              	.L17:
 134:..\CANLib/CANCommon.c ****     }
 135:..\CANLib/CANCommon.c ****     packetToAssemble->dlc = DLC_HEARTBEAT;
 444              		.loc 1 135 0
 445 003a FB68     		ldr	r3, [r7, #12]
 446 003c 0722     		movs	r2, #7
 447 003e 9A70     		strb	r2, [r3, #2]
 136:..\CANLib/CANCommon.c ****     int nextByte = WriteSenderSerialAndPacketID(packetToAssemble->data, ID_HEARTBEAT);
 448              		.loc 1 136 0
 449 0040 FB68     		ldr	r3, [r7, #12]
 450 0042 0333     		adds	r3, r3, #3
 451 0044 3121     		movs	r1, #49
 452 0046 1800     		movs	r0, r3
 453 0048 FFF7FEFF 		bl	WriteSenderSerialAndPacketID
 454 004c 0300     		movs	r3, r0
 455 004e 7B61     		str	r3, [r7, #20]
 137:..\CANLib/CANCommon.c ****     packetToAssemble->data[nextByte] = heartbeatLeniencyCode;
 456              		.loc 1 137 0
 457 0050 FA68     		ldr	r2, [r7, #12]
 458 0052 7B69     		ldr	r3, [r7, #20]
 459 0054 D318     		adds	r3, r2, r3
 460 0056 0333     		adds	r3, r3, #3
 461 0058 FA1D     		adds	r2, r7, #7
 462 005a 1278     		ldrb	r2, [r2]
 463 005c 1A70     		strb	r2, [r3]
 138:..\CANLib/CANCommon.c ****     PackIntIntoDataMSBFirst(packetToAssemble->data, timestamp, 3);
 464              		.loc 1 138 0
 465 005e FB68     		ldr	r3, [r7, #12]
 466 0060 0333     		adds	r3, r3, #3
 467 0062 3968     		ldr	r1, [r7]
 468 0064 0322     		movs	r2, #3
 469 0066 1800     		movs	r0, r3
 470 0068 FFF7FEFF 		bl	PackIntIntoDataMSBFirst
 139:..\CANLib/CANCommon.c **** }
 471              		.loc 1 139 0
 472 006c C046     		nop
 473 006e BD46     		mov	sp, r7
 474 0070 06B0     		add	sp, sp, #24
 475              		@ sp needed
 476 0072 80BD     		pop	{r7, pc}
 477              		.cfi_endproc
 478              	.LFE7:
 479              		.size	AssembleHeartbeatPacket, .-AssembleHeartbeatPacket
 480              		.section	.text.AssembleFailReportPacket,"ax",%progbits
 481              		.align	2
 482              		.global	AssembleFailReportPacket
 483              		.code	16
 484              		.thumb_func
 485              		.type	AssembleFailReportPacket, %function
 486              	AssembleFailReportPacket:
 487              	.LFB8:
 140:..\CANLib/CANCommon.c **** 
ARM GAS  C:\Users\Austcha\AppData\Local\Temp\ccFHMreR.s 			page 12


 141:..\CANLib/CANCommon.c **** void AssembleFailReportPacket(CANPacket *packetToAssemble, 
 142:..\CANLib/CANCommon.c ****     uint8_t targetGroup, 
 143:..\CANLib/CANCommon.c ****     uint8_t targetSerial,
 144:..\CANLib/CANCommon.c ****     uint8_t failedPacketID)
 145:..\CANLib/CANCommon.c **** {
 488              		.loc 1 145 0
 489              		.cfi_startproc
 490              		@ args = 0, pretend = 0, frame = 16
 491              		@ frame_needed = 1, uses_anonymous_args = 0
 492 0000 90B5     		push	{r4, r7, lr}
 493              		.cfi_def_cfa_offset 12
 494              		.cfi_offset 4, -12
 495              		.cfi_offset 7, -8
 496              		.cfi_offset 14, -4
 497 0002 85B0     		sub	sp, sp, #20
 498              		.cfi_def_cfa_offset 32
 499 0004 00AF     		add	r7, sp, #0
 500              		.cfi_def_cfa_register 7
 501 0006 7860     		str	r0, [r7, #4]
 502 0008 0C00     		movs	r4, r1
 503 000a 1000     		movs	r0, r2
 504 000c 1900     		movs	r1, r3
 505 000e FB1C     		adds	r3, r7, #3
 506 0010 221C     		adds	r2, r4, #0
 507 0012 1A70     		strb	r2, [r3]
 508 0014 BB1C     		adds	r3, r7, #2
 509 0016 021C     		adds	r2, r0, #0
 510 0018 1A70     		strb	r2, [r3]
 511 001a 7B1C     		adds	r3, r7, #1
 512 001c 0A1C     		adds	r2, r1, #0
 513 001e 1A70     		strb	r2, [r3]
 146:..\CANLib/CANCommon.c ****     packetToAssemble->id = ConstructCANID(PACKET_PRIORITY_NORMAL, targetGroup, targetSerial);
 514              		.loc 1 146 0
 515 0020 BB1C     		adds	r3, r7, #2
 516 0022 1A78     		ldrb	r2, [r3]
 517 0024 FB1C     		adds	r3, r7, #3
 518 0026 1B78     		ldrb	r3, [r3]
 519 0028 1900     		movs	r1, r3
 520 002a 0120     		movs	r0, #1
 521 002c FFF7FEFF 		bl	ConstructCANID
 522 0030 0300     		movs	r3, r0
 523 0032 1A00     		movs	r2, r3
 524 0034 7B68     		ldr	r3, [r7, #4]
 525 0036 1A80     		strh	r2, [r3]
 147:..\CANLib/CANCommon.c ****     packetToAssemble->dlc = DLC_FAIL_REPORT;
 526              		.loc 1 147 0
 527 0038 7B68     		ldr	r3, [r7, #4]
 528 003a 0322     		movs	r2, #3
 529 003c 9A70     		strb	r2, [r3, #2]
 148:..\CANLib/CANCommon.c ****     int nextByte = WriteSenderSerialAndPacketID(packetToAssemble->data, ID_FAIL_REPORT);
 530              		.loc 1 148 0
 531 003e 7B68     		ldr	r3, [r7, #4]
 532 0040 0333     		adds	r3, r3, #3
 533 0042 3221     		movs	r1, #50
 534 0044 1800     		movs	r0, r3
 535 0046 FFF7FEFF 		bl	WriteSenderSerialAndPacketID
 536 004a 0300     		movs	r3, r0
ARM GAS  C:\Users\Austcha\AppData\Local\Temp\ccFHMreR.s 			page 13


 537 004c FB60     		str	r3, [r7, #12]
 149:..\CANLib/CANCommon.c ****     packetToAssemble->data[nextByte] = failedPacketID;
 538              		.loc 1 149 0
 539 004e 7A68     		ldr	r2, [r7, #4]
 540 0050 FB68     		ldr	r3, [r7, #12]
 541 0052 D318     		adds	r3, r2, r3
 542 0054 0333     		adds	r3, r3, #3
 543 0056 7A1C     		adds	r2, r7, #1
 544 0058 1278     		ldrb	r2, [r2]
 545 005a 1A70     		strb	r2, [r3]
 150:..\CANLib/CANCommon.c **** }
 546              		.loc 1 150 0
 547 005c C046     		nop
 548 005e BD46     		mov	sp, r7
 549 0060 05B0     		add	sp, sp, #20
 550              		@ sp needed
 551 0062 90BD     		pop	{r4, r7, pc}
 552              		.cfi_endproc
 553              	.LFE8:
 554              		.size	AssembleFailReportPacket, .-AssembleFailReportPacket
 555              		.section	.text.AssembleOverrideProtectionPacket,"ax",%progbits
 556              		.align	2
 557              		.global	AssembleOverrideProtectionPacket
 558              		.code	16
 559              		.thumb_func
 560              		.type	AssembleOverrideProtectionPacket, %function
 561              	AssembleOverrideProtectionPacket:
 562              	.LFB9:
 151:..\CANLib/CANCommon.c **** 
 152:..\CANLib/CANCommon.c **** // Assembles override protection packet with given parameters
 153:..\CANLib/CANCommon.c **** // Inputs:
 154:..\CANLib/CANCommon.c **** //      packetToAssemble:       CAN Packet to assemble (will overwrite).
 155:..\CANLib/CANCommon.c **** //      targetGroup:            Device gorup of target device.
 156:..\CANLib/CANCommon.c **** //      targetSerial:           Device serial of target device.
 157:..\CANLib/CANCommon.c **** void AssembleOverrideProtectionPacket(CANPacket *packetToAssemble, uint8_t targetGroup, uint8_t tar
 158:..\CANLib/CANCommon.c **** {
 563              		.loc 1 158 0
 564              		.cfi_startproc
 565              		@ args = 0, pretend = 0, frame = 8
 566              		@ frame_needed = 1, uses_anonymous_args = 0
 567 0000 80B5     		push	{r7, lr}
 568              		.cfi_def_cfa_offset 8
 569              		.cfi_offset 7, -8
 570              		.cfi_offset 14, -4
 571 0002 82B0     		sub	sp, sp, #8
 572              		.cfi_def_cfa_offset 16
 573 0004 00AF     		add	r7, sp, #0
 574              		.cfi_def_cfa_register 7
 575 0006 7860     		str	r0, [r7, #4]
 576 0008 0800     		movs	r0, r1
 577 000a 1100     		movs	r1, r2
 578 000c FB1C     		adds	r3, r7, #3
 579 000e 021C     		adds	r2, r0, #0
 580 0010 1A70     		strb	r2, [r3]
 581 0012 BB1C     		adds	r3, r7, #2
 582 0014 0A1C     		adds	r2, r1, #0
 583 0016 1A70     		strb	r2, [r3]
ARM GAS  C:\Users\Austcha\AppData\Local\Temp\ccFHMreR.s 			page 14


 159:..\CANLib/CANCommon.c ****     packetToAssemble->id = ConstructCANID(PACKET_PRIORITY_NORMAL, targetGroup, targetSerial);
 584              		.loc 1 159 0
 585 0018 BB1C     		adds	r3, r7, #2
 586 001a 1A78     		ldrb	r2, [r3]
 587 001c FB1C     		adds	r3, r7, #3
 588 001e 1B78     		ldrb	r3, [r3]
 589 0020 1900     		movs	r1, r3
 590 0022 0120     		movs	r0, #1
 591 0024 FFF7FEFF 		bl	ConstructCANID
 592 0028 0300     		movs	r3, r0
 593 002a 1A00     		movs	r2, r3
 594 002c 7B68     		ldr	r3, [r7, #4]
 595 002e 1A80     		strh	r2, [r3]
 160:..\CANLib/CANCommon.c ****     packetToAssemble->dlc = DLC_OVRD_PROTECTION;
 596              		.loc 1 160 0
 597 0030 7B68     		ldr	r3, [r7, #4]
 598 0032 0122     		movs	r2, #1
 599 0034 9A70     		strb	r2, [r3, #2]
 161:..\CANLib/CANCommon.c ****     WritePacketIDOnly(packetToAssemble->data, ID_OVRD_PROTECTION);
 600              		.loc 1 161 0
 601 0036 7B68     		ldr	r3, [r7, #4]
 602 0038 0333     		adds	r3, r3, #3
 603 003a 3321     		movs	r1, #51
 604 003c 1800     		movs	r0, r3
 605 003e FFF7FEFF 		bl	WritePacketIDOnly
 162:..\CANLib/CANCommon.c **** }
 606              		.loc 1 162 0
 607 0042 C046     		nop
 608 0044 BD46     		mov	sp, r7
 609 0046 02B0     		add	sp, sp, #8
 610              		@ sp needed
 611 0048 80BD     		pop	{r7, pc}
 612              		.cfi_endproc
 613              	.LFE9:
 614              		.size	AssembleOverrideProtectionPacket, .-AssembleOverrideProtectionPacket
 615 004a C046     		.section	.text.AssembleChipTypePullPacket,"ax",%progbits
 616              		.align	2
 617              		.global	AssembleChipTypePullPacket
 618              		.code	16
 619              		.thumb_func
 620              		.type	AssembleChipTypePullPacket, %function
 621              	AssembleChipTypePullPacket:
 622              	.LFB10:
 163:..\CANLib/CANCommon.c **** 
 164:..\CANLib/CANCommon.c **** void AssembleChipTypePullPacket(CANPacket *packetToAssemble,
 165:..\CANLib/CANCommon.c ****     uint8_t targetDeviceGroup,
 166:..\CANLib/CANCommon.c ****     uint8_t targetDeviceSerial)
 167:..\CANLib/CANCommon.c **** {
 623              		.loc 1 167 0
 624              		.cfi_startproc
 625              		@ args = 0, pretend = 0, frame = 16
 626              		@ frame_needed = 1, uses_anonymous_args = 0
 627 0000 80B5     		push	{r7, lr}
 628              		.cfi_def_cfa_offset 8
 629              		.cfi_offset 7, -8
 630              		.cfi_offset 14, -4
 631 0002 84B0     		sub	sp, sp, #16
ARM GAS  C:\Users\Austcha\AppData\Local\Temp\ccFHMreR.s 			page 15


 632              		.cfi_def_cfa_offset 24
 633 0004 00AF     		add	r7, sp, #0
 634              		.cfi_def_cfa_register 7
 635 0006 7860     		str	r0, [r7, #4]
 636 0008 0800     		movs	r0, r1
 637 000a 1100     		movs	r1, r2
 638 000c FB1C     		adds	r3, r7, #3
 639 000e 021C     		adds	r2, r0, #0
 640 0010 1A70     		strb	r2, [r3]
 641 0012 BB1C     		adds	r3, r7, #2
 642 0014 0A1C     		adds	r2, r1, #0
 643 0016 1A70     		strb	r2, [r3]
 168:..\CANLib/CANCommon.c ****     packetToAssemble->id = ConstructCANID(PACKET_PRIORITY_NORMAL, targetDeviceGroup, targetDeviceSe
 644              		.loc 1 168 0
 645 0018 BB1C     		adds	r3, r7, #2
 646 001a 1A78     		ldrb	r2, [r3]
 647 001c FB1C     		adds	r3, r7, #3
 648 001e 1B78     		ldrb	r3, [r3]
 649 0020 1900     		movs	r1, r3
 650 0022 0120     		movs	r0, #1
 651 0024 FFF7FEFF 		bl	ConstructCANID
 652 0028 0300     		movs	r3, r0
 653 002a 1A00     		movs	r2, r3
 654 002c 7B68     		ldr	r3, [r7, #4]
 655 002e 1A80     		strh	r2, [r3]
 169:..\CANLib/CANCommon.c ****     packetToAssemble->dlc = DLC_CHIP_TYPE_PULL;
 656              		.loc 1 169 0
 657 0030 7B68     		ldr	r3, [r7, #4]
 658 0032 0322     		movs	r2, #3
 659 0034 9A70     		strb	r2, [r3, #2]
 170:..\CANLib/CANCommon.c ****     int nextByte = WriteSenderSerialAndPacketID(packetToAssemble->data, ID_CHIP_TYPE_PULL);
 660              		.loc 1 170 0
 661 0036 7B68     		ldr	r3, [r7, #4]
 662 0038 0333     		adds	r3, r3, #3
 663 003a 3821     		movs	r1, #56
 664 003c 1800     		movs	r0, r3
 665 003e FFF7FEFF 		bl	WriteSenderSerialAndPacketID
 666 0042 0300     		movs	r3, r0
 667 0044 FB60     		str	r3, [r7, #12]
 171:..\CANLib/CANCommon.c ****     packetToAssemble->data[nextByte] = getChipType();
 668              		.loc 1 171 0
 669 0046 FFF7FEFF 		bl	getChipType
 670 004a 0300     		movs	r3, r0
 671 004c 1900     		movs	r1, r3
 672 004e 7A68     		ldr	r2, [r7, #4]
 673 0050 FB68     		ldr	r3, [r7, #12]
 674 0052 D318     		adds	r3, r2, r3
 675 0054 0333     		adds	r3, r3, #3
 676 0056 0A1C     		adds	r2, r1, #0
 677 0058 1A70     		strb	r2, [r3]
 172:..\CANLib/CANCommon.c **** }
 678              		.loc 1 172 0
 679 005a C046     		nop
 680 005c BD46     		mov	sp, r7
 681 005e 04B0     		add	sp, sp, #16
 682              		@ sp needed
 683 0060 80BD     		pop	{r7, pc}
ARM GAS  C:\Users\Austcha\AppData\Local\Temp\ccFHMreR.s 			page 16


 684              		.cfi_endproc
 685              	.LFE10:
 686              		.size	AssembleChipTypePullPacket, .-AssembleChipTypePullPacket
 687 0062 C046     		.section	.text.AssembleChipTypeReportPacket,"ax",%progbits
 688              		.align	2
 689              		.global	AssembleChipTypeReportPacket
 690              		.code	16
 691              		.thumb_func
 692              		.type	AssembleChipTypeReportPacket, %function
 693              	AssembleChipTypeReportPacket:
 694              	.LFB11:
 173:..\CANLib/CANCommon.c **** 
 174:..\CANLib/CANCommon.c **** void AssembleChipTypeReportPacket(CANPacket *packetToAssemble,
 175:..\CANLib/CANCommon.c ****     uint8_t targetDeviceGroup,
 176:..\CANLib/CANCommon.c ****     uint8_t targetDeviceSerial)
 177:..\CANLib/CANCommon.c **** {
 695              		.loc 1 177 0
 696              		.cfi_startproc
 697              		@ args = 0, pretend = 0, frame = 16
 698              		@ frame_needed = 1, uses_anonymous_args = 0
 699 0000 80B5     		push	{r7, lr}
 700              		.cfi_def_cfa_offset 8
 701              		.cfi_offset 7, -8
 702              		.cfi_offset 14, -4
 703 0002 84B0     		sub	sp, sp, #16
 704              		.cfi_def_cfa_offset 24
 705 0004 00AF     		add	r7, sp, #0
 706              		.cfi_def_cfa_register 7
 707 0006 7860     		str	r0, [r7, #4]
 708 0008 0800     		movs	r0, r1
 709 000a 1100     		movs	r1, r2
 710 000c FB1C     		adds	r3, r7, #3
 711 000e 021C     		adds	r2, r0, #0
 712 0010 1A70     		strb	r2, [r3]
 713 0012 BB1C     		adds	r3, r7, #2
 714 0014 0A1C     		adds	r2, r1, #0
 715 0016 1A70     		strb	r2, [r3]
 178:..\CANLib/CANCommon.c ****     packetToAssemble->id = ConstructCANID(PACKET_PRIORITY_NORMAL, targetDeviceGroup, targetDeviceSe
 716              		.loc 1 178 0
 717 0018 BB1C     		adds	r3, r7, #2
 718 001a 1A78     		ldrb	r2, [r3]
 719 001c FB1C     		adds	r3, r7, #3
 720 001e 1B78     		ldrb	r3, [r3]
 721 0020 1900     		movs	r1, r3
 722 0022 0120     		movs	r0, #1
 723 0024 FFF7FEFF 		bl	ConstructCANID
 724 0028 0300     		movs	r3, r0
 725 002a 1A00     		movs	r2, r3
 726 002c 7B68     		ldr	r3, [r7, #4]
 727 002e 1A80     		strh	r2, [r3]
 179:..\CANLib/CANCommon.c ****     packetToAssemble->dlc = DLC_CHIP_TYPE_REP;
 728              		.loc 1 179 0
 729 0030 7B68     		ldr	r3, [r7, #4]
 730 0032 0322     		movs	r2, #3
 731 0034 9A70     		strb	r2, [r3, #2]
 180:..\CANLib/CANCommon.c ****     int nextByte = WriteSenderSerialAndPacketID(packetToAssemble->data, ID_CHIP_TYPE_REP);
 732              		.loc 1 180 0
ARM GAS  C:\Users\Austcha\AppData\Local\Temp\ccFHMreR.s 			page 17


 733 0036 7B68     		ldr	r3, [r7, #4]
 734 0038 0333     		adds	r3, r3, #3
 735 003a 3921     		movs	r1, #57
 736 003c 1800     		movs	r0, r3
 737 003e FFF7FEFF 		bl	WriteSenderSerialAndPacketID
 738 0042 0300     		movs	r3, r0
 739 0044 FB60     		str	r3, [r7, #12]
 181:..\CANLib/CANCommon.c ****     packetToAssemble->data[nextByte] = getChipType();
 740              		.loc 1 181 0
 741 0046 FFF7FEFF 		bl	getChipType
 742 004a 0300     		movs	r3, r0
 743 004c 1900     		movs	r1, r3
 744 004e 7A68     		ldr	r2, [r7, #4]
 745 0050 FB68     		ldr	r3, [r7, #12]
 746 0052 D318     		adds	r3, r2, r3
 747 0054 0333     		adds	r3, r3, #3
 748 0056 0A1C     		adds	r2, r1, #0
 749 0058 1A70     		strb	r2, [r3]
 182:..\CANLib/CANCommon.c **** }
 750              		.loc 1 182 0
 751 005a C046     		nop
 752 005c BD46     		mov	sp, r7
 753 005e 04B0     		add	sp, sp, #16
 754              		@ sp needed
 755 0060 80BD     		pop	{r7, pc}
 756              		.cfi_endproc
 757              	.LFE11:
 758              		.size	AssembleChipTypeReportPacket, .-AssembleChipTypeReportPacket
 759 0062 C046     		.section	.text.GetChipTypeFromPacket,"ax",%progbits
 760              		.align	2
 761              		.global	GetChipTypeFromPacket
 762              		.code	16
 763              		.thumb_func
 764              		.type	GetChipTypeFromPacket, %function
 765              	GetChipTypeFromPacket:
 766              	.LFB12:
 183:..\CANLib/CANCommon.c **** 
 184:..\CANLib/CANCommon.c **** uint8_t GetChipTypeFromPacket(CANPacket *packet)
 185:..\CANLib/CANCommon.c **** {
 767              		.loc 1 185 0
 768              		.cfi_startproc
 769              		@ args = 0, pretend = 0, frame = 8
 770              		@ frame_needed = 1, uses_anonymous_args = 0
 771 0000 80B5     		push	{r7, lr}
 772              		.cfi_def_cfa_offset 8
 773              		.cfi_offset 7, -8
 774              		.cfi_offset 14, -4
 775 0002 82B0     		sub	sp, sp, #8
 776              		.cfi_def_cfa_offset 16
 777 0004 00AF     		add	r7, sp, #0
 778              		.cfi_def_cfa_register 7
 779 0006 7860     		str	r0, [r7, #4]
 186:..\CANLib/CANCommon.c ****     return packet->data[1];
 780              		.loc 1 186 0
 781 0008 7B68     		ldr	r3, [r7, #4]
 782 000a 1B79     		ldrb	r3, [r3, #4]
 187:..\CANLib/CANCommon.c **** }
ARM GAS  C:\Users\Austcha\AppData\Local\Temp\ccFHMreR.s 			page 18


 783              		.loc 1 187 0
 784 000c 1800     		movs	r0, r3
 785 000e BD46     		mov	sp, r7
 786 0010 02B0     		add	sp, sp, #8
 787              		@ sp needed
 788 0012 80BD     		pop	{r7, pc}
 789              		.cfi_endproc
 790              	.LFE12:
 791              		.size	GetChipTypeFromPacket, .-GetChipTypeFromPacket
 792              		.section	.text.AssembleTelemetryTimingPacket,"ax",%progbits
 793              		.align	2
 794              		.global	AssembleTelemetryTimingPacket
 795              		.code	16
 796              		.thumb_func
 797              		.type	AssembleTelemetryTimingPacket, %function
 798              	AssembleTelemetryTimingPacket:
 799              	.LFB13:
 188:..\CANLib/CANCommon.c **** 
 189:..\CANLib/CANCommon.c **** void AssembleTelemetryTimingPacket(CANPacket *packetToAssemble, 
 190:..\CANLib/CANCommon.c ****     uint8_t targetGroup, 
 191:..\CANLib/CANCommon.c ****     uint8_t targetSerial, 
 192:..\CANLib/CANCommon.c ****     uint8_t telemetryTypeCode,
 193:..\CANLib/CANCommon.c ****     uint32_t msBetweenReports)
 194:..\CANLib/CANCommon.c **** {
 800              		.loc 1 194 0
 801              		.cfi_startproc
 802              		@ args = 4, pretend = 0, frame = 16
 803              		@ frame_needed = 1, uses_anonymous_args = 0
 804 0000 90B5     		push	{r4, r7, lr}
 805              		.cfi_def_cfa_offset 12
 806              		.cfi_offset 4, -12
 807              		.cfi_offset 7, -8
 808              		.cfi_offset 14, -4
 809 0002 85B0     		sub	sp, sp, #20
 810              		.cfi_def_cfa_offset 32
 811 0004 00AF     		add	r7, sp, #0
 812              		.cfi_def_cfa_register 7
 813 0006 7860     		str	r0, [r7, #4]
 814 0008 0C00     		movs	r4, r1
 815 000a 1000     		movs	r0, r2
 816 000c 1900     		movs	r1, r3
 817 000e FB1C     		adds	r3, r7, #3
 818 0010 221C     		adds	r2, r4, #0
 819 0012 1A70     		strb	r2, [r3]
 820 0014 BB1C     		adds	r3, r7, #2
 821 0016 021C     		adds	r2, r0, #0
 822 0018 1A70     		strb	r2, [r3]
 823 001a 7B1C     		adds	r3, r7, #1
 824 001c 0A1C     		adds	r2, r1, #0
 825 001e 1A70     		strb	r2, [r3]
 195:..\CANLib/CANCommon.c ****     packetToAssemble->id = ConstructCANID(PACKET_PRIORITY_NORMAL, targetGroup, targetSerial);
 826              		.loc 1 195 0
 827 0020 BB1C     		adds	r3, r7, #2
 828 0022 1A78     		ldrb	r2, [r3]
 829 0024 FB1C     		adds	r3, r7, #3
 830 0026 1B78     		ldrb	r3, [r3]
 831 0028 1900     		movs	r1, r3
ARM GAS  C:\Users\Austcha\AppData\Local\Temp\ccFHMreR.s 			page 19


 832 002a 0120     		movs	r0, #1
 833 002c FFF7FEFF 		bl	ConstructCANID
 834 0030 0300     		movs	r3, r0
 835 0032 1A00     		movs	r2, r3
 836 0034 7B68     		ldr	r3, [r7, #4]
 837 0036 1A80     		strh	r2, [r3]
 196:..\CANLib/CANCommon.c ****     packetToAssemble->dlc = DLC_TELEMETRY_TIMING;
 838              		.loc 1 196 0
 839 0038 7B68     		ldr	r3, [r7, #4]
 840 003a 0622     		movs	r2, #6
 841 003c 9A70     		strb	r2, [r3, #2]
 197:..\CANLib/CANCommon.c ****     int nextByte = WritePacketIDOnly(packetToAssemble->data, ID_TELEMETRY_TIMING);
 842              		.loc 1 197 0
 843 003e 7B68     		ldr	r3, [r7, #4]
 844 0040 0333     		adds	r3, r3, #3
 845 0042 3421     		movs	r1, #52
 846 0044 1800     		movs	r0, r3
 847 0046 FFF7FEFF 		bl	WritePacketIDOnly
 848 004a 0300     		movs	r3, r0
 849 004c FB60     		str	r3, [r7, #12]
 198:..\CANLib/CANCommon.c ****     packetToAssemble->data[nextByte] = telemetryTypeCode;
 850              		.loc 1 198 0
 851 004e 7A68     		ldr	r2, [r7, #4]
 852 0050 FB68     		ldr	r3, [r7, #12]
 853 0052 D318     		adds	r3, r2, r3
 854 0054 0333     		adds	r3, r3, #3
 855 0056 7A1C     		adds	r2, r7, #1
 856 0058 1278     		ldrb	r2, [r2]
 857 005a 1A70     		strb	r2, [r3]
 199:..\CANLib/CANCommon.c ****     PackIntIntoDataMSBFirst(packetToAssemble->data, msBetweenReports, 3);
 858              		.loc 1 199 0
 859 005c 7B68     		ldr	r3, [r7, #4]
 860 005e 0333     		adds	r3, r3, #3
 861 0060 396A     		ldr	r1, [r7, #32]
 862 0062 0322     		movs	r2, #3
 863 0064 1800     		movs	r0, r3
 864 0066 FFF7FEFF 		bl	PackIntIntoDataMSBFirst
 200:..\CANLib/CANCommon.c **** }
 865              		.loc 1 200 0
 866 006a C046     		nop
 867 006c BD46     		mov	sp, r7
 868 006e 05B0     		add	sp, sp, #20
 869              		@ sp needed
 870 0070 90BD     		pop	{r4, r7, pc}
 871              		.cfi_endproc
 872              	.LFE13:
 873              		.size	AssembleTelemetryTimingPacket, .-AssembleTelemetryTimingPacket
 874 0072 C046     		.section	.text.GetTelemetryTimingFromPacket,"ax",%progbits
 875              		.align	2
 876              		.global	GetTelemetryTimingFromPacket
 877              		.code	16
 878              		.thumb_func
 879              		.type	GetTelemetryTimingFromPacket, %function
 880              	GetTelemetryTimingFromPacket:
 881              	.LFB14:
 201:..\CANLib/CANCommon.c **** uint32_t GetTelemetryTimingFromPacket(CANPacket *packetToAssemble)
 202:..\CANLib/CANCommon.c **** {
ARM GAS  C:\Users\Austcha\AppData\Local\Temp\ccFHMreR.s 			page 20


 882              		.loc 1 202 0
 883              		.cfi_startproc
 884              		@ args = 0, pretend = 0, frame = 8
 885              		@ frame_needed = 1, uses_anonymous_args = 0
 886 0000 80B5     		push	{r7, lr}
 887              		.cfi_def_cfa_offset 8
 888              		.cfi_offset 7, -8
 889              		.cfi_offset 14, -4
 890 0002 82B0     		sub	sp, sp, #8
 891              		.cfi_def_cfa_offset 16
 892 0004 00AF     		add	r7, sp, #0
 893              		.cfi_def_cfa_register 7
 894 0006 7860     		str	r0, [r7, #4]
 203:..\CANLib/CANCommon.c ****     return DecodeTelemetryDataUnsigned(packetToAssemble);
 895              		.loc 1 203 0
 896 0008 7B68     		ldr	r3, [r7, #4]
 897 000a 1800     		movs	r0, r3
 898 000c FFF7FEFF 		bl	DecodeTelemetryDataUnsigned
 899 0010 0300     		movs	r3, r0
 204:..\CANLib/CANCommon.c **** }
 900              		.loc 1 204 0
 901 0012 1800     		movs	r0, r3
 902 0014 BD46     		mov	sp, r7
 903 0016 02B0     		add	sp, sp, #8
 904              		@ sp needed
 905 0018 80BD     		pop	{r7, pc}
 906              		.cfi_endproc
 907              	.LFE14:
 908              		.size	GetTelemetryTimingFromPacket, .-GetTelemetryTimingFromPacket
 909 001a C046     		.section	.text.AssembleTelemetryPullPacket,"ax",%progbits
 910              		.align	2
 911              		.global	AssembleTelemetryPullPacket
 912              		.code	16
 913              		.thumb_func
 914              		.type	AssembleTelemetryPullPacket, %function
 915              	AssembleTelemetryPullPacket:
 916              	.LFB15:
 205:..\CANLib/CANCommon.c **** 
 206:..\CANLib/CANCommon.c **** void AssembleTelemetryPullPacket(CANPacket *packetToAssemble, 
 207:..\CANLib/CANCommon.c ****     uint8_t targetGroup, 
 208:..\CANLib/CANCommon.c ****     uint8_t targetSerial, 
 209:..\CANLib/CANCommon.c ****     uint8_t telemetryTypeCode)
 210:..\CANLib/CANCommon.c **** {
 917              		.loc 1 210 0
 918              		.cfi_startproc
 919              		@ args = 0, pretend = 0, frame = 16
 920              		@ frame_needed = 1, uses_anonymous_args = 0
 921 0000 90B5     		push	{r4, r7, lr}
 922              		.cfi_def_cfa_offset 12
 923              		.cfi_offset 4, -12
 924              		.cfi_offset 7, -8
 925              		.cfi_offset 14, -4
 926 0002 85B0     		sub	sp, sp, #20
 927              		.cfi_def_cfa_offset 32
 928 0004 00AF     		add	r7, sp, #0
 929              		.cfi_def_cfa_register 7
 930 0006 7860     		str	r0, [r7, #4]
ARM GAS  C:\Users\Austcha\AppData\Local\Temp\ccFHMreR.s 			page 21


 931 0008 0C00     		movs	r4, r1
 932 000a 1000     		movs	r0, r2
 933 000c 1900     		movs	r1, r3
 934 000e FB1C     		adds	r3, r7, #3
 935 0010 221C     		adds	r2, r4, #0
 936 0012 1A70     		strb	r2, [r3]
 937 0014 BB1C     		adds	r3, r7, #2
 938 0016 021C     		adds	r2, r0, #0
 939 0018 1A70     		strb	r2, [r3]
 940 001a 7B1C     		adds	r3, r7, #1
 941 001c 0A1C     		adds	r2, r1, #0
 942 001e 1A70     		strb	r2, [r3]
 211:..\CANLib/CANCommon.c ****     packetToAssemble->id = ConstructCANID(PACKET_PRIORITY_NORMAL, targetGroup, targetSerial);
 943              		.loc 1 211 0
 944 0020 BB1C     		adds	r3, r7, #2
 945 0022 1A78     		ldrb	r2, [r3]
 946 0024 FB1C     		adds	r3, r7, #3
 947 0026 1B78     		ldrb	r3, [r3]
 948 0028 1900     		movs	r1, r3
 949 002a 0120     		movs	r0, #1
 950 002c FFF7FEFF 		bl	ConstructCANID
 951 0030 0300     		movs	r3, r0
 952 0032 1A00     		movs	r2, r3
 953 0034 7B68     		ldr	r3, [r7, #4]
 954 0036 1A80     		strh	r2, [r3]
 212:..\CANLib/CANCommon.c ****     packetToAssemble->dlc = DLC_TELEMETRY_PULL;
 955              		.loc 1 212 0
 956 0038 7B68     		ldr	r3, [r7, #4]
 957 003a 0322     		movs	r2, #3
 958 003c 9A70     		strb	r2, [r3, #2]
 213:..\CANLib/CANCommon.c ****     int nextByte = WriteSenderSerialAndPacketID(packetToAssemble->data, ID_TELEMETRY_PULL);
 959              		.loc 1 213 0
 960 003e 7B68     		ldr	r3, [r7, #4]
 961 0040 0333     		adds	r3, r3, #3
 962 0042 3521     		movs	r1, #53
 963 0044 1800     		movs	r0, r3
 964 0046 FFF7FEFF 		bl	WriteSenderSerialAndPacketID
 965 004a 0300     		movs	r3, r0
 966 004c FB60     		str	r3, [r7, #12]
 214:..\CANLib/CANCommon.c ****     packetToAssemble->data[nextByte] = telemetryTypeCode;
 967              		.loc 1 214 0
 968 004e 7A68     		ldr	r2, [r7, #4]
 969 0050 FB68     		ldr	r3, [r7, #12]
 970 0052 D318     		adds	r3, r2, r3
 971 0054 0333     		adds	r3, r3, #3
 972 0056 7A1C     		adds	r2, r7, #1
 973 0058 1278     		ldrb	r2, [r2]
 974 005a 1A70     		strb	r2, [r3]
 215:..\CANLib/CANCommon.c **** }
 975              		.loc 1 215 0
 976 005c C046     		nop
 977 005e BD46     		mov	sp, r7
 978 0060 05B0     		add	sp, sp, #20
 979              		@ sp needed
 980 0062 90BD     		pop	{r4, r7, pc}
 981              		.cfi_endproc
 982              	.LFE15:
ARM GAS  C:\Users\Austcha\AppData\Local\Temp\ccFHMreR.s 			page 22


 983              		.size	AssembleTelemetryPullPacket, .-AssembleTelemetryPullPacket
 984              		.section	.text.AssembleTelemetryReportPacket,"ax",%progbits
 985              		.align	2
 986              		.global	AssembleTelemetryReportPacket
 987              		.code	16
 988              		.thumb_func
 989              		.type	AssembleTelemetryReportPacket, %function
 990              	AssembleTelemetryReportPacket:
 991              	.LFB16:
 216:..\CANLib/CANCommon.c **** 
 217:..\CANLib/CANCommon.c **** void AssembleTelemetryReportPacket(CANPacket *packetToAssemble, 
 218:..\CANLib/CANCommon.c ****     uint8_t targetGroup, 
 219:..\CANLib/CANCommon.c ****     uint8_t targetSerial,
 220:..\CANLib/CANCommon.c ****     uint8_t telemetryTypeCode,
 221:..\CANLib/CANCommon.c ****     int32_t data)
 222:..\CANLib/CANCommon.c **** {
 992              		.loc 1 222 0
 993              		.cfi_startproc
 994              		@ args = 4, pretend = 0, frame = 16
 995              		@ frame_needed = 1, uses_anonymous_args = 0
 996 0000 90B5     		push	{r4, r7, lr}
 997              		.cfi_def_cfa_offset 12
 998              		.cfi_offset 4, -12
 999              		.cfi_offset 7, -8
 1000              		.cfi_offset 14, -4
 1001 0002 85B0     		sub	sp, sp, #20
 1002              		.cfi_def_cfa_offset 32
 1003 0004 00AF     		add	r7, sp, #0
 1004              		.cfi_def_cfa_register 7
 1005 0006 7860     		str	r0, [r7, #4]
 1006 0008 0C00     		movs	r4, r1
 1007 000a 1000     		movs	r0, r2
 1008 000c 1900     		movs	r1, r3
 1009 000e FB1C     		adds	r3, r7, #3
 1010 0010 221C     		adds	r2, r4, #0
 1011 0012 1A70     		strb	r2, [r3]
 1012 0014 BB1C     		adds	r3, r7, #2
 1013 0016 021C     		adds	r2, r0, #0
 1014 0018 1A70     		strb	r2, [r3]
 1015 001a 7B1C     		adds	r3, r7, #1
 1016 001c 0A1C     		adds	r2, r1, #0
 1017 001e 1A70     		strb	r2, [r3]
 223:..\CANLib/CANCommon.c ****     packetToAssemble->id = ConstructCANID(PACKET_PRIORITY_NORMAL, targetGroup, targetSerial);
 1018              		.loc 1 223 0
 1019 0020 BB1C     		adds	r3, r7, #2
 1020 0022 1A78     		ldrb	r2, [r3]
 1021 0024 FB1C     		adds	r3, r7, #3
 1022 0026 1B78     		ldrb	r3, [r3]
 1023 0028 1900     		movs	r1, r3
 1024 002a 0120     		movs	r0, #1
 1025 002c FFF7FEFF 		bl	ConstructCANID
 1026 0030 0300     		movs	r3, r0
 1027 0032 1A00     		movs	r2, r3
 1028 0034 7B68     		ldr	r3, [r7, #4]
 1029 0036 1A80     		strh	r2, [r3]
 224:..\CANLib/CANCommon.c ****     packetToAssemble->dlc = DLC_TELEMETRY_REPORT;
 1030              		.loc 1 224 0
ARM GAS  C:\Users\Austcha\AppData\Local\Temp\ccFHMreR.s 			page 23


 1031 0038 7B68     		ldr	r3, [r7, #4]
 1032 003a 0722     		movs	r2, #7
 1033 003c 9A70     		strb	r2, [r3, #2]
 225:..\CANLib/CANCommon.c ****     int nextByte = WriteSenderSerialAndPacketID(packetToAssemble->data, ID_TELEMETRY_REPORT);
 1034              		.loc 1 225 0
 1035 003e 7B68     		ldr	r3, [r7, #4]
 1036 0040 0333     		adds	r3, r3, #3
 1037 0042 3621     		movs	r1, #54
 1038 0044 1800     		movs	r0, r3
 1039 0046 FFF7FEFF 		bl	WriteSenderSerialAndPacketID
 1040 004a 0300     		movs	r3, r0
 1041 004c FB60     		str	r3, [r7, #12]
 226:..\CANLib/CANCommon.c ****     packetToAssemble->data[nextByte] = telemetryTypeCode;
 1042              		.loc 1 226 0
 1043 004e 7A68     		ldr	r2, [r7, #4]
 1044 0050 FB68     		ldr	r3, [r7, #12]
 1045 0052 D318     		adds	r3, r2, r3
 1046 0054 0333     		adds	r3, r3, #3
 1047 0056 7A1C     		adds	r2, r7, #1
 1048 0058 1278     		ldrb	r2, [r2]
 1049 005a 1A70     		strb	r2, [r3]
 227:..\CANLib/CANCommon.c ****     PackIntIntoDataMSBFirst(packetToAssemble->data, data, 3);
 1050              		.loc 1 227 0
 1051 005c 7B68     		ldr	r3, [r7, #4]
 1052 005e 0333     		adds	r3, r3, #3
 1053 0060 396A     		ldr	r1, [r7, #32]
 1054 0062 0322     		movs	r2, #3
 1055 0064 1800     		movs	r0, r3
 1056 0066 FFF7FEFF 		bl	PackIntIntoDataMSBFirst
 228:..\CANLib/CANCommon.c **** }
 1057              		.loc 1 228 0
 1058 006a C046     		nop
 1059 006c BD46     		mov	sp, r7
 1060 006e 05B0     		add	sp, sp, #20
 1061              		@ sp needed
 1062 0070 90BD     		pop	{r4, r7, pc}
 1063              		.cfi_endproc
 1064              	.LFE16:
 1065              		.size	AssembleTelemetryReportPacket, .-AssembleTelemetryReportPacket
 1066 0072 C046     		.section	.text.DecodeTelemetryDataSigned,"ax",%progbits
 1067              		.align	2
 1068              		.global	DecodeTelemetryDataSigned
 1069              		.code	16
 1070              		.thumb_func
 1071              		.type	DecodeTelemetryDataSigned, %function
 1072              	DecodeTelemetryDataSigned:
 1073              	.LFB17:
 229:..\CANLib/CANCommon.c **** 
 230:..\CANLib/CANCommon.c **** int32_t DecodeTelemetryDataSigned(CANPacket *packet)
 231:..\CANLib/CANCommon.c **** {
 1074              		.loc 1 231 0
 1075              		.cfi_startproc
 1076              		@ args = 0, pretend = 0, frame = 8
 1077              		@ frame_needed = 1, uses_anonymous_args = 0
 1078 0000 80B5     		push	{r7, lr}
 1079              		.cfi_def_cfa_offset 8
 1080              		.cfi_offset 7, -8
ARM GAS  C:\Users\Austcha\AppData\Local\Temp\ccFHMreR.s 			page 24


 1081              		.cfi_offset 14, -4
 1082 0002 82B0     		sub	sp, sp, #8
 1083              		.cfi_def_cfa_offset 16
 1084 0004 00AF     		add	r7, sp, #0
 1085              		.cfi_def_cfa_register 7
 1086 0006 7860     		str	r0, [r7, #4]
 232:..\CANLib/CANCommon.c ****     return DecodeBytesToIntMSBFirst(packet->data, 3, 7);
 1087              		.loc 1 232 0
 1088 0008 7B68     		ldr	r3, [r7, #4]
 1089 000a 0333     		adds	r3, r3, #3
 1090 000c 0722     		movs	r2, #7
 1091 000e 0321     		movs	r1, #3
 1092 0010 1800     		movs	r0, r3
 1093 0012 FFF7FEFF 		bl	DecodeBytesToIntMSBFirst
 1094 0016 0300     		movs	r3, r0
 233:..\CANLib/CANCommon.c **** }
 1095              		.loc 1 233 0
 1096 0018 1800     		movs	r0, r3
 1097 001a BD46     		mov	sp, r7
 1098 001c 02B0     		add	sp, sp, #8
 1099              		@ sp needed
 1100 001e 80BD     		pop	{r7, pc}
 1101              		.cfi_endproc
 1102              	.LFE17:
 1103              		.size	DecodeTelemetryDataSigned, .-DecodeTelemetryDataSigned
 1104              		.section	.text.DecodeTelemetryDataUnsigned,"ax",%progbits
 1105              		.align	2
 1106              		.global	DecodeTelemetryDataUnsigned
 1107              		.code	16
 1108              		.thumb_func
 1109              		.type	DecodeTelemetryDataUnsigned, %function
 1110              	DecodeTelemetryDataUnsigned:
 1111              	.LFB18:
 234:..\CANLib/CANCommon.c **** 
 235:..\CANLib/CANCommon.c **** uint32_t DecodeTelemetryDataUnsigned(CANPacket *packet)
 236:..\CANLib/CANCommon.c **** {
 1112              		.loc 1 236 0
 1113              		.cfi_startproc
 1114              		@ args = 0, pretend = 0, frame = 8
 1115              		@ frame_needed = 1, uses_anonymous_args = 0
 1116 0000 80B5     		push	{r7, lr}
 1117              		.cfi_def_cfa_offset 8
 1118              		.cfi_offset 7, -8
 1119              		.cfi_offset 14, -4
 1120 0002 82B0     		sub	sp, sp, #8
 1121              		.cfi_def_cfa_offset 16
 1122 0004 00AF     		add	r7, sp, #0
 1123              		.cfi_def_cfa_register 7
 1124 0006 7860     		str	r0, [r7, #4]
 237:..\CANLib/CANCommon.c ****     return (uint32_t) DecodeTelemetryDataSigned(packet);
 1125              		.loc 1 237 0
 1126 0008 7B68     		ldr	r3, [r7, #4]
 1127 000a 1800     		movs	r0, r3
 1128 000c FFF7FEFF 		bl	DecodeTelemetryDataSigned
 1129 0010 0300     		movs	r3, r0
 238:..\CANLib/CANCommon.c **** }
 1130              		.loc 1 238 0
ARM GAS  C:\Users\Austcha\AppData\Local\Temp\ccFHMreR.s 			page 25


 1131 0012 1800     		movs	r0, r3
 1132 0014 BD46     		mov	sp, r7
 1133 0016 02B0     		add	sp, sp, #8
 1134              		@ sp needed
 1135 0018 80BD     		pop	{r7, pc}
 1136              		.cfi_endproc
 1137              	.LFE18:
 1138              		.size	DecodeTelemetryDataUnsigned, .-DecodeTelemetryDataUnsigned
 1139 001a C046     		.section	.text.DecodeTelemetryType,"ax",%progbits
 1140              		.align	2
 1141              		.global	DecodeTelemetryType
 1142              		.code	16
 1143              		.thumb_func
 1144              		.type	DecodeTelemetryType, %function
 1145              	DecodeTelemetryType:
 1146              	.LFB19:
 239:..\CANLib/CANCommon.c **** 
 240:..\CANLib/CANCommon.c **** uint8_t DecodeTelemetryType(CANPacket *packet)
 241:..\CANLib/CANCommon.c **** {
 1147              		.loc 1 241 0
 1148              		.cfi_startproc
 1149              		@ args = 0, pretend = 0, frame = 8
 1150              		@ frame_needed = 1, uses_anonymous_args = 0
 1151 0000 80B5     		push	{r7, lr}
 1152              		.cfi_def_cfa_offset 8
 1153              		.cfi_offset 7, -8
 1154              		.cfi_offset 14, -4
 1155 0002 82B0     		sub	sp, sp, #8
 1156              		.cfi_def_cfa_offset 16
 1157 0004 00AF     		add	r7, sp, #0
 1158              		.cfi_def_cfa_register 7
 1159 0006 7860     		str	r0, [r7, #4]
 242:..\CANLib/CANCommon.c ****     return packet->data[2];
 1160              		.loc 1 242 0
 1161 0008 7B68     		ldr	r3, [r7, #4]
 1162 000a 5B79     		ldrb	r3, [r3, #5]
 243:..\CANLib/CANCommon.c **** }
 1163              		.loc 1 243 0
 1164 000c 1800     		movs	r0, r3
 1165 000e BD46     		mov	sp, r7
 1166 0010 02B0     		add	sp, sp, #8
 1167              		@ sp needed
 1168 0012 80BD     		pop	{r7, pc}
 1169              		.cfi_endproc
 1170              	.LFE19:
 1171              		.size	DecodeTelemetryType, .-DecodeTelemetryType
 1172              		.section	.text.AssembleRGBColorPacket,"ax",%progbits
 1173              		.align	2
 1174              		.global	AssembleRGBColorPacket
 1175              		.code	16
 1176              		.thumb_func
 1177              		.type	AssembleRGBColorPacket, %function
 1178              	AssembleRGBColorPacket:
 1179              	.LFB20:
 244:..\CANLib/CANCommon.c **** 
 245:..\CANLib/CANCommon.c **** void AssembleRGBColorPacket(CANPacket *packetToAssemble,
 246:..\CANLib/CANCommon.c ****     uint8_t targetGroup,
ARM GAS  C:\Users\Austcha\AppData\Local\Temp\ccFHMreR.s 			page 26


 247:..\CANLib/CANCommon.c ****     uint8_t targetSerial,
 248:..\CANLib/CANCommon.c ****     uint8_t addrLED,
 249:..\CANLib/CANCommon.c ****     uint8_t R,
 250:..\CANLib/CANCommon.c ****     uint8_t G,
 251:..\CANLib/CANCommon.c ****     uint8_t B)
 252:..\CANLib/CANCommon.c **** {
 1180              		.loc 1 252 0
 1181              		.cfi_startproc
 1182              		@ args = 12, pretend = 0, frame = 16
 1183              		@ frame_needed = 1, uses_anonymous_args = 0
 1184 0000 90B5     		push	{r4, r7, lr}
 1185              		.cfi_def_cfa_offset 12
 1186              		.cfi_offset 4, -12
 1187              		.cfi_offset 7, -8
 1188              		.cfi_offset 14, -4
 1189 0002 85B0     		sub	sp, sp, #20
 1190              		.cfi_def_cfa_offset 32
 1191 0004 00AF     		add	r7, sp, #0
 1192              		.cfi_def_cfa_register 7
 1193 0006 7860     		str	r0, [r7, #4]
 1194 0008 0C00     		movs	r4, r1
 1195 000a 1000     		movs	r0, r2
 1196 000c 1900     		movs	r1, r3
 1197 000e FB1C     		adds	r3, r7, #3
 1198 0010 221C     		adds	r2, r4, #0
 1199 0012 1A70     		strb	r2, [r3]
 1200 0014 BB1C     		adds	r3, r7, #2
 1201 0016 021C     		adds	r2, r0, #0
 1202 0018 1A70     		strb	r2, [r3]
 1203 001a 7B1C     		adds	r3, r7, #1
 1204 001c 0A1C     		adds	r2, r1, #0
 1205 001e 1A70     		strb	r2, [r3]
 253:..\CANLib/CANCommon.c ****     packetToAssemble->id = ConstructCANID(PACKET_PRIORITY_NORMAL, targetGroup, targetSerial);
 1206              		.loc 1 253 0
 1207 0020 BB1C     		adds	r3, r7, #2
 1208 0022 1A78     		ldrb	r2, [r3]
 1209 0024 FB1C     		adds	r3, r7, #3
 1210 0026 1B78     		ldrb	r3, [r3]
 1211 0028 1900     		movs	r1, r3
 1212 002a 0120     		movs	r0, #1
 1213 002c FFF7FEFF 		bl	ConstructCANID
 1214 0030 0300     		movs	r3, r0
 1215 0032 1A00     		movs	r2, r3
 1216 0034 7B68     		ldr	r3, [r7, #4]
 1217 0036 1A80     		strh	r2, [r3]
 254:..\CANLib/CANCommon.c ****     packetToAssemble->dlc = DLC_LED_COLOR;
 1218              		.loc 1 254 0
 1219 0038 7B68     		ldr	r3, [r7, #4]
 1220 003a 0622     		movs	r2, #6
 1221 003c 9A70     		strb	r2, [r3, #2]
 255:..\CANLib/CANCommon.c ****     int nextByte = WritePacketIDOnly(packetToAssemble->data, ID_LED_COLOR);
 1222              		.loc 1 255 0
 1223 003e 7B68     		ldr	r3, [r7, #4]
 1224 0040 0333     		adds	r3, r3, #3
 1225 0042 3721     		movs	r1, #55
 1226 0044 1800     		movs	r0, r3
 1227 0046 FFF7FEFF 		bl	WritePacketIDOnly
ARM GAS  C:\Users\Austcha\AppData\Local\Temp\ccFHMreR.s 			page 27


 1228 004a 0300     		movs	r3, r0
 1229 004c FB60     		str	r3, [r7, #12]
 256:..\CANLib/CANCommon.c ****     packetToAssemble->data[nextByte] = R;
 1230              		.loc 1 256 0
 1231 004e 7A68     		ldr	r2, [r7, #4]
 1232 0050 FB68     		ldr	r3, [r7, #12]
 1233 0052 D318     		adds	r3, r2, r3
 1234 0054 0333     		adds	r3, r3, #3
 1235 0056 2022     		movs	r2, #32
 1236 0058 BA18     		adds	r2, r7, r2
 1237 005a 1278     		ldrb	r2, [r2]
 1238 005c 1A70     		strb	r2, [r3]
 257:..\CANLib/CANCommon.c ****     packetToAssemble->data[nextByte + 1] = G;
 1239              		.loc 1 257 0
 1240 005e FB68     		ldr	r3, [r7, #12]
 1241 0060 0133     		adds	r3, r3, #1
 1242 0062 7A68     		ldr	r2, [r7, #4]
 1243 0064 D318     		adds	r3, r2, r3
 1244 0066 2422     		movs	r2, #36
 1245 0068 BA18     		adds	r2, r7, r2
 1246 006a 1278     		ldrb	r2, [r2]
 1247 006c DA70     		strb	r2, [r3, #3]
 258:..\CANLib/CANCommon.c ****     packetToAssemble->data[nextByte + 2] = B;
 1248              		.loc 1 258 0
 1249 006e FB68     		ldr	r3, [r7, #12]
 1250 0070 0233     		adds	r3, r3, #2
 1251 0072 7A68     		ldr	r2, [r7, #4]
 1252 0074 D318     		adds	r3, r2, r3
 1253 0076 2822     		movs	r2, #40
 1254 0078 BA18     		adds	r2, r7, r2
 1255 007a 1278     		ldrb	r2, [r2]
 1256 007c DA70     		strb	r2, [r3, #3]
 259:..\CANLib/CANCommon.c ****     packetToAssemble->data[nextByte + 3] = addrLED;   
 1257              		.loc 1 259 0
 1258 007e FB68     		ldr	r3, [r7, #12]
 1259 0080 0333     		adds	r3, r3, #3
 1260 0082 7A68     		ldr	r2, [r7, #4]
 1261 0084 D318     		adds	r3, r2, r3
 1262 0086 7A1C     		adds	r2, r7, #1
 1263 0088 1278     		ldrb	r2, [r2]
 1264 008a DA70     		strb	r2, [r3, #3]
 260:..\CANLib/CANCommon.c **** }
 1265              		.loc 1 260 0
 1266 008c C046     		nop
 1267 008e BD46     		mov	sp, r7
 1268 0090 05B0     		add	sp, sp, #20
 1269              		@ sp needed
 1270 0092 90BD     		pop	{r4, r7, pc}
 1271              		.cfi_endproc
 1272              	.LFE20:
 1273              		.size	AssembleRGBColorPacket, .-AssembleRGBColorPacket
 1274              		.text
 1275              	.Letext0:
 1276              		.file 2 "c:\\program files (x86)\\cypress\\psoc creator\\4.3\\psoc creator\\import\\gnu\\arm\\5.4.
 1277              		.file 3 "c:\\program files (x86)\\cypress\\psoc creator\\4.3\\psoc creator\\import\\gnu\\arm\\5.4.
 1278              		.file 4 "..\\CANLib\\CANPacket.h"
 1279              		.section	.debug_info,"",%progbits
ARM GAS  C:\Users\Austcha\AppData\Local\Temp\ccFHMreR.s 			page 28


 1280              	.Ldebug_info0:
 1281 0000 B0060000 		.4byte	0x6b0
 1282 0004 0400     		.2byte	0x4
 1283 0006 00000000 		.4byte	.Ldebug_abbrev0
 1284 000a 04       		.byte	0x4
 1285 000b 01       		.uleb128 0x1
 1286 000c 42020000 		.4byte	.LASF59
 1287 0010 0C       		.byte	0xc
 1288 0011 89010000 		.4byte	.LASF60
 1289 0015 00000000 		.4byte	.LASF61
 1290 0019 00000000 		.4byte	.Ldebug_ranges0+0
 1291 001d 00000000 		.4byte	0
 1292 0021 00000000 		.4byte	.Ldebug_line0
 1293 0025 02       		.uleb128 0x2
 1294 0026 01       		.byte	0x1
 1295 0027 06       		.byte	0x6
 1296 0028 24030000 		.4byte	.LASF0
 1297 002c 03       		.uleb128 0x3
 1298 002d 38020000 		.4byte	.LASF3
 1299 0031 02       		.byte	0x2
 1300 0032 1D       		.byte	0x1d
 1301 0033 37000000 		.4byte	0x37
 1302 0037 02       		.uleb128 0x2
 1303 0038 01       		.byte	0x1
 1304 0039 08       		.byte	0x8
 1305 003a 0C030000 		.4byte	.LASF1
 1306 003e 02       		.uleb128 0x2
 1307 003f 02       		.byte	0x2
 1308 0040 05       		.byte	0x5
 1309 0041 E3000000 		.4byte	.LASF2
 1310 0045 03       		.uleb128 0x3
 1311 0046 6A010000 		.4byte	.LASF4
 1312 004a 02       		.byte	0x2
 1313 004b 2B       		.byte	0x2b
 1314 004c 50000000 		.4byte	0x50
 1315 0050 02       		.uleb128 0x2
 1316 0051 02       		.byte	0x2
 1317 0052 07       		.byte	0x7
 1318 0053 C2030000 		.4byte	.LASF5
 1319 0057 03       		.uleb128 0x3
 1320 0058 2A040000 		.4byte	.LASF6
 1321 005c 02       		.byte	0x2
 1322 005d 3F       		.byte	0x3f
 1323 005e 62000000 		.4byte	0x62
 1324 0062 02       		.uleb128 0x2
 1325 0063 04       		.byte	0x4
 1326 0064 05       		.byte	0x5
 1327 0065 19020000 		.4byte	.LASF7
 1328 0069 03       		.uleb128 0x3
 1329 006a 30010000 		.4byte	.LASF8
 1330 006e 02       		.byte	0x2
 1331 006f 41       		.byte	0x41
 1332 0070 74000000 		.4byte	0x74
 1333 0074 02       		.uleb128 0x2
 1334 0075 04       		.byte	0x4
 1335 0076 07       		.byte	0x7
 1336 0077 0E040000 		.4byte	.LASF9
ARM GAS  C:\Users\Austcha\AppData\Local\Temp\ccFHMreR.s 			page 29


 1337 007b 02       		.uleb128 0x2
 1338 007c 08       		.byte	0x8
 1339 007d 05       		.byte	0x5
 1340 007e 01020000 		.4byte	.LASF10
 1341 0082 02       		.uleb128 0x2
 1342 0083 08       		.byte	0x8
 1343 0084 07       		.byte	0x7
 1344 0085 30030000 		.4byte	.LASF11
 1345 0089 04       		.uleb128 0x4
 1346 008a 04       		.byte	0x4
 1347 008b 05       		.byte	0x5
 1348 008c 696E7400 		.ascii	"int\000"
 1349 0090 02       		.uleb128 0x2
 1350 0091 04       		.byte	0x4
 1351 0092 07       		.byte	0x7
 1352 0093 50030000 		.4byte	.LASF12
 1353 0097 03       		.uleb128 0x3
 1354 0098 B0010000 		.4byte	.LASF13
 1355 009c 03       		.byte	0x3
 1356 009d 18       		.byte	0x18
 1357 009e 2C000000 		.4byte	0x2c
 1358 00a2 03       		.uleb128 0x3
 1359 00a3 5D030000 		.4byte	.LASF14
 1360 00a7 03       		.byte	0x3
 1361 00a8 24       		.byte	0x24
 1362 00a9 45000000 		.4byte	0x45
 1363 00ad 03       		.uleb128 0x3
 1364 00ae E8030000 		.4byte	.LASF15
 1365 00b2 03       		.byte	0x3
 1366 00b3 2C       		.byte	0x2c
 1367 00b4 57000000 		.4byte	0x57
 1368 00b8 03       		.uleb128 0x3
 1369 00b9 47030000 		.4byte	.LASF16
 1370 00bd 03       		.byte	0x3
 1371 00be 30       		.byte	0x30
 1372 00bf 69000000 		.4byte	0x69
 1373 00c3 05       		.uleb128 0x5
 1374 00c4 0C       		.byte	0xc
 1375 00c5 04       		.byte	0x4
 1376 00c6 0F       		.byte	0xf
 1377 00c7 EF000000 		.4byte	0xef
 1378 00cb 06       		.uleb128 0x6
 1379 00cc 696400   		.ascii	"id\000"
 1380 00cf 04       		.byte	0x4
 1381 00d0 11       		.byte	0x11
 1382 00d1 A2000000 		.4byte	0xa2
 1383 00d5 00       		.byte	0
 1384 00d6 06       		.uleb128 0x6
 1385 00d7 646C6300 		.ascii	"dlc\000"
 1386 00db 04       		.byte	0x4
 1387 00dc 12       		.byte	0x12
 1388 00dd 97000000 		.4byte	0x97
 1389 00e1 02       		.byte	0x2
 1390 00e2 07       		.uleb128 0x7
 1391 00e3 F0030000 		.4byte	.LASF17
 1392 00e7 04       		.byte	0x4
 1393 00e8 13       		.byte	0x13
ARM GAS  C:\Users\Austcha\AppData\Local\Temp\ccFHMreR.s 			page 30


 1394 00e9 EF000000 		.4byte	0xef
 1395 00ed 03       		.byte	0x3
 1396 00ee 00       		.byte	0
 1397 00ef 08       		.uleb128 0x8
 1398 00f0 97000000 		.4byte	0x97
 1399 00f4 FF000000 		.4byte	0xff
 1400 00f8 09       		.uleb128 0x9
 1401 00f9 FF000000 		.4byte	0xff
 1402 00fd 07       		.byte	0x7
 1403 00fe 00       		.byte	0
 1404 00ff 02       		.uleb128 0x2
 1405 0100 04       		.byte	0x4
 1406 0101 07       		.byte	0x7
 1407 0102 06010000 		.4byte	.LASF18
 1408 0106 03       		.uleb128 0x3
 1409 0107 0F020000 		.4byte	.LASF19
 1410 010b 04       		.byte	0x4
 1411 010c 14       		.byte	0x14
 1412 010d C3000000 		.4byte	0xc3
 1413 0111 0A       		.uleb128 0xa
 1414 0112 A2040000 		.4byte	.LASF24
 1415 0116 01       		.byte	0x1
 1416 0117 13       		.byte	0x13
 1417 0118 00000000 		.4byte	.LFB0
 1418 011c 64000000 		.4byte	.LFE0-.LFB0
 1419 0120 01       		.uleb128 0x1
 1420 0121 9C       		.byte	0x9c
 1421 0122 6D010000 		.4byte	0x16d
 1422 0126 0B       		.uleb128 0xb
 1423 0127 B8010000 		.4byte	.LASF20
 1424 012b 01       		.byte	0x1
 1425 012c 13       		.byte	0x13
 1426 012d 6D010000 		.4byte	0x16d
 1427 0131 02       		.uleb128 0x2
 1428 0132 91       		.byte	0x91
 1429 0133 64       		.sleb128 -28
 1430 0134 0B       		.uleb128 0xb
 1431 0135 66030000 		.4byte	.LASF21
 1432 0139 01       		.byte	0x1
 1433 013a 14       		.byte	0x14
 1434 013b 97000000 		.4byte	0x97
 1435 013f 02       		.uleb128 0x2
 1436 0140 91       		.byte	0x91
 1437 0141 63       		.sleb128 -29
 1438 0142 0B       		.uleb128 0xb
 1439 0143 ED000000 		.4byte	.LASF22
 1440 0147 01       		.byte	0x1
 1441 0148 15       		.byte	0x15
 1442 0149 97000000 		.4byte	0x97
 1443 014d 02       		.uleb128 0x2
 1444 014e 91       		.byte	0x91
 1445 014f 62       		.sleb128 -30
 1446 0150 0B       		.uleb128 0xb
 1447 0151 0F010000 		.4byte	.LASF23
 1448 0155 01       		.byte	0x1
 1449 0156 16       		.byte	0x16
 1450 0157 97000000 		.4byte	0x97
ARM GAS  C:\Users\Austcha\AppData\Local\Temp\ccFHMreR.s 			page 31


 1451 015b 02       		.uleb128 0x2
 1452 015c 91       		.byte	0x91
 1453 015d 61       		.sleb128 -31
 1454 015e 0C       		.uleb128 0xc
 1455 015f 19010000 		.4byte	.LASF32
 1456 0163 01       		.byte	0x1
 1457 0164 1A       		.byte	0x1a
 1458 0165 89000000 		.4byte	0x89
 1459 0169 02       		.uleb128 0x2
 1460 016a 91       		.byte	0x91
 1461 016b 6C       		.sleb128 -20
 1462 016c 00       		.byte	0
 1463 016d 0D       		.uleb128 0xd
 1464 016e 04       		.byte	0x4
 1465 016f 06010000 		.4byte	0x106
 1466 0173 0A       		.uleb128 0xa
 1467 0174 B6000000 		.4byte	.LASF25
 1468 0178 01       		.byte	0x1
 1469 0179 24       		.byte	0x24
 1470 017a 00000000 		.4byte	.LFB1
 1471 017e 32000000 		.4byte	.LFE1-.LFB1
 1472 0182 01       		.uleb128 0x1
 1473 0183 9C       		.byte	0x9c
 1474 0184 B3010000 		.4byte	0x1b3
 1475 0188 0B       		.uleb128 0xb
 1476 0189 B8010000 		.4byte	.LASF20
 1477 018d 01       		.byte	0x1
 1478 018e 24       		.byte	0x24
 1479 018f 6D010000 		.4byte	0x16d
 1480 0193 02       		.uleb128 0x2
 1481 0194 91       		.byte	0x91
 1482 0195 74       		.sleb128 -12
 1483 0196 0B       		.uleb128 0xb
 1484 0197 20040000 		.4byte	.LASF26
 1485 019b 01       		.byte	0x1
 1486 019c 25       		.byte	0x25
 1487 019d 97000000 		.4byte	0x97
 1488 01a1 02       		.uleb128 0x2
 1489 01a2 91       		.byte	0x91
 1490 01a3 73       		.sleb128 -13
 1491 01a4 0B       		.uleb128 0xb
 1492 01a5 0F010000 		.4byte	.LASF23
 1493 01a9 01       		.byte	0x1
 1494 01aa 26       		.byte	0x26
 1495 01ab 97000000 		.4byte	0x97
 1496 01af 02       		.uleb128 0x2
 1497 01b0 91       		.byte	0x91
 1498 01b1 72       		.sleb128 -14
 1499 01b2 00       		.byte	0
 1500 01b3 0A       		.uleb128 0xa
 1501 01b4 33050000 		.4byte	.LASF27
 1502 01b8 01       		.byte	0x1
 1503 01b9 30       		.byte	0x30
 1504 01ba 00000000 		.4byte	.LFB2
 1505 01be 24000000 		.4byte	.LFE2-.LFB2
 1506 01c2 01       		.uleb128 0x1
 1507 01c3 9C       		.byte	0x9c
ARM GAS  C:\Users\Austcha\AppData\Local\Temp\ccFHMreR.s 			page 32


 1508 01c4 E5010000 		.4byte	0x1e5
 1509 01c8 0B       		.uleb128 0xb
 1510 01c9 B8010000 		.4byte	.LASF20
 1511 01cd 01       		.byte	0x1
 1512 01ce 30       		.byte	0x30
 1513 01cf 6D010000 		.4byte	0x16d
 1514 01d3 02       		.uleb128 0x2
 1515 01d4 91       		.byte	0x91
 1516 01d5 74       		.sleb128 -12
 1517 01d6 0B       		.uleb128 0xb
 1518 01d7 0F010000 		.4byte	.LASF23
 1519 01db 01       		.byte	0x1
 1520 01dc 31       		.byte	0x31
 1521 01dd 97000000 		.4byte	0x97
 1522 01e1 02       		.uleb128 0x2
 1523 01e2 91       		.byte	0x91
 1524 01e3 73       		.sleb128 -13
 1525 01e4 00       		.byte	0
 1526 01e5 0E       		.uleb128 0xe
 1527 01e6 DF040000 		.4byte	.LASF28
 1528 01ea 01       		.byte	0x1
 1529 01eb 39       		.byte	0x39
 1530 01ec 97000000 		.4byte	0x97
 1531 01f0 00000000 		.4byte	.LFB3
 1532 01f4 26000000 		.4byte	.LFE3-.LFB3
 1533 01f8 01       		.uleb128 0x1
 1534 01f9 9C       		.byte	0x9c
 1535 01fa 0D020000 		.4byte	0x20d
 1536 01fe 0B       		.uleb128 0xb
 1537 01ff B8010000 		.4byte	.LASF20
 1538 0203 01       		.byte	0x1
 1539 0204 39       		.byte	0x39
 1540 0205 6D010000 		.4byte	0x16d
 1541 0209 02       		.uleb128 0x2
 1542 020a 91       		.byte	0x91
 1543 020b 74       		.sleb128 -12
 1544 020c 00       		.byte	0
 1545 020d 0E       		.uleb128 0xe
 1546 020e D0020000 		.4byte	.LASF29
 1547 0212 01       		.byte	0x1
 1548 0213 49       		.byte	0x49
 1549 0214 B8000000 		.4byte	0xb8
 1550 0218 00000000 		.4byte	.LFB4
 1551 021c 34000000 		.4byte	.LFE4-.LFB4
 1552 0220 01       		.uleb128 0x1
 1553 0221 9C       		.byte	0x9c
 1554 0222 43020000 		.4byte	0x243
 1555 0226 0B       		.uleb128 0xb
 1556 0227 B8010000 		.4byte	.LASF20
 1557 022b 01       		.byte	0x1
 1558 022c 49       		.byte	0x49
 1559 022d 6D010000 		.4byte	0x16d
 1560 0231 02       		.uleb128 0x2
 1561 0232 91       		.byte	0x91
 1562 0233 74       		.sleb128 -12
 1563 0234 0B       		.uleb128 0xb
 1564 0235 22010000 		.4byte	.LASF30
ARM GAS  C:\Users\Austcha\AppData\Local\Temp\ccFHMreR.s 			page 33


 1565 0239 01       		.byte	0x1
 1566 023a 49       		.byte	0x49
 1567 023b B8000000 		.4byte	0xb8
 1568 023f 02       		.uleb128 0x2
 1569 0240 91       		.byte	0x91
 1570 0241 70       		.sleb128 -16
 1571 0242 00       		.byte	0
 1572 0243 0E       		.uleb128 0xe
 1573 0244 1D050000 		.4byte	.LASF31
 1574 0248 01       		.byte	0x1
 1575 0249 5A       		.byte	0x5a
 1576 024a B8000000 		.4byte	0xb8
 1577 024e 00000000 		.4byte	.LFB5
 1578 0252 52000000 		.4byte	.LFE5-.LFB5
 1579 0256 01       		.uleb128 0x1
 1580 0257 9C       		.byte	0x9c
 1581 0258 83020000 		.4byte	0x283
 1582 025c 0B       		.uleb128 0xb
 1583 025d B8010000 		.4byte	.LASF20
 1584 0261 01       		.byte	0x1
 1585 0262 5A       		.byte	0x5a
 1586 0263 6D010000 		.4byte	0x16d
 1587 0267 02       		.uleb128 0x2
 1588 0268 91       		.byte	0x91
 1589 0269 6C       		.sleb128 -20
 1590 026a 0F       		.uleb128 0xf
 1591 026b 16000000 		.4byte	.LBB2
 1592 026f 30000000 		.4byte	.LBE2-.LBB2
 1593 0273 0C       		.uleb128 0xc
 1594 0274 85030000 		.4byte	.LASF33
 1595 0278 01       		.byte	0x1
 1596 0279 5E       		.byte	0x5e
 1597 027a B8000000 		.4byte	0xb8
 1598 027e 02       		.uleb128 0x2
 1599 027f 91       		.byte	0x91
 1600 0280 74       		.sleb128 -12
 1601 0281 00       		.byte	0
 1602 0282 00       		.byte	0
 1603 0283 0E       		.uleb128 0xe
 1604 0284 3B010000 		.4byte	.LASF34
 1605 0288 01       		.byte	0x1
 1606 0289 6C       		.byte	0x6c
 1607 028a 97000000 		.4byte	0x97
 1608 028e 00000000 		.4byte	.LFB6
 1609 0292 26000000 		.4byte	.LFE6-.LFB6
 1610 0296 01       		.uleb128 0x1
 1611 0297 9C       		.byte	0x9c
 1612 0298 AB020000 		.4byte	0x2ab
 1613 029c 0B       		.uleb128 0xb
 1614 029d B8010000 		.4byte	.LASF20
 1615 02a1 01       		.byte	0x1
 1616 02a2 6C       		.byte	0x6c
 1617 02a3 6D010000 		.4byte	0x16d
 1618 02a7 02       		.uleb128 0x2
 1619 02a8 91       		.byte	0x91
 1620 02a9 74       		.sleb128 -12
 1621 02aa 00       		.byte	0
ARM GAS  C:\Users\Austcha\AppData\Local\Temp\ccFHMreR.s 			page 34


 1622 02ab 0A       		.uleb128 0xa
 1623 02ac DD010000 		.4byte	.LASF35
 1624 02b0 01       		.byte	0x1
 1625 02b1 7D       		.byte	0x7d
 1626 02b2 00000000 		.4byte	.LFB7
 1627 02b6 74000000 		.4byte	.LFE7-.LFB7
 1628 02ba 01       		.uleb128 0x1
 1629 02bb 9C       		.byte	0x9c
 1630 02bc 07030000 		.4byte	0x307
 1631 02c0 0B       		.uleb128 0xb
 1632 02c1 7E000000 		.4byte	.LASF36
 1633 02c5 01       		.byte	0x1
 1634 02c6 7D       		.byte	0x7d
 1635 02c7 6D010000 		.4byte	0x16d
 1636 02cb 02       		.uleb128 0x2
 1637 02cc 91       		.byte	0x91
 1638 02cd 6C       		.sleb128 -20
 1639 02ce 0B       		.uleb128 0xb
 1640 02cf 8F000000 		.4byte	.LASF37
 1641 02d3 01       		.byte	0x1
 1642 02d4 7E       		.byte	0x7e
 1643 02d5 89000000 		.4byte	0x89
 1644 02d9 02       		.uleb128 0x2
 1645 02da 91       		.byte	0x91
 1646 02db 68       		.sleb128 -24
 1647 02dc 0B       		.uleb128 0xb
 1648 02dd 54010000 		.4byte	.LASF38
 1649 02e1 01       		.byte	0x1
 1650 02e2 7F       		.byte	0x7f
 1651 02e3 97000000 		.4byte	0x97
 1652 02e7 02       		.uleb128 0x2
 1653 02e8 91       		.byte	0x91
 1654 02e9 67       		.sleb128 -25
 1655 02ea 0B       		.uleb128 0xb
 1656 02eb 1A030000 		.4byte	.LASF39
 1657 02ef 01       		.byte	0x1
 1658 02f0 80       		.byte	0x80
 1659 02f1 B8000000 		.4byte	0xb8
 1660 02f5 02       		.uleb128 0x2
 1661 02f6 91       		.byte	0x91
 1662 02f7 60       		.sleb128 -32
 1663 02f8 0C       		.uleb128 0xc
 1664 02f9 19010000 		.4byte	.LASF32
 1665 02fd 01       		.byte	0x1
 1666 02fe 88       		.byte	0x88
 1667 02ff 89000000 		.4byte	0x89
 1668 0303 02       		.uleb128 0x2
 1669 0304 91       		.byte	0x91
 1670 0305 74       		.sleb128 -12
 1671 0306 00       		.byte	0
 1672 0307 0A       		.uleb128 0xa
 1673 0308 F5030000 		.4byte	.LASF40
 1674 030c 01       		.byte	0x1
 1675 030d 8D       		.byte	0x8d
 1676 030e 00000000 		.4byte	.LFB8
 1677 0312 64000000 		.4byte	.LFE8-.LFB8
 1678 0316 01       		.uleb128 0x1
ARM GAS  C:\Users\Austcha\AppData\Local\Temp\ccFHMreR.s 			page 35


 1679 0317 9C       		.byte	0x9c
 1680 0318 63030000 		.4byte	0x363
 1681 031c 0B       		.uleb128 0xb
 1682 031d 7E000000 		.4byte	.LASF36
 1683 0321 01       		.byte	0x1
 1684 0322 8D       		.byte	0x8d
 1685 0323 6D010000 		.4byte	0x16d
 1686 0327 02       		.uleb128 0x2
 1687 0328 91       		.byte	0x91
 1688 0329 64       		.sleb128 -28
 1689 032a 0B       		.uleb128 0xb
 1690 032b F5010000 		.4byte	.LASF41
 1691 032f 01       		.byte	0x1
 1692 0330 8E       		.byte	0x8e
 1693 0331 97000000 		.4byte	0x97
 1694 0335 02       		.uleb128 0x2
 1695 0336 91       		.byte	0x91
 1696 0337 63       		.sleb128 -29
 1697 0338 0B       		.uleb128 0xb
 1698 0339 78030000 		.4byte	.LASF42
 1699 033d 01       		.byte	0x1
 1700 033e 8F       		.byte	0x8f
 1701 033f 97000000 		.4byte	0x97
 1702 0343 02       		.uleb128 0x2
 1703 0344 91       		.byte	0x91
 1704 0345 62       		.sleb128 -30
 1705 0346 0B       		.uleb128 0xb
 1706 0347 D0040000 		.4byte	.LASF43
 1707 034b 01       		.byte	0x1
 1708 034c 90       		.byte	0x90
 1709 034d 97000000 		.4byte	0x97
 1710 0351 02       		.uleb128 0x2
 1711 0352 91       		.byte	0x91
 1712 0353 61       		.sleb128 -31
 1713 0354 0C       		.uleb128 0xc
 1714 0355 19010000 		.4byte	.LASF32
 1715 0359 01       		.byte	0x1
 1716 035a 94       		.byte	0x94
 1717 035b 89000000 		.4byte	0x89
 1718 035f 02       		.uleb128 0x2
 1719 0360 91       		.byte	0x91
 1720 0361 6C       		.sleb128 -20
 1721 0362 00       		.byte	0
 1722 0363 0A       		.uleb128 0xa
 1723 0364 6A040000 		.4byte	.LASF44
 1724 0368 01       		.byte	0x1
 1725 0369 9D       		.byte	0x9d
 1726 036a 00000000 		.4byte	.LFB9
 1727 036e 4A000000 		.4byte	.LFE9-.LFB9
 1728 0372 01       		.uleb128 0x1
 1729 0373 9C       		.byte	0x9c
 1730 0374 A3030000 		.4byte	0x3a3
 1731 0378 0B       		.uleb128 0xb
 1732 0379 7E000000 		.4byte	.LASF36
 1733 037d 01       		.byte	0x1
 1734 037e 9D       		.byte	0x9d
 1735 037f 6D010000 		.4byte	0x16d
ARM GAS  C:\Users\Austcha\AppData\Local\Temp\ccFHMreR.s 			page 36


 1736 0383 02       		.uleb128 0x2
 1737 0384 91       		.byte	0x91
 1738 0385 74       		.sleb128 -12
 1739 0386 0B       		.uleb128 0xb
 1740 0387 F5010000 		.4byte	.LASF41
 1741 038b 01       		.byte	0x1
 1742 038c 9D       		.byte	0x9d
 1743 038d 97000000 		.4byte	0x97
 1744 0391 02       		.uleb128 0x2
 1745 0392 91       		.byte	0x91
 1746 0393 73       		.sleb128 -13
 1747 0394 0B       		.uleb128 0xb
 1748 0395 78030000 		.4byte	.LASF42
 1749 0399 01       		.byte	0x1
 1750 039a 9D       		.byte	0x9d
 1751 039b 97000000 		.4byte	0x97
 1752 039f 02       		.uleb128 0x2
 1753 03a0 91       		.byte	0x91
 1754 03a1 72       		.sleb128 -14
 1755 03a2 00       		.byte	0
 1756 03a3 0A       		.uleb128 0xa
 1757 03a4 A7030000 		.4byte	.LASF45
 1758 03a8 01       		.byte	0x1
 1759 03a9 A4       		.byte	0xa4
 1760 03aa 00000000 		.4byte	.LFB10
 1761 03ae 62000000 		.4byte	.LFE10-.LFB10
 1762 03b2 01       		.uleb128 0x1
 1763 03b3 9C       		.byte	0x9c
 1764 03b4 F1030000 		.4byte	0x3f1
 1765 03b8 0B       		.uleb128 0xb
 1766 03b9 7E000000 		.4byte	.LASF36
 1767 03bd 01       		.byte	0x1
 1768 03be A4       		.byte	0xa4
 1769 03bf 6D010000 		.4byte	0x16d
 1770 03c3 02       		.uleb128 0x2
 1771 03c4 91       		.byte	0x91
 1772 03c5 6C       		.sleb128 -20
 1773 03c6 0B       		.uleb128 0xb
 1774 03c7 66030000 		.4byte	.LASF21
 1775 03cb 01       		.byte	0x1
 1776 03cc A5       		.byte	0xa5
 1777 03cd 97000000 		.4byte	0x97
 1778 03d1 02       		.uleb128 0x2
 1779 03d2 91       		.byte	0x91
 1780 03d3 6B       		.sleb128 -21
 1781 03d4 0B       		.uleb128 0xb
 1782 03d5 D5030000 		.4byte	.LASF46
 1783 03d9 01       		.byte	0x1
 1784 03da A6       		.byte	0xa6
 1785 03db 97000000 		.4byte	0x97
 1786 03df 02       		.uleb128 0x2
 1787 03e0 91       		.byte	0x91
 1788 03e1 6A       		.sleb128 -22
 1789 03e2 0C       		.uleb128 0xc
 1790 03e3 19010000 		.4byte	.LASF32
 1791 03e7 01       		.byte	0x1
 1792 03e8 AA       		.byte	0xaa
ARM GAS  C:\Users\Austcha\AppData\Local\Temp\ccFHMreR.s 			page 37


 1793 03e9 89000000 		.4byte	0x89
 1794 03ed 02       		.uleb128 0x2
 1795 03ee 91       		.byte	0x91
 1796 03ef 74       		.sleb128 -12
 1797 03f0 00       		.byte	0
 1798 03f1 0A       		.uleb128 0xa
 1799 03f2 99000000 		.4byte	.LASF47
 1800 03f6 01       		.byte	0x1
 1801 03f7 AE       		.byte	0xae
 1802 03f8 00000000 		.4byte	.LFB11
 1803 03fc 62000000 		.4byte	.LFE11-.LFB11
 1804 0400 01       		.uleb128 0x1
 1805 0401 9C       		.byte	0x9c
 1806 0402 3F040000 		.4byte	0x43f
 1807 0406 0B       		.uleb128 0xb
 1808 0407 7E000000 		.4byte	.LASF36
 1809 040b 01       		.byte	0x1
 1810 040c AE       		.byte	0xae
 1811 040d 6D010000 		.4byte	0x16d
 1812 0411 02       		.uleb128 0x2
 1813 0412 91       		.byte	0x91
 1814 0413 6C       		.sleb128 -20
 1815 0414 0B       		.uleb128 0xb
 1816 0415 66030000 		.4byte	.LASF21
 1817 0419 01       		.byte	0x1
 1818 041a AF       		.byte	0xaf
 1819 041b 97000000 		.4byte	0x97
 1820 041f 02       		.uleb128 0x2
 1821 0420 91       		.byte	0x91
 1822 0421 6B       		.sleb128 -21
 1823 0422 0B       		.uleb128 0xb
 1824 0423 D5030000 		.4byte	.LASF46
 1825 0427 01       		.byte	0x1
 1826 0428 B0       		.byte	0xb0
 1827 0429 97000000 		.4byte	0x97
 1828 042d 02       		.uleb128 0x2
 1829 042e 91       		.byte	0x91
 1830 042f 6A       		.sleb128 -22
 1831 0430 0C       		.uleb128 0xc
 1832 0431 19010000 		.4byte	.LASF32
 1833 0435 01       		.byte	0x1
 1834 0436 B4       		.byte	0xb4
 1835 0437 89000000 		.4byte	0x89
 1836 043b 02       		.uleb128 0x2
 1837 043c 91       		.byte	0x91
 1838 043d 74       		.sleb128 -12
 1839 043e 00       		.byte	0
 1840 043f 10       		.uleb128 0x10
 1841 0440 22020000 		.4byte	.LASF48
 1842 0444 01       		.byte	0x1
 1843 0445 B8       		.byte	0xb8
 1844 0446 97000000 		.4byte	0x97
 1845 044a 00000000 		.4byte	.LFB12
 1846 044e 14000000 		.4byte	.LFE12-.LFB12
 1847 0452 01       		.uleb128 0x1
 1848 0453 9C       		.byte	0x9c
 1849 0454 67040000 		.4byte	0x467
ARM GAS  C:\Users\Austcha\AppData\Local\Temp\ccFHMreR.s 			page 38


 1850 0458 0B       		.uleb128 0xb
 1851 0459 B8010000 		.4byte	.LASF20
 1852 045d 01       		.byte	0x1
 1853 045e B8       		.byte	0xb8
 1854 045f 6D010000 		.4byte	0x16d
 1855 0463 02       		.uleb128 0x2
 1856 0464 91       		.byte	0x91
 1857 0465 74       		.sleb128 -12
 1858 0466 00       		.byte	0
 1859 0467 0A       		.uleb128 0xa
 1860 0468 BF010000 		.4byte	.LASF49
 1861 046c 01       		.byte	0x1
 1862 046d BD       		.byte	0xbd
 1863 046e 00000000 		.4byte	.LFB13
 1864 0472 72000000 		.4byte	.LFE13-.LFB13
 1865 0476 01       		.uleb128 0x1
 1866 0477 9C       		.byte	0x9c
 1867 0478 D1040000 		.4byte	0x4d1
 1868 047c 0B       		.uleb128 0xb
 1869 047d 7E000000 		.4byte	.LASF36
 1870 0481 01       		.byte	0x1
 1871 0482 BD       		.byte	0xbd
 1872 0483 6D010000 		.4byte	0x16d
 1873 0487 02       		.uleb128 0x2
 1874 0488 91       		.byte	0x91
 1875 0489 64       		.sleb128 -28
 1876 048a 0B       		.uleb128 0xb
 1877 048b F5010000 		.4byte	.LASF41
 1878 048f 01       		.byte	0x1
 1879 0490 BE       		.byte	0xbe
 1880 0491 97000000 		.4byte	0x97
 1881 0495 02       		.uleb128 0x2
 1882 0496 91       		.byte	0x91
 1883 0497 63       		.sleb128 -29
 1884 0498 0B       		.uleb128 0xb
 1885 0499 78030000 		.4byte	.LASF42
 1886 049d 01       		.byte	0x1
 1887 049e BF       		.byte	0xbf
 1888 049f 97000000 		.4byte	0x97
 1889 04a3 02       		.uleb128 0x2
 1890 04a4 91       		.byte	0x91
 1891 04a5 62       		.sleb128 -30
 1892 04a6 0B       		.uleb128 0xb
 1893 04a7 BE040000 		.4byte	.LASF50
 1894 04ab 01       		.byte	0x1
 1895 04ac C0       		.byte	0xc0
 1896 04ad 97000000 		.4byte	0x97
 1897 04b1 02       		.uleb128 0x2
 1898 04b2 91       		.byte	0x91
 1899 04b3 61       		.sleb128 -31
 1900 04b4 0B       		.uleb128 0xb
 1901 04b5 9F010000 		.4byte	.LASF51
 1902 04b9 01       		.byte	0x1
 1903 04ba C1       		.byte	0xc1
 1904 04bb B8000000 		.4byte	0xb8
 1905 04bf 02       		.uleb128 0x2
 1906 04c0 91       		.byte	0x91
ARM GAS  C:\Users\Austcha\AppData\Local\Temp\ccFHMreR.s 			page 39


 1907 04c1 00       		.sleb128 0
 1908 04c2 0C       		.uleb128 0xc
 1909 04c3 19010000 		.4byte	.LASF32
 1910 04c7 01       		.byte	0x1
 1911 04c8 C5       		.byte	0xc5
 1912 04c9 89000000 		.4byte	0x89
 1913 04cd 02       		.uleb128 0x2
 1914 04ce 91       		.byte	0x91
 1915 04cf 6C       		.sleb128 -20
 1916 04d0 00       		.byte	0
 1917 04d1 0E       		.uleb128 0xe
 1918 04d2 8A030000 		.4byte	.LASF52
 1919 04d6 01       		.byte	0x1
 1920 04d7 C9       		.byte	0xc9
 1921 04d8 B8000000 		.4byte	0xb8
 1922 04dc 00000000 		.4byte	.LFB14
 1923 04e0 1A000000 		.4byte	.LFE14-.LFB14
 1924 04e4 01       		.uleb128 0x1
 1925 04e5 9C       		.byte	0x9c
 1926 04e6 F9040000 		.4byte	0x4f9
 1927 04ea 0B       		.uleb128 0xb
 1928 04eb 7E000000 		.4byte	.LASF36
 1929 04ef 01       		.byte	0x1
 1930 04f0 C9       		.byte	0xc9
 1931 04f1 6D010000 		.4byte	0x16d
 1932 04f5 02       		.uleb128 0x2
 1933 04f6 91       		.byte	0x91
 1934 04f7 74       		.sleb128 -12
 1935 04f8 00       		.byte	0
 1936 04f9 0A       		.uleb128 0xa
 1937 04fa 4E040000 		.4byte	.LASF53
 1938 04fe 01       		.byte	0x1
 1939 04ff CE       		.byte	0xce
 1940 0500 00000000 		.4byte	.LFB15
 1941 0504 64000000 		.4byte	.LFE15-.LFB15
 1942 0508 01       		.uleb128 0x1
 1943 0509 9C       		.byte	0x9c
 1944 050a 55050000 		.4byte	0x555
 1945 050e 0B       		.uleb128 0xb
 1946 050f 7E000000 		.4byte	.LASF36
 1947 0513 01       		.byte	0x1
 1948 0514 CE       		.byte	0xce
 1949 0515 6D010000 		.4byte	0x16d
 1950 0519 02       		.uleb128 0x2
 1951 051a 91       		.byte	0x91
 1952 051b 64       		.sleb128 -28
 1953 051c 0B       		.uleb128 0xb
 1954 051d F5010000 		.4byte	.LASF41
 1955 0521 01       		.byte	0x1
 1956 0522 CF       		.byte	0xcf
 1957 0523 97000000 		.4byte	0x97
 1958 0527 02       		.uleb128 0x2
 1959 0528 91       		.byte	0x91
 1960 0529 63       		.sleb128 -29
 1961 052a 0B       		.uleb128 0xb
 1962 052b 78030000 		.4byte	.LASF42
 1963 052f 01       		.byte	0x1
ARM GAS  C:\Users\Austcha\AppData\Local\Temp\ccFHMreR.s 			page 40


 1964 0530 D0       		.byte	0xd0
 1965 0531 97000000 		.4byte	0x97
 1966 0535 02       		.uleb128 0x2
 1967 0536 91       		.byte	0x91
 1968 0537 62       		.sleb128 -30
 1969 0538 0B       		.uleb128 0xb
 1970 0539 BE040000 		.4byte	.LASF50
 1971 053d 01       		.byte	0x1
 1972 053e D1       		.byte	0xd1
 1973 053f 97000000 		.4byte	0x97
 1974 0543 02       		.uleb128 0x2
 1975 0544 91       		.byte	0x91
 1976 0545 61       		.sleb128 -31
 1977 0546 0C       		.uleb128 0xc
 1978 0547 19010000 		.4byte	.LASF32
 1979 054b 01       		.byte	0x1
 1980 054c D5       		.byte	0xd5
 1981 054d 89000000 		.4byte	0x89
 1982 0551 02       		.uleb128 0x2
 1983 0552 91       		.byte	0x91
 1984 0553 6C       		.sleb128 -20
 1985 0554 00       		.byte	0
 1986 0555 0A       		.uleb128 0xa
 1987 0556 EE020000 		.4byte	.LASF54
 1988 055a 01       		.byte	0x1
 1989 055b D9       		.byte	0xd9
 1990 055c 00000000 		.4byte	.LFB16
 1991 0560 72000000 		.4byte	.LFE16-.LFB16
 1992 0564 01       		.uleb128 0x1
 1993 0565 9C       		.byte	0x9c
 1994 0566 BF050000 		.4byte	0x5bf
 1995 056a 0B       		.uleb128 0xb
 1996 056b 7E000000 		.4byte	.LASF36
 1997 056f 01       		.byte	0x1
 1998 0570 D9       		.byte	0xd9
 1999 0571 6D010000 		.4byte	0x16d
 2000 0575 02       		.uleb128 0x2
 2001 0576 91       		.byte	0x91
 2002 0577 64       		.sleb128 -28
 2003 0578 0B       		.uleb128 0xb
 2004 0579 F5010000 		.4byte	.LASF41
 2005 057d 01       		.byte	0x1
 2006 057e DA       		.byte	0xda
 2007 057f 97000000 		.4byte	0x97
 2008 0583 02       		.uleb128 0x2
 2009 0584 91       		.byte	0x91
 2010 0585 63       		.sleb128 -29
 2011 0586 0B       		.uleb128 0xb
 2012 0587 78030000 		.4byte	.LASF42
 2013 058b 01       		.byte	0x1
 2014 058c DB       		.byte	0xdb
 2015 058d 97000000 		.4byte	0x97
 2016 0591 02       		.uleb128 0x2
 2017 0592 91       		.byte	0x91
 2018 0593 62       		.sleb128 -30
 2019 0594 0B       		.uleb128 0xb
 2020 0595 BE040000 		.4byte	.LASF50
ARM GAS  C:\Users\Austcha\AppData\Local\Temp\ccFHMreR.s 			page 41


 2021 0599 01       		.byte	0x1
 2022 059a DC       		.byte	0xdc
 2023 059b 97000000 		.4byte	0x97
 2024 059f 02       		.uleb128 0x2
 2025 05a0 91       		.byte	0x91
 2026 05a1 61       		.sleb128 -31
 2027 05a2 0B       		.uleb128 0xb
 2028 05a3 F0030000 		.4byte	.LASF17
 2029 05a7 01       		.byte	0x1
 2030 05a8 DD       		.byte	0xdd
 2031 05a9 AD000000 		.4byte	0xad
 2032 05ad 02       		.uleb128 0x2
 2033 05ae 91       		.byte	0x91
 2034 05af 00       		.sleb128 0
 2035 05b0 0C       		.uleb128 0xc
 2036 05b1 19010000 		.4byte	.LASF32
 2037 05b5 01       		.byte	0x1
 2038 05b6 E1       		.byte	0xe1
 2039 05b7 89000000 		.4byte	0x89
 2040 05bb 02       		.uleb128 0x2
 2041 05bc 91       		.byte	0x91
 2042 05bd 6C       		.sleb128 -20
 2043 05be 00       		.byte	0
 2044 05bf 0E       		.uleb128 0xe
 2045 05c0 34040000 		.4byte	.LASF55
 2046 05c4 01       		.byte	0x1
 2047 05c5 E6       		.byte	0xe6
 2048 05c6 AD000000 		.4byte	0xad
 2049 05ca 00000000 		.4byte	.LFB17
 2050 05ce 20000000 		.4byte	.LFE17-.LFB17
 2051 05d2 01       		.uleb128 0x1
 2052 05d3 9C       		.byte	0x9c
 2053 05d4 E7050000 		.4byte	0x5e7
 2054 05d8 0B       		.uleb128 0xb
 2055 05d9 B8010000 		.4byte	.LASF20
 2056 05dd 01       		.byte	0x1
 2057 05de E6       		.byte	0xe6
 2058 05df 6D010000 		.4byte	0x16d
 2059 05e3 02       		.uleb128 0x2
 2060 05e4 91       		.byte	0x91
 2061 05e5 74       		.sleb128 -12
 2062 05e6 00       		.byte	0
 2063 05e7 0E       		.uleb128 0xe
 2064 05e8 01050000 		.4byte	.LASF56
 2065 05ec 01       		.byte	0x1
 2066 05ed EB       		.byte	0xeb
 2067 05ee B8000000 		.4byte	0xb8
 2068 05f2 00000000 		.4byte	.LFB18
 2069 05f6 1A000000 		.4byte	.LFE18-.LFB18
 2070 05fa 01       		.uleb128 0x1
 2071 05fb 9C       		.byte	0x9c
 2072 05fc 0F060000 		.4byte	0x60f
 2073 0600 0B       		.uleb128 0xb
 2074 0601 B8010000 		.4byte	.LASF20
 2075 0605 01       		.byte	0x1
 2076 0606 EB       		.byte	0xeb
 2077 0607 6D010000 		.4byte	0x16d
ARM GAS  C:\Users\Austcha\AppData\Local\Temp\ccFHMreR.s 			page 42


 2078 060b 02       		.uleb128 0x2
 2079 060c 91       		.byte	0x91
 2080 060d 74       		.sleb128 -12
 2081 060e 00       		.byte	0
 2082 060f 10       		.uleb128 0x10
 2083 0610 75010000 		.4byte	.LASF57
 2084 0614 01       		.byte	0x1
 2085 0615 F0       		.byte	0xf0
 2086 0616 97000000 		.4byte	0x97
 2087 061a 00000000 		.4byte	.LFB19
 2088 061e 14000000 		.4byte	.LFE19-.LFB19
 2089 0622 01       		.uleb128 0x1
 2090 0623 9C       		.byte	0x9c
 2091 0624 37060000 		.4byte	0x637
 2092 0628 0B       		.uleb128 0xb
 2093 0629 B8010000 		.4byte	.LASF20
 2094 062d 01       		.byte	0x1
 2095 062e F0       		.byte	0xf0
 2096 062f 6D010000 		.4byte	0x16d
 2097 0633 02       		.uleb128 0x2
 2098 0634 91       		.byte	0x91
 2099 0635 74       		.sleb128 -12
 2100 0636 00       		.byte	0
 2101 0637 11       		.uleb128 0x11
 2102 0638 8B040000 		.4byte	.LASF62
 2103 063c 01       		.byte	0x1
 2104 063d F5       		.byte	0xf5
 2105 063e 00000000 		.4byte	.LFB20
 2106 0642 94000000 		.4byte	.LFE20-.LFB20
 2107 0646 01       		.uleb128 0x1
 2108 0647 9C       		.byte	0x9c
 2109 0648 0B       		.uleb128 0xb
 2110 0649 7E000000 		.4byte	.LASF36
 2111 064d 01       		.byte	0x1
 2112 064e F5       		.byte	0xf5
 2113 064f 6D010000 		.4byte	0x16d
 2114 0653 02       		.uleb128 0x2
 2115 0654 91       		.byte	0x91
 2116 0655 64       		.sleb128 -28
 2117 0656 0B       		.uleb128 0xb
 2118 0657 F5010000 		.4byte	.LASF41
 2119 065b 01       		.byte	0x1
 2120 065c F6       		.byte	0xf6
 2121 065d 97000000 		.4byte	0x97
 2122 0661 02       		.uleb128 0x2
 2123 0662 91       		.byte	0x91
 2124 0663 63       		.sleb128 -29
 2125 0664 0B       		.uleb128 0xb
 2126 0665 78030000 		.4byte	.LASF42
 2127 0669 01       		.byte	0x1
 2128 066a F7       		.byte	0xf7
 2129 066b 97000000 		.4byte	0x97
 2130 066f 02       		.uleb128 0x2
 2131 0670 91       		.byte	0x91
 2132 0671 62       		.sleb128 -30
 2133 0672 0B       		.uleb128 0xb
 2134 0673 F9040000 		.4byte	.LASF58
ARM GAS  C:\Users\Austcha\AppData\Local\Temp\ccFHMreR.s 			page 43


 2135 0677 01       		.byte	0x1
 2136 0678 F8       		.byte	0xf8
 2137 0679 97000000 		.4byte	0x97
 2138 067d 02       		.uleb128 0x2
 2139 067e 91       		.byte	0x91
 2140 067f 61       		.sleb128 -31
 2141 0680 12       		.uleb128 0x12
 2142 0681 5200     		.ascii	"R\000"
 2143 0683 01       		.byte	0x1
 2144 0684 F9       		.byte	0xf9
 2145 0685 97000000 		.4byte	0x97
 2146 0689 02       		.uleb128 0x2
 2147 068a 91       		.byte	0x91
 2148 068b 00       		.sleb128 0
 2149 068c 12       		.uleb128 0x12
 2150 068d 4700     		.ascii	"G\000"
 2151 068f 01       		.byte	0x1
 2152 0690 FA       		.byte	0xfa
 2153 0691 97000000 		.4byte	0x97
 2154 0695 02       		.uleb128 0x2
 2155 0696 91       		.byte	0x91
 2156 0697 04       		.sleb128 4
 2157 0698 12       		.uleb128 0x12
 2158 0699 4200     		.ascii	"B\000"
 2159 069b 01       		.byte	0x1
 2160 069c FB       		.byte	0xfb
 2161 069d 97000000 		.4byte	0x97
 2162 06a1 02       		.uleb128 0x2
 2163 06a2 91       		.byte	0x91
 2164 06a3 08       		.sleb128 8
 2165 06a4 0C       		.uleb128 0xc
 2166 06a5 19010000 		.4byte	.LASF32
 2167 06a9 01       		.byte	0x1
 2168 06aa FF       		.byte	0xff
 2169 06ab 89000000 		.4byte	0x89
 2170 06af 02       		.uleb128 0x2
 2171 06b0 91       		.byte	0x91
 2172 06b1 6C       		.sleb128 -20
 2173 06b2 00       		.byte	0
 2174 06b3 00       		.byte	0
 2175              		.section	.debug_abbrev,"",%progbits
 2176              	.Ldebug_abbrev0:
 2177 0000 01       		.uleb128 0x1
 2178 0001 11       		.uleb128 0x11
 2179 0002 01       		.byte	0x1
 2180 0003 25       		.uleb128 0x25
 2181 0004 0E       		.uleb128 0xe
 2182 0005 13       		.uleb128 0x13
 2183 0006 0B       		.uleb128 0xb
 2184 0007 03       		.uleb128 0x3
 2185 0008 0E       		.uleb128 0xe
 2186 0009 1B       		.uleb128 0x1b
 2187 000a 0E       		.uleb128 0xe
 2188 000b 55       		.uleb128 0x55
 2189 000c 17       		.uleb128 0x17
 2190 000d 11       		.uleb128 0x11
 2191 000e 01       		.uleb128 0x1
ARM GAS  C:\Users\Austcha\AppData\Local\Temp\ccFHMreR.s 			page 44


 2192 000f 10       		.uleb128 0x10
 2193 0010 17       		.uleb128 0x17
 2194 0011 00       		.byte	0
 2195 0012 00       		.byte	0
 2196 0013 02       		.uleb128 0x2
 2197 0014 24       		.uleb128 0x24
 2198 0015 00       		.byte	0
 2199 0016 0B       		.uleb128 0xb
 2200 0017 0B       		.uleb128 0xb
 2201 0018 3E       		.uleb128 0x3e
 2202 0019 0B       		.uleb128 0xb
 2203 001a 03       		.uleb128 0x3
 2204 001b 0E       		.uleb128 0xe
 2205 001c 00       		.byte	0
 2206 001d 00       		.byte	0
 2207 001e 03       		.uleb128 0x3
 2208 001f 16       		.uleb128 0x16
 2209 0020 00       		.byte	0
 2210 0021 03       		.uleb128 0x3
 2211 0022 0E       		.uleb128 0xe
 2212 0023 3A       		.uleb128 0x3a
 2213 0024 0B       		.uleb128 0xb
 2214 0025 3B       		.uleb128 0x3b
 2215 0026 0B       		.uleb128 0xb
 2216 0027 49       		.uleb128 0x49
 2217 0028 13       		.uleb128 0x13
 2218 0029 00       		.byte	0
 2219 002a 00       		.byte	0
 2220 002b 04       		.uleb128 0x4
 2221 002c 24       		.uleb128 0x24
 2222 002d 00       		.byte	0
 2223 002e 0B       		.uleb128 0xb
 2224 002f 0B       		.uleb128 0xb
 2225 0030 3E       		.uleb128 0x3e
 2226 0031 0B       		.uleb128 0xb
 2227 0032 03       		.uleb128 0x3
 2228 0033 08       		.uleb128 0x8
 2229 0034 00       		.byte	0
 2230 0035 00       		.byte	0
 2231 0036 05       		.uleb128 0x5
 2232 0037 13       		.uleb128 0x13
 2233 0038 01       		.byte	0x1
 2234 0039 0B       		.uleb128 0xb
 2235 003a 0B       		.uleb128 0xb
 2236 003b 3A       		.uleb128 0x3a
 2237 003c 0B       		.uleb128 0xb
 2238 003d 3B       		.uleb128 0x3b
 2239 003e 0B       		.uleb128 0xb
 2240 003f 01       		.uleb128 0x1
 2241 0040 13       		.uleb128 0x13
 2242 0041 00       		.byte	0
 2243 0042 00       		.byte	0
 2244 0043 06       		.uleb128 0x6
 2245 0044 0D       		.uleb128 0xd
 2246 0045 00       		.byte	0
 2247 0046 03       		.uleb128 0x3
 2248 0047 08       		.uleb128 0x8
ARM GAS  C:\Users\Austcha\AppData\Local\Temp\ccFHMreR.s 			page 45


 2249 0048 3A       		.uleb128 0x3a
 2250 0049 0B       		.uleb128 0xb
 2251 004a 3B       		.uleb128 0x3b
 2252 004b 0B       		.uleb128 0xb
 2253 004c 49       		.uleb128 0x49
 2254 004d 13       		.uleb128 0x13
 2255 004e 38       		.uleb128 0x38
 2256 004f 0B       		.uleb128 0xb
 2257 0050 00       		.byte	0
 2258 0051 00       		.byte	0
 2259 0052 07       		.uleb128 0x7
 2260 0053 0D       		.uleb128 0xd
 2261 0054 00       		.byte	0
 2262 0055 03       		.uleb128 0x3
 2263 0056 0E       		.uleb128 0xe
 2264 0057 3A       		.uleb128 0x3a
 2265 0058 0B       		.uleb128 0xb
 2266 0059 3B       		.uleb128 0x3b
 2267 005a 0B       		.uleb128 0xb
 2268 005b 49       		.uleb128 0x49
 2269 005c 13       		.uleb128 0x13
 2270 005d 38       		.uleb128 0x38
 2271 005e 0B       		.uleb128 0xb
 2272 005f 00       		.byte	0
 2273 0060 00       		.byte	0
 2274 0061 08       		.uleb128 0x8
 2275 0062 01       		.uleb128 0x1
 2276 0063 01       		.byte	0x1
 2277 0064 49       		.uleb128 0x49
 2278 0065 13       		.uleb128 0x13
 2279 0066 01       		.uleb128 0x1
 2280 0067 13       		.uleb128 0x13
 2281 0068 00       		.byte	0
 2282 0069 00       		.byte	0
 2283 006a 09       		.uleb128 0x9
 2284 006b 21       		.uleb128 0x21
 2285 006c 00       		.byte	0
 2286 006d 49       		.uleb128 0x49
 2287 006e 13       		.uleb128 0x13
 2288 006f 2F       		.uleb128 0x2f
 2289 0070 0B       		.uleb128 0xb
 2290 0071 00       		.byte	0
 2291 0072 00       		.byte	0
 2292 0073 0A       		.uleb128 0xa
 2293 0074 2E       		.uleb128 0x2e
 2294 0075 01       		.byte	0x1
 2295 0076 3F       		.uleb128 0x3f
 2296 0077 19       		.uleb128 0x19
 2297 0078 03       		.uleb128 0x3
 2298 0079 0E       		.uleb128 0xe
 2299 007a 3A       		.uleb128 0x3a
 2300 007b 0B       		.uleb128 0xb
 2301 007c 3B       		.uleb128 0x3b
 2302 007d 0B       		.uleb128 0xb
 2303 007e 27       		.uleb128 0x27
 2304 007f 19       		.uleb128 0x19
 2305 0080 11       		.uleb128 0x11
ARM GAS  C:\Users\Austcha\AppData\Local\Temp\ccFHMreR.s 			page 46


 2306 0081 01       		.uleb128 0x1
 2307 0082 12       		.uleb128 0x12
 2308 0083 06       		.uleb128 0x6
 2309 0084 40       		.uleb128 0x40
 2310 0085 18       		.uleb128 0x18
 2311 0086 9642     		.uleb128 0x2116
 2312 0088 19       		.uleb128 0x19
 2313 0089 01       		.uleb128 0x1
 2314 008a 13       		.uleb128 0x13
 2315 008b 00       		.byte	0
 2316 008c 00       		.byte	0
 2317 008d 0B       		.uleb128 0xb
 2318 008e 05       		.uleb128 0x5
 2319 008f 00       		.byte	0
 2320 0090 03       		.uleb128 0x3
 2321 0091 0E       		.uleb128 0xe
 2322 0092 3A       		.uleb128 0x3a
 2323 0093 0B       		.uleb128 0xb
 2324 0094 3B       		.uleb128 0x3b
 2325 0095 0B       		.uleb128 0xb
 2326 0096 49       		.uleb128 0x49
 2327 0097 13       		.uleb128 0x13
 2328 0098 02       		.uleb128 0x2
 2329 0099 18       		.uleb128 0x18
 2330 009a 00       		.byte	0
 2331 009b 00       		.byte	0
 2332 009c 0C       		.uleb128 0xc
 2333 009d 34       		.uleb128 0x34
 2334 009e 00       		.byte	0
 2335 009f 03       		.uleb128 0x3
 2336 00a0 0E       		.uleb128 0xe
 2337 00a1 3A       		.uleb128 0x3a
 2338 00a2 0B       		.uleb128 0xb
 2339 00a3 3B       		.uleb128 0x3b
 2340 00a4 0B       		.uleb128 0xb
 2341 00a5 49       		.uleb128 0x49
 2342 00a6 13       		.uleb128 0x13
 2343 00a7 02       		.uleb128 0x2
 2344 00a8 18       		.uleb128 0x18
 2345 00a9 00       		.byte	0
 2346 00aa 00       		.byte	0
 2347 00ab 0D       		.uleb128 0xd
 2348 00ac 0F       		.uleb128 0xf
 2349 00ad 00       		.byte	0
 2350 00ae 0B       		.uleb128 0xb
 2351 00af 0B       		.uleb128 0xb
 2352 00b0 49       		.uleb128 0x49
 2353 00b1 13       		.uleb128 0x13
 2354 00b2 00       		.byte	0
 2355 00b3 00       		.byte	0
 2356 00b4 0E       		.uleb128 0xe
 2357 00b5 2E       		.uleb128 0x2e
 2358 00b6 01       		.byte	0x1
 2359 00b7 3F       		.uleb128 0x3f
 2360 00b8 19       		.uleb128 0x19
 2361 00b9 03       		.uleb128 0x3
 2362 00ba 0E       		.uleb128 0xe
ARM GAS  C:\Users\Austcha\AppData\Local\Temp\ccFHMreR.s 			page 47


 2363 00bb 3A       		.uleb128 0x3a
 2364 00bc 0B       		.uleb128 0xb
 2365 00bd 3B       		.uleb128 0x3b
 2366 00be 0B       		.uleb128 0xb
 2367 00bf 27       		.uleb128 0x27
 2368 00c0 19       		.uleb128 0x19
 2369 00c1 49       		.uleb128 0x49
 2370 00c2 13       		.uleb128 0x13
 2371 00c3 11       		.uleb128 0x11
 2372 00c4 01       		.uleb128 0x1
 2373 00c5 12       		.uleb128 0x12
 2374 00c6 06       		.uleb128 0x6
 2375 00c7 40       		.uleb128 0x40
 2376 00c8 18       		.uleb128 0x18
 2377 00c9 9642     		.uleb128 0x2116
 2378 00cb 19       		.uleb128 0x19
 2379 00cc 01       		.uleb128 0x1
 2380 00cd 13       		.uleb128 0x13
 2381 00ce 00       		.byte	0
 2382 00cf 00       		.byte	0
 2383 00d0 0F       		.uleb128 0xf
 2384 00d1 0B       		.uleb128 0xb
 2385 00d2 01       		.byte	0x1
 2386 00d3 11       		.uleb128 0x11
 2387 00d4 01       		.uleb128 0x1
 2388 00d5 12       		.uleb128 0x12
 2389 00d6 06       		.uleb128 0x6
 2390 00d7 00       		.byte	0
 2391 00d8 00       		.byte	0
 2392 00d9 10       		.uleb128 0x10
 2393 00da 2E       		.uleb128 0x2e
 2394 00db 01       		.byte	0x1
 2395 00dc 3F       		.uleb128 0x3f
 2396 00dd 19       		.uleb128 0x19
 2397 00de 03       		.uleb128 0x3
 2398 00df 0E       		.uleb128 0xe
 2399 00e0 3A       		.uleb128 0x3a
 2400 00e1 0B       		.uleb128 0xb
 2401 00e2 3B       		.uleb128 0x3b
 2402 00e3 0B       		.uleb128 0xb
 2403 00e4 27       		.uleb128 0x27
 2404 00e5 19       		.uleb128 0x19
 2405 00e6 49       		.uleb128 0x49
 2406 00e7 13       		.uleb128 0x13
 2407 00e8 11       		.uleb128 0x11
 2408 00e9 01       		.uleb128 0x1
 2409 00ea 12       		.uleb128 0x12
 2410 00eb 06       		.uleb128 0x6
 2411 00ec 40       		.uleb128 0x40
 2412 00ed 18       		.uleb128 0x18
 2413 00ee 9742     		.uleb128 0x2117
 2414 00f0 19       		.uleb128 0x19
 2415 00f1 01       		.uleb128 0x1
 2416 00f2 13       		.uleb128 0x13
 2417 00f3 00       		.byte	0
 2418 00f4 00       		.byte	0
 2419 00f5 11       		.uleb128 0x11
ARM GAS  C:\Users\Austcha\AppData\Local\Temp\ccFHMreR.s 			page 48


 2420 00f6 2E       		.uleb128 0x2e
 2421 00f7 01       		.byte	0x1
 2422 00f8 3F       		.uleb128 0x3f
 2423 00f9 19       		.uleb128 0x19
 2424 00fa 03       		.uleb128 0x3
 2425 00fb 0E       		.uleb128 0xe
 2426 00fc 3A       		.uleb128 0x3a
 2427 00fd 0B       		.uleb128 0xb
 2428 00fe 3B       		.uleb128 0x3b
 2429 00ff 0B       		.uleb128 0xb
 2430 0100 27       		.uleb128 0x27
 2431 0101 19       		.uleb128 0x19
 2432 0102 11       		.uleb128 0x11
 2433 0103 01       		.uleb128 0x1
 2434 0104 12       		.uleb128 0x12
 2435 0105 06       		.uleb128 0x6
 2436 0106 40       		.uleb128 0x40
 2437 0107 18       		.uleb128 0x18
 2438 0108 9642     		.uleb128 0x2116
 2439 010a 19       		.uleb128 0x19
 2440 010b 00       		.byte	0
 2441 010c 00       		.byte	0
 2442 010d 12       		.uleb128 0x12
 2443 010e 05       		.uleb128 0x5
 2444 010f 00       		.byte	0
 2445 0110 03       		.uleb128 0x3
 2446 0111 08       		.uleb128 0x8
 2447 0112 3A       		.uleb128 0x3a
 2448 0113 0B       		.uleb128 0xb
 2449 0114 3B       		.uleb128 0x3b
 2450 0115 0B       		.uleb128 0xb
 2451 0116 49       		.uleb128 0x49
 2452 0117 13       		.uleb128 0x13
 2453 0118 02       		.uleb128 0x2
 2454 0119 18       		.uleb128 0x18
 2455 011a 00       		.byte	0
 2456 011b 00       		.byte	0
 2457 011c 00       		.byte	0
 2458              		.section	.debug_aranges,"",%progbits
 2459 0000 BC000000 		.4byte	0xbc
 2460 0004 0200     		.2byte	0x2
 2461 0006 00000000 		.4byte	.Ldebug_info0
 2462 000a 04       		.byte	0x4
 2463 000b 00       		.byte	0
 2464 000c 0000     		.2byte	0
 2465 000e 0000     		.2byte	0
 2466 0010 00000000 		.4byte	.LFB0
 2467 0014 64000000 		.4byte	.LFE0-.LFB0
 2468 0018 00000000 		.4byte	.LFB1
 2469 001c 32000000 		.4byte	.LFE1-.LFB1
 2470 0020 00000000 		.4byte	.LFB2
 2471 0024 24000000 		.4byte	.LFE2-.LFB2
 2472 0028 00000000 		.4byte	.LFB3
 2473 002c 26000000 		.4byte	.LFE3-.LFB3
 2474 0030 00000000 		.4byte	.LFB4
 2475 0034 34000000 		.4byte	.LFE4-.LFB4
 2476 0038 00000000 		.4byte	.LFB5
ARM GAS  C:\Users\Austcha\AppData\Local\Temp\ccFHMreR.s 			page 49


 2477 003c 52000000 		.4byte	.LFE5-.LFB5
 2478 0040 00000000 		.4byte	.LFB6
 2479 0044 26000000 		.4byte	.LFE6-.LFB6
 2480 0048 00000000 		.4byte	.LFB7
 2481 004c 74000000 		.4byte	.LFE7-.LFB7
 2482 0050 00000000 		.4byte	.LFB8
 2483 0054 64000000 		.4byte	.LFE8-.LFB8
 2484 0058 00000000 		.4byte	.LFB9
 2485 005c 4A000000 		.4byte	.LFE9-.LFB9
 2486 0060 00000000 		.4byte	.LFB10
 2487 0064 62000000 		.4byte	.LFE10-.LFB10
 2488 0068 00000000 		.4byte	.LFB11
 2489 006c 62000000 		.4byte	.LFE11-.LFB11
 2490 0070 00000000 		.4byte	.LFB12
 2491 0074 14000000 		.4byte	.LFE12-.LFB12
 2492 0078 00000000 		.4byte	.LFB13
 2493 007c 72000000 		.4byte	.LFE13-.LFB13
 2494 0080 00000000 		.4byte	.LFB14
 2495 0084 1A000000 		.4byte	.LFE14-.LFB14
 2496 0088 00000000 		.4byte	.LFB15
 2497 008c 64000000 		.4byte	.LFE15-.LFB15
 2498 0090 00000000 		.4byte	.LFB16
 2499 0094 72000000 		.4byte	.LFE16-.LFB16
 2500 0098 00000000 		.4byte	.LFB17
 2501 009c 20000000 		.4byte	.LFE17-.LFB17
 2502 00a0 00000000 		.4byte	.LFB18
 2503 00a4 1A000000 		.4byte	.LFE18-.LFB18
 2504 00a8 00000000 		.4byte	.LFB19
 2505 00ac 14000000 		.4byte	.LFE19-.LFB19
 2506 00b0 00000000 		.4byte	.LFB20
 2507 00b4 94000000 		.4byte	.LFE20-.LFB20
 2508 00b8 00000000 		.4byte	0
 2509 00bc 00000000 		.4byte	0
 2510              		.section	.debug_ranges,"",%progbits
 2511              	.Ldebug_ranges0:
 2512 0000 00000000 		.4byte	.LFB0
 2513 0004 64000000 		.4byte	.LFE0
 2514 0008 00000000 		.4byte	.LFB1
 2515 000c 32000000 		.4byte	.LFE1
 2516 0010 00000000 		.4byte	.LFB2
 2517 0014 24000000 		.4byte	.LFE2
 2518 0018 00000000 		.4byte	.LFB3
 2519 001c 26000000 		.4byte	.LFE3
 2520 0020 00000000 		.4byte	.LFB4
 2521 0024 34000000 		.4byte	.LFE4
 2522 0028 00000000 		.4byte	.LFB5
 2523 002c 52000000 		.4byte	.LFE5
 2524 0030 00000000 		.4byte	.LFB6
 2525 0034 26000000 		.4byte	.LFE6
 2526 0038 00000000 		.4byte	.LFB7
 2527 003c 74000000 		.4byte	.LFE7
 2528 0040 00000000 		.4byte	.LFB8
 2529 0044 64000000 		.4byte	.LFE8
 2530 0048 00000000 		.4byte	.LFB9
 2531 004c 4A000000 		.4byte	.LFE9
 2532 0050 00000000 		.4byte	.LFB10
 2533 0054 62000000 		.4byte	.LFE10
ARM GAS  C:\Users\Austcha\AppData\Local\Temp\ccFHMreR.s 			page 50


 2534 0058 00000000 		.4byte	.LFB11
 2535 005c 62000000 		.4byte	.LFE11
 2536 0060 00000000 		.4byte	.LFB12
 2537 0064 14000000 		.4byte	.LFE12
 2538 0068 00000000 		.4byte	.LFB13
 2539 006c 72000000 		.4byte	.LFE13
 2540 0070 00000000 		.4byte	.LFB14
 2541 0074 1A000000 		.4byte	.LFE14
 2542 0078 00000000 		.4byte	.LFB15
 2543 007c 64000000 		.4byte	.LFE15
 2544 0080 00000000 		.4byte	.LFB16
 2545 0084 72000000 		.4byte	.LFE16
 2546 0088 00000000 		.4byte	.LFB17
 2547 008c 20000000 		.4byte	.LFE17
 2548 0090 00000000 		.4byte	.LFB18
 2549 0094 1A000000 		.4byte	.LFE18
 2550 0098 00000000 		.4byte	.LFB19
 2551 009c 14000000 		.4byte	.LFE19
 2552 00a0 00000000 		.4byte	.LFB20
 2553 00a4 94000000 		.4byte	.LFE20
 2554 00a8 00000000 		.4byte	0
 2555 00ac 00000000 		.4byte	0
 2556              		.section	.debug_line,"",%progbits
 2557              	.Ldebug_line0:
 2558 0000 E5020000 		.section	.debug_str,"MS",%progbits,1
 2558      02003801 
 2558      00000201 
 2558      FB0E0D00 
 2558      01010101 
 2559              	.LASF61:
 2560 0000 433A5C55 		.ascii	"C:\\Users\\Austcha\\Documents\\Husky Robotics\\Moto"
 2560      73657273 
 2560      5C417573 
 2560      74636861 
 2560      5C446F63 
 2561 002e 7220426F 		.ascii	"r Boards\\Rev3\\Motor-Unit-Firmware-A-2019-2020\\Mo"
 2561      61726473 
 2561      5C526576 
 2561      335C4D6F 
 2561      746F722D 
 2562 005e 746F7220 		.ascii	"tor Unit\\Motor_Board_Rev3.cydsn\000"
 2562      556E6974 
 2562      5C4D6F74 
 2562      6F725F42 
 2562      6F617264 
 2563              	.LASF36:
 2564 007e 7061636B 		.ascii	"packetToAssemble\000"
 2564      6574546F 
 2564      41737365 
 2564      6D626C65 
 2564      00
 2565              	.LASF37:
 2566 008f 62726F61 		.ascii	"broadcast\000"
 2566      64636173 
 2566      7400
 2567              	.LASF47:
 2568 0099 41737365 		.ascii	"AssembleChipTypeReportPacket\000"
ARM GAS  C:\Users\Austcha\AppData\Local\Temp\ccFHMreR.s 			page 51


 2568      6D626C65 
 2568      43686970 
 2568      54797065 
 2568      5265706F 
 2569              	.LASF25:
 2570 00b6 41737365 		.ascii	"AssembleGroupBroadcastingEmergencyStopPacket\000"
 2570      6D626C65 
 2570      47726F75 
 2570      7042726F 
 2570      61646361 
 2571              	.LASF2:
 2572 00e3 73686F72 		.ascii	"short int\000"
 2572      7420696E 
 2572      7400
 2573              	.LASF22:
 2574 00ed 74617267 		.ascii	"targetDeviceSerialNumber\000"
 2574      65744465 
 2574      76696365 
 2574      53657269 
 2574      616C4E75 
 2575              	.LASF18:
 2576 0106 73697A65 		.ascii	"sizetype\000"
 2576      74797065 
 2576      00
 2577              	.LASF23:
 2578 010f 6572726F 		.ascii	"errorCode\000"
 2578      72436F64 
 2578      6500
 2579              	.LASF32:
 2580 0119 6E657874 		.ascii	"nextByte\000"
 2580      42797465 
 2580      00
 2581              	.LASF30:
 2582 0122 6C617374 		.ascii	"lastHeartbeat\000"
 2582      48656172 
 2582      74626561 
 2582      7400
 2583              	.LASF8:
 2584 0130 5F5F7569 		.ascii	"__uint32_t\000"
 2584      6E743332 
 2584      5F7400
 2585              	.LASF34:
 2586 013b 47657448 		.ascii	"GetHeartbeatLeniencyCode\000"
 2586      65617274 
 2586      62656174 
 2586      4C656E69 
 2586      656E6379 
 2587              	.LASF38:
 2588 0154 68656172 		.ascii	"heartbeatLeniencyCode\000"
 2588      74626561 
 2588      744C656E 
 2588      69656E63 
 2588      79436F64 
 2589              	.LASF4:
 2590 016a 5F5F7569 		.ascii	"__uint16_t\000"
 2590      6E743136 
 2590      5F7400
ARM GAS  C:\Users\Austcha\AppData\Local\Temp\ccFHMreR.s 			page 52


 2591              	.LASF57:
 2592 0175 4465636F 		.ascii	"DecodeTelemetryType\000"
 2592      64655465 
 2592      6C656D65 
 2592      74727954 
 2592      79706500 
 2593              	.LASF60:
 2594 0189 2E2E5C43 		.ascii	"..\\CANLib\\CANCommon.c\000"
 2594      414E4C69 
 2594      625C4341 
 2594      4E436F6D 
 2594      6D6F6E2E 
 2595              	.LASF51:
 2596 019f 6D734265 		.ascii	"msBetweenReports\000"
 2596      74776565 
 2596      6E526570 
 2596      6F727473 
 2596      00
 2597              	.LASF13:
 2598 01b0 75696E74 		.ascii	"uint8_t\000"
 2598      385F7400 
 2599              	.LASF20:
 2600 01b8 7061636B 		.ascii	"packet\000"
 2600      657400
 2601              	.LASF49:
 2602 01bf 41737365 		.ascii	"AssembleTelemetryTimingPacket\000"
 2602      6D626C65 
 2602      54656C65 
 2602      6D657472 
 2602      7954696D 
 2603              	.LASF35:
 2604 01dd 41737365 		.ascii	"AssembleHeartbeatPacket\000"
 2604      6D626C65 
 2604      48656172 
 2604      74626561 
 2604      74506163 
 2605              	.LASF41:
 2606 01f5 74617267 		.ascii	"targetGroup\000"
 2606      65744772 
 2606      6F757000 
 2607              	.LASF10:
 2608 0201 6C6F6E67 		.ascii	"long long int\000"
 2608      206C6F6E 
 2608      6720696E 
 2608      7400
 2609              	.LASF19:
 2610 020f 43414E50 		.ascii	"CANPacket\000"
 2610      61636B65 
 2610      7400
 2611              	.LASF7:
 2612 0219 6C6F6E67 		.ascii	"long int\000"
 2612      20696E74 
 2612      00
 2613              	.LASF48:
 2614 0222 47657443 		.ascii	"GetChipTypeFromPacket\000"
 2614      68697054 
 2614      79706546 
ARM GAS  C:\Users\Austcha\AppData\Local\Temp\ccFHMreR.s 			page 53


 2614      726F6D50 
 2614      61636B65 
 2615              	.LASF3:
 2616 0238 5F5F7569 		.ascii	"__uint8_t\000"
 2616      6E74385F 
 2616      7400
 2617              	.LASF59:
 2618 0242 474E5520 		.ascii	"GNU C11 5.4.1 20160609 (release) [ARM/embedded-5-br"
 2618      43313120 
 2618      352E342E 
 2618      31203230 
 2618      31363036 
 2619 0275 616E6368 		.ascii	"anch revision 237715] -mcpu=cortex-m0 -mthumb -g -O"
 2619      20726576 
 2619      6973696F 
 2619      6E203233 
 2619      37373135 
 2620 02a8 30202D66 		.ascii	"0 -ffunction-sections -ffat-lto-objects\000"
 2620      66756E63 
 2620      74696F6E 
 2620      2D736563 
 2620      74696F6E 
 2621              	.LASF29:
 2622 02d0 47657454 		.ascii	"GetTimeBetweenHeartbeatPacket\000"
 2622      696D6542 
 2622      65747765 
 2622      656E4865 
 2622      61727462 
 2623              	.LASF54:
 2624 02ee 41737365 		.ascii	"AssembleTelemetryReportPacket\000"
 2624      6D626C65 
 2624      54656C65 
 2624      6D657472 
 2624      79526570 
 2625              	.LASF1:
 2626 030c 756E7369 		.ascii	"unsigned char\000"
 2626      676E6564 
 2626      20636861 
 2626      7200
 2627              	.LASF39:
 2628 031a 74696D65 		.ascii	"timestamp\000"
 2628      7374616D 
 2628      7000
 2629              	.LASF0:
 2630 0324 7369676E 		.ascii	"signed char\000"
 2630      65642063 
 2630      68617200 
 2631              	.LASF11:
 2632 0330 6C6F6E67 		.ascii	"long long unsigned int\000"
 2632      206C6F6E 
 2632      6720756E 
 2632      7369676E 
 2632      65642069 
 2633              	.LASF16:
 2634 0347 75696E74 		.ascii	"uint32_t\000"
 2634      33325F74 
 2634      00
ARM GAS  C:\Users\Austcha\AppData\Local\Temp\ccFHMreR.s 			page 54


 2635              	.LASF12:
 2636 0350 756E7369 		.ascii	"unsigned int\000"
 2636      676E6564 
 2636      20696E74 
 2636      00
 2637              	.LASF14:
 2638 035d 75696E74 		.ascii	"uint16_t\000"
 2638      31365F74 
 2638      00
 2639              	.LASF21:
 2640 0366 74617267 		.ascii	"targetDeviceGroup\000"
 2640      65744465 
 2640      76696365 
 2640      47726F75 
 2640      7000
 2641              	.LASF42:
 2642 0378 74617267 		.ascii	"targetSerial\000"
 2642      65745365 
 2642      7269616C 
 2642      00
 2643              	.LASF33:
 2644 0385 74696D65 		.ascii	"time\000"
 2644      00
 2645              	.LASF52:
 2646 038a 47657454 		.ascii	"GetTelemetryTimingFromPacket\000"
 2646      656C656D 
 2646      65747279 
 2646      54696D69 
 2646      6E674672 
 2647              	.LASF45:
 2648 03a7 41737365 		.ascii	"AssembleChipTypePullPacket\000"
 2648      6D626C65 
 2648      43686970 
 2648      54797065 
 2648      50756C6C 
 2649              	.LASF5:
 2650 03c2 73686F72 		.ascii	"short unsigned int\000"
 2650      7420756E 
 2650      7369676E 
 2650      65642069 
 2650      6E7400
 2651              	.LASF46:
 2652 03d5 74617267 		.ascii	"targetDeviceSerial\000"
 2652      65744465 
 2652      76696365 
 2652      53657269 
 2652      616C00
 2653              	.LASF15:
 2654 03e8 696E7433 		.ascii	"int32_t\000"
 2654      325F7400 
 2655              	.LASF17:
 2656 03f0 64617461 		.ascii	"data\000"
 2656      00
 2657              	.LASF40:
 2658 03f5 41737365 		.ascii	"AssembleFailReportPacket\000"
 2658      6D626C65 
 2658      4661696C 
ARM GAS  C:\Users\Austcha\AppData\Local\Temp\ccFHMreR.s 			page 55


 2658      5265706F 
 2658      72745061 
 2659              	.LASF9:
 2660 040e 6C6F6E67 		.ascii	"long unsigned int\000"
 2660      20756E73 
 2660      69676E65 
 2660      6420696E 
 2660      7400
 2661              	.LASF26:
 2662 0420 67726F75 		.ascii	"groupCode\000"
 2662      70436F64 
 2662      6500
 2663              	.LASF6:
 2664 042a 5F5F696E 		.ascii	"__int32_t\000"
 2664      7433325F 
 2664      7400
 2665              	.LASF55:
 2666 0434 4465636F 		.ascii	"DecodeTelemetryDataSigned\000"
 2666      64655465 
 2666      6C656D65 
 2666      74727944 
 2666      61746153 
 2667              	.LASF53:
 2668 044e 41737365 		.ascii	"AssembleTelemetryPullPacket\000"
 2668      6D626C65 
 2668      54656C65 
 2668      6D657472 
 2668      7950756C 
 2669              	.LASF44:
 2670 046a 41737365 		.ascii	"AssembleOverrideProtectionPacket\000"
 2670      6D626C65 
 2670      4F766572 
 2670      72696465 
 2670      50726F74 
 2671              	.LASF62:
 2672 048b 41737365 		.ascii	"AssembleRGBColorPacket\000"
 2672      6D626C65 
 2672      52474243 
 2672      6F6C6F72 
 2672      5061636B 
 2673              	.LASF24:
 2674 04a2 41737365 		.ascii	"AssembleEmergencyStopPacket\000"
 2674      6D626C65 
 2674      456D6572 
 2674      67656E63 
 2674      7953746F 
 2675              	.LASF50:
 2676 04be 74656C65 		.ascii	"telemetryTypeCode\000"
 2676      6D657472 
 2676      79547970 
 2676      65436F64 
 2676      6500
 2677              	.LASF43:
 2678 04d0 6661696C 		.ascii	"failedPacketID\000"
 2678      65645061 
 2678      636B6574 
 2678      494400
ARM GAS  C:\Users\Austcha\AppData\Local\Temp\ccFHMreR.s 			page 56


 2679              	.LASF28:
 2680 04df 47657445 		.ascii	"GetEmergencyStopErrorCode\000"
 2680      6D657267 
 2680      656E6379 
 2680      53746F70 
 2680      4572726F 
 2681              	.LASF58:
 2682 04f9 61646472 		.ascii	"addrLED\000"
 2682      4C454400 
 2683              	.LASF56:
 2684 0501 4465636F 		.ascii	"DecodeTelemetryDataUnsigned\000"
 2684      64655465 
 2684      6C656D65 
 2684      74727944 
 2684      61746155 
 2685              	.LASF31:
 2686 051d 47657448 		.ascii	"GetHeartbeatTimeStamp\000"
 2686      65617274 
 2686      62656174 
 2686      54696D65 
 2686      5374616D 
 2687              	.LASF27:
 2688 0533 41737365 		.ascii	"AssembleBrodcastEmergencyStopPacket\000"
 2688      6D626C65 
 2688      42726F64 
 2688      63617374 
 2688      456D6572 
 2689              		.ident	"GCC: (GNU Tools for ARM Embedded Processors) 5.4.1 20160609 (release) [ARM/embedded-5-bran
