ARM GAS  C:\Users\Austcha\AppData\Local\Temp\ccV5xKP9.s 			page 1


   1              		.syntax unified
   2              		.cpu cortex-m0
   3              		.fpu softvfp
   4              		.eabi_attribute 20, 1
   5              		.eabi_attribute 21, 1
   6              		.eabi_attribute 23, 3
   7              		.eabi_attribute 24, 1
   8              		.eabi_attribute 25, 1
   9              		.eabi_attribute 26, 1
  10              		.eabi_attribute 30, 6
  11              		.eabi_attribute 34, 0
  12              		.eabi_attribute 18, 4
  13              		.thumb
  14              		.syntax unified
  15              		.file	"CANMotorUnit.c"
  16              		.text
  17              	.Ltext0:
  18              		.cfi_sections	.debug_frame
  19              		.section	.text.AssembleModeSetPacket,"ax",%progbits
  20              		.align	2
  21              		.global	AssembleModeSetPacket
  22              		.code	16
  23              		.thumb_func
  24              		.type	AssembleModeSetPacket, %function
  25              	AssembleModeSetPacket:
  26              	.LFB0:
  27              		.file 1 "..\\CANLib\\CANMotorUnit.c"
   1:..\CANLib/CANMotorUnit.c **** /* File:         CANMotorUnit.c
   2:..\CANLib/CANMotorUnit.c ****  * Authors:      Jaden Bottemiller, Benton Kwong, Dylan Tomberlin.
   3:..\CANLib/CANMotorUnit.c ****  * Organization: Husky Robotics Team
   4:..\CANLib/CANMotorUnit.c ****  * 
   5:..\CANLib/CANMotorUnit.c ****  * This file includes fuction definitions for CAN Packet manipulation
   6:..\CANLib/CANMotorUnit.c ****  * using the Hindsight CAN Communication standard. Specific files
   7:..\CANLib/CANMotorUnit.c ****  * for the motor unit boards.
   8:..\CANLib/CANMotorUnit.c ****  * Documentation: https://huskyroboticsteam.slite.com/app/channels/iU0BryG7M9/collections/aXvWTcIR6
   9:..\CANLib/CANMotorUnit.c ****  */
  10:..\CANLib/CANMotorUnit.c **** 
  11:..\CANLib/CANMotorUnit.c **** #include "CANPacket.h"
  12:..\CANLib/CANMotorUnit.c **** #include "CANMotorUnit.h"
  13:..\CANLib/CANMotorUnit.c **** #include "Port.h"
  14:..\CANLib/CANMotorUnit.c **** 
  15:..\CANLib/CANMotorUnit.c **** void AssembleModeSetPacket(CANPacket *packetToAssemble,
  16:..\CANLib/CANMotorUnit.c ****     uint8_t targetDeviceGroup,
  17:..\CANLib/CANMotorUnit.c ****     uint8_t targetDeviceSerial,
  18:..\CANLib/CANMotorUnit.c ****     uint8_t mode)
  19:..\CANLib/CANMotorUnit.c **** {
  28              		.loc 1 19 0
  29              		.cfi_startproc
  30              		@ args = 0, pretend = 0, frame = 16
  31              		@ frame_needed = 1, uses_anonymous_args = 0
  32 0000 90B5     		push	{r4, r7, lr}
  33              		.cfi_def_cfa_offset 12
  34              		.cfi_offset 4, -12
  35              		.cfi_offset 7, -8
  36              		.cfi_offset 14, -4
  37 0002 85B0     		sub	sp, sp, #20
  38              		.cfi_def_cfa_offset 32
ARM GAS  C:\Users\Austcha\AppData\Local\Temp\ccV5xKP9.s 			page 2


  39 0004 00AF     		add	r7, sp, #0
  40              		.cfi_def_cfa_register 7
  41 0006 7860     		str	r0, [r7, #4]
  42 0008 0C00     		movs	r4, r1
  43 000a 1000     		movs	r0, r2
  44 000c 1900     		movs	r1, r3
  45 000e FB1C     		adds	r3, r7, #3
  46 0010 221C     		adds	r2, r4, #0
  47 0012 1A70     		strb	r2, [r3]
  48 0014 BB1C     		adds	r3, r7, #2
  49 0016 021C     		adds	r2, r0, #0
  50 0018 1A70     		strb	r2, [r3]
  51 001a 7B1C     		adds	r3, r7, #1
  52 001c 0A1C     		adds	r2, r1, #0
  53 001e 1A70     		strb	r2, [r3]
  20:..\CANLib/CANMotorUnit.c ****     packetToAssemble->id = ConstructCANID(PRIO_MOTOR_UNIT_MODE_SEL, targetDeviceGroup, targetDevice
  54              		.loc 1 20 0
  55 0020 BB1C     		adds	r3, r7, #2
  56 0022 1A78     		ldrb	r2, [r3]
  57 0024 FB1C     		adds	r3, r7, #3
  58 0026 1B78     		ldrb	r3, [r3]
  59 0028 1900     		movs	r1, r3
  60 002a 0120     		movs	r0, #1
  61 002c FFF7FEFF 		bl	ConstructCANID
  62 0030 0300     		movs	r3, r0
  63 0032 1A00     		movs	r2, r3
  64 0034 7B68     		ldr	r3, [r7, #4]
  65 0036 1A80     		strh	r2, [r3]
  21:..\CANLib/CANMotorUnit.c ****     packetToAssemble->dlc = DLC_MOTOR_UNIT_MODE_SEL;
  66              		.loc 1 21 0
  67 0038 7B68     		ldr	r3, [r7, #4]
  68 003a 0222     		movs	r2, #2
  69 003c 9A70     		strb	r2, [r3, #2]
  22:..\CANLib/CANMotorUnit.c ****     int nextByte = WritePacketIDOnly(packetToAssemble->data, ID_MOTOR_UNIT_MODE_SEL);
  70              		.loc 1 22 0
  71 003e 7B68     		ldr	r3, [r7, #4]
  72 0040 0333     		adds	r3, r3, #3
  73 0042 0021     		movs	r1, #0
  74 0044 1800     		movs	r0, r3
  75 0046 FFF7FEFF 		bl	WritePacketIDOnly
  76 004a 0300     		movs	r3, r0
  77 004c FB60     		str	r3, [r7, #12]
  23:..\CANLib/CANMotorUnit.c ****     packetToAssemble->data[nextByte] = mode;
  78              		.loc 1 23 0
  79 004e 7A68     		ldr	r2, [r7, #4]
  80 0050 FB68     		ldr	r3, [r7, #12]
  81 0052 D318     		adds	r3, r2, r3
  82 0054 0333     		adds	r3, r3, #3
  83 0056 7A1C     		adds	r2, r7, #1
  84 0058 1278     		ldrb	r2, [r2]
  85 005a 1A70     		strb	r2, [r3]
  24:..\CANLib/CANMotorUnit.c **** }
  86              		.loc 1 24 0
  87 005c C046     		nop
  88 005e BD46     		mov	sp, r7
  89 0060 05B0     		add	sp, sp, #20
  90              		@ sp needed
ARM GAS  C:\Users\Austcha\AppData\Local\Temp\ccV5xKP9.s 			page 3


  91 0062 90BD     		pop	{r4, r7, pc}
  92              		.cfi_endproc
  93              	.LFE0:
  94              		.size	AssembleModeSetPacket, .-AssembleModeSetPacket
  95              		.section	.text.GetModeFromPacket,"ax",%progbits
  96              		.align	2
  97              		.global	GetModeFromPacket
  98              		.code	16
  99              		.thumb_func
 100              		.type	GetModeFromPacket, %function
 101              	GetModeFromPacket:
 102              	.LFB1:
  25:..\CANLib/CANMotorUnit.c **** 
  26:..\CANLib/CANMotorUnit.c **** uint8_t GetModeFromPacket(CANPacket *packet)
  27:..\CANLib/CANMotorUnit.c **** {
 103              		.loc 1 27 0
 104              		.cfi_startproc
 105              		@ args = 0, pretend = 0, frame = 8
 106              		@ frame_needed = 1, uses_anonymous_args = 0
 107 0000 80B5     		push	{r7, lr}
 108              		.cfi_def_cfa_offset 8
 109              		.cfi_offset 7, -8
 110              		.cfi_offset 14, -4
 111 0002 82B0     		sub	sp, sp, #8
 112              		.cfi_def_cfa_offset 16
 113 0004 00AF     		add	r7, sp, #0
 114              		.cfi_def_cfa_register 7
 115 0006 7860     		str	r0, [r7, #4]
  28:..\CANLib/CANMotorUnit.c ****     return packet->data[1];
 116              		.loc 1 28 0
 117 0008 7B68     		ldr	r3, [r7, #4]
 118 000a 1B79     		ldrb	r3, [r3, #4]
  29:..\CANLib/CANMotorUnit.c **** }
 119              		.loc 1 29 0
 120 000c 1800     		movs	r0, r3
 121 000e BD46     		mov	sp, r7
 122 0010 02B0     		add	sp, sp, #8
 123              		@ sp needed
 124 0012 80BD     		pop	{r7, pc}
 125              		.cfi_endproc
 126              	.LFE1:
 127              		.size	GetModeFromPacket, .-GetModeFromPacket
 128              		.section	.text.AssemblePWMDirSetPacket,"ax",%progbits
 129              		.align	2
 130              		.global	AssemblePWMDirSetPacket
 131              		.code	16
 132              		.thumb_func
 133              		.type	AssemblePWMDirSetPacket, %function
 134              	AssemblePWMDirSetPacket:
 135              	.LFB2:
  30:..\CANLib/CANMotorUnit.c **** 
  31:..\CANLib/CANMotorUnit.c **** 
  32:..\CANLib/CANMotorUnit.c **** void AssemblePWMDirSetPacket(CANPacket *packetToAssemble, 
  33:..\CANLib/CANMotorUnit.c ****     uint8_t targetDeviceGroup,
  34:..\CANLib/CANMotorUnit.c ****     uint8_t targetDeviceSerial,
  35:..\CANLib/CANMotorUnit.c ****     int32_t PWMSet)
  36:..\CANLib/CANMotorUnit.c **** {
ARM GAS  C:\Users\Austcha\AppData\Local\Temp\ccV5xKP9.s 			page 4


 136              		.loc 1 36 0
 137              		.cfi_startproc
 138              		@ args = 0, pretend = 0, frame = 24
 139              		@ frame_needed = 1, uses_anonymous_args = 0
 140 0000 80B5     		push	{r7, lr}
 141              		.cfi_def_cfa_offset 8
 142              		.cfi_offset 7, -8
 143              		.cfi_offset 14, -4
 144 0002 86B0     		sub	sp, sp, #24
 145              		.cfi_def_cfa_offset 32
 146 0004 00AF     		add	r7, sp, #0
 147              		.cfi_def_cfa_register 7
 148 0006 F860     		str	r0, [r7, #12]
 149 0008 0800     		movs	r0, r1
 150 000a 1100     		movs	r1, r2
 151 000c 7B60     		str	r3, [r7, #4]
 152 000e 0B23     		movs	r3, #11
 153 0010 FB18     		adds	r3, r7, r3
 154 0012 021C     		adds	r2, r0, #0
 155 0014 1A70     		strb	r2, [r3]
 156 0016 0A23     		movs	r3, #10
 157 0018 FB18     		adds	r3, r7, r3
 158 001a 0A1C     		adds	r2, r1, #0
 159 001c 1A70     		strb	r2, [r3]
  37:..\CANLib/CANMotorUnit.c ****     packetToAssemble->id = ConstructCANID(PRIO_MOTOR_UNIT_PWM_DIR_SET, targetDeviceGroup, targetDev
 160              		.loc 1 37 0
 161 001e 0A23     		movs	r3, #10
 162 0020 FB18     		adds	r3, r7, r3
 163 0022 1A78     		ldrb	r2, [r3]
 164 0024 0B23     		movs	r3, #11
 165 0026 FB18     		adds	r3, r7, r3
 166 0028 1B78     		ldrb	r3, [r3]
 167 002a 1900     		movs	r1, r3
 168 002c 0120     		movs	r0, #1
 169 002e FFF7FEFF 		bl	ConstructCANID
 170 0032 0300     		movs	r3, r0
 171 0034 1A00     		movs	r2, r3
 172 0036 FB68     		ldr	r3, [r7, #12]
 173 0038 1A80     		strh	r2, [r3]
  38:..\CANLib/CANMotorUnit.c ****     packetToAssemble->dlc = DLC_MOTOR_UNIT_PWM_DIR_SET;
 174              		.loc 1 38 0
 175 003a FB68     		ldr	r3, [r7, #12]
 176 003c 0522     		movs	r2, #5
 177 003e 9A70     		strb	r2, [r3, #2]
  39:..\CANLib/CANMotorUnit.c ****     int nextByte = WritePacketIDOnly(packetToAssemble->data, DLC_MOTOR_UNIT_PWM_DIR_SET);
 178              		.loc 1 39 0
 179 0040 FB68     		ldr	r3, [r7, #12]
 180 0042 0333     		adds	r3, r3, #3
 181 0044 0521     		movs	r1, #5
 182 0046 1800     		movs	r0, r3
 183 0048 FFF7FEFF 		bl	WritePacketIDOnly
 184 004c 0300     		movs	r3, r0
 185 004e 7B61     		str	r3, [r7, #20]
  40:..\CANLib/CANMotorUnit.c ****     PackIntIntoDataMSBFirst(packetToAssemble->data, PWMSet, nextByte);
 186              		.loc 1 40 0
 187 0050 FB68     		ldr	r3, [r7, #12]
 188 0052 0333     		adds	r3, r3, #3
ARM GAS  C:\Users\Austcha\AppData\Local\Temp\ccV5xKP9.s 			page 5


 189 0054 7A69     		ldr	r2, [r7, #20]
 190 0056 7968     		ldr	r1, [r7, #4]
 191 0058 1800     		movs	r0, r3
 192 005a FFF7FEFF 		bl	PackIntIntoDataMSBFirst
  41:..\CANLib/CANMotorUnit.c **** }
 193              		.loc 1 41 0
 194 005e C046     		nop
 195 0060 BD46     		mov	sp, r7
 196 0062 06B0     		add	sp, sp, #24
 197              		@ sp needed
 198 0064 80BD     		pop	{r7, pc}
 199              		.cfi_endproc
 200              	.LFE2:
 201              		.size	AssemblePWMDirSetPacket, .-AssemblePWMDirSetPacket
 202 0066 C046     		.section	.text.GetPWMFromPacket,"ax",%progbits
 203              		.align	2
 204              		.global	GetPWMFromPacket
 205              		.code	16
 206              		.thumb_func
 207              		.type	GetPWMFromPacket, %function
 208              	GetPWMFromPacket:
 209              	.LFB3:
  42:..\CANLib/CANMotorUnit.c **** 
  43:..\CANLib/CANMotorUnit.c **** int32_t GetPWMFromPacket(CANPacket *packet)
  44:..\CANLib/CANMotorUnit.c **** {
 210              		.loc 1 44 0
 211              		.cfi_startproc
 212              		@ args = 0, pretend = 0, frame = 8
 213              		@ frame_needed = 1, uses_anonymous_args = 0
 214 0000 80B5     		push	{r7, lr}
 215              		.cfi_def_cfa_offset 8
 216              		.cfi_offset 7, -8
 217              		.cfi_offset 14, -4
 218 0002 82B0     		sub	sp, sp, #8
 219              		.cfi_def_cfa_offset 16
 220 0004 00AF     		add	r7, sp, #0
 221              		.cfi_def_cfa_register 7
 222 0006 7860     		str	r0, [r7, #4]
  45:..\CANLib/CANMotorUnit.c ****     return DecodeBytesToIntMSBFirst(packet->data, 1, 4);
 223              		.loc 1 45 0
 224 0008 7B68     		ldr	r3, [r7, #4]
 225 000a 0333     		adds	r3, r3, #3
 226 000c 0422     		movs	r2, #4
 227 000e 0121     		movs	r1, #1
 228 0010 1800     		movs	r0, r3
 229 0012 FFF7FEFF 		bl	DecodeBytesToIntMSBFirst
 230 0016 0300     		movs	r3, r0
  46:..\CANLib/CANMotorUnit.c **** }
 231              		.loc 1 46 0
 232 0018 1800     		movs	r0, r3
 233 001a BD46     		mov	sp, r7
 234 001c 02B0     		add	sp, sp, #8
 235              		@ sp needed
 236 001e 80BD     		pop	{r7, pc}
 237              		.cfi_endproc
 238              	.LFE3:
 239              		.size	GetPWMFromPacket, .-GetPWMFromPacket
ARM GAS  C:\Users\Austcha\AppData\Local\Temp\ccV5xKP9.s 			page 6


 240              		.section	.text.GetDirectionFromPacket,"ax",%progbits
 241              		.align	2
 242              		.global	GetDirectionFromPacket
 243              		.code	16
 244              		.thumb_func
 245              		.type	GetDirectionFromPacket, %function
 246              	GetDirectionFromPacket:
 247              	.LFB4:
  47:..\CANLib/CANMotorUnit.c **** 
  48:..\CANLib/CANMotorUnit.c **** //Returns 2's compliment MSB (0 for stopped or forward, 1 for reverse)
  49:..\CANLib/CANMotorUnit.c **** int32_t GetDirectionFromPacket(CANPacket *packet)
  50:..\CANLib/CANMotorUnit.c **** {
 248              		.loc 1 50 0
 249              		.cfi_startproc
 250              		@ args = 0, pretend = 0, frame = 8
 251              		@ frame_needed = 1, uses_anonymous_args = 0
 252 0000 80B5     		push	{r7, lr}
 253              		.cfi_def_cfa_offset 8
 254              		.cfi_offset 7, -8
 255              		.cfi_offset 14, -4
 256 0002 82B0     		sub	sp, sp, #8
 257              		.cfi_def_cfa_offset 16
 258 0004 00AF     		add	r7, sp, #0
 259              		.cfi_def_cfa_register 7
 260 0006 7860     		str	r0, [r7, #4]
  51:..\CANLib/CANMotorUnit.c ****     return ((packet->data[1]) >> 7) & 0x1;
 261              		.loc 1 51 0
 262 0008 7B68     		ldr	r3, [r7, #4]
 263 000a 1B79     		ldrb	r3, [r3, #4]
 264 000c DB09     		lsrs	r3, r3, #7
 265 000e DBB2     		uxtb	r3, r3
 266 0010 1A00     		movs	r2, r3
 267 0012 0123     		movs	r3, #1
 268 0014 1340     		ands	r3, r2
  52:..\CANLib/CANMotorUnit.c **** }
 269              		.loc 1 52 0
 270 0016 1800     		movs	r0, r3
 271 0018 BD46     		mov	sp, r7
 272 001a 02B0     		add	sp, sp, #8
 273              		@ sp needed
 274 001c 80BD     		pop	{r7, pc}
 275              		.cfi_endproc
 276              	.LFE4:
 277              		.size	GetDirectionFromPacket, .-GetDirectionFromPacket
 278 001e C046     		.section	.text.AssemblePIDTargetSetPacket,"ax",%progbits
 279              		.align	2
 280              		.global	AssemblePIDTargetSetPacket
 281              		.code	16
 282              		.thumb_func
 283              		.type	AssemblePIDTargetSetPacket, %function
 284              	AssemblePIDTargetSetPacket:
 285              	.LFB5:
  53:..\CANLib/CANMotorUnit.c **** 
  54:..\CANLib/CANMotorUnit.c **** void AssemblePIDTargetSetPacket(CANPacket *packetToAssemble,
  55:..\CANLib/CANMotorUnit.c ****     uint8_t targetDeviceGroup,
  56:..\CANLib/CANMotorUnit.c ****     uint8_t targetDeviceSerial,
  57:..\CANLib/CANMotorUnit.c ****     int32_t target)
ARM GAS  C:\Users\Austcha\AppData\Local\Temp\ccV5xKP9.s 			page 7


  58:..\CANLib/CANMotorUnit.c **** {
 286              		.loc 1 58 0
 287              		.cfi_startproc
 288              		@ args = 0, pretend = 0, frame = 24
 289              		@ frame_needed = 1, uses_anonymous_args = 0
 290 0000 80B5     		push	{r7, lr}
 291              		.cfi_def_cfa_offset 8
 292              		.cfi_offset 7, -8
 293              		.cfi_offset 14, -4
 294 0002 86B0     		sub	sp, sp, #24
 295              		.cfi_def_cfa_offset 32
 296 0004 00AF     		add	r7, sp, #0
 297              		.cfi_def_cfa_register 7
 298 0006 F860     		str	r0, [r7, #12]
 299 0008 0800     		movs	r0, r1
 300 000a 1100     		movs	r1, r2
 301 000c 7B60     		str	r3, [r7, #4]
 302 000e 0B23     		movs	r3, #11
 303 0010 FB18     		adds	r3, r7, r3
 304 0012 021C     		adds	r2, r0, #0
 305 0014 1A70     		strb	r2, [r3]
 306 0016 0A23     		movs	r3, #10
 307 0018 FB18     		adds	r3, r7, r3
 308 001a 0A1C     		adds	r2, r1, #0
 309 001c 1A70     		strb	r2, [r3]
  59:..\CANLib/CANMotorUnit.c ****     packetToAssemble->id = ConstructCANID(PACKET_PRIORITY_NORMAL, targetDeviceGroup, targetDeviceSe
 310              		.loc 1 59 0
 311 001e 0A23     		movs	r3, #10
 312 0020 FB18     		adds	r3, r7, r3
 313 0022 1A78     		ldrb	r2, [r3]
 314 0024 0B23     		movs	r3, #11
 315 0026 FB18     		adds	r3, r7, r3
 316 0028 1B78     		ldrb	r3, [r3]
 317 002a 1900     		movs	r1, r3
 318 002c 0120     		movs	r0, #1
 319 002e FFF7FEFF 		bl	ConstructCANID
 320 0032 0300     		movs	r3, r0
 321 0034 1A00     		movs	r2, r3
 322 0036 FB68     		ldr	r3, [r7, #12]
 323 0038 1A80     		strh	r2, [r3]
  60:..\CANLib/CANMotorUnit.c ****     packetToAssemble->dlc = DLC_MOTOR_UNIT_PID_POS_TGT_SET;
 324              		.loc 1 60 0
 325 003a FB68     		ldr	r3, [r7, #12]
 326 003c 0522     		movs	r2, #5
 327 003e 9A70     		strb	r2, [r3, #2]
  61:..\CANLib/CANMotorUnit.c ****     int nextByte = WritePacketIDOnly(packetToAssemble->data, ID_MOTOR_UNIT_PID_POS_TGT_SET);
 328              		.loc 1 61 0
 329 0040 FB68     		ldr	r3, [r7, #12]
 330 0042 0333     		adds	r3, r3, #3
 331 0044 0421     		movs	r1, #4
 332 0046 1800     		movs	r0, r3
 333 0048 FFF7FEFF 		bl	WritePacketIDOnly
 334 004c 0300     		movs	r3, r0
 335 004e 7B61     		str	r3, [r7, #20]
  62:..\CANLib/CANMotorUnit.c ****     PackIntIntoDataMSBFirst(packetToAssemble->data, target, nextByte);
 336              		.loc 1 62 0
 337 0050 FB68     		ldr	r3, [r7, #12]
ARM GAS  C:\Users\Austcha\AppData\Local\Temp\ccV5xKP9.s 			page 8


 338 0052 0333     		adds	r3, r3, #3
 339 0054 7A69     		ldr	r2, [r7, #20]
 340 0056 7968     		ldr	r1, [r7, #4]
 341 0058 1800     		movs	r0, r3
 342 005a FFF7FEFF 		bl	PackIntIntoDataMSBFirst
  63:..\CANLib/CANMotorUnit.c **** }
 343              		.loc 1 63 0
 344 005e C046     		nop
 345 0060 BD46     		mov	sp, r7
 346 0062 06B0     		add	sp, sp, #24
 347              		@ sp needed
 348 0064 80BD     		pop	{r7, pc}
 349              		.cfi_endproc
 350              	.LFE5:
 351              		.size	AssemblePIDTargetSetPacket, .-AssemblePIDTargetSetPacket
 352 0066 C046     		.section	.text.GetPIDTargetFromPacket,"ax",%progbits
 353              		.align	2
 354              		.global	GetPIDTargetFromPacket
 355              		.code	16
 356              		.thumb_func
 357              		.type	GetPIDTargetFromPacket, %function
 358              	GetPIDTargetFromPacket:
 359              	.LFB6:
  64:..\CANLib/CANMotorUnit.c **** 
  65:..\CANLib/CANMotorUnit.c **** uint8_t GetPIDTargetFromPacket(CANPacket *packet)
  66:..\CANLib/CANMotorUnit.c **** {
 360              		.loc 1 66 0
 361              		.cfi_startproc
 362              		@ args = 0, pretend = 0, frame = 8
 363              		@ frame_needed = 1, uses_anonymous_args = 0
 364 0000 80B5     		push	{r7, lr}
 365              		.cfi_def_cfa_offset 8
 366              		.cfi_offset 7, -8
 367              		.cfi_offset 14, -4
 368 0002 82B0     		sub	sp, sp, #8
 369              		.cfi_def_cfa_offset 16
 370 0004 00AF     		add	r7, sp, #0
 371              		.cfi_def_cfa_register 7
 372 0006 7860     		str	r0, [r7, #4]
  67:..\CANLib/CANMotorUnit.c ****     return DecodeBytesToIntMSBFirst(packet->data, DLC_MOTOR_UNIT_PID_POS_TGT_SET - 5, DLC_MOTOR_UNI
 373              		.loc 1 67 0
 374 0008 7B68     		ldr	r3, [r7, #4]
 375 000a 0333     		adds	r3, r3, #3
 376 000c 0422     		movs	r2, #4
 377 000e 0021     		movs	r1, #0
 378 0010 1800     		movs	r0, r3
 379 0012 FFF7FEFF 		bl	DecodeBytesToIntMSBFirst
 380 0016 0300     		movs	r3, r0
 381 0018 DBB2     		uxtb	r3, r3
  68:..\CANLib/CANMotorUnit.c **** }
 382              		.loc 1 68 0
 383 001a 1800     		movs	r0, r3
 384 001c BD46     		mov	sp, r7
 385 001e 02B0     		add	sp, sp, #8
 386              		@ sp needed
 387 0020 80BD     		pop	{r7, pc}
 388              		.cfi_endproc
ARM GAS  C:\Users\Austcha\AppData\Local\Temp\ccV5xKP9.s 			page 9


 389              	.LFE6:
 390              		.size	GetPIDTargetFromPacket, .-GetPIDTargetFromPacket
 391 0022 C046     		.section	.text.AssemblePSetPacket,"ax",%progbits
 392              		.align	2
 393              		.global	AssemblePSetPacket
 394              		.code	16
 395              		.thumb_func
 396              		.type	AssemblePSetPacket, %function
 397              	AssemblePSetPacket:
 398              	.LFB7:
  69:..\CANLib/CANMotorUnit.c **** 
  70:..\CANLib/CANMotorUnit.c **** void AssemblePSetPacket(CANPacket *packetToAssemble,
  71:..\CANLib/CANMotorUnit.c ****     uint8_t targetDeviceGroup,
  72:..\CANLib/CANMotorUnit.c ****     uint8_t targetDeviceSerial,
  73:..\CANLib/CANMotorUnit.c ****     int32_t pCoef)
  74:..\CANLib/CANMotorUnit.c **** {
 399              		.loc 1 74 0
 400              		.cfi_startproc
 401              		@ args = 0, pretend = 0, frame = 24
 402              		@ frame_needed = 1, uses_anonymous_args = 0
 403 0000 80B5     		push	{r7, lr}
 404              		.cfi_def_cfa_offset 8
 405              		.cfi_offset 7, -8
 406              		.cfi_offset 14, -4
 407 0002 86B0     		sub	sp, sp, #24
 408              		.cfi_def_cfa_offset 32
 409 0004 00AF     		add	r7, sp, #0
 410              		.cfi_def_cfa_register 7
 411 0006 F860     		str	r0, [r7, #12]
 412 0008 0800     		movs	r0, r1
 413 000a 1100     		movs	r1, r2
 414 000c 7B60     		str	r3, [r7, #4]
 415 000e 0B23     		movs	r3, #11
 416 0010 FB18     		adds	r3, r7, r3
 417 0012 021C     		adds	r2, r0, #0
 418 0014 1A70     		strb	r2, [r3]
 419 0016 0A23     		movs	r3, #10
 420 0018 FB18     		adds	r3, r7, r3
 421 001a 0A1C     		adds	r2, r1, #0
 422 001c 1A70     		strb	r2, [r3]
  75:..\CANLib/CANMotorUnit.c ****     packetToAssemble->id = ConstructCANID(PACKET_PRIORITY_NORMAL, targetDeviceGroup, targetDeviceSe
 423              		.loc 1 75 0
 424 001e 0A23     		movs	r3, #10
 425 0020 FB18     		adds	r3, r7, r3
 426 0022 1A78     		ldrb	r2, [r3]
 427 0024 0B23     		movs	r3, #11
 428 0026 FB18     		adds	r3, r7, r3
 429 0028 1B78     		ldrb	r3, [r3]
 430 002a 1900     		movs	r1, r3
 431 002c 0120     		movs	r0, #1
 432 002e FFF7FEFF 		bl	ConstructCANID
 433 0032 0300     		movs	r3, r0
 434 0034 1A00     		movs	r2, r3
 435 0036 FB68     		ldr	r3, [r7, #12]
 436 0038 1A80     		strh	r2, [r3]
  76:..\CANLib/CANMotorUnit.c ****     packetToAssemble->dlc = DLC_MOTOR_UNIT_PID_P_SET;
 437              		.loc 1 76 0
ARM GAS  C:\Users\Austcha\AppData\Local\Temp\ccV5xKP9.s 			page 10


 438 003a FB68     		ldr	r3, [r7, #12]
 439 003c 0522     		movs	r2, #5
 440 003e 9A70     		strb	r2, [r3, #2]
  77:..\CANLib/CANMotorUnit.c ****     int nextByte = WritePacketIDOnly(packetToAssemble->data, ID_MOTOR_UNIT_PID_P_SET);
 441              		.loc 1 77 0
 442 0040 FB68     		ldr	r3, [r7, #12]
 443 0042 0333     		adds	r3, r3, #3
 444 0044 0521     		movs	r1, #5
 445 0046 1800     		movs	r0, r3
 446 0048 FFF7FEFF 		bl	WritePacketIDOnly
 447 004c 0300     		movs	r3, r0
 448 004e 7B61     		str	r3, [r7, #20]
  78:..\CANLib/CANMotorUnit.c ****     PackIntIntoDataMSBFirst(packetToAssemble->data, pCoef, nextByte);
 449              		.loc 1 78 0
 450 0050 FB68     		ldr	r3, [r7, #12]
 451 0052 0333     		adds	r3, r3, #3
 452 0054 7A69     		ldr	r2, [r7, #20]
 453 0056 7968     		ldr	r1, [r7, #4]
 454 0058 1800     		movs	r0, r3
 455 005a FFF7FEFF 		bl	PackIntIntoDataMSBFirst
  79:..\CANLib/CANMotorUnit.c **** }
 456              		.loc 1 79 0
 457 005e C046     		nop
 458 0060 BD46     		mov	sp, r7
 459 0062 06B0     		add	sp, sp, #24
 460              		@ sp needed
 461 0064 80BD     		pop	{r7, pc}
 462              		.cfi_endproc
 463              	.LFE7:
 464              		.size	AssemblePSetPacket, .-AssemblePSetPacket
 465 0066 C046     		.section	.text.GetPFromPacket,"ax",%progbits
 466              		.align	2
 467              		.global	GetPFromPacket
 468              		.code	16
 469              		.thumb_func
 470              		.type	GetPFromPacket, %function
 471              	GetPFromPacket:
 472              	.LFB8:
  80:..\CANLib/CANMotorUnit.c **** 
  81:..\CANLib/CANMotorUnit.c **** int32_t GetPFromPacket(CANPacket *packet)
  82:..\CANLib/CANMotorUnit.c **** {
 473              		.loc 1 82 0
 474              		.cfi_startproc
 475              		@ args = 0, pretend = 0, frame = 8
 476              		@ frame_needed = 1, uses_anonymous_args = 0
 477 0000 80B5     		push	{r7, lr}
 478              		.cfi_def_cfa_offset 8
 479              		.cfi_offset 7, -8
 480              		.cfi_offset 14, -4
 481 0002 82B0     		sub	sp, sp, #8
 482              		.cfi_def_cfa_offset 16
 483 0004 00AF     		add	r7, sp, #0
 484              		.cfi_def_cfa_register 7
 485 0006 7860     		str	r0, [r7, #4]
  83:..\CANLib/CANMotorUnit.c ****     return DecodeBytesToIntMSBFirst(packet->data, DLC_MOTOR_UNIT_PID_P_SET - 5, DLC_MOTOR_UNIT_PID_
 486              		.loc 1 83 0
 487 0008 7B68     		ldr	r3, [r7, #4]
ARM GAS  C:\Users\Austcha\AppData\Local\Temp\ccV5xKP9.s 			page 11


 488 000a 0333     		adds	r3, r3, #3
 489 000c 0422     		movs	r2, #4
 490 000e 0021     		movs	r1, #0
 491 0010 1800     		movs	r0, r3
 492 0012 FFF7FEFF 		bl	DecodeBytesToIntMSBFirst
 493 0016 0300     		movs	r3, r0
  84:..\CANLib/CANMotorUnit.c **** }
 494              		.loc 1 84 0
 495 0018 1800     		movs	r0, r3
 496 001a BD46     		mov	sp, r7
 497 001c 02B0     		add	sp, sp, #8
 498              		@ sp needed
 499 001e 80BD     		pop	{r7, pc}
 500              		.cfi_endproc
 501              	.LFE8:
 502              		.size	GetPFromPacket, .-GetPFromPacket
 503              		.section	.text.AssembleISetPacket,"ax",%progbits
 504              		.align	2
 505              		.global	AssembleISetPacket
 506              		.code	16
 507              		.thumb_func
 508              		.type	AssembleISetPacket, %function
 509              	AssembleISetPacket:
 510              	.LFB9:
  85:..\CANLib/CANMotorUnit.c **** 
  86:..\CANLib/CANMotorUnit.c **** void AssembleISetPacket(CANPacket *packetToAssemble,
  87:..\CANLib/CANMotorUnit.c ****     uint8_t targetDeviceGroup,
  88:..\CANLib/CANMotorUnit.c ****     uint8_t targetDeviceSerial,
  89:..\CANLib/CANMotorUnit.c ****     int32_t iCoef)
  90:..\CANLib/CANMotorUnit.c **** {
 511              		.loc 1 90 0
 512              		.cfi_startproc
 513              		@ args = 0, pretend = 0, frame = 24
 514              		@ frame_needed = 1, uses_anonymous_args = 0
 515 0000 80B5     		push	{r7, lr}
 516              		.cfi_def_cfa_offset 8
 517              		.cfi_offset 7, -8
 518              		.cfi_offset 14, -4
 519 0002 86B0     		sub	sp, sp, #24
 520              		.cfi_def_cfa_offset 32
 521 0004 00AF     		add	r7, sp, #0
 522              		.cfi_def_cfa_register 7
 523 0006 F860     		str	r0, [r7, #12]
 524 0008 0800     		movs	r0, r1
 525 000a 1100     		movs	r1, r2
 526 000c 7B60     		str	r3, [r7, #4]
 527 000e 0B23     		movs	r3, #11
 528 0010 FB18     		adds	r3, r7, r3
 529 0012 021C     		adds	r2, r0, #0
 530 0014 1A70     		strb	r2, [r3]
 531 0016 0A23     		movs	r3, #10
 532 0018 FB18     		adds	r3, r7, r3
 533 001a 0A1C     		adds	r2, r1, #0
 534 001c 1A70     		strb	r2, [r3]
  91:..\CANLib/CANMotorUnit.c ****     packetToAssemble->id = ConstructCANID(PACKET_PRIORITY_NORMAL, targetDeviceGroup, targetDeviceSe
 535              		.loc 1 91 0
 536 001e 0A23     		movs	r3, #10
ARM GAS  C:\Users\Austcha\AppData\Local\Temp\ccV5xKP9.s 			page 12


 537 0020 FB18     		adds	r3, r7, r3
 538 0022 1A78     		ldrb	r2, [r3]
 539 0024 0B23     		movs	r3, #11
 540 0026 FB18     		adds	r3, r7, r3
 541 0028 1B78     		ldrb	r3, [r3]
 542 002a 1900     		movs	r1, r3
 543 002c 0120     		movs	r0, #1
 544 002e FFF7FEFF 		bl	ConstructCANID
 545 0032 0300     		movs	r3, r0
 546 0034 1A00     		movs	r2, r3
 547 0036 FB68     		ldr	r3, [r7, #12]
 548 0038 1A80     		strh	r2, [r3]
  92:..\CANLib/CANMotorUnit.c ****     packetToAssemble->dlc = DLC_MOTOR_UNIT_PID_I_SET;
 549              		.loc 1 92 0
 550 003a FB68     		ldr	r3, [r7, #12]
 551 003c 0522     		movs	r2, #5
 552 003e 9A70     		strb	r2, [r3, #2]
  93:..\CANLib/CANMotorUnit.c ****     int nextByte = WritePacketIDOnly(packetToAssemble->data, ID_MOTOR_UNIT_PID_I_SET);
 553              		.loc 1 93 0
 554 0040 FB68     		ldr	r3, [r7, #12]
 555 0042 0333     		adds	r3, r3, #3
 556 0044 0621     		movs	r1, #6
 557 0046 1800     		movs	r0, r3
 558 0048 FFF7FEFF 		bl	WritePacketIDOnly
 559 004c 0300     		movs	r3, r0
 560 004e 7B61     		str	r3, [r7, #20]
  94:..\CANLib/CANMotorUnit.c ****     PackIntIntoDataMSBFirst(packetToAssemble->data, iCoef, nextByte);
 561              		.loc 1 94 0
 562 0050 FB68     		ldr	r3, [r7, #12]
 563 0052 0333     		adds	r3, r3, #3
 564 0054 7A69     		ldr	r2, [r7, #20]
 565 0056 7968     		ldr	r1, [r7, #4]
 566 0058 1800     		movs	r0, r3
 567 005a FFF7FEFF 		bl	PackIntIntoDataMSBFirst
  95:..\CANLib/CANMotorUnit.c **** }
 568              		.loc 1 95 0
 569 005e C046     		nop
 570 0060 BD46     		mov	sp, r7
 571 0062 06B0     		add	sp, sp, #24
 572              		@ sp needed
 573 0064 80BD     		pop	{r7, pc}
 574              		.cfi_endproc
 575              	.LFE9:
 576              		.size	AssembleISetPacket, .-AssembleISetPacket
 577 0066 C046     		.section	.text.GetIFromPacket,"ax",%progbits
 578              		.align	2
 579              		.global	GetIFromPacket
 580              		.code	16
 581              		.thumb_func
 582              		.type	GetIFromPacket, %function
 583              	GetIFromPacket:
 584              	.LFB10:
  96:..\CANLib/CANMotorUnit.c **** 
  97:..\CANLib/CANMotorUnit.c **** int32_t GetIFromPacket(CANPacket *packet)
  98:..\CANLib/CANMotorUnit.c **** {
 585              		.loc 1 98 0
 586              		.cfi_startproc
ARM GAS  C:\Users\Austcha\AppData\Local\Temp\ccV5xKP9.s 			page 13


 587              		@ args = 0, pretend = 0, frame = 8
 588              		@ frame_needed = 1, uses_anonymous_args = 0
 589 0000 80B5     		push	{r7, lr}
 590              		.cfi_def_cfa_offset 8
 591              		.cfi_offset 7, -8
 592              		.cfi_offset 14, -4
 593 0002 82B0     		sub	sp, sp, #8
 594              		.cfi_def_cfa_offset 16
 595 0004 00AF     		add	r7, sp, #0
 596              		.cfi_def_cfa_register 7
 597 0006 7860     		str	r0, [r7, #4]
  99:..\CANLib/CANMotorUnit.c ****     return DecodeBytesToIntMSBFirst(packet->data, DLC_MOTOR_UNIT_PID_I_SET - 5, DLC_MOTOR_UNIT_PID_
 598              		.loc 1 99 0
 599 0008 7B68     		ldr	r3, [r7, #4]
 600 000a 0333     		adds	r3, r3, #3
 601 000c 0422     		movs	r2, #4
 602 000e 0021     		movs	r1, #0
 603 0010 1800     		movs	r0, r3
 604 0012 FFF7FEFF 		bl	DecodeBytesToIntMSBFirst
 605 0016 0300     		movs	r3, r0
 100:..\CANLib/CANMotorUnit.c **** }
 606              		.loc 1 100 0
 607 0018 1800     		movs	r0, r3
 608 001a BD46     		mov	sp, r7
 609 001c 02B0     		add	sp, sp, #8
 610              		@ sp needed
 611 001e 80BD     		pop	{r7, pc}
 612              		.cfi_endproc
 613              	.LFE10:
 614              		.size	GetIFromPacket, .-GetIFromPacket
 615              		.section	.text.AssembleDSetPacket,"ax",%progbits
 616              		.align	2
 617              		.global	AssembleDSetPacket
 618              		.code	16
 619              		.thumb_func
 620              		.type	AssembleDSetPacket, %function
 621              	AssembleDSetPacket:
 622              	.LFB11:
 101:..\CANLib/CANMotorUnit.c **** 
 102:..\CANLib/CANMotorUnit.c **** void AssembleDSetPacket(CANPacket *packetToAssemble,
 103:..\CANLib/CANMotorUnit.c ****     uint8_t targetDeviceGroup,
 104:..\CANLib/CANMotorUnit.c ****     uint8_t targetDeviceSerial,
 105:..\CANLib/CANMotorUnit.c ****     int32_t dCoef)
 106:..\CANLib/CANMotorUnit.c **** {
 623              		.loc 1 106 0
 624              		.cfi_startproc
 625              		@ args = 0, pretend = 0, frame = 24
 626              		@ frame_needed = 1, uses_anonymous_args = 0
 627 0000 80B5     		push	{r7, lr}
 628              		.cfi_def_cfa_offset 8
 629              		.cfi_offset 7, -8
 630              		.cfi_offset 14, -4
 631 0002 86B0     		sub	sp, sp, #24
 632              		.cfi_def_cfa_offset 32
 633 0004 00AF     		add	r7, sp, #0
 634              		.cfi_def_cfa_register 7
 635 0006 F860     		str	r0, [r7, #12]
ARM GAS  C:\Users\Austcha\AppData\Local\Temp\ccV5xKP9.s 			page 14


 636 0008 0800     		movs	r0, r1
 637 000a 1100     		movs	r1, r2
 638 000c 7B60     		str	r3, [r7, #4]
 639 000e 0B23     		movs	r3, #11
 640 0010 FB18     		adds	r3, r7, r3
 641 0012 021C     		adds	r2, r0, #0
 642 0014 1A70     		strb	r2, [r3]
 643 0016 0A23     		movs	r3, #10
 644 0018 FB18     		adds	r3, r7, r3
 645 001a 0A1C     		adds	r2, r1, #0
 646 001c 1A70     		strb	r2, [r3]
 107:..\CANLib/CANMotorUnit.c ****     packetToAssemble->id = ConstructCANID(PACKET_PRIORITY_NORMAL, targetDeviceGroup, targetDeviceSe
 647              		.loc 1 107 0
 648 001e 0A23     		movs	r3, #10
 649 0020 FB18     		adds	r3, r7, r3
 650 0022 1A78     		ldrb	r2, [r3]
 651 0024 0B23     		movs	r3, #11
 652 0026 FB18     		adds	r3, r7, r3
 653 0028 1B78     		ldrb	r3, [r3]
 654 002a 1900     		movs	r1, r3
 655 002c 0120     		movs	r0, #1
 656 002e FFF7FEFF 		bl	ConstructCANID
 657 0032 0300     		movs	r3, r0
 658 0034 1A00     		movs	r2, r3
 659 0036 FB68     		ldr	r3, [r7, #12]
 660 0038 1A80     		strh	r2, [r3]
 108:..\CANLib/CANMotorUnit.c ****     packetToAssemble->dlc = DLC_MOTOR_UNIT_PID_D_SET;
 661              		.loc 1 108 0
 662 003a FB68     		ldr	r3, [r7, #12]
 663 003c 0522     		movs	r2, #5
 664 003e 9A70     		strb	r2, [r3, #2]
 109:..\CANLib/CANMotorUnit.c ****     int nextByte = WritePacketIDOnly(packetToAssemble->data, ID_MOTOR_UNIT_PID_D_SET);
 665              		.loc 1 109 0
 666 0040 FB68     		ldr	r3, [r7, #12]
 667 0042 0333     		adds	r3, r3, #3
 668 0044 0721     		movs	r1, #7
 669 0046 1800     		movs	r0, r3
 670 0048 FFF7FEFF 		bl	WritePacketIDOnly
 671 004c 0300     		movs	r3, r0
 672 004e 7B61     		str	r3, [r7, #20]
 110:..\CANLib/CANMotorUnit.c ****     PackIntIntoDataMSBFirst(packetToAssemble->data, dCoef, nextByte);
 673              		.loc 1 110 0
 674 0050 FB68     		ldr	r3, [r7, #12]
 675 0052 0333     		adds	r3, r3, #3
 676 0054 7A69     		ldr	r2, [r7, #20]
 677 0056 7968     		ldr	r1, [r7, #4]
 678 0058 1800     		movs	r0, r3
 679 005a FFF7FEFF 		bl	PackIntIntoDataMSBFirst
 111:..\CANLib/CANMotorUnit.c **** }
 680              		.loc 1 111 0
 681 005e C046     		nop
 682 0060 BD46     		mov	sp, r7
 683 0062 06B0     		add	sp, sp, #24
 684              		@ sp needed
 685 0064 80BD     		pop	{r7, pc}
 686              		.cfi_endproc
 687              	.LFE11:
ARM GAS  C:\Users\Austcha\AppData\Local\Temp\ccV5xKP9.s 			page 15


 688              		.size	AssembleDSetPacket, .-AssembleDSetPacket
 689 0066 C046     		.section	.text.GetDFromPacket,"ax",%progbits
 690              		.align	2
 691              		.global	GetDFromPacket
 692              		.code	16
 693              		.thumb_func
 694              		.type	GetDFromPacket, %function
 695              	GetDFromPacket:
 696              	.LFB12:
 112:..\CANLib/CANMotorUnit.c **** 
 113:..\CANLib/CANMotorUnit.c **** int32_t GetDFromPacket(CANPacket *packet)
 114:..\CANLib/CANMotorUnit.c **** {
 697              		.loc 1 114 0
 698              		.cfi_startproc
 699              		@ args = 0, pretend = 0, frame = 8
 700              		@ frame_needed = 1, uses_anonymous_args = 0
 701 0000 80B5     		push	{r7, lr}
 702              		.cfi_def_cfa_offset 8
 703              		.cfi_offset 7, -8
 704              		.cfi_offset 14, -4
 705 0002 82B0     		sub	sp, sp, #8
 706              		.cfi_def_cfa_offset 16
 707 0004 00AF     		add	r7, sp, #0
 708              		.cfi_def_cfa_register 7
 709 0006 7860     		str	r0, [r7, #4]
 115:..\CANLib/CANMotorUnit.c ****     return DecodeBytesToIntMSBFirst(packet->data, DLC_MOTOR_UNIT_PID_D_SET - 5, DLC_MOTOR_UNIT_PID_
 710              		.loc 1 115 0
 711 0008 7B68     		ldr	r3, [r7, #4]
 712 000a 0333     		adds	r3, r3, #3
 713 000c 0422     		movs	r2, #4
 714 000e 0021     		movs	r1, #0
 715 0010 1800     		movs	r0, r3
 716 0012 FFF7FEFF 		bl	DecodeBytesToIntMSBFirst
 717 0016 0300     		movs	r3, r0
 116:..\CANLib/CANMotorUnit.c **** }
 718              		.loc 1 116 0
 719 0018 1800     		movs	r0, r3
 720 001a BD46     		mov	sp, r7
 721 001c 02B0     		add	sp, sp, #8
 722              		@ sp needed
 723 001e 80BD     		pop	{r7, pc}
 724              		.cfi_endproc
 725              	.LFE12:
 726              		.size	GetDFromPacket, .-GetDFromPacket
 727              		.section	.text.AssembleInitializePacket,"ax",%progbits
 728              		.align	2
 729              		.global	AssembleInitializePacket
 730              		.code	16
 731              		.thumb_func
 732              		.type	AssembleInitializePacket, %function
 733              	AssembleInitializePacket:
 734              	.LFB13:
 117:..\CANLib/CANMotorUnit.c **** 
 118:..\CANLib/CANMotorUnit.c **** void AssembleInitializePacket(CANPacket *packetToAssemble,
 119:..\CANLib/CANMotorUnit.c ****     uint8_t targetDeviceGroup,
 120:..\CANLib/CANMotorUnit.c ****     uint8_t targetDeviceSerial,
 121:..\CANLib/CANMotorUnit.c ****     uint8_t initMode)
ARM GAS  C:\Users\Austcha\AppData\Local\Temp\ccV5xKP9.s 			page 16


 122:..\CANLib/CANMotorUnit.c **** {
 735              		.loc 1 122 0
 736              		.cfi_startproc
 737              		@ args = 0, pretend = 0, frame = 16
 738              		@ frame_needed = 1, uses_anonymous_args = 0
 739 0000 90B5     		push	{r4, r7, lr}
 740              		.cfi_def_cfa_offset 12
 741              		.cfi_offset 4, -12
 742              		.cfi_offset 7, -8
 743              		.cfi_offset 14, -4
 744 0002 85B0     		sub	sp, sp, #20
 745              		.cfi_def_cfa_offset 32
 746 0004 00AF     		add	r7, sp, #0
 747              		.cfi_def_cfa_register 7
 748 0006 7860     		str	r0, [r7, #4]
 749 0008 0C00     		movs	r4, r1
 750 000a 1000     		movs	r0, r2
 751 000c 1900     		movs	r1, r3
 752 000e FB1C     		adds	r3, r7, #3
 753 0010 221C     		adds	r2, r4, #0
 754 0012 1A70     		strb	r2, [r3]
 755 0014 BB1C     		adds	r3, r7, #2
 756 0016 021C     		adds	r2, r0, #0
 757 0018 1A70     		strb	r2, [r3]
 758 001a 7B1C     		adds	r3, r7, #1
 759 001c 0A1C     		adds	r2, r1, #0
 760 001e 1A70     		strb	r2, [r3]
 123:..\CANLib/CANMotorUnit.c ****     packetToAssemble->id = ConstructCANID(PRIO_MOTOR_UNIT_INIT, targetDeviceGroup, targetDeviceSeri
 761              		.loc 1 123 0
 762 0020 BB1C     		adds	r3, r7, #2
 763 0022 1A78     		ldrb	r2, [r3]
 764 0024 FB1C     		adds	r3, r7, #3
 765 0026 1B78     		ldrb	r3, [r3]
 766 0028 1900     		movs	r1, r3
 767 002a 0120     		movs	r0, #1
 768 002c FFF7FEFF 		bl	ConstructCANID
 769 0030 0300     		movs	r3, r0
 770 0032 1A00     		movs	r2, r3
 771 0034 7B68     		ldr	r3, [r7, #4]
 772 0036 1A80     		strh	r2, [r3]
 124:..\CANLib/CANMotorUnit.c ****     packetToAssemble->dlc = DLC_MOTOR_UNIT_INIT;
 773              		.loc 1 124 0
 774 0038 7B68     		ldr	r3, [r7, #4]
 775 003a 0222     		movs	r2, #2
 776 003c 9A70     		strb	r2, [r3, #2]
 125:..\CANLib/CANMotorUnit.c ****     int nextByte = WritePacketIDOnly(packetToAssemble->data, ID_MOTOR_UNIT_INIT);
 777              		.loc 1 125 0
 778 003e 7B68     		ldr	r3, [r7, #4]
 779 0040 0333     		adds	r3, r3, #3
 780 0042 0821     		movs	r1, #8
 781 0044 1800     		movs	r0, r3
 782 0046 FFF7FEFF 		bl	WritePacketIDOnly
 783 004a 0300     		movs	r3, r0
 784 004c FB60     		str	r3, [r7, #12]
 126:..\CANLib/CANMotorUnit.c ****     packetToAssemble->data[nextByte] = initMode;
 785              		.loc 1 126 0
 786 004e 7A68     		ldr	r2, [r7, #4]
ARM GAS  C:\Users\Austcha\AppData\Local\Temp\ccV5xKP9.s 			page 17


 787 0050 FB68     		ldr	r3, [r7, #12]
 788 0052 D318     		adds	r3, r2, r3
 789 0054 0333     		adds	r3, r3, #3
 790 0056 7A1C     		adds	r2, r7, #1
 791 0058 1278     		ldrb	r2, [r2]
 792 005a 1A70     		strb	r2, [r3]
 127:..\CANLib/CANMotorUnit.c **** }
 793              		.loc 1 127 0
 794 005c C046     		nop
 795 005e BD46     		mov	sp, r7
 796 0060 05B0     		add	sp, sp, #20
 797              		@ sp needed
 798 0062 90BD     		pop	{r4, r7, pc}
 799              		.cfi_endproc
 800              	.LFE13:
 801              		.size	AssembleInitializePacket, .-AssembleInitializePacket
 802              		.section	.text.GetInitModeFromPacket,"ax",%progbits
 803              		.align	2
 804              		.global	GetInitModeFromPacket
 805              		.code	16
 806              		.thumb_func
 807              		.type	GetInitModeFromPacket, %function
 808              	GetInitModeFromPacket:
 809              	.LFB14:
 128:..\CANLib/CANMotorUnit.c **** uint8_t GetInitModeFromPacket(CANPacket *packet)
 129:..\CANLib/CANMotorUnit.c **** {
 810              		.loc 1 129 0
 811              		.cfi_startproc
 812              		@ args = 0, pretend = 0, frame = 8
 813              		@ frame_needed = 1, uses_anonymous_args = 0
 814 0000 80B5     		push	{r7, lr}
 815              		.cfi_def_cfa_offset 8
 816              		.cfi_offset 7, -8
 817              		.cfi_offset 14, -4
 818 0002 82B0     		sub	sp, sp, #8
 819              		.cfi_def_cfa_offset 16
 820 0004 00AF     		add	r7, sp, #0
 821              		.cfi_def_cfa_register 7
 822 0006 7860     		str	r0, [r7, #4]
 130:..\CANLib/CANMotorUnit.c ****     return packet->data[1];
 823              		.loc 1 130 0
 824 0008 7B68     		ldr	r3, [r7, #4]
 825 000a 1B79     		ldrb	r3, [r3, #4]
 131:..\CANLib/CANMotorUnit.c **** }
 826              		.loc 1 131 0
 827 000c 1800     		movs	r0, r3
 828 000e BD46     		mov	sp, r7
 829 0010 02B0     		add	sp, sp, #8
 830              		@ sp needed
 831 0012 80BD     		pop	{r7, pc}
 832              		.cfi_endproc
 833              	.LFE14:
 834              		.size	GetInitModeFromPacket, .-GetInitModeFromPacket
 835              		.section	.text.AssembleLimitSwitchAlertPacket,"ax",%progbits
 836              		.align	2
 837              		.global	AssembleLimitSwitchAlertPacket
 838              		.code	16
ARM GAS  C:\Users\Austcha\AppData\Local\Temp\ccV5xKP9.s 			page 18


 839              		.thumb_func
 840              		.type	AssembleLimitSwitchAlertPacket, %function
 841              	AssembleLimitSwitchAlertPacket:
 842              	.LFB15:
 132:..\CANLib/CANMotorUnit.c **** 
 133:..\CANLib/CANMotorUnit.c **** void AssembleLimitSwitchAlertPacket(CANPacket *packetToAssemble,
 134:..\CANLib/CANMotorUnit.c ****     uint8_t targetDeviceGroup,
 135:..\CANLib/CANMotorUnit.c ****     uint8_t targetDeviceSerial,
 136:..\CANLib/CANMotorUnit.c ****     uint8_t switches)
 137:..\CANLib/CANMotorUnit.c **** {
 843              		.loc 1 137 0
 844              		.cfi_startproc
 845              		@ args = 0, pretend = 0, frame = 16
 846              		@ frame_needed = 1, uses_anonymous_args = 0
 847 0000 90B5     		push	{r4, r7, lr}
 848              		.cfi_def_cfa_offset 12
 849              		.cfi_offset 4, -12
 850              		.cfi_offset 7, -8
 851              		.cfi_offset 14, -4
 852 0002 85B0     		sub	sp, sp, #20
 853              		.cfi_def_cfa_offset 32
 854 0004 00AF     		add	r7, sp, #0
 855              		.cfi_def_cfa_register 7
 856 0006 7860     		str	r0, [r7, #4]
 857 0008 0C00     		movs	r4, r1
 858 000a 1000     		movs	r0, r2
 859 000c 1900     		movs	r1, r3
 860 000e FB1C     		adds	r3, r7, #3
 861 0010 221C     		adds	r2, r4, #0
 862 0012 1A70     		strb	r2, [r3]
 863 0014 BB1C     		adds	r3, r7, #2
 864 0016 021C     		adds	r2, r0, #0
 865 0018 1A70     		strb	r2, [r3]
 866 001a 7B1C     		adds	r3, r7, #1
 867 001c 0A1C     		adds	r2, r1, #0
 868 001e 1A70     		strb	r2, [r3]
 138:..\CANLib/CANMotorUnit.c ****     packetToAssemble->id = ConstructCANID(PRIO_MOTOR_UNIT_LIM_ALERT, targetDeviceGroup, targetDevic
 869              		.loc 1 138 0
 870 0020 BB1C     		adds	r3, r7, #2
 871 0022 1A78     		ldrb	r2, [r3]
 872 0024 FB1C     		adds	r3, r7, #3
 873 0026 1B78     		ldrb	r3, [r3]
 874 0028 1900     		movs	r1, r3
 875 002a 0020     		movs	r0, #0
 876 002c FFF7FEFF 		bl	ConstructCANID
 877 0030 0300     		movs	r3, r0
 878 0032 1A00     		movs	r2, r3
 879 0034 7B68     		ldr	r3, [r7, #4]
 880 0036 1A80     		strh	r2, [r3]
 139:..\CANLib/CANMotorUnit.c ****     packetToAssemble->dlc = DLC_MOTOR_UNIT_LIM_ALERT;
 881              		.loc 1 139 0
 882 0038 7B68     		ldr	r3, [r7, #4]
 883 003a 0322     		movs	r2, #3
 884 003c 9A70     		strb	r2, [r3, #2]
 140:..\CANLib/CANMotorUnit.c ****     int nextByte = WriteSenderSerialAndPacketID(packetToAssemble->data, ID_MOTOR_UNIT_LIM_ALERT);
 885              		.loc 1 140 0
 886 003e 7B68     		ldr	r3, [r7, #4]
ARM GAS  C:\Users\Austcha\AppData\Local\Temp\ccV5xKP9.s 			page 19


 887 0040 0333     		adds	r3, r3, #3
 888 0042 0921     		movs	r1, #9
 889 0044 1800     		movs	r0, r3
 890 0046 FFF7FEFF 		bl	WriteSenderSerialAndPacketID
 891 004a 0300     		movs	r3, r0
 892 004c FB60     		str	r3, [r7, #12]
 141:..\CANLib/CANMotorUnit.c ****     packetToAssemble->data[nextByte] = switches; 
 893              		.loc 1 141 0
 894 004e 7A68     		ldr	r2, [r7, #4]
 895 0050 FB68     		ldr	r3, [r7, #12]
 896 0052 D318     		adds	r3, r2, r3
 897 0054 0333     		adds	r3, r3, #3
 898 0056 7A1C     		adds	r2, r7, #1
 899 0058 1278     		ldrb	r2, [r2]
 900 005a 1A70     		strb	r2, [r3]
 142:..\CANLib/CANMotorUnit.c **** }
 901              		.loc 1 142 0
 902 005c C046     		nop
 903 005e BD46     		mov	sp, r7
 904 0060 05B0     		add	sp, sp, #20
 905              		@ sp needed
 906 0062 90BD     		pop	{r4, r7, pc}
 907              		.cfi_endproc
 908              	.LFE15:
 909              		.size	AssembleLimitSwitchAlertPacket, .-AssembleLimitSwitchAlertPacket
 910              		.section	.text.GetLimStatusFromPacket,"ax",%progbits
 911              		.align	2
 912              		.global	GetLimStatusFromPacket
 913              		.code	16
 914              		.thumb_func
 915              		.type	GetLimStatusFromPacket, %function
 916              	GetLimStatusFromPacket:
 917              	.LFB16:
 143:..\CANLib/CANMotorUnit.c **** uint8_t GetLimStatusFromPacket(CANPacket *packet)
 144:..\CANLib/CANMotorUnit.c **** {
 918              		.loc 1 144 0
 919              		.cfi_startproc
 920              		@ args = 0, pretend = 0, frame = 8
 921              		@ frame_needed = 1, uses_anonymous_args = 0
 922 0000 80B5     		push	{r7, lr}
 923              		.cfi_def_cfa_offset 8
 924              		.cfi_offset 7, -8
 925              		.cfi_offset 14, -4
 926 0002 82B0     		sub	sp, sp, #8
 927              		.cfi_def_cfa_offset 16
 928 0004 00AF     		add	r7, sp, #0
 929              		.cfi_def_cfa_register 7
 930 0006 7860     		str	r0, [r7, #4]
 145:..\CANLib/CANMotorUnit.c ****     return packet->data[1];
 931              		.loc 1 145 0
 932 0008 7B68     		ldr	r3, [r7, #4]
 933 000a 1B79     		ldrb	r3, [r3, #4]
 146:..\CANLib/CANMotorUnit.c **** }
 934              		.loc 1 146 0
 935 000c 1800     		movs	r0, r3
 936 000e BD46     		mov	sp, r7
 937 0010 02B0     		add	sp, sp, #8
ARM GAS  C:\Users\Austcha\AppData\Local\Temp\ccV5xKP9.s 			page 20


 938              		@ sp needed
 939 0012 80BD     		pop	{r7, pc}
 940              		.cfi_endproc
 941              	.LFE16:
 942              		.size	GetLimStatusFromPacket, .-GetLimStatusFromPacket
 943              		.section	.text.AssembleEncoderPPJRSetPacket,"ax",%progbits
 944              		.align	2
 945              		.global	AssembleEncoderPPJRSetPacket
 946              		.code	16
 947              		.thumb_func
 948              		.type	AssembleEncoderPPJRSetPacket, %function
 949              	AssembleEncoderPPJRSetPacket:
 950              	.LFB17:
 147:..\CANLib/CANMotorUnit.c **** 
 148:..\CANLib/CANMotorUnit.c **** void AssembleEncoderPPJRSetPacket(CANPacket *packetToAssemble,
 149:..\CANLib/CANMotorUnit.c ****     uint8_t targetDeviceGroup,
 150:..\CANLib/CANMotorUnit.c ****     uint8_t targetDeviceSerial,
 151:..\CANLib/CANMotorUnit.c ****     uint32_t pulses)
 152:..\CANLib/CANMotorUnit.c **** {
 951              		.loc 1 152 0
 952              		.cfi_startproc
 953              		@ args = 0, pretend = 0, frame = 24
 954              		@ frame_needed = 1, uses_anonymous_args = 0
 955 0000 80B5     		push	{r7, lr}
 956              		.cfi_def_cfa_offset 8
 957              		.cfi_offset 7, -8
 958              		.cfi_offset 14, -4
 959 0002 86B0     		sub	sp, sp, #24
 960              		.cfi_def_cfa_offset 32
 961 0004 00AF     		add	r7, sp, #0
 962              		.cfi_def_cfa_register 7
 963 0006 F860     		str	r0, [r7, #12]
 964 0008 0800     		movs	r0, r1
 965 000a 1100     		movs	r1, r2
 966 000c 7B60     		str	r3, [r7, #4]
 967 000e 0B23     		movs	r3, #11
 968 0010 FB18     		adds	r3, r7, r3
 969 0012 021C     		adds	r2, r0, #0
 970 0014 1A70     		strb	r2, [r3]
 971 0016 0A23     		movs	r3, #10
 972 0018 FB18     		adds	r3, r7, r3
 973 001a 0A1C     		adds	r2, r1, #0
 974 001c 1A70     		strb	r2, [r3]
 153:..\CANLib/CANMotorUnit.c ****     packetToAssemble->id = ConstructCANID(PRIO_MOTOR_UNIT_ENC_PPJR_SET, targetDeviceGroup, targetDe
 975              		.loc 1 153 0
 976 001e 0A23     		movs	r3, #10
 977 0020 FB18     		adds	r3, r7, r3
 978 0022 1A78     		ldrb	r2, [r3]
 979 0024 0B23     		movs	r3, #11
 980 0026 FB18     		adds	r3, r7, r3
 981 0028 1B78     		ldrb	r3, [r3]
 982 002a 1900     		movs	r1, r3
 983 002c 0120     		movs	r0, #1
 984 002e FFF7FEFF 		bl	ConstructCANID
 985 0032 0300     		movs	r3, r0
 986 0034 1A00     		movs	r2, r3
 987 0036 FB68     		ldr	r3, [r7, #12]
ARM GAS  C:\Users\Austcha\AppData\Local\Temp\ccV5xKP9.s 			page 21


 988 0038 1A80     		strh	r2, [r3]
 154:..\CANLib/CANMotorUnit.c ****     packetToAssemble->id = DLC_MOTOR_UNIT_ENC_PPJR_SET;
 989              		.loc 1 154 0
 990 003a FB68     		ldr	r3, [r7, #12]
 991 003c 0322     		movs	r2, #3
 992 003e 1A80     		strh	r2, [r3]
 155:..\CANLib/CANMotorUnit.c ****     int nextByte = WritePacketIDOnly(packetToAssemble->data, ID_MOTOR_UNIT_ENC_PPJR_SET);
 993              		.loc 1 155 0
 994 0040 FB68     		ldr	r3, [r7, #12]
 995 0042 0333     		adds	r3, r3, #3
 996 0044 0A21     		movs	r1, #10
 997 0046 1800     		movs	r0, r3
 998 0048 FFF7FEFF 		bl	WritePacketIDOnly
 999 004c 0300     		movs	r3, r0
 1000 004e 7B61     		str	r3, [r7, #20]
 156:..\CANLib/CANMotorUnit.c ****     PackIntIntoDataMSBFirst(packetToAssemble->data, pulses, nextByte);
 1001              		.loc 1 156 0
 1002 0050 FB68     		ldr	r3, [r7, #12]
 1003 0052 0333     		adds	r3, r3, #3
 1004 0054 7968     		ldr	r1, [r7, #4]
 1005 0056 7A69     		ldr	r2, [r7, #20]
 1006 0058 1800     		movs	r0, r3
 1007 005a FFF7FEFF 		bl	PackIntIntoDataMSBFirst
 157:..\CANLib/CANMotorUnit.c **** }
 1008              		.loc 1 157 0
 1009 005e C046     		nop
 1010 0060 BD46     		mov	sp, r7
 1011 0062 06B0     		add	sp, sp, #24
 1012              		@ sp needed
 1013 0064 80BD     		pop	{r7, pc}
 1014              		.cfi_endproc
 1015              	.LFE17:
 1016              		.size	AssembleEncoderPPJRSetPacket, .-AssembleEncoderPPJRSetPacket
 1017 0066 C046     		.section	.text.GetEncoderPPJRFromPacket,"ax",%progbits
 1018              		.align	2
 1019              		.global	GetEncoderPPJRFromPacket
 1020              		.code	16
 1021              		.thumb_func
 1022              		.type	GetEncoderPPJRFromPacket, %function
 1023              	GetEncoderPPJRFromPacket:
 1024              	.LFB18:
 158:..\CANLib/CANMotorUnit.c **** 
 159:..\CANLib/CANMotorUnit.c **** uint32_t GetEncoderPPJRFromPacket(CANPacket *packet)
 160:..\CANLib/CANMotorUnit.c **** {
 1025              		.loc 1 160 0
 1026              		.cfi_startproc
 1027              		@ args = 0, pretend = 0, frame = 8
 1028              		@ frame_needed = 1, uses_anonymous_args = 0
 1029 0000 80B5     		push	{r7, lr}
 1030              		.cfi_def_cfa_offset 8
 1031              		.cfi_offset 7, -8
 1032              		.cfi_offset 14, -4
 1033 0002 82B0     		sub	sp, sp, #8
 1034              		.cfi_def_cfa_offset 16
 1035 0004 00AF     		add	r7, sp, #0
 1036              		.cfi_def_cfa_register 7
 1037 0006 7860     		str	r0, [r7, #4]
ARM GAS  C:\Users\Austcha\AppData\Local\Temp\ccV5xKP9.s 			page 22


 161:..\CANLib/CANMotorUnit.c ****     return DecodeBytesToIntMSBFirst(packet->data, 1, 4);
 1038              		.loc 1 161 0
 1039 0008 7B68     		ldr	r3, [r7, #4]
 1040 000a 0333     		adds	r3, r3, #3
 1041 000c 0422     		movs	r2, #4
 1042 000e 0121     		movs	r1, #1
 1043 0010 1800     		movs	r0, r3
 1044 0012 FFF7FEFF 		bl	DecodeBytesToIntMSBFirst
 1045 0016 0300     		movs	r3, r0
 162:..\CANLib/CANMotorUnit.c **** }
 1046              		.loc 1 162 0
 1047 0018 1800     		movs	r0, r3
 1048 001a BD46     		mov	sp, r7
 1049 001c 02B0     		add	sp, sp, #8
 1050              		@ sp needed
 1051 001e 80BD     		pop	{r7, pc}
 1052              		.cfi_endproc
 1053              	.LFE18:
 1054              		.size	GetEncoderPPJRFromPacket, .-GetEncoderPPJRFromPacket
 1055              		.section	.text.AssembleMaxJointRevolutionPacket,"ax",%progbits
 1056              		.align	2
 1057              		.global	AssembleMaxJointRevolutionPacket
 1058              		.code	16
 1059              		.thumb_func
 1060              		.type	AssembleMaxJointRevolutionPacket, %function
 1061              	AssembleMaxJointRevolutionPacket:
 1062              	.LFB19:
 163:..\CANLib/CANMotorUnit.c **** 
 164:..\CANLib/CANMotorUnit.c **** void AssembleMaxJointRevolutionPacket(CANPacket *packetToAssemble,
 165:..\CANLib/CANMotorUnit.c ****     uint8_t targetDeviceGroup,
 166:..\CANLib/CANMotorUnit.c ****     uint8_t targetDeviceSerial,
 167:..\CANLib/CANMotorUnit.c ****     uint32_t revolutions)
 168:..\CANLib/CANMotorUnit.c **** {
 1063              		.loc 1 168 0
 1064              		.cfi_startproc
 1065              		@ args = 0, pretend = 0, frame = 24
 1066              		@ frame_needed = 1, uses_anonymous_args = 0
 1067 0000 80B5     		push	{r7, lr}
 1068              		.cfi_def_cfa_offset 8
 1069              		.cfi_offset 7, -8
 1070              		.cfi_offset 14, -4
 1071 0002 86B0     		sub	sp, sp, #24
 1072              		.cfi_def_cfa_offset 32
 1073 0004 00AF     		add	r7, sp, #0
 1074              		.cfi_def_cfa_register 7
 1075 0006 F860     		str	r0, [r7, #12]
 1076 0008 0800     		movs	r0, r1
 1077 000a 1100     		movs	r1, r2
 1078 000c 7B60     		str	r3, [r7, #4]
 1079 000e 0B23     		movs	r3, #11
 1080 0010 FB18     		adds	r3, r7, r3
 1081 0012 021C     		adds	r2, r0, #0
 1082 0014 1A70     		strb	r2, [r3]
 1083 0016 0A23     		movs	r3, #10
 1084 0018 FB18     		adds	r3, r7, r3
 1085 001a 0A1C     		adds	r2, r1, #0
 1086 001c 1A70     		strb	r2, [r3]
ARM GAS  C:\Users\Austcha\AppData\Local\Temp\ccV5xKP9.s 			page 23


 169:..\CANLib/CANMotorUnit.c ****     packetToAssemble->id = ConstructCANID(PRIO_MOTOR_UNIT_MAX_JNT_REV_SET, targetDeviceGroup, targe
 1087              		.loc 1 169 0
 1088 001e 0A23     		movs	r3, #10
 1089 0020 FB18     		adds	r3, r7, r3
 1090 0022 1A78     		ldrb	r2, [r3]
 1091 0024 0B23     		movs	r3, #11
 1092 0026 FB18     		adds	r3, r7, r3
 1093 0028 1B78     		ldrb	r3, [r3]
 1094 002a 1900     		movs	r1, r3
 1095 002c 0120     		movs	r0, #1
 1096 002e FFF7FEFF 		bl	ConstructCANID
 1097 0032 0300     		movs	r3, r0
 1098 0034 1A00     		movs	r2, r3
 1099 0036 FB68     		ldr	r3, [r7, #12]
 1100 0038 1A80     		strh	r2, [r3]
 170:..\CANLib/CANMotorUnit.c ****     packetToAssemble->id = DLC_MOTOR_UNIT_MAX_JNT_REV_SET;
 1101              		.loc 1 170 0
 1102 003a FB68     		ldr	r3, [r7, #12]
 1103 003c 0222     		movs	r2, #2
 1104 003e 1A80     		strh	r2, [r3]
 171:..\CANLib/CANMotorUnit.c ****     int nextByte = WritePacketIDOnly(packetToAssemble->data, ID_MOTOR_UNIT_MAX_JNT_REV_SET);
 1105              		.loc 1 171 0
 1106 0040 FB68     		ldr	r3, [r7, #12]
 1107 0042 0333     		adds	r3, r3, #3
 1108 0044 0B21     		movs	r1, #11
 1109 0046 1800     		movs	r0, r3
 1110 0048 FFF7FEFF 		bl	WritePacketIDOnly
 1111 004c 0300     		movs	r3, r0
 1112 004e 7B61     		str	r3, [r7, #20]
 172:..\CANLib/CANMotorUnit.c ****     PackIntIntoDataMSBFirst(packetToAssemble->data, revolutions, nextByte);
 1113              		.loc 1 172 0
 1114 0050 FB68     		ldr	r3, [r7, #12]
 1115 0052 0333     		adds	r3, r3, #3
 1116 0054 7968     		ldr	r1, [r7, #4]
 1117 0056 7A69     		ldr	r2, [r7, #20]
 1118 0058 1800     		movs	r0, r3
 1119 005a FFF7FEFF 		bl	PackIntIntoDataMSBFirst
 173:..\CANLib/CANMotorUnit.c ****     
 174:..\CANLib/CANMotorUnit.c **** }
 1120              		.loc 1 174 0
 1121 005e C046     		nop
 1122 0060 BD46     		mov	sp, r7
 1123 0062 06B0     		add	sp, sp, #24
 1124              		@ sp needed
 1125 0064 80BD     		pop	{r7, pc}
 1126              		.cfi_endproc
 1127              	.LFE19:
 1128              		.size	AssembleMaxJointRevolutionPacket, .-AssembleMaxJointRevolutionPacket
 1129 0066 C046     		.section	.text.GetMaxJointRevolutionsFromPacket,"ax",%progbits
 1130              		.align	2
 1131              		.global	GetMaxJointRevolutionsFromPacket
 1132              		.code	16
 1133              		.thumb_func
 1134              		.type	GetMaxJointRevolutionsFromPacket, %function
 1135              	GetMaxJointRevolutionsFromPacket:
 1136              	.LFB20:
 175:..\CANLib/CANMotorUnit.c **** uint32_t GetMaxJointRevolutionsFromPacket(CANPacket *packet)
ARM GAS  C:\Users\Austcha\AppData\Local\Temp\ccV5xKP9.s 			page 24


 176:..\CANLib/CANMotorUnit.c **** {
 1137              		.loc 1 176 0
 1138              		.cfi_startproc
 1139              		@ args = 0, pretend = 0, frame = 8
 1140              		@ frame_needed = 1, uses_anonymous_args = 0
 1141 0000 80B5     		push	{r7, lr}
 1142              		.cfi_def_cfa_offset 8
 1143              		.cfi_offset 7, -8
 1144              		.cfi_offset 14, -4
 1145 0002 82B0     		sub	sp, sp, #8
 1146              		.cfi_def_cfa_offset 16
 1147 0004 00AF     		add	r7, sp, #0
 1148              		.cfi_def_cfa_register 7
 1149 0006 7860     		str	r0, [r7, #4]
 177:..\CANLib/CANMotorUnit.c ****     return DecodeBytesToIntMSBFirst(packet->data, 1, 4);
 1150              		.loc 1 177 0
 1151 0008 7B68     		ldr	r3, [r7, #4]
 1152 000a 0333     		adds	r3, r3, #3
 1153 000c 0422     		movs	r2, #4
 1154 000e 0121     		movs	r1, #1
 1155 0010 1800     		movs	r0, r3
 1156 0012 FFF7FEFF 		bl	DecodeBytesToIntMSBFirst
 1157 0016 0300     		movs	r3, r0
 178:..\CANLib/CANMotorUnit.c **** }
 1158              		.loc 1 178 0
 1159 0018 1800     		movs	r0, r3
 1160 001a BD46     		mov	sp, r7
 1161 001c 02B0     		add	sp, sp, #8
 1162              		@ sp needed
 1163 001e 80BD     		pop	{r7, pc}
 1164              		.cfi_endproc
 1165              	.LFE20:
 1166              		.size	GetMaxJointRevolutionsFromPacket, .-GetMaxJointRevolutionsFromPacket
 1167              		.text
 1168              	.Letext0:
 1169              		.file 2 "c:\\program files (x86)\\cypress\\psoc creator\\4.3\\psoc creator\\import\\gnu\\arm\\5.4.
 1170              		.file 3 "c:\\program files (x86)\\cypress\\psoc creator\\4.3\\psoc creator\\import\\gnu\\arm\\5.4.
 1171              		.file 4 "..\\CANLib\\CANPacket.h"
 1172              		.section	.debug_info,"",%progbits
 1173              	.Ldebug_info0:
 1174 0000 60060000 		.4byte	0x660
 1175 0004 0400     		.2byte	0x4
 1176 0006 00000000 		.4byte	.Ldebug_abbrev0
 1177 000a 04       		.byte	0x4
 1178 000b 01       		.uleb128 0x1
 1179 000c 00020000 		.4byte	.LASF56
 1180 0010 0C       		.byte	0xc
 1181 0011 09030000 		.4byte	.LASF57
 1182 0015 06000000 		.4byte	.LASF58
 1183 0019 00000000 		.4byte	.Ldebug_ranges0+0
 1184 001d 00000000 		.4byte	0
 1185 0021 00000000 		.4byte	.Ldebug_line0
 1186 0025 02       		.uleb128 0x2
 1187 0026 01       		.byte	0x1
 1188 0027 06       		.byte	0x6
 1189 0028 B5020000 		.4byte	.LASF0
 1190 002c 03       		.uleb128 0x3
ARM GAS  C:\Users\Austcha\AppData\Local\Temp\ccV5xKP9.s 			page 25


 1191 002d E5010000 		.4byte	.LASF3
 1192 0031 02       		.byte	0x2
 1193 0032 1D       		.byte	0x1d
 1194 0033 37000000 		.4byte	0x37
 1195 0037 02       		.uleb128 0x2
 1196 0038 01       		.byte	0x1
 1197 0039 08       		.byte	0x8
 1198 003a A7020000 		.4byte	.LASF1
 1199 003e 02       		.uleb128 0x2
 1200 003f 02       		.byte	0x2
 1201 0040 05       		.byte	0x5
 1202 0041 A3000000 		.4byte	.LASF2
 1203 0045 03       		.uleb128 0x3
 1204 0046 E7000000 		.4byte	.LASF4
 1205 004a 02       		.byte	0x2
 1206 004b 2B       		.byte	0x2b
 1207 004c 50000000 		.4byte	0x50
 1208 0050 02       		.uleb128 0x2
 1209 0051 02       		.byte	0x2
 1210 0052 07       		.byte	0x7
 1211 0053 22030000 		.4byte	.LASF5
 1212 0057 03       		.uleb128 0x3
 1213 0058 D6030000 		.4byte	.LASF6
 1214 005c 02       		.byte	0x2
 1215 005d 3F       		.byte	0x3f
 1216 005e 62000000 		.4byte	0x62
 1217 0062 02       		.uleb128 0x2
 1218 0063 04       		.byte	0x4
 1219 0064 05       		.byte	0x5
 1220 0065 AA010000 		.4byte	.LASF7
 1221 0069 03       		.uleb128 0x3
 1222 006a D7000000 		.4byte	.LASF8
 1223 006e 02       		.byte	0x2
 1224 006f 41       		.byte	0x41
 1225 0070 74000000 		.4byte	0x74
 1226 0074 02       		.uleb128 0x2
 1227 0075 04       		.byte	0x4
 1228 0076 07       		.byte	0x7
 1229 0077 89030000 		.4byte	.LASF9
 1230 007b 02       		.uleb128 0x2
 1231 007c 08       		.byte	0x8
 1232 007d 05       		.byte	0x5
 1233 007e 71010000 		.4byte	.LASF10
 1234 0082 02       		.uleb128 0x2
 1235 0083 08       		.byte	0x8
 1236 0084 07       		.byte	0x7
 1237 0085 C1020000 		.4byte	.LASF11
 1238 0089 04       		.uleb128 0x4
 1239 008a 04       		.byte	0x4
 1240 008b 05       		.byte	0x5
 1241 008c 696E7400 		.ascii	"int\000"
 1242 0090 02       		.uleb128 0x2
 1243 0091 04       		.byte	0x4
 1244 0092 07       		.byte	0x7
 1245 0093 E1020000 		.4byte	.LASF12
 1246 0097 03       		.uleb128 0x3
 1247 0098 36010000 		.4byte	.LASF13
ARM GAS  C:\Users\Austcha\AppData\Local\Temp\ccV5xKP9.s 			page 26


 1248 009c 03       		.byte	0x3
 1249 009d 18       		.byte	0x18
 1250 009e 2C000000 		.4byte	0x2c
 1251 00a2 03       		.uleb128 0x3
 1252 00a3 EE020000 		.4byte	.LASF14
 1253 00a7 03       		.byte	0x3
 1254 00a8 24       		.byte	0x24
 1255 00a9 45000000 		.4byte	0x45
 1256 00ad 03       		.uleb128 0x3
 1257 00ae 5A030000 		.4byte	.LASF15
 1258 00b2 03       		.byte	0x3
 1259 00b3 2C       		.byte	0x2c
 1260 00b4 57000000 		.4byte	0x57
 1261 00b8 03       		.uleb128 0x3
 1262 00b9 D8020000 		.4byte	.LASF16
 1263 00bd 03       		.byte	0x3
 1264 00be 30       		.byte	0x30
 1265 00bf 69000000 		.4byte	0x69
 1266 00c3 05       		.uleb128 0x5
 1267 00c4 0C       		.byte	0xc
 1268 00c5 04       		.byte	0x4
 1269 00c6 0F       		.byte	0xf
 1270 00c7 EF000000 		.4byte	0xef
 1271 00cb 06       		.uleb128 0x6
 1272 00cc 696400   		.ascii	"id\000"
 1273 00cf 04       		.byte	0x4
 1274 00d0 11       		.byte	0x11
 1275 00d1 A2000000 		.4byte	0xa2
 1276 00d5 00       		.byte	0
 1277 00d6 06       		.uleb128 0x6
 1278 00d7 646C6300 		.ascii	"dlc\000"
 1279 00db 04       		.byte	0x4
 1280 00dc 12       		.byte	0x12
 1281 00dd 97000000 		.4byte	0x97
 1282 00e1 02       		.byte	0x2
 1283 00e2 07       		.uleb128 0x7
 1284 00e3 69030000 		.4byte	.LASF17
 1285 00e7 04       		.byte	0x4
 1286 00e8 13       		.byte	0x13
 1287 00e9 EF000000 		.4byte	0xef
 1288 00ed 03       		.byte	0x3
 1289 00ee 00       		.byte	0
 1290 00ef 08       		.uleb128 0x8
 1291 00f0 97000000 		.4byte	0x97
 1292 00f4 FF000000 		.4byte	0xff
 1293 00f8 09       		.uleb128 0x9
 1294 00f9 FF000000 		.4byte	0xff
 1295 00fd 07       		.byte	0x7
 1296 00fe 00       		.byte	0
 1297 00ff 02       		.uleb128 0x2
 1298 0100 04       		.byte	0x4
 1299 0101 07       		.byte	0x7
 1300 0102 BC000000 		.4byte	.LASF18
 1301 0106 03       		.uleb128 0x3
 1302 0107 A0010000 		.4byte	.LASF19
 1303 010b 04       		.byte	0x4
 1304 010c 14       		.byte	0x14
ARM GAS  C:\Users\Austcha\AppData\Local\Temp\ccV5xKP9.s 			page 27


 1305 010d C3000000 		.4byte	0xc3
 1306 0111 0A       		.uleb128 0xa
 1307 0112 CF010000 		.4byte	.LASF25
 1308 0116 01       		.byte	0x1
 1309 0117 0F       		.byte	0xf
 1310 0118 00000000 		.4byte	.LFB0
 1311 011c 64000000 		.4byte	.LFE0-.LFB0
 1312 0120 01       		.uleb128 0x1
 1313 0121 9C       		.byte	0x9c
 1314 0122 6D010000 		.4byte	0x16d
 1315 0126 0B       		.uleb128 0xb
 1316 0127 84000000 		.4byte	.LASF20
 1317 012b 01       		.byte	0x1
 1318 012c 0F       		.byte	0xf
 1319 012d 6D010000 		.4byte	0x16d
 1320 0131 02       		.uleb128 0x2
 1321 0132 91       		.byte	0x91
 1322 0133 64       		.sleb128 -28
 1323 0134 0B       		.uleb128 0xb
 1324 0135 F7020000 		.4byte	.LASF21
 1325 0139 01       		.byte	0x1
 1326 013a 10       		.byte	0x10
 1327 013b 97000000 		.4byte	0x97
 1328 013f 02       		.uleb128 0x2
 1329 0140 91       		.byte	0x91
 1330 0141 63       		.sleb128 -29
 1331 0142 0B       		.uleb128 0xb
 1332 0143 35030000 		.4byte	.LASF22
 1333 0147 01       		.byte	0x1
 1334 0148 11       		.byte	0x11
 1335 0149 97000000 		.4byte	0x97
 1336 014d 02       		.uleb128 0x2
 1337 014e 91       		.byte	0x91
 1338 014f 62       		.sleb128 -30
 1339 0150 0B       		.uleb128 0xb
 1340 0151 E2000000 		.4byte	.LASF23
 1341 0155 01       		.byte	0x1
 1342 0156 12       		.byte	0x12
 1343 0157 97000000 		.4byte	0x97
 1344 015b 02       		.uleb128 0x2
 1345 015c 91       		.byte	0x91
 1346 015d 61       		.sleb128 -31
 1347 015e 0C       		.uleb128 0xc
 1348 015f CE000000 		.4byte	.LASF28
 1349 0163 01       		.byte	0x1
 1350 0164 16       		.byte	0x16
 1351 0165 89000000 		.4byte	0x89
 1352 0169 02       		.uleb128 0x2
 1353 016a 91       		.byte	0x91
 1354 016b 6C       		.sleb128 -20
 1355 016c 00       		.byte	0
 1356 016d 0D       		.uleb128 0xd
 1357 016e 04       		.byte	0x4
 1358 016f 06010000 		.4byte	0x106
 1359 0173 0E       		.uleb128 0xe
 1360 0174 48030000 		.4byte	.LASF29
 1361 0178 01       		.byte	0x1
ARM GAS  C:\Users\Austcha\AppData\Local\Temp\ccV5xKP9.s 			page 28


 1362 0179 1A       		.byte	0x1a
 1363 017a 97000000 		.4byte	0x97
 1364 017e 00000000 		.4byte	.LFB1
 1365 0182 14000000 		.4byte	.LFE1-.LFB1
 1366 0186 01       		.uleb128 0x1
 1367 0187 9C       		.byte	0x9c
 1368 0188 9B010000 		.4byte	0x19b
 1369 018c 0B       		.uleb128 0xb
 1370 018d 4D010000 		.4byte	.LASF24
 1371 0191 01       		.byte	0x1
 1372 0192 1A       		.byte	0x1a
 1373 0193 6D010000 		.4byte	0x16d
 1374 0197 02       		.uleb128 0x2
 1375 0198 91       		.byte	0x91
 1376 0199 74       		.sleb128 -12
 1377 019a 00       		.byte	0
 1378 019b 0A       		.uleb128 0xa
 1379 019c 1E010000 		.4byte	.LASF26
 1380 01a0 01       		.byte	0x1
 1381 01a1 20       		.byte	0x20
 1382 01a2 00000000 		.4byte	.LFB2
 1383 01a6 66000000 		.4byte	.LFE2-.LFB2
 1384 01aa 01       		.uleb128 0x1
 1385 01ab 9C       		.byte	0x9c
 1386 01ac F7010000 		.4byte	0x1f7
 1387 01b0 0B       		.uleb128 0xb
 1388 01b1 84000000 		.4byte	.LASF20
 1389 01b5 01       		.byte	0x1
 1390 01b6 20       		.byte	0x20
 1391 01b7 6D010000 		.4byte	0x16d
 1392 01bb 02       		.uleb128 0x2
 1393 01bc 91       		.byte	0x91
 1394 01bd 6C       		.sleb128 -20
 1395 01be 0B       		.uleb128 0xb
 1396 01bf F7020000 		.4byte	.LASF21
 1397 01c3 01       		.byte	0x1
 1398 01c4 21       		.byte	0x21
 1399 01c5 97000000 		.4byte	0x97
 1400 01c9 02       		.uleb128 0x2
 1401 01ca 91       		.byte	0x91
 1402 01cb 6B       		.sleb128 -21
 1403 01cc 0B       		.uleb128 0xb
 1404 01cd 35030000 		.4byte	.LASF22
 1405 01d1 01       		.byte	0x1
 1406 01d2 22       		.byte	0x22
 1407 01d3 97000000 		.4byte	0x97
 1408 01d7 02       		.uleb128 0x2
 1409 01d8 91       		.byte	0x91
 1410 01d9 6A       		.sleb128 -22
 1411 01da 0B       		.uleb128 0xb
 1412 01db 95000000 		.4byte	.LASF27
 1413 01df 01       		.byte	0x1
 1414 01e0 23       		.byte	0x23
 1415 01e1 AD000000 		.4byte	0xad
 1416 01e5 02       		.uleb128 0x2
 1417 01e6 91       		.byte	0x91
 1418 01e7 64       		.sleb128 -28
ARM GAS  C:\Users\Austcha\AppData\Local\Temp\ccV5xKP9.s 			page 29


 1419 01e8 0C       		.uleb128 0xc
 1420 01e9 CE000000 		.4byte	.LASF28
 1421 01ed 01       		.byte	0x1
 1422 01ee 27       		.byte	0x27
 1423 01ef 89000000 		.4byte	0x89
 1424 01f3 02       		.uleb128 0x2
 1425 01f4 91       		.byte	0x91
 1426 01f5 74       		.sleb128 -12
 1427 01f6 00       		.byte	0
 1428 01f7 0F       		.uleb128 0xf
 1429 01f8 EF010000 		.4byte	.LASF30
 1430 01fc 01       		.byte	0x1
 1431 01fd 2B       		.byte	0x2b
 1432 01fe AD000000 		.4byte	0xad
 1433 0202 00000000 		.4byte	.LFB3
 1434 0206 20000000 		.4byte	.LFE3-.LFB3
 1435 020a 01       		.uleb128 0x1
 1436 020b 9C       		.byte	0x9c
 1437 020c 1F020000 		.4byte	0x21f
 1438 0210 0B       		.uleb128 0xb
 1439 0211 4D010000 		.4byte	.LASF24
 1440 0215 01       		.byte	0x1
 1441 0216 2B       		.byte	0x2b
 1442 0217 6D010000 		.4byte	0x16d
 1443 021b 02       		.uleb128 0x2
 1444 021c 91       		.byte	0x91
 1445 021d 74       		.sleb128 -12
 1446 021e 00       		.byte	0
 1447 021f 0E       		.uleb128 0xe
 1448 0220 01010000 		.4byte	.LASF31
 1449 0224 01       		.byte	0x1
 1450 0225 31       		.byte	0x31
 1451 0226 AD000000 		.4byte	0xad
 1452 022a 00000000 		.4byte	.LFB4
 1453 022e 1E000000 		.4byte	.LFE4-.LFB4
 1454 0232 01       		.uleb128 0x1
 1455 0233 9C       		.byte	0x9c
 1456 0234 47020000 		.4byte	0x247
 1457 0238 0B       		.uleb128 0xb
 1458 0239 4D010000 		.4byte	.LASF24
 1459 023d 01       		.byte	0x1
 1460 023e 31       		.byte	0x31
 1461 023f 6D010000 		.4byte	0x16d
 1462 0243 02       		.uleb128 0x2
 1463 0244 91       		.byte	0x91
 1464 0245 74       		.sleb128 -12
 1465 0246 00       		.byte	0
 1466 0247 0A       		.uleb128 0xa
 1467 0248 6E030000 		.4byte	.LASF32
 1468 024c 01       		.byte	0x1
 1469 024d 36       		.byte	0x36
 1470 024e 00000000 		.4byte	.LFB5
 1471 0252 66000000 		.4byte	.LFE5-.LFB5
 1472 0256 01       		.uleb128 0x1
 1473 0257 9C       		.byte	0x9c
 1474 0258 A3020000 		.4byte	0x2a3
 1475 025c 0B       		.uleb128 0xb
ARM GAS  C:\Users\Austcha\AppData\Local\Temp\ccV5xKP9.s 			page 30


 1476 025d 84000000 		.4byte	.LASF20
 1477 0261 01       		.byte	0x1
 1478 0262 36       		.byte	0x36
 1479 0263 6D010000 		.4byte	0x16d
 1480 0267 02       		.uleb128 0x2
 1481 0268 91       		.byte	0x91
 1482 0269 6C       		.sleb128 -20
 1483 026a 0B       		.uleb128 0xb
 1484 026b F7020000 		.4byte	.LASF21
 1485 026f 01       		.byte	0x1
 1486 0270 37       		.byte	0x37
 1487 0271 97000000 		.4byte	0x97
 1488 0275 02       		.uleb128 0x2
 1489 0276 91       		.byte	0x91
 1490 0277 6B       		.sleb128 -21
 1491 0278 0B       		.uleb128 0xb
 1492 0279 35030000 		.4byte	.LASF22
 1493 027d 01       		.byte	0x1
 1494 027e 38       		.byte	0x38
 1495 027f 97000000 		.4byte	0x97
 1496 0283 02       		.uleb128 0x2
 1497 0284 91       		.byte	0x91
 1498 0285 6A       		.sleb128 -22
 1499 0286 0B       		.uleb128 0xb
 1500 0287 9C000000 		.4byte	.LASF33
 1501 028b 01       		.byte	0x1
 1502 028c 39       		.byte	0x39
 1503 028d AD000000 		.4byte	0xad
 1504 0291 02       		.uleb128 0x2
 1505 0292 91       		.byte	0x91
 1506 0293 64       		.sleb128 -28
 1507 0294 0C       		.uleb128 0xc
 1508 0295 CE000000 		.4byte	.LASF28
 1509 0299 01       		.byte	0x1
 1510 029a 3D       		.byte	0x3d
 1511 029b 89000000 		.4byte	0x89
 1512 029f 02       		.uleb128 0x2
 1513 02a0 91       		.byte	0x91
 1514 02a1 74       		.sleb128 -12
 1515 02a2 00       		.byte	0
 1516 02a3 0F       		.uleb128 0xf
 1517 02a4 1A040000 		.4byte	.LASF34
 1518 02a8 01       		.byte	0x1
 1519 02a9 41       		.byte	0x41
 1520 02aa 97000000 		.4byte	0x97
 1521 02ae 00000000 		.4byte	.LFB6
 1522 02b2 22000000 		.4byte	.LFE6-.LFB6
 1523 02b6 01       		.uleb128 0x1
 1524 02b7 9C       		.byte	0x9c
 1525 02b8 CB020000 		.4byte	0x2cb
 1526 02bc 0B       		.uleb128 0xb
 1527 02bd 4D010000 		.4byte	.LASF24
 1528 02c1 01       		.byte	0x1
 1529 02c2 41       		.byte	0x41
 1530 02c3 6D010000 		.4byte	0x16d
 1531 02c7 02       		.uleb128 0x2
 1532 02c8 91       		.byte	0x91
ARM GAS  C:\Users\Austcha\AppData\Local\Temp\ccV5xKP9.s 			page 31


 1533 02c9 74       		.sleb128 -12
 1534 02ca 00       		.byte	0
 1535 02cb 0A       		.uleb128 0xa
 1536 02cc B3010000 		.4byte	.LASF35
 1537 02d0 01       		.byte	0x1
 1538 02d1 46       		.byte	0x46
 1539 02d2 00000000 		.4byte	.LFB7
 1540 02d6 66000000 		.4byte	.LFE7-.LFB7
 1541 02da 01       		.uleb128 0x1
 1542 02db 9C       		.byte	0x9c
 1543 02dc 27030000 		.4byte	0x327
 1544 02e0 0B       		.uleb128 0xb
 1545 02e1 84000000 		.4byte	.LASF20
 1546 02e5 01       		.byte	0x1
 1547 02e6 46       		.byte	0x46
 1548 02e7 6D010000 		.4byte	0x16d
 1549 02eb 02       		.uleb128 0x2
 1550 02ec 91       		.byte	0x91
 1551 02ed 6C       		.sleb128 -20
 1552 02ee 0B       		.uleb128 0xb
 1553 02ef F7020000 		.4byte	.LASF21
 1554 02f3 01       		.byte	0x1
 1555 02f4 47       		.byte	0x47
 1556 02f5 97000000 		.4byte	0x97
 1557 02f9 02       		.uleb128 0x2
 1558 02fa 91       		.byte	0x91
 1559 02fb 6B       		.sleb128 -21
 1560 02fc 0B       		.uleb128 0xb
 1561 02fd 35030000 		.4byte	.LASF22
 1562 0301 01       		.byte	0x1
 1563 0302 48       		.byte	0x48
 1564 0303 97000000 		.4byte	0x97
 1565 0307 02       		.uleb128 0x2
 1566 0308 91       		.byte	0x91
 1567 0309 6A       		.sleb128 -22
 1568 030a 0B       		.uleb128 0xb
 1569 030b 18010000 		.4byte	.LASF36
 1570 030f 01       		.byte	0x1
 1571 0310 49       		.byte	0x49
 1572 0311 AD000000 		.4byte	0xad
 1573 0315 02       		.uleb128 0x2
 1574 0316 91       		.byte	0x91
 1575 0317 64       		.sleb128 -28
 1576 0318 0C       		.uleb128 0xc
 1577 0319 CE000000 		.4byte	.LASF28
 1578 031d 01       		.byte	0x1
 1579 031e 4D       		.byte	0x4d
 1580 031f 89000000 		.4byte	0x89
 1581 0323 02       		.uleb128 0x2
 1582 0324 91       		.byte	0x91
 1583 0325 74       		.sleb128 -12
 1584 0326 00       		.byte	0
 1585 0327 0F       		.uleb128 0xf
 1586 0328 AD000000 		.4byte	.LASF37
 1587 032c 01       		.byte	0x1
 1588 032d 51       		.byte	0x51
 1589 032e AD000000 		.4byte	0xad
ARM GAS  C:\Users\Austcha\AppData\Local\Temp\ccV5xKP9.s 			page 32


 1590 0332 00000000 		.4byte	.LFB8
 1591 0336 20000000 		.4byte	.LFE8-.LFB8
 1592 033a 01       		.uleb128 0x1
 1593 033b 9C       		.byte	0x9c
 1594 033c 4F030000 		.4byte	0x34f
 1595 0340 0B       		.uleb128 0xb
 1596 0341 4D010000 		.4byte	.LASF24
 1597 0345 01       		.byte	0x1
 1598 0346 51       		.byte	0x51
 1599 0347 6D010000 		.4byte	0x16d
 1600 034b 02       		.uleb128 0x2
 1601 034c 91       		.byte	0x91
 1602 034d 74       		.sleb128 -12
 1603 034e 00       		.byte	0
 1604 034f 0A       		.uleb128 0xa
 1605 0350 31040000 		.4byte	.LASF38
 1606 0354 01       		.byte	0x1
 1607 0355 56       		.byte	0x56
 1608 0356 00000000 		.4byte	.LFB9
 1609 035a 66000000 		.4byte	.LFE9-.LFB9
 1610 035e 01       		.uleb128 0x1
 1611 035f 9C       		.byte	0x9c
 1612 0360 AB030000 		.4byte	0x3ab
 1613 0364 0B       		.uleb128 0xb
 1614 0365 84000000 		.4byte	.LASF20
 1615 0369 01       		.byte	0x1
 1616 036a 56       		.byte	0x56
 1617 036b 6D010000 		.4byte	0x16d
 1618 036f 02       		.uleb128 0x2
 1619 0370 91       		.byte	0x91
 1620 0371 6C       		.sleb128 -20
 1621 0372 0B       		.uleb128 0xb
 1622 0373 F7020000 		.4byte	.LASF21
 1623 0377 01       		.byte	0x1
 1624 0378 57       		.byte	0x57
 1625 0379 97000000 		.4byte	0x97
 1626 037d 02       		.uleb128 0x2
 1627 037e 91       		.byte	0x91
 1628 037f 6B       		.sleb128 -21
 1629 0380 0B       		.uleb128 0xb
 1630 0381 35030000 		.4byte	.LASF22
 1631 0385 01       		.byte	0x1
 1632 0386 58       		.byte	0x58
 1633 0387 97000000 		.4byte	0x97
 1634 038b 02       		.uleb128 0x2
 1635 038c 91       		.byte	0x91
 1636 038d 6A       		.sleb128 -22
 1637 038e 0B       		.uleb128 0xb
 1638 038f 9B030000 		.4byte	.LASF39
 1639 0393 01       		.byte	0x1
 1640 0394 59       		.byte	0x59
 1641 0395 AD000000 		.4byte	0xad
 1642 0399 02       		.uleb128 0x2
 1643 039a 91       		.byte	0x91
 1644 039b 64       		.sleb128 -28
 1645 039c 0C       		.uleb128 0xc
 1646 039d CE000000 		.4byte	.LASF28
ARM GAS  C:\Users\Austcha\AppData\Local\Temp\ccV5xKP9.s 			page 33


 1647 03a1 01       		.byte	0x1
 1648 03a2 5D       		.byte	0x5d
 1649 03a3 89000000 		.4byte	0x89
 1650 03a7 02       		.uleb128 0x2
 1651 03a8 91       		.byte	0x91
 1652 03a9 74       		.sleb128 -12
 1653 03aa 00       		.byte	0
 1654 03ab 0F       		.uleb128 0xf
 1655 03ac F2000000 		.4byte	.LASF40
 1656 03b0 01       		.byte	0x1
 1657 03b1 61       		.byte	0x61
 1658 03b2 AD000000 		.4byte	0xad
 1659 03b6 00000000 		.4byte	.LFB10
 1660 03ba 20000000 		.4byte	.LFE10-.LFB10
 1661 03be 01       		.uleb128 0x1
 1662 03bf 9C       		.byte	0x9c
 1663 03c0 D3030000 		.4byte	0x3d3
 1664 03c4 0B       		.uleb128 0xb
 1665 03c5 4D010000 		.4byte	.LASF24
 1666 03c9 01       		.byte	0x1
 1667 03ca 61       		.byte	0x61
 1668 03cb 6D010000 		.4byte	0x16d
 1669 03cf 02       		.uleb128 0x2
 1670 03d0 91       		.byte	0x91
 1671 03d1 74       		.sleb128 -12
 1672 03d2 00       		.byte	0
 1673 03d3 0A       		.uleb128 0xa
 1674 03d4 44040000 		.4byte	.LASF41
 1675 03d8 01       		.byte	0x1
 1676 03d9 66       		.byte	0x66
 1677 03da 00000000 		.4byte	.LFB11
 1678 03de 66000000 		.4byte	.LFE11-.LFB11
 1679 03e2 01       		.uleb128 0x1
 1680 03e3 9C       		.byte	0x9c
 1681 03e4 2F040000 		.4byte	0x42f
 1682 03e8 0B       		.uleb128 0xb
 1683 03e9 84000000 		.4byte	.LASF20
 1684 03ed 01       		.byte	0x1
 1685 03ee 66       		.byte	0x66
 1686 03ef 6D010000 		.4byte	0x16d
 1687 03f3 02       		.uleb128 0x2
 1688 03f4 91       		.byte	0x91
 1689 03f5 6C       		.sleb128 -20
 1690 03f6 0B       		.uleb128 0xb
 1691 03f7 F7020000 		.4byte	.LASF21
 1692 03fb 01       		.byte	0x1
 1693 03fc 67       		.byte	0x67
 1694 03fd 97000000 		.4byte	0x97
 1695 0401 02       		.uleb128 0x2
 1696 0402 91       		.byte	0x91
 1697 0403 6B       		.sleb128 -21
 1698 0404 0B       		.uleb128 0xb
 1699 0405 35030000 		.4byte	.LASF22
 1700 0409 01       		.byte	0x1
 1701 040a 68       		.byte	0x68
 1702 040b 97000000 		.4byte	0x97
 1703 040f 02       		.uleb128 0x2
ARM GAS  C:\Users\Austcha\AppData\Local\Temp\ccV5xKP9.s 			page 34


 1704 0410 91       		.byte	0x91
 1705 0411 6A       		.sleb128 -22
 1706 0412 0B       		.uleb128 0xb
 1707 0413 00000000 		.4byte	.LASF42
 1708 0417 01       		.byte	0x1
 1709 0418 69       		.byte	0x69
 1710 0419 AD000000 		.4byte	0xad
 1711 041d 02       		.uleb128 0x2
 1712 041e 91       		.byte	0x91
 1713 041f 64       		.sleb128 -28
 1714 0420 0C       		.uleb128 0xc
 1715 0421 CE000000 		.4byte	.LASF28
 1716 0425 01       		.byte	0x1
 1717 0426 6D       		.byte	0x6d
 1718 0427 89000000 		.4byte	0x89
 1719 042b 02       		.uleb128 0x2
 1720 042c 91       		.byte	0x91
 1721 042d 74       		.sleb128 -12
 1722 042e 00       		.byte	0
 1723 042f 0F       		.uleb128 0xf
 1724 0430 3E010000 		.4byte	.LASF43
 1725 0434 01       		.byte	0x1
 1726 0435 71       		.byte	0x71
 1727 0436 AD000000 		.4byte	0xad
 1728 043a 00000000 		.4byte	.LFB12
 1729 043e 20000000 		.4byte	.LFE12-.LFB12
 1730 0442 01       		.uleb128 0x1
 1731 0443 9C       		.byte	0x9c
 1732 0444 57040000 		.4byte	0x457
 1733 0448 0B       		.uleb128 0xb
 1734 0449 4D010000 		.4byte	.LASF24
 1735 044d 01       		.byte	0x1
 1736 044e 71       		.byte	0x71
 1737 044f 6D010000 		.4byte	0x16d
 1738 0453 02       		.uleb128 0x2
 1739 0454 91       		.byte	0x91
 1740 0455 74       		.sleb128 -12
 1741 0456 00       		.byte	0
 1742 0457 0A       		.uleb128 0xa
 1743 0458 E0030000 		.4byte	.LASF44
 1744 045c 01       		.byte	0x1
 1745 045d 76       		.byte	0x76
 1746 045e 00000000 		.4byte	.LFB13
 1747 0462 64000000 		.4byte	.LFE13-.LFB13
 1748 0466 01       		.uleb128 0x1
 1749 0467 9C       		.byte	0x9c
 1750 0468 B3040000 		.4byte	0x4b3
 1751 046c 0B       		.uleb128 0xb
 1752 046d 84000000 		.4byte	.LASF20
 1753 0471 01       		.byte	0x1
 1754 0472 76       		.byte	0x76
 1755 0473 6D010000 		.4byte	0x16d
 1756 0477 02       		.uleb128 0x2
 1757 0478 91       		.byte	0x91
 1758 0479 64       		.sleb128 -28
 1759 047a 0B       		.uleb128 0xb
 1760 047b F7020000 		.4byte	.LASF21
ARM GAS  C:\Users\Austcha\AppData\Local\Temp\ccV5xKP9.s 			page 35


 1761 047f 01       		.byte	0x1
 1762 0480 77       		.byte	0x77
 1763 0481 97000000 		.4byte	0x97
 1764 0485 02       		.uleb128 0x2
 1765 0486 91       		.byte	0x91
 1766 0487 63       		.sleb128 -29
 1767 0488 0B       		.uleb128 0xb
 1768 0489 35030000 		.4byte	.LASF22
 1769 048d 01       		.byte	0x1
 1770 048e 78       		.byte	0x78
 1771 048f 97000000 		.4byte	0x97
 1772 0493 02       		.uleb128 0x2
 1773 0494 91       		.byte	0x91
 1774 0495 62       		.sleb128 -30
 1775 0496 0B       		.uleb128 0xb
 1776 0497 C5000000 		.4byte	.LASF45
 1777 049b 01       		.byte	0x1
 1778 049c 79       		.byte	0x79
 1779 049d 97000000 		.4byte	0x97
 1780 04a1 02       		.uleb128 0x2
 1781 04a2 91       		.byte	0x91
 1782 04a3 61       		.sleb128 -31
 1783 04a4 0C       		.uleb128 0xc
 1784 04a5 CE000000 		.4byte	.LASF28
 1785 04a9 01       		.byte	0x1
 1786 04aa 7D       		.byte	0x7d
 1787 04ab 89000000 		.4byte	0x89
 1788 04af 02       		.uleb128 0x2
 1789 04b0 91       		.byte	0x91
 1790 04b1 6C       		.sleb128 -20
 1791 04b2 00       		.byte	0
 1792 04b3 0E       		.uleb128 0xe
 1793 04b4 C0030000 		.4byte	.LASF46
 1794 04b8 01       		.byte	0x1
 1795 04b9 80       		.byte	0x80
 1796 04ba 97000000 		.4byte	0x97
 1797 04be 00000000 		.4byte	.LFB14
 1798 04c2 14000000 		.4byte	.LFE14-.LFB14
 1799 04c6 01       		.uleb128 0x1
 1800 04c7 9C       		.byte	0x9c
 1801 04c8 DB040000 		.4byte	0x4db
 1802 04cc 0B       		.uleb128 0xb
 1803 04cd 4D010000 		.4byte	.LASF24
 1804 04d1 01       		.byte	0x1
 1805 04d2 80       		.byte	0x80
 1806 04d3 6D010000 		.4byte	0x16d
 1807 04d7 02       		.uleb128 0x2
 1808 04d8 91       		.byte	0x91
 1809 04d9 74       		.sleb128 -12
 1810 04da 00       		.byte	0
 1811 04db 0A       		.uleb128 0xa
 1812 04dc A1030000 		.4byte	.LASF47
 1813 04e0 01       		.byte	0x1
 1814 04e1 85       		.byte	0x85
 1815 04e2 00000000 		.4byte	.LFB15
 1816 04e6 64000000 		.4byte	.LFE15-.LFB15
 1817 04ea 01       		.uleb128 0x1
ARM GAS  C:\Users\Austcha\AppData\Local\Temp\ccV5xKP9.s 			page 36


 1818 04eb 9C       		.byte	0x9c
 1819 04ec 37050000 		.4byte	0x537
 1820 04f0 0B       		.uleb128 0xb
 1821 04f1 84000000 		.4byte	.LASF20
 1822 04f5 01       		.byte	0x1
 1823 04f6 85       		.byte	0x85
 1824 04f7 6D010000 		.4byte	0x16d
 1825 04fb 02       		.uleb128 0x2
 1826 04fc 91       		.byte	0x91
 1827 04fd 64       		.sleb128 -28
 1828 04fe 0B       		.uleb128 0xb
 1829 04ff F7020000 		.4byte	.LASF21
 1830 0503 01       		.byte	0x1
 1831 0504 86       		.byte	0x86
 1832 0505 97000000 		.4byte	0x97
 1833 0509 02       		.uleb128 0x2
 1834 050a 91       		.byte	0x91
 1835 050b 63       		.sleb128 -29
 1836 050c 0B       		.uleb128 0xb
 1837 050d 35030000 		.4byte	.LASF22
 1838 0511 01       		.byte	0x1
 1839 0512 87       		.byte	0x87
 1840 0513 97000000 		.4byte	0x97
 1841 0517 02       		.uleb128 0x2
 1842 0518 91       		.byte	0x91
 1843 0519 62       		.sleb128 -30
 1844 051a 0B       		.uleb128 0xb
 1845 051b C6010000 		.4byte	.LASF48
 1846 051f 01       		.byte	0x1
 1847 0520 88       		.byte	0x88
 1848 0521 97000000 		.4byte	0x97
 1849 0525 02       		.uleb128 0x2
 1850 0526 91       		.byte	0x91
 1851 0527 61       		.sleb128 -31
 1852 0528 0C       		.uleb128 0xc
 1853 0529 CE000000 		.4byte	.LASF28
 1854 052d 01       		.byte	0x1
 1855 052e 8C       		.byte	0x8c
 1856 052f 89000000 		.4byte	0x89
 1857 0533 02       		.uleb128 0x2
 1858 0534 91       		.byte	0x91
 1859 0535 6C       		.sleb128 -20
 1860 0536 00       		.byte	0
 1861 0537 0E       		.uleb128 0xe
 1862 0538 63040000 		.4byte	.LASF49
 1863 053c 01       		.byte	0x1
 1864 053d 8F       		.byte	0x8f
 1865 053e 97000000 		.4byte	0x97
 1866 0542 00000000 		.4byte	.LFB16
 1867 0546 14000000 		.4byte	.LFE16-.LFB16
 1868 054a 01       		.uleb128 0x1
 1869 054b 9C       		.byte	0x9c
 1870 054c 5F050000 		.4byte	0x55f
 1871 0550 0B       		.uleb128 0xb
 1872 0551 4D010000 		.4byte	.LASF24
 1873 0555 01       		.byte	0x1
 1874 0556 8F       		.byte	0x8f
ARM GAS  C:\Users\Austcha\AppData\Local\Temp\ccV5xKP9.s 			page 37


 1875 0557 6D010000 		.4byte	0x16d
 1876 055b 02       		.uleb128 0x2
 1877 055c 91       		.byte	0x91
 1878 055d 74       		.sleb128 -12
 1879 055e 00       		.byte	0
 1880 055f 0A       		.uleb128 0xa
 1881 0560 54010000 		.4byte	.LASF50
 1882 0564 01       		.byte	0x1
 1883 0565 94       		.byte	0x94
 1884 0566 00000000 		.4byte	.LFB17
 1885 056a 66000000 		.4byte	.LFE17-.LFB17
 1886 056e 01       		.uleb128 0x1
 1887 056f 9C       		.byte	0x9c
 1888 0570 BB050000 		.4byte	0x5bb
 1889 0574 0B       		.uleb128 0xb
 1890 0575 84000000 		.4byte	.LASF20
 1891 0579 01       		.byte	0x1
 1892 057a 94       		.byte	0x94
 1893 057b 6D010000 		.4byte	0x16d
 1894 057f 02       		.uleb128 0x2
 1895 0580 91       		.byte	0x91
 1896 0581 6C       		.sleb128 -20
 1897 0582 0B       		.uleb128 0xb
 1898 0583 F7020000 		.4byte	.LASF21
 1899 0587 01       		.byte	0x1
 1900 0588 95       		.byte	0x95
 1901 0589 97000000 		.4byte	0x97
 1902 058d 02       		.uleb128 0x2
 1903 058e 91       		.byte	0x91
 1904 058f 6B       		.sleb128 -21
 1905 0590 0B       		.uleb128 0xb
 1906 0591 35030000 		.4byte	.LASF22
 1907 0595 01       		.byte	0x1
 1908 0596 96       		.byte	0x96
 1909 0597 97000000 		.4byte	0x97
 1910 059b 02       		.uleb128 0x2
 1911 059c 91       		.byte	0x91
 1912 059d 6A       		.sleb128 -22
 1913 059e 0B       		.uleb128 0xb
 1914 059f 62030000 		.4byte	.LASF51
 1915 05a3 01       		.byte	0x1
 1916 05a4 97       		.byte	0x97
 1917 05a5 B8000000 		.4byte	0xb8
 1918 05a9 02       		.uleb128 0x2
 1919 05aa 91       		.byte	0x91
 1920 05ab 64       		.sleb128 -28
 1921 05ac 0C       		.uleb128 0xc
 1922 05ad CE000000 		.4byte	.LASF28
 1923 05b1 01       		.byte	0x1
 1924 05b2 9B       		.byte	0x9b
 1925 05b3 89000000 		.4byte	0x89
 1926 05b7 02       		.uleb128 0x2
 1927 05b8 91       		.byte	0x91
 1928 05b9 74       		.sleb128 -12
 1929 05ba 00       		.byte	0
 1930 05bb 0F       		.uleb128 0xf
 1931 05bc 8E020000 		.4byte	.LASF52
ARM GAS  C:\Users\Austcha\AppData\Local\Temp\ccV5xKP9.s 			page 38


 1932 05c0 01       		.byte	0x1
 1933 05c1 9F       		.byte	0x9f
 1934 05c2 B8000000 		.4byte	0xb8
 1935 05c6 00000000 		.4byte	.LFB18
 1936 05ca 20000000 		.4byte	.LFE18-.LFB18
 1937 05ce 01       		.uleb128 0x1
 1938 05cf 9C       		.byte	0x9c
 1939 05d0 E3050000 		.4byte	0x5e3
 1940 05d4 0B       		.uleb128 0xb
 1941 05d5 4D010000 		.4byte	.LASF24
 1942 05d9 01       		.byte	0x1
 1943 05da 9F       		.byte	0x9f
 1944 05db 6D010000 		.4byte	0x16d
 1945 05df 02       		.uleb128 0x2
 1946 05e0 91       		.byte	0x91
 1947 05e1 74       		.sleb128 -12
 1948 05e2 00       		.byte	0
 1949 05e3 0A       		.uleb128 0xa
 1950 05e4 F9030000 		.4byte	.LASF53
 1951 05e8 01       		.byte	0x1
 1952 05e9 A4       		.byte	0xa4
 1953 05ea 00000000 		.4byte	.LFB19
 1954 05ee 66000000 		.4byte	.LFE19-.LFB19
 1955 05f2 01       		.uleb128 0x1
 1956 05f3 9C       		.byte	0x9c
 1957 05f4 3F060000 		.4byte	0x63f
 1958 05f8 0B       		.uleb128 0xb
 1959 05f9 84000000 		.4byte	.LASF20
 1960 05fd 01       		.byte	0x1
 1961 05fe A4       		.byte	0xa4
 1962 05ff 6D010000 		.4byte	0x16d
 1963 0603 02       		.uleb128 0x2
 1964 0604 91       		.byte	0x91
 1965 0605 6C       		.sleb128 -20
 1966 0606 0B       		.uleb128 0xb
 1967 0607 F7020000 		.4byte	.LASF21
 1968 060b 01       		.byte	0x1
 1969 060c A5       		.byte	0xa5
 1970 060d 97000000 		.4byte	0x97
 1971 0611 02       		.uleb128 0x2
 1972 0612 91       		.byte	0x91
 1973 0613 6B       		.sleb128 -21
 1974 0614 0B       		.uleb128 0xb
 1975 0615 35030000 		.4byte	.LASF22
 1976 0619 01       		.byte	0x1
 1977 061a A6       		.byte	0xa6
 1978 061b 97000000 		.4byte	0x97
 1979 061f 02       		.uleb128 0x2
 1980 0620 91       		.byte	0x91
 1981 0621 6A       		.sleb128 -22
 1982 0622 0B       		.uleb128 0xb
 1983 0623 57040000 		.4byte	.LASF54
 1984 0627 01       		.byte	0x1
 1985 0628 A7       		.byte	0xa7
 1986 0629 B8000000 		.4byte	0xb8
 1987 062d 02       		.uleb128 0x2
 1988 062e 91       		.byte	0x91
ARM GAS  C:\Users\Austcha\AppData\Local\Temp\ccV5xKP9.s 			page 39


 1989 062f 64       		.sleb128 -28
 1990 0630 0C       		.uleb128 0xc
 1991 0631 CE000000 		.4byte	.LASF28
 1992 0635 01       		.byte	0x1
 1993 0636 AB       		.byte	0xab
 1994 0637 89000000 		.4byte	0x89
 1995 063b 02       		.uleb128 0x2
 1996 063c 91       		.byte	0x91
 1997 063d 74       		.sleb128 -12
 1998 063e 00       		.byte	0
 1999 063f 10       		.uleb128 0x10
 2000 0640 7F010000 		.4byte	.LASF55
 2001 0644 01       		.byte	0x1
 2002 0645 AF       		.byte	0xaf
 2003 0646 B8000000 		.4byte	0xb8
 2004 064a 00000000 		.4byte	.LFB20
 2005 064e 20000000 		.4byte	.LFE20-.LFB20
 2006 0652 01       		.uleb128 0x1
 2007 0653 9C       		.byte	0x9c
 2008 0654 0B       		.uleb128 0xb
 2009 0655 4D010000 		.4byte	.LASF24
 2010 0659 01       		.byte	0x1
 2011 065a AF       		.byte	0xaf
 2012 065b 6D010000 		.4byte	0x16d
 2013 065f 02       		.uleb128 0x2
 2014 0660 91       		.byte	0x91
 2015 0661 74       		.sleb128 -12
 2016 0662 00       		.byte	0
 2017 0663 00       		.byte	0
 2018              		.section	.debug_abbrev,"",%progbits
 2019              	.Ldebug_abbrev0:
 2020 0000 01       		.uleb128 0x1
 2021 0001 11       		.uleb128 0x11
 2022 0002 01       		.byte	0x1
 2023 0003 25       		.uleb128 0x25
 2024 0004 0E       		.uleb128 0xe
 2025 0005 13       		.uleb128 0x13
 2026 0006 0B       		.uleb128 0xb
 2027 0007 03       		.uleb128 0x3
 2028 0008 0E       		.uleb128 0xe
 2029 0009 1B       		.uleb128 0x1b
 2030 000a 0E       		.uleb128 0xe
 2031 000b 55       		.uleb128 0x55
 2032 000c 17       		.uleb128 0x17
 2033 000d 11       		.uleb128 0x11
 2034 000e 01       		.uleb128 0x1
 2035 000f 10       		.uleb128 0x10
 2036 0010 17       		.uleb128 0x17
 2037 0011 00       		.byte	0
 2038 0012 00       		.byte	0
 2039 0013 02       		.uleb128 0x2
 2040 0014 24       		.uleb128 0x24
 2041 0015 00       		.byte	0
 2042 0016 0B       		.uleb128 0xb
 2043 0017 0B       		.uleb128 0xb
 2044 0018 3E       		.uleb128 0x3e
 2045 0019 0B       		.uleb128 0xb
ARM GAS  C:\Users\Austcha\AppData\Local\Temp\ccV5xKP9.s 			page 40


 2046 001a 03       		.uleb128 0x3
 2047 001b 0E       		.uleb128 0xe
 2048 001c 00       		.byte	0
 2049 001d 00       		.byte	0
 2050 001e 03       		.uleb128 0x3
 2051 001f 16       		.uleb128 0x16
 2052 0020 00       		.byte	0
 2053 0021 03       		.uleb128 0x3
 2054 0022 0E       		.uleb128 0xe
 2055 0023 3A       		.uleb128 0x3a
 2056 0024 0B       		.uleb128 0xb
 2057 0025 3B       		.uleb128 0x3b
 2058 0026 0B       		.uleb128 0xb
 2059 0027 49       		.uleb128 0x49
 2060 0028 13       		.uleb128 0x13
 2061 0029 00       		.byte	0
 2062 002a 00       		.byte	0
 2063 002b 04       		.uleb128 0x4
 2064 002c 24       		.uleb128 0x24
 2065 002d 00       		.byte	0
 2066 002e 0B       		.uleb128 0xb
 2067 002f 0B       		.uleb128 0xb
 2068 0030 3E       		.uleb128 0x3e
 2069 0031 0B       		.uleb128 0xb
 2070 0032 03       		.uleb128 0x3
 2071 0033 08       		.uleb128 0x8
 2072 0034 00       		.byte	0
 2073 0035 00       		.byte	0
 2074 0036 05       		.uleb128 0x5
 2075 0037 13       		.uleb128 0x13
 2076 0038 01       		.byte	0x1
 2077 0039 0B       		.uleb128 0xb
 2078 003a 0B       		.uleb128 0xb
 2079 003b 3A       		.uleb128 0x3a
 2080 003c 0B       		.uleb128 0xb
 2081 003d 3B       		.uleb128 0x3b
 2082 003e 0B       		.uleb128 0xb
 2083 003f 01       		.uleb128 0x1
 2084 0040 13       		.uleb128 0x13
 2085 0041 00       		.byte	0
 2086 0042 00       		.byte	0
 2087 0043 06       		.uleb128 0x6
 2088 0044 0D       		.uleb128 0xd
 2089 0045 00       		.byte	0
 2090 0046 03       		.uleb128 0x3
 2091 0047 08       		.uleb128 0x8
 2092 0048 3A       		.uleb128 0x3a
 2093 0049 0B       		.uleb128 0xb
 2094 004a 3B       		.uleb128 0x3b
 2095 004b 0B       		.uleb128 0xb
 2096 004c 49       		.uleb128 0x49
 2097 004d 13       		.uleb128 0x13
 2098 004e 38       		.uleb128 0x38
 2099 004f 0B       		.uleb128 0xb
 2100 0050 00       		.byte	0
 2101 0051 00       		.byte	0
 2102 0052 07       		.uleb128 0x7
ARM GAS  C:\Users\Austcha\AppData\Local\Temp\ccV5xKP9.s 			page 41


 2103 0053 0D       		.uleb128 0xd
 2104 0054 00       		.byte	0
 2105 0055 03       		.uleb128 0x3
 2106 0056 0E       		.uleb128 0xe
 2107 0057 3A       		.uleb128 0x3a
 2108 0058 0B       		.uleb128 0xb
 2109 0059 3B       		.uleb128 0x3b
 2110 005a 0B       		.uleb128 0xb
 2111 005b 49       		.uleb128 0x49
 2112 005c 13       		.uleb128 0x13
 2113 005d 38       		.uleb128 0x38
 2114 005e 0B       		.uleb128 0xb
 2115 005f 00       		.byte	0
 2116 0060 00       		.byte	0
 2117 0061 08       		.uleb128 0x8
 2118 0062 01       		.uleb128 0x1
 2119 0063 01       		.byte	0x1
 2120 0064 49       		.uleb128 0x49
 2121 0065 13       		.uleb128 0x13
 2122 0066 01       		.uleb128 0x1
 2123 0067 13       		.uleb128 0x13
 2124 0068 00       		.byte	0
 2125 0069 00       		.byte	0
 2126 006a 09       		.uleb128 0x9
 2127 006b 21       		.uleb128 0x21
 2128 006c 00       		.byte	0
 2129 006d 49       		.uleb128 0x49
 2130 006e 13       		.uleb128 0x13
 2131 006f 2F       		.uleb128 0x2f
 2132 0070 0B       		.uleb128 0xb
 2133 0071 00       		.byte	0
 2134 0072 00       		.byte	0
 2135 0073 0A       		.uleb128 0xa
 2136 0074 2E       		.uleb128 0x2e
 2137 0075 01       		.byte	0x1
 2138 0076 3F       		.uleb128 0x3f
 2139 0077 19       		.uleb128 0x19
 2140 0078 03       		.uleb128 0x3
 2141 0079 0E       		.uleb128 0xe
 2142 007a 3A       		.uleb128 0x3a
 2143 007b 0B       		.uleb128 0xb
 2144 007c 3B       		.uleb128 0x3b
 2145 007d 0B       		.uleb128 0xb
 2146 007e 27       		.uleb128 0x27
 2147 007f 19       		.uleb128 0x19
 2148 0080 11       		.uleb128 0x11
 2149 0081 01       		.uleb128 0x1
 2150 0082 12       		.uleb128 0x12
 2151 0083 06       		.uleb128 0x6
 2152 0084 40       		.uleb128 0x40
 2153 0085 18       		.uleb128 0x18
 2154 0086 9642     		.uleb128 0x2116
 2155 0088 19       		.uleb128 0x19
 2156 0089 01       		.uleb128 0x1
 2157 008a 13       		.uleb128 0x13
 2158 008b 00       		.byte	0
 2159 008c 00       		.byte	0
ARM GAS  C:\Users\Austcha\AppData\Local\Temp\ccV5xKP9.s 			page 42


 2160 008d 0B       		.uleb128 0xb
 2161 008e 05       		.uleb128 0x5
 2162 008f 00       		.byte	0
 2163 0090 03       		.uleb128 0x3
 2164 0091 0E       		.uleb128 0xe
 2165 0092 3A       		.uleb128 0x3a
 2166 0093 0B       		.uleb128 0xb
 2167 0094 3B       		.uleb128 0x3b
 2168 0095 0B       		.uleb128 0xb
 2169 0096 49       		.uleb128 0x49
 2170 0097 13       		.uleb128 0x13
 2171 0098 02       		.uleb128 0x2
 2172 0099 18       		.uleb128 0x18
 2173 009a 00       		.byte	0
 2174 009b 00       		.byte	0
 2175 009c 0C       		.uleb128 0xc
 2176 009d 34       		.uleb128 0x34
 2177 009e 00       		.byte	0
 2178 009f 03       		.uleb128 0x3
 2179 00a0 0E       		.uleb128 0xe
 2180 00a1 3A       		.uleb128 0x3a
 2181 00a2 0B       		.uleb128 0xb
 2182 00a3 3B       		.uleb128 0x3b
 2183 00a4 0B       		.uleb128 0xb
 2184 00a5 49       		.uleb128 0x49
 2185 00a6 13       		.uleb128 0x13
 2186 00a7 02       		.uleb128 0x2
 2187 00a8 18       		.uleb128 0x18
 2188 00a9 00       		.byte	0
 2189 00aa 00       		.byte	0
 2190 00ab 0D       		.uleb128 0xd
 2191 00ac 0F       		.uleb128 0xf
 2192 00ad 00       		.byte	0
 2193 00ae 0B       		.uleb128 0xb
 2194 00af 0B       		.uleb128 0xb
 2195 00b0 49       		.uleb128 0x49
 2196 00b1 13       		.uleb128 0x13
 2197 00b2 00       		.byte	0
 2198 00b3 00       		.byte	0
 2199 00b4 0E       		.uleb128 0xe
 2200 00b5 2E       		.uleb128 0x2e
 2201 00b6 01       		.byte	0x1
 2202 00b7 3F       		.uleb128 0x3f
 2203 00b8 19       		.uleb128 0x19
 2204 00b9 03       		.uleb128 0x3
 2205 00ba 0E       		.uleb128 0xe
 2206 00bb 3A       		.uleb128 0x3a
 2207 00bc 0B       		.uleb128 0xb
 2208 00bd 3B       		.uleb128 0x3b
 2209 00be 0B       		.uleb128 0xb
 2210 00bf 27       		.uleb128 0x27
 2211 00c0 19       		.uleb128 0x19
 2212 00c1 49       		.uleb128 0x49
 2213 00c2 13       		.uleb128 0x13
 2214 00c3 11       		.uleb128 0x11
 2215 00c4 01       		.uleb128 0x1
 2216 00c5 12       		.uleb128 0x12
ARM GAS  C:\Users\Austcha\AppData\Local\Temp\ccV5xKP9.s 			page 43


 2217 00c6 06       		.uleb128 0x6
 2218 00c7 40       		.uleb128 0x40
 2219 00c8 18       		.uleb128 0x18
 2220 00c9 9742     		.uleb128 0x2117
 2221 00cb 19       		.uleb128 0x19
 2222 00cc 01       		.uleb128 0x1
 2223 00cd 13       		.uleb128 0x13
 2224 00ce 00       		.byte	0
 2225 00cf 00       		.byte	0
 2226 00d0 0F       		.uleb128 0xf
 2227 00d1 2E       		.uleb128 0x2e
 2228 00d2 01       		.byte	0x1
 2229 00d3 3F       		.uleb128 0x3f
 2230 00d4 19       		.uleb128 0x19
 2231 00d5 03       		.uleb128 0x3
 2232 00d6 0E       		.uleb128 0xe
 2233 00d7 3A       		.uleb128 0x3a
 2234 00d8 0B       		.uleb128 0xb
 2235 00d9 3B       		.uleb128 0x3b
 2236 00da 0B       		.uleb128 0xb
 2237 00db 27       		.uleb128 0x27
 2238 00dc 19       		.uleb128 0x19
 2239 00dd 49       		.uleb128 0x49
 2240 00de 13       		.uleb128 0x13
 2241 00df 11       		.uleb128 0x11
 2242 00e0 01       		.uleb128 0x1
 2243 00e1 12       		.uleb128 0x12
 2244 00e2 06       		.uleb128 0x6
 2245 00e3 40       		.uleb128 0x40
 2246 00e4 18       		.uleb128 0x18
 2247 00e5 9642     		.uleb128 0x2116
 2248 00e7 19       		.uleb128 0x19
 2249 00e8 01       		.uleb128 0x1
 2250 00e9 13       		.uleb128 0x13
 2251 00ea 00       		.byte	0
 2252 00eb 00       		.byte	0
 2253 00ec 10       		.uleb128 0x10
 2254 00ed 2E       		.uleb128 0x2e
 2255 00ee 01       		.byte	0x1
 2256 00ef 3F       		.uleb128 0x3f
 2257 00f0 19       		.uleb128 0x19
 2258 00f1 03       		.uleb128 0x3
 2259 00f2 0E       		.uleb128 0xe
 2260 00f3 3A       		.uleb128 0x3a
 2261 00f4 0B       		.uleb128 0xb
 2262 00f5 3B       		.uleb128 0x3b
 2263 00f6 0B       		.uleb128 0xb
 2264 00f7 27       		.uleb128 0x27
 2265 00f8 19       		.uleb128 0x19
 2266 00f9 49       		.uleb128 0x49
 2267 00fa 13       		.uleb128 0x13
 2268 00fb 11       		.uleb128 0x11
 2269 00fc 01       		.uleb128 0x1
 2270 00fd 12       		.uleb128 0x12
 2271 00fe 06       		.uleb128 0x6
 2272 00ff 40       		.uleb128 0x40
 2273 0100 18       		.uleb128 0x18
ARM GAS  C:\Users\Austcha\AppData\Local\Temp\ccV5xKP9.s 			page 44


 2274 0101 9642     		.uleb128 0x2116
 2275 0103 19       		.uleb128 0x19
 2276 0104 00       		.byte	0
 2277 0105 00       		.byte	0
 2278 0106 00       		.byte	0
 2279              		.section	.debug_aranges,"",%progbits
 2280 0000 BC000000 		.4byte	0xbc
 2281 0004 0200     		.2byte	0x2
 2282 0006 00000000 		.4byte	.Ldebug_info0
 2283 000a 04       		.byte	0x4
 2284 000b 00       		.byte	0
 2285 000c 0000     		.2byte	0
 2286 000e 0000     		.2byte	0
 2287 0010 00000000 		.4byte	.LFB0
 2288 0014 64000000 		.4byte	.LFE0-.LFB0
 2289 0018 00000000 		.4byte	.LFB1
 2290 001c 14000000 		.4byte	.LFE1-.LFB1
 2291 0020 00000000 		.4byte	.LFB2
 2292 0024 66000000 		.4byte	.LFE2-.LFB2
 2293 0028 00000000 		.4byte	.LFB3
 2294 002c 20000000 		.4byte	.LFE3-.LFB3
 2295 0030 00000000 		.4byte	.LFB4
 2296 0034 1E000000 		.4byte	.LFE4-.LFB4
 2297 0038 00000000 		.4byte	.LFB5
 2298 003c 66000000 		.4byte	.LFE5-.LFB5
 2299 0040 00000000 		.4byte	.LFB6
 2300 0044 22000000 		.4byte	.LFE6-.LFB6
 2301 0048 00000000 		.4byte	.LFB7
 2302 004c 66000000 		.4byte	.LFE7-.LFB7
 2303 0050 00000000 		.4byte	.LFB8
 2304 0054 20000000 		.4byte	.LFE8-.LFB8
 2305 0058 00000000 		.4byte	.LFB9
 2306 005c 66000000 		.4byte	.LFE9-.LFB9
 2307 0060 00000000 		.4byte	.LFB10
 2308 0064 20000000 		.4byte	.LFE10-.LFB10
 2309 0068 00000000 		.4byte	.LFB11
 2310 006c 66000000 		.4byte	.LFE11-.LFB11
 2311 0070 00000000 		.4byte	.LFB12
 2312 0074 20000000 		.4byte	.LFE12-.LFB12
 2313 0078 00000000 		.4byte	.LFB13
 2314 007c 64000000 		.4byte	.LFE13-.LFB13
 2315 0080 00000000 		.4byte	.LFB14
 2316 0084 14000000 		.4byte	.LFE14-.LFB14
 2317 0088 00000000 		.4byte	.LFB15
 2318 008c 64000000 		.4byte	.LFE15-.LFB15
 2319 0090 00000000 		.4byte	.LFB16
 2320 0094 14000000 		.4byte	.LFE16-.LFB16
 2321 0098 00000000 		.4byte	.LFB17
 2322 009c 66000000 		.4byte	.LFE17-.LFB17
 2323 00a0 00000000 		.4byte	.LFB18
 2324 00a4 20000000 		.4byte	.LFE18-.LFB18
 2325 00a8 00000000 		.4byte	.LFB19
 2326 00ac 66000000 		.4byte	.LFE19-.LFB19
 2327 00b0 00000000 		.4byte	.LFB20
 2328 00b4 20000000 		.4byte	.LFE20-.LFB20
 2329 00b8 00000000 		.4byte	0
 2330 00bc 00000000 		.4byte	0
ARM GAS  C:\Users\Austcha\AppData\Local\Temp\ccV5xKP9.s 			page 45


 2331              		.section	.debug_ranges,"",%progbits
 2332              	.Ldebug_ranges0:
 2333 0000 00000000 		.4byte	.LFB0
 2334 0004 64000000 		.4byte	.LFE0
 2335 0008 00000000 		.4byte	.LFB1
 2336 000c 14000000 		.4byte	.LFE1
 2337 0010 00000000 		.4byte	.LFB2
 2338 0014 66000000 		.4byte	.LFE2
 2339 0018 00000000 		.4byte	.LFB3
 2340 001c 20000000 		.4byte	.LFE3
 2341 0020 00000000 		.4byte	.LFB4
 2342 0024 1E000000 		.4byte	.LFE4
 2343 0028 00000000 		.4byte	.LFB5
 2344 002c 66000000 		.4byte	.LFE5
 2345 0030 00000000 		.4byte	.LFB6
 2346 0034 22000000 		.4byte	.LFE6
 2347 0038 00000000 		.4byte	.LFB7
 2348 003c 66000000 		.4byte	.LFE7
 2349 0040 00000000 		.4byte	.LFB8
 2350 0044 20000000 		.4byte	.LFE8
 2351 0048 00000000 		.4byte	.LFB9
 2352 004c 66000000 		.4byte	.LFE9
 2353 0050 00000000 		.4byte	.LFB10
 2354 0054 20000000 		.4byte	.LFE10
 2355 0058 00000000 		.4byte	.LFB11
 2356 005c 66000000 		.4byte	.LFE11
 2357 0060 00000000 		.4byte	.LFB12
 2358 0064 20000000 		.4byte	.LFE12
 2359 0068 00000000 		.4byte	.LFB13
 2360 006c 64000000 		.4byte	.LFE13
 2361 0070 00000000 		.4byte	.LFB14
 2362 0074 14000000 		.4byte	.LFE14
 2363 0078 00000000 		.4byte	.LFB15
 2364 007c 64000000 		.4byte	.LFE15
 2365 0080 00000000 		.4byte	.LFB16
 2366 0084 14000000 		.4byte	.LFE16
 2367 0088 00000000 		.4byte	.LFB17
 2368 008c 66000000 		.4byte	.LFE17
 2369 0090 00000000 		.4byte	.LFB18
 2370 0094 20000000 		.4byte	.LFE18
 2371 0098 00000000 		.4byte	.LFB19
 2372 009c 66000000 		.4byte	.LFE19
 2373 00a0 00000000 		.4byte	.LFB20
 2374 00a4 20000000 		.4byte	.LFE20
 2375 00a8 00000000 		.4byte	0
 2376 00ac 00000000 		.4byte	0
 2377              		.section	.debug_line,"",%progbits
 2378              	.Ldebug_line0:
 2379 0000 D3020000 		.section	.debug_str,"MS",%progbits,1
 2379      02003B01 
 2379      00000201 
 2379      FB0E0D00 
 2379      01010101 
 2380              	.LASF42:
 2381 0000 64436F65 		.ascii	"dCoef\000"
 2381      6600
 2382              	.LASF58:
ARM GAS  C:\Users\Austcha\AppData\Local\Temp\ccV5xKP9.s 			page 46


 2383 0006 433A5C55 		.ascii	"C:\\Users\\Austcha\\Documents\\Husky Robotics\\Moto"
 2383      73657273 
 2383      5C417573 
 2383      74636861 
 2383      5C446F63 
 2384 0034 7220426F 		.ascii	"r Boards\\Rev3\\Motor-Unit-Firmware-A-2019-2020\\Mo"
 2384      61726473 
 2384      5C526576 
 2384      335C4D6F 
 2384      746F722D 
 2385 0064 746F7220 		.ascii	"tor Unit\\Motor_Board_Rev3.cydsn\000"
 2385      556E6974 
 2385      5C4D6F74 
 2385      6F725F42 
 2385      6F617264 
 2386              	.LASF20:
 2387 0084 7061636B 		.ascii	"packetToAssemble\000"
 2387      6574546F 
 2387      41737365 
 2387      6D626C65 
 2387      00
 2388              	.LASF27:
 2389 0095 50574D53 		.ascii	"PWMSet\000"
 2389      657400
 2390              	.LASF33:
 2391 009c 74617267 		.ascii	"target\000"
 2391      657400
 2392              	.LASF2:
 2393 00a3 73686F72 		.ascii	"short int\000"
 2393      7420696E 
 2393      7400
 2394              	.LASF37:
 2395 00ad 47657450 		.ascii	"GetPFromPacket\000"
 2395      46726F6D 
 2395      5061636B 
 2395      657400
 2396              	.LASF18:
 2397 00bc 73697A65 		.ascii	"sizetype\000"
 2397      74797065 
 2397      00
 2398              	.LASF45:
 2399 00c5 696E6974 		.ascii	"initMode\000"
 2399      4D6F6465 
 2399      00
 2400              	.LASF28:
 2401 00ce 6E657874 		.ascii	"nextByte\000"
 2401      42797465 
 2401      00
 2402              	.LASF8:
 2403 00d7 5F5F7569 		.ascii	"__uint32_t\000"
 2403      6E743332 
 2403      5F7400
 2404              	.LASF23:
 2405 00e2 6D6F6465 		.ascii	"mode\000"
 2405      00
 2406              	.LASF4:
 2407 00e7 5F5F7569 		.ascii	"__uint16_t\000"
ARM GAS  C:\Users\Austcha\AppData\Local\Temp\ccV5xKP9.s 			page 47


 2407      6E743136 
 2407      5F7400
 2408              	.LASF40:
 2409 00f2 47657449 		.ascii	"GetIFromPacket\000"
 2409      46726F6D 
 2409      5061636B 
 2409      657400
 2410              	.LASF31:
 2411 0101 47657444 		.ascii	"GetDirectionFromPacket\000"
 2411      69726563 
 2411      74696F6E 
 2411      46726F6D 
 2411      5061636B 
 2412              	.LASF36:
 2413 0118 70436F65 		.ascii	"pCoef\000"
 2413      6600
 2414              	.LASF26:
 2415 011e 41737365 		.ascii	"AssemblePWMDirSetPacket\000"
 2415      6D626C65 
 2415      50574D44 
 2415      69725365 
 2415      74506163 
 2416              	.LASF13:
 2417 0136 75696E74 		.ascii	"uint8_t\000"
 2417      385F7400 
 2418              	.LASF43:
 2419 013e 47657444 		.ascii	"GetDFromPacket\000"
 2419      46726F6D 
 2419      5061636B 
 2419      657400
 2420              	.LASF24:
 2421 014d 7061636B 		.ascii	"packet\000"
 2421      657400
 2422              	.LASF50:
 2423 0154 41737365 		.ascii	"AssembleEncoderPPJRSetPacket\000"
 2423      6D626C65 
 2423      456E636F 
 2423      64657250 
 2423      504A5253 
 2424              	.LASF10:
 2425 0171 6C6F6E67 		.ascii	"long long int\000"
 2425      206C6F6E 
 2425      6720696E 
 2425      7400
 2426              	.LASF55:
 2427 017f 4765744D 		.ascii	"GetMaxJointRevolutionsFromPacket\000"
 2427      61784A6F 
 2427      696E7452 
 2427      65766F6C 
 2427      7574696F 
 2428              	.LASF19:
 2429 01a0 43414E50 		.ascii	"CANPacket\000"
 2429      61636B65 
 2429      7400
 2430              	.LASF7:
 2431 01aa 6C6F6E67 		.ascii	"long int\000"
 2431      20696E74 
ARM GAS  C:\Users\Austcha\AppData\Local\Temp\ccV5xKP9.s 			page 48


 2431      00
 2432              	.LASF35:
 2433 01b3 41737365 		.ascii	"AssemblePSetPacket\000"
 2433      6D626C65 
 2433      50536574 
 2433      5061636B 
 2433      657400
 2434              	.LASF48:
 2435 01c6 73776974 		.ascii	"switches\000"
 2435      63686573 
 2435      00
 2436              	.LASF25:
 2437 01cf 41737365 		.ascii	"AssembleModeSetPacket\000"
 2437      6D626C65 
 2437      4D6F6465 
 2437      53657450 
 2437      61636B65 
 2438              	.LASF3:
 2439 01e5 5F5F7569 		.ascii	"__uint8_t\000"
 2439      6E74385F 
 2439      7400
 2440              	.LASF30:
 2441 01ef 47657450 		.ascii	"GetPWMFromPacket\000"
 2441      574D4672 
 2441      6F6D5061 
 2441      636B6574 
 2441      00
 2442              	.LASF56:
 2443 0200 474E5520 		.ascii	"GNU C11 5.4.1 20160609 (release) [ARM/embedded-5-br"
 2443      43313120 
 2443      352E342E 
 2443      31203230 
 2443      31363036 
 2444 0233 616E6368 		.ascii	"anch revision 237715] -mcpu=cortex-m0 -mthumb -g -O"
 2444      20726576 
 2444      6973696F 
 2444      6E203233 
 2444      37373135 
 2445 0266 30202D66 		.ascii	"0 -ffunction-sections -ffat-lto-objects\000"
 2445      66756E63 
 2445      74696F6E 
 2445      2D736563 
 2445      74696F6E 
 2446              	.LASF52:
 2447 028e 47657445 		.ascii	"GetEncoderPPJRFromPacket\000"
 2447      6E636F64 
 2447      65725050 
 2447      4A524672 
 2447      6F6D5061 
 2448              	.LASF1:
 2449 02a7 756E7369 		.ascii	"unsigned char\000"
 2449      676E6564 
 2449      20636861 
 2449      7200
 2450              	.LASF0:
 2451 02b5 7369676E 		.ascii	"signed char\000"
 2451      65642063 
ARM GAS  C:\Users\Austcha\AppData\Local\Temp\ccV5xKP9.s 			page 49


 2451      68617200 
 2452              	.LASF11:
 2453 02c1 6C6F6E67 		.ascii	"long long unsigned int\000"
 2453      206C6F6E 
 2453      6720756E 
 2453      7369676E 
 2453      65642069 
 2454              	.LASF16:
 2455 02d8 75696E74 		.ascii	"uint32_t\000"
 2455      33325F74 
 2455      00
 2456              	.LASF12:
 2457 02e1 756E7369 		.ascii	"unsigned int\000"
 2457      676E6564 
 2457      20696E74 
 2457      00
 2458              	.LASF14:
 2459 02ee 75696E74 		.ascii	"uint16_t\000"
 2459      31365F74 
 2459      00
 2460              	.LASF21:
 2461 02f7 74617267 		.ascii	"targetDeviceGroup\000"
 2461      65744465 
 2461      76696365 
 2461      47726F75 
 2461      7000
 2462              	.LASF57:
 2463 0309 2E2E5C43 		.ascii	"..\\CANLib\\CANMotorUnit.c\000"
 2463      414E4C69 
 2463      625C4341 
 2463      4E4D6F74 
 2463      6F72556E 
 2464              	.LASF5:
 2465 0322 73686F72 		.ascii	"short unsigned int\000"
 2465      7420756E 
 2465      7369676E 
 2465      65642069 
 2465      6E7400
 2466              	.LASF22:
 2467 0335 74617267 		.ascii	"targetDeviceSerial\000"
 2467      65744465 
 2467      76696365 
 2467      53657269 
 2467      616C00
 2468              	.LASF29:
 2469 0348 4765744D 		.ascii	"GetModeFromPacket\000"
 2469      6F646546 
 2469      726F6D50 
 2469      61636B65 
 2469      7400
 2470              	.LASF15:
 2471 035a 696E7433 		.ascii	"int32_t\000"
 2471      325F7400 
 2472              	.LASF51:
 2473 0362 70756C73 		.ascii	"pulses\000"
 2473      657300
 2474              	.LASF17:
ARM GAS  C:\Users\Austcha\AppData\Local\Temp\ccV5xKP9.s 			page 50


 2475 0369 64617461 		.ascii	"data\000"
 2475      00
 2476              	.LASF32:
 2477 036e 41737365 		.ascii	"AssemblePIDTargetSetPacket\000"
 2477      6D626C65 
 2477      50494454 
 2477      61726765 
 2477      74536574 
 2478              	.LASF9:
 2479 0389 6C6F6E67 		.ascii	"long unsigned int\000"
 2479      20756E73 
 2479      69676E65 
 2479      6420696E 
 2479      7400
 2480              	.LASF39:
 2481 039b 69436F65 		.ascii	"iCoef\000"
 2481      6600
 2482              	.LASF47:
 2483 03a1 41737365 		.ascii	"AssembleLimitSwitchAlertPacket\000"
 2483      6D626C65 
 2483      4C696D69 
 2483      74537769 
 2483      74636841 
 2484              	.LASF46:
 2485 03c0 47657449 		.ascii	"GetInitModeFromPacket\000"
 2485      6E69744D 
 2485      6F646546 
 2485      726F6D50 
 2485      61636B65 
 2486              	.LASF6:
 2487 03d6 5F5F696E 		.ascii	"__int32_t\000"
 2487      7433325F 
 2487      7400
 2488              	.LASF44:
 2489 03e0 41737365 		.ascii	"AssembleInitializePacket\000"
 2489      6D626C65 
 2489      496E6974 
 2489      69616C69 
 2489      7A655061 
 2490              	.LASF53:
 2491 03f9 41737365 		.ascii	"AssembleMaxJointRevolutionPacket\000"
 2491      6D626C65 
 2491      4D61784A 
 2491      6F696E74 
 2491      5265766F 
 2492              	.LASF34:
 2493 041a 47657450 		.ascii	"GetPIDTargetFromPacket\000"
 2493      49445461 
 2493      72676574 
 2493      46726F6D 
 2493      5061636B 
 2494              	.LASF38:
 2495 0431 41737365 		.ascii	"AssembleISetPacket\000"
 2495      6D626C65 
 2495      49536574 
 2495      5061636B 
 2495      657400
ARM GAS  C:\Users\Austcha\AppData\Local\Temp\ccV5xKP9.s 			page 51


 2496              	.LASF41:
 2497 0444 41737365 		.ascii	"AssembleDSetPacket\000"
 2497      6D626C65 
 2497      44536574 
 2497      5061636B 
 2497      657400
 2498              	.LASF54:
 2499 0457 7265766F 		.ascii	"revolutions\000"
 2499      6C757469 
 2499      6F6E7300 
 2500              	.LASF49:
 2501 0463 4765744C 		.ascii	"GetLimStatusFromPacket\000"
 2501      696D5374 
 2501      61747573 
 2501      46726F6D 
 2501      5061636B 
 2502              		.ident	"GCC: (GNU Tools for ARM Embedded Processors) 5.4.1 20160609 (release) [ARM/embedded-5-bran
