ARM GAS  C:\Users\Austcha\AppData\Local\Temp\ccV5xKP9.s 			page 1


   1              		.syntax unified
   2              		.cpu cortex-m0
   3              		.fpu softvfp
   4              		.eabi_attribute 20, 1
   5              		.eabi_attribute 21, 1
   6              		.eabi_attribute 23, 3
   7              		.eabi_attribute 24, 1
   8              		.eabi_attribute 25, 1
   9              		.eabi_attribute 26, 1
  10              		.eabi_attribute 30, 6
  11              		.eabi_attribute 34, 0
  12              		.eabi_attribute 18, 4
  13              		.thumb
  14              		.syntax unified
  15              		.file	"CANMotorUnit.c"
  16              		.text
  17              	.Ltext0:
  18              		.cfi_sections	.debug_frame
  19              		.section	.text.AssembleModeSetPacket,"ax",%progbits
  20              		.align	2
  21              		.global	AssembleModeSetPacket
  22              		.code	16
  23              		.thumb_func
  24              		.type	AssembleModeSetPacket, %function
  25              	AssembleModeSetPacket:
  26              	.LFB0:
  27              		.file 1 "..\\CANLib\\CANMotorUnit.c"
   1:..\CANLib/CANMotorUnit.c **** /* File:         CANMotorUnit.c
   2:..\CANLib/CANMotorUnit.c ****  * Authors:      Jaden Bottemiller, Benton Kwong, Dylan Tomberlin.
   3:..\CANLib/CANMotorUnit.c ****  * Organization: Husky Robotics Team
   4:..\CANLib/CANMotorUnit.c ****  * 
   5:..\CANLib/CANMotorUnit.c ****  * This file includes fuction definitions for CAN Packet manipulation
   6:..\CANLib/CANMotorUnit.c ****  * using the Hindsight CAN Communication standard. Specific files
   7:..\CANLib/CANMotorUnit.c ****  * for the motor unit boards.
   8:..\CANLib/CANMotorUnit.c ****  * Documentation: https://huskyroboticsteam.slite.com/app/channels/iU0BryG7M9/collections/aXvWTcIR6
   9:..\CANLib/CANMotorUnit.c ****  */
  10:..\CANLib/CANMotorUnit.c **** 
  11:..\CANLib/CANMotorUnit.c **** #include "CANPacket.h"
  12:..\CANLib/CANMotorUnit.c **** #include "CANMotorUnit.h"
  13:..\CANLib/CANMotorUnit.c **** #include "Port.h"
  14:..\CANLib/CANMotorUnit.c **** 
  15:..\CANLib/CANMotorUnit.c **** void AssembleModeSetPacket(CANPacket *packetToAssemble,
  16:..\CANLib/CANMotorUnit.c ****     uint8_t targetDeviceGroup,
  17:..\CANLib/CANMotorUnit.c ****     uint8_t targetDeviceSerial,
  18:..\CANLib/CANMotorUnit.c ****     uint8_t mode)
  19:..\CANLib/CANMotorUnit.c **** {
  28              		.loc 1 19 0
  29              		.cfi_startproc
  30              		@ args = 0, pretend = 0, frame = 16
  31              		@ frame_needed = 1, uses_anonymous_args = 0
  32 0000 90B5     		push	{r4, r7, lr}
  33              		.cfi_def_cfa_offset 12
  34              		.cfi_offset 4, -12
  35              		.cfi_offset 7, -8
  36              		.cfi_offset 14, -4
  37 0002 85B0     		sub	sp, sp, #20
  38              		.cfi_def_cfa_offset 32
ARM GAS  C:\Users\Austcha\AppData\Local\Temp\ccV5xKP9.s 			page 2


  39 0004 00AF     		add	r7, sp, #0
  40              		.cfi_def_cfa_register 7
  41 0006 7860     		str	r0, [r7, #4]
  42 0008 0C00     		movs	r4, r1
  43 000a 1000     		movs	r0, r2
  44 000c 1900     		movs	r1, r3
  45 000e FB1C     		adds	r3, r7, #3
  46 0010 221C     		adds	r2, r4, #0
  47 0012 1A70     		strb	r2, [r3]
  48 0014 BB1C     		adds	r3, r7, #2
  49 0016 021C     		adds	r2, r0, #0
  50 0018 1A70     		strb	r2, [r3]
  51 001a 7B1C     		adds	r3, r7, #1
  52 001c 0A1C     		adds	r2, r1, #0
  53 001e 1A70     		strb	r2, [r3]
  20:..\CANLib/CANMotorUnit.c ****     packetToAssemble->id = ConstructCANID(PRIO_MOTOR_UNIT_MODE_SEL, targetDeviceGroup, targetDevice
  54              		.loc 1 20 0
  55 0020 BB1C     		adds	r3, r7, #2
  56 0022 1A78     		ldrb	r2, [r3]
  57 0024 FB1C     		adds	r3, r7, #3
  58 0026 1B78     		ldrb	r3, [r3]
  59 0028 1900     		movs	r1, r3
  60 002a 0120     		movs	r0, #1
  61 002c FFF7FEFF 		bl	ConstructCANID
  62 0030 0300     		movs	r3, r0
  63 0032 1A00     		movs	r2, r3
  64 0034 7B68     		ldr	r3, [r7, #4]
  65 0036 1A80     		strh	r2, [r3]
  21:..\CANLib/CANMotorUnit.c ****     packetToAssemble->dlc = DLC_MOTOR_UNIT_MODE_SEL;
  66              		.loc 1 21 0
  67 0038 7B68     		ldr	r3, [r7, #4]
  68 003a 0222     		movs	r2, #2
  69 003c 9A70     		strb	r2, [r3, #2]
  22:..\CANLib/CANMotorUnit.c ****     int nextByte = WritePacketIDOnly(packetToAssemble->data, ID_MOTOR_UNIT_MODE_SEL);
  70              		.loc 1 22 0
  71 003e 7B68     		ldr	r3, [r7, #4]
  72 0040 0333     		adds	r3, r3, #3
  73 0042 0021     		movs	r1, #0
  74 0044 1800     		movs	r0, r3
  75 0046 FFF7FEFF 		bl	WritePacketIDOnly
  76 004a 0300     		movs	r3, r0
  77 004c FB60     		str	r3, [r7, #12]
  23:..\CANLib/CANMotorUnit.c ****     packetToAssemble->data[nextByte] = mode;
  78              		.loc 1 23 0
  79 004e 7A68     		ldr	r2, [r7, #4]
  80 0050 FB68     		ldr	r3, [r7, #12]
  81 0052 D318     		adds	r3, r2, r3
  82 0054 0333     		adds	r3, r3, #3
  83 0056 7A1C     		adds	r2, r7, #1
  84 0058 1278     		ldrb	r2, [r2]
  85 005a 1A70     		strb	r2, [r3]
  24:..\CANLib/CANMotorUnit.c **** }
  86              		.loc 1 24 0
  87 005c C046     		nop
  88 005e BD46     		mov	sp, r7
  89 0060 05B0     		add	sp, sp, #20
  90              		@ sp needed
ARM GAS  C:\Users\Austcha\AppData\Local\Temp\ccV5xKP9.s 			page 3


  91 0062 90BD     		pop	{r4, r7, pc}
  92              		.cfi_endproc
  93              	.LFE0:
  94              		.size	AssembleModeSetPacket, .-AssembleModeSetPacket
  95              		.section	.text.GetModeFromPacket,"ax",%progbits
  96              		.align	2
  97              		.global	GetModeFromPacket
  98              		.code	16
  99              		.thumb_func
 100              		.type	GetModeFromPacket, %function
 101              	GetModeFromPacket:
 102              	.LFB1:
  25:..\CANLib/CANMotorUnit.c **** 
  26:..\CANLib/CANMotorUnit.c **** uint8_t GetModeFromPacket(CANPacket *packet)
  27:..\CANLib/CANMotorUnit.c **** {
 103              		.loc 1 27 0
 104              		.cfi_startproc
 105              		@ args = 0, pretend = 0, frame = 8
 106              		@ frame_needed = 1, uses_anonymous_args = 0
 107 0000 80B5     		push	{r7, lr}
 108              		.cfi_def_cfa_offset 8
 109              		.cfi_offset 7, -8
 110              		.cfi_offset 14, -4
 111 0002 82B0     		sub	sp, sp, #8
 112              		.cfi_def_cfa_offset 16
 113 0004 00AF     		add	r7, sp, #0
 114              		.cfi_def_cfa_register 7
 115 0006 7860     		str	r0, [r7, #4]
  28:..\CANLib/CANMotorUnit.c ****     return packet->data[1];
 116              		.loc 1 28 0
 117 0008 7B68     		ldr	r3, [r7, #4]
 118 000a 1B79     		ldrb	r3, [r3, #4]
  29:..\CANLib/CANMotorUnit.c **** }
 119              		.loc 1 29 0
 120 000c 1800     		movs	r0, r3
 121 000e BD46     		mov	sp, r7
 122 0010 02B0     		add	sp, sp, #8
 123              		@ sp needed
 124 0012 80BD     		pop	{r7, pc}
 125              		.cfi_endproc
 126              	.LFE1:
 127              		.size	GetModeFromPacket, .-GetModeFromPacket
 128              		.section	.text.AssemblePWMDirSetPacket,"ax",%progbits
 129              		.align	2
 130              		.global	AssemblePWMDirSetPacket
 131              		.code	16
 132              		.thumb_func
 133              		.type	AssemblePWMDirSetPacket, %function
 134              	AssemblePWMDirSetPacket:
 135              	.LFB2:
  30:..\CANLib/CANMotorUnit.c **** 
  31:..\CANLib/CANMotorUnit.c **** 
  32:..\CANLib/CANMotorUnit.c **** void AssemblePWMDirSetPacket(CANPacket *packetToAssemble, 
  33:..\CANLib/CANMotorUnit.c ****     uint8_t targetDeviceGroup,
  34:..\CANLib/CANMotorUnit.c ****     uint8_t targetDeviceSerial,
  35:..\CANLib/CANMotorUnit.c ****     int32_t PWMSet)
  36:..\CANLib/CANMotorUnit.c **** {
ARM GAS  C:\Users\Austcha\AppData\Local\Temp\ccV5xKP9.s 			page 4


 136              		.loc 1 36 0
 137              		.cfi_startproc
 138              		@ args = 0, pretend = 0, frame = 24
 139              		@ frame_needed = 1, uses_anonymous_args = 0
 140 0000 80B5     		push	{r7, lr}
 141              		.cfi_def_cfa_offset 8
 142              		.cfi_offset 7, -8
 143              		.cfi_offset 14, -4
 144 0002 86B0     		sub	sp, sp, #24
 145              		.cfi_def_cfa_offset 32
 146 0004 00AF     		add	r7, sp, #0
 147              		.cfi_def_cfa_register 7
 148 0006 F860     		str	r0, [r7, #12]
 149 0008 0800     		movs	r0, r1
 150 000a 1100     		movs	r1, r2
 151 000c 7B60     		str	r3, [r7, #4]
 152 000e 0B23     		movs	r3, #11
 153 0010 FB18     		adds	r3, r7, r3
 154 0012 021C     		adds	r2, r0, #0
 155 0014 1A70     		strb	r2, [r3]
 156 0016 0A23     		movs	r3, #10
 157 0018 FB18     		adds	r3, r7, r3
 158 001a 0A1C     		adds	r2, r1, #0
 159 001c 1A70     		strb	r2, [r3]
  37:..\CANLib/CANMotorUnit.c ****     packetToAssemble->id = ConstructCANID(PRIO_MOTOR_UNIT_PWM_DIR_SET, targetDeviceGroup, targetDev
 160              		.loc 1 37 0
 161 001e 0A23     		movs	r3, #10
 162 0020 FB18     		adds	r3, r7, r3
 163 0022 1A78     		ldrb	r2, [r3]
 164 0024 0B23     		movs	r3, #11
 165 0026 FB18     		adds	r3, r7, r3
 166 0028 1B78     		ldrb	r3, [r3]
 167 002a 1900     		movs	r1, r3
 168 002c 0120     		movs	r0, #1
 169 002e FFF7FEFF 		bl	ConstructCANID
 170 0032 0300     		movs	r3, r0
 171 0034 1A00     		movs	r2, r3
 172 0036 FB68     		ldr	r3, [r7, #12]
 173 0038 1A80     		strh	r2, [r3]
  38:..\CANLib/CANMotorUnit.c ****     packetToAssemble->dlc = DLC_MOTOR_UNIT_PWM_DIR_SET;
 174              		.loc 1 38 0
 175 003a FB68     		ldr	r3, [r7, #12]
 176 003c 0522     		movs	r2, #5
 177 003e 9A70     		strb	r2, [r3, #2]
  39:..\CANLib/CANMotorUnit.c ****     int nextByte = WritePacketIDOnly(packetToAssemble->data, DLC_MOTOR_UNIT_PWM_DIR_SET);
 178              		.loc 1 39 0
 179 0040 FB68     		ldr	r3, [r7, #12]
 180 0042 0333     		adds	r3, r3, #3
 181 0044 0521     		movs	r1, #5
 182 0046 1800     		movs	r0, r3
 183 0048 FFF7FEFF 		bl	WritePacketIDOnly
 184 004c 0300     		movs	r3, r0
 185 004e 7B61     		str	r3, [r7, #20]
  40:..\CANLib/CANMotorUnit.c ****     PackIntIntoDataMSBFirst(packetToAssemble->data, PWMSet, nextByte);
 186              		.loc 1 40 0
 187 0050 FB68     		ldr	r3, [r7, #12]
 188 0052 0333     		adds	r3, r3, #3
ARM GAS  C:\Users\Austcha\AppData\Local\Temp\ccV5xKP9.s 			page 5


 189 0054 7A69     		ldr	r2, [r7, #20]
 190 0056 7968     		ldr	r1, [r7, #4]
 191 0058 1800     		movs	r0, r3
 192 005a FFF7FEFF 		bl	PackIntIntoDataMSBFirst
  41:..\CANLib/CANMotorUnit.c **** }
 193              		.loc 1 41 0
 194 005e C046     		nop
 195 0060 BD46     		mov	sp, r7
 196 0062 06B0     		add	sp, sp, #24
 197              		@ sp needed
 198 0064 80BD     		pop	{r7, pc}
 199              		.cfi_endproc
 200              	.LFE2:
 201              		.size	AssemblePWMDirSetPacket, .-AssemblePWMDirSetPacket
 202 0066 C046     		.section	.text.GetPWMFromPacket,"ax",%progbits
 203              		.align	2
 204              		.global	GetPWMFromPacket
 205              		.code	16
 206              		.thumb_func
 207              		.type	GetPWMFromPacket, %function
 208              	GetPWMFromPacket:
 209              	.LFB3:
  42:..\CANLib/CANMotorUnit.c **** 
  43:..\CANLib/CANMotorUnit.c **** int32_t GetPWMFromPacket(CANPacket *packet)
  44:..\CANLib/CANMotorUnit.c **** {
 210              		.loc 1 44 0
 211              		.cfi_startproc
 212              		@ args = 0, pretend = 0, frame = 8
 213              		@ frame_needed = 1, uses_anonymous_args = 0
 214 0000 80B5     		push	{r7, lr}
 215              		.cfi_def_cfa_offset 8
 216              		.cfi_offset 7, -8
 217              		.cfi_offset 14, -4
 218 0002 82B0     		sub	sp, sp, #8
 219              		.cfi_def_cfa_offset 16
 220 0004 00AF     		add	r7, sp, #0
 221              		.cfi_def_cfa_register 7
 222 0006 7860     		str	r0, [r7, #4]
  45:..\CANLib/CANMotorUnit.c ****     return DecodeBytesToIntMSBFirst(packet->data, 1, 4);
 223              		.loc 1 45 0
 224 0008 7B68     		ldr	r3, [r7, #4]
 225 000a 0333     		adds	r3, r3, #3
 226 000c 0422     		movs	r2, #4
 227 000e 0121     		movs	r1, #1
 228 0010 1800     		movs	r0, r3
 229 0012 FFF7FEFF 		bl	DecodeBytesToIntMSBFirst
 230 0016 0300     		movs	r3, r0
  46:..\CANLib/CANMotorUnit.c **** }
 231              		.loc 1 46 0
 232 0018 1800     		movs	r0, r3
 233 001a BD46     		mov	sp, r7
 234 001c 02B0     		add	sp, sp, #8
 235              		@ sp needed
 236 001e 80BD     		pop	{r7, pc}
 237              		.cfi_endproc
 238              	.LFE3:
 239              		.size	GetPWMFromPacket, .-GetPWMFromPacket
ARM GAS  C:\Users\Austcha\AppData\Local\Temp\ccV5xKP9.s 			page 6


 240              		.section	.text.GetDirectionFromPacket,"ax",%progbits
 241              		.align	2
 242              		.global	GetDirectionFromPacket
 243              		.code	16
 244              		.thumb_func
 245              		.type	GetDirectionFromPacket, %function
 246              	GetDirectionFromPacket:
 247              	.LFB4:
  47:..\CANLib/CANMotorUnit.c **** 
  48:..\CANLib/CANMotorUnit.c **** //Returns 2's compliment MSB (0 for stopped or forward, 1 for reverse)
  49:..\CANLib/CANMotorUnit.c **** int32_t GetDirectionFromPacket(CANPacket *packet)
  50:..\CANLib/CANMotorUnit.c **** {
 248              		.loc 1 50 0
 249              		.cfi_startproc
 250              		@ args = 0, pretend = 0, frame = 8
 251              		@ frame_needed = 1, uses_anonymous_args = 0
 252 0000 80B5     		push	{r7, lr}
 253              		.cfi_def_cfa_offset 8
 254              		.cfi_offset 7, -8
 255              		.cfi_offset 14, -4
 256 0002 82B0     		sub	sp, sp, #8
 257              		.cfi_def_cfa_offset 16
 258 0004 00AF     		add	r7, sp, #0
 259              		.cfi_def_cfa_register 7
 260 0006 7860     		str	r0, [r7, #4]
  51:..\CANLib/CANMotorUnit.c ****     return ((packet->data[1]) >> 7) & 0x1;
 261              		.loc 1 51 0
 262 0008 7B68     		ldr	r3, [r7, #4]
 263 000a 1B79     		ldrb	r3, [r3, #4]
 264 000c DB09     		lsrs	r3, r3, #7
 265 000e DBB2     		uxtb	r3, r3
 266 0010 1A00     		movs	r2, r3
 267 0012 0123     		movs	r3, #1
 268 0014 1340     		ands	r3, r2
  52:..\CANLib/CANMotorUnit.c **** }
 269              		.loc 1 52 0
 270 0016 1800     		movs	r0, r3
 271 0018 BD46     		mov	sp, r7
 272 001a 02B0     		add	sp, sp, #8
 273              		@ sp needed
 274 001c 80BD     		pop	{r7, pc}
 275              		.cfi_endproc
 276              	.LFE4:
 277              		.size	GetDirectionFromPacket, .-GetDirectionFromPacket
 278 001e C046     		.section	.text.AssemblePIDTargetSetPacket,"ax",%progbits
 279              		.align	2
 280              		.global	AssemblePIDTargetSetPacket
 281              		.code	16
 282              		.thumb_func
 283              		.type	AssemblePIDTargetSetPacket, %function
 284              	AssemblePIDTargetSetPacket:
 285              	.LFB5:
  53:..\CANLib/CANMotorUnit.c **** 
  54:..\CANLib/CANMotorUnit.c **** void AssemblePIDTargetSetPacket(CANPacket *packetToAssemble,
  55:..\CANLib/CANMotorUnit.c ****     uint8_t targetDeviceGroup,
  56:..\CANLib/CANMotorUnit.c ****     uint8_t targetDeviceSerial,
  57:..\CANLib/CANMotorUnit.c ****     int32_t target)
ARM GAS  C:\Users\Austcha\AppData\Local\Temp\ccV5xKP9.s 			page 7


  58:..\CANLib/CANMotorUnit.c **** {
 286              		.loc 1 58 0
 287              		.cfi_startproc
 288              		@ args = 0, pretend = 0, frame = 24
 289              		@ frame_needed = 1, uses_anonymous_args = 0
 290 0000 80B5     		push	{r7, lr}
 291              		.cfi_def_cfa_offset 8
 292              		.cfi_offset 7, -8
 293              		.cfi_offset 14, -4
 294 0002 86B0     		sub	sp, sp, #24
 295              		.cfi_def_cfa_offset 32
 296 0004 00AF     		add	r7, sp, #0
 297              		.cfi_def_cfa_register 7
 298 0006 F860     		str	r0, [r7, #12]
 299 0008 0800     		movs	r0, r1
 300 000a 1100     		movs	r1, r2
 301 000c 7B60     		str	r3, [r7, #4]
 302 000e 0B23     		movs	r3, #11
 303 0010 FB18     		adds	r3, r7, r3
 304 0012 021C     		adds	r2, r0, #0
 305 0014 1A70     		strb	r2, [r3]
 306 0016 0A23     		movs	r3, #10
 307 0018 FB18     		adds	r3, r7, r3
 308 001a 0A1C     		adds	r2, r1, #0
 309 001c 1A70     		strb	r2, [r3]
  59:..\CANLib/CANMotorUnit.c ****     packetToAssemble->id = ConstructCANID(PACKET_PRIORITY_NORMAL, targetDeviceGroup, targetDeviceSe
 310              		.loc 1 59 0
 311 001e 0A23     		movs	r3, #10
 312 0020 FB18     		adds	r3, r7, r3
 313 0022 1A78     		ldrb	r2, [r3]
 314 0024 0B23     		movs	r3, #11
 315 0026 FB18     		adds	r3, r7, r3
 316 0028 1B78     		ldrb	r3, [r3]
 317 002a 1900     		movs	r1, r3
 318 002c 0120     		movs	r0, #1
 319 002e FFF7FEFF 		bl	ConstructCANID
 320 0032 0300     		movs	r3, r0
 321 0034 1A00     		movs	r2, r3
 322 0036 FB68     		ldr	r3, [r7, #12]
 323 0038 1A80     		strh	r2, [r3]
  60:..\CANLib/CANMotorUnit.c ****     packetToAssemble->dlc = DLC_MOTOR_UNIT_PID_POS_TGT_SET;
 324              		.loc 1 60 0
 325 003a FB68     		ldr	r3, [r7, #12]
 326 003c 0522     		movs	r2, #5
 327 003e 9A70     		strb	r2, [r3, #2]
  61:..\CANLib/CANMotorUnit.c ****     int nextByte = WritePacketIDOnly(packetToAssemble->data, ID_MOTOR_UNIT_PID_POS_TGT_SET);
 328              		.loc 1 61 0
 329 0040 FB68     		ldr	r3, [r7, #12]
 330 0042 0333     		adds	r3, r3, #3
 331 0044 0421     		movs	r1, #4
 332 0046 1800     		movs	r0, r3
 333 0048 FFF7FEFF 		bl	WritePacketIDOnly
 334 004c 0300     		movs	r3, r0
 335 004e 7B61     		str	r3, [r7, #20]
  62:..\CANLib/CANMotorUnit.c ****     PackIntIntoDataMSBFirst(packetToAssemble->data, target, nextByte);
 336              		.loc 1 62 0
 337 0050 FB68     		ldr	r3, [r7, #12]
ARM GAS  C:\Users\Austcha\AppData\Local\Temp\ccV5xKP9.s 			page 8


 338 0052 0333     		adds	r3, r3, #3
 339 0054 7A69     		ldr	r2, [r7, #20]
 340 0056 7968     		ldr	r1, [r7, #4]
 341 0058 1800     		movs	r0, r3
 342 005a FFF7FEFF 		bl	PackIntIntoDataMSBFirst
  63:..\CANLib/CANMotorUnit.c **** }
 343              		.loc 1 63 0
 344 005e C046     		nop
 345 0060 BD46     		mov	sp, r7
 346 0062 06B0     		add	sp, sp, #24
 347              		@ sp needed
 348 0064 80BD     		pop	{r7, pc}
 349              		.cfi_endproc
 350              	.LFE5:
 351              		.size	AssemblePIDTargetSetPacket, .-AssemblePIDTargetSetPacket
 352 0066 C046     		.section	.text.GetPIDTargetFromPacket,"ax",%progbits
 353              		.align	2
 354              		.global	GetPIDTargetFromPacket
 355              		.code	16
 356              		.thumb_func
 357              		.type	GetPIDTargetFromPacket, %function
 358              	GetPIDTargetFromPacket:
 359              	.LFB6:
  64:..\CANLib/CANMotorUnit.c **** 
  65:..\CANLib/CANMotorUnit.c **** uint8_t GetPIDTargetFromPacket(CANPacket *packet)
  66:..\CANLib/CANMotorUnit.c **** {
 360              		.loc 1 66 0
 361              		.cfi_startproc
 362              		@ args = 0, pretend = 0, frame = 8
 363              		@ frame_needed = 1, uses_anonymous_args = 0
 364 0000 80B5     		push	{r7, lr}
 365              		.cfi_def_cfa_offset 8
 366              		.cfi_offset 7, -8
 367              		.cfi_offset 14, -4
 368 0002 82B0     		sub	sp, sp, #8
 369              		.cfi_def_cfa_offset 16
 370 0004 00AF     		add	r7, sp, #0
 371              		.cfi_def_cfa_register 7
 372 0006 7860     		str	r0, [r7, #4]
  67:..\CANLib/CANMotorUnit.c ****     return DecodeBytesToIntMSBFirst(packet->data, DLC_MOTOR_UNIT_PID_POS_TGT_SET - 5, DLC_MOTOR_UNI
 373              		.loc 1 67 0
 374 0008 7B68     		ldr	r3, [r7, #4]
 375 000a 0333     		adds	r3, r3, #3
 376 000c 0422     		movs	r2, #4
 377 000e 0021     		movs	r1, #0
 378 0010 1800     		movs	r0, r3
 379 0012 FFF7FEFF 		bl	DecodeBytesToIntMSBFirst
 380 0016 0300     		movs	r3, r0
 381 0018 DBB2     		uxtb	r3, r3
  68:..\CANLib/CANMotorUnit.c **** }
 382              		.loc 1 68 0
 383 001a 1800     		movs	r0, r3
 384 001c BD46     		mov	sp, r7
 385 001e 02B0     		add	sp, sp, #8
 386              		@ sp needed
 387 0020 80BD     		pop	{r7, pc}
 388              		.cfi_endproc
ARM GAS  C:\Users\Austcha\AppData\Local\Temp\ccV5xKP9.s 			page 9


 389              	.LFE6:
 390              		.size	GetPIDTargetFromPacket, .-GetPIDTargetFromPacket
 391 0022 C046     		.section	.text.AssemblePSetPacket,"ax",%progbits
 392              		.align	2
 393              		.global	AssemblePSetPacket
 394              		.code	16
 395              		.thumb_func
 396              		.type	AssemblePSetPacket, %function
 397              	AssemblePSetPacket:
 398              	.LFB7:
  69:..\CANLib/CANMotorUnit.c **** 
  70:..\CANLib/CANMotorUnit.c **** void AssemblePSetPacket(CANPacket *packetToAssemble,
  71:..\CANLib/CANMotorUnit.c ****     uint8_t targetDeviceGroup,
  72:..\CANLib/CANMotorUnit.c ****     uint8_t targetDeviceSerial,
  73:..\CANLib/CANMotorUnit.c ****     int32_t pCoef)
  74:..\CANLib/CANMotorUnit.c **** {
 399              		.loc 1 74 0
 400              		.cfi_startproc
 401              		@ args = 0, pretend = 0, frame = 24
 402              		@ frame_needed = 1, uses_anonymous_args = 0
 403 0000 80B5     		push	{r7, lr}
 404              		.cfi_def_cfa_offset 8
 405              		.cfi_offset 7, -8
 406              		.cfi_offset 14, -4
 407 0002 86B0     		sub	sp, sp, #24
 408              		.cfi_def_cfa_offset 32
 409 0004 00AF     		add	r7, sp, #0
 410              		.cfi_def_cfa_register 7
 411 0006 F860     		str	r0, [r7, #12]
 412 0008 0800     		movs	r0, r1
 413 000a 1100     		movs	r1, r2
 414 000c 7B60     		str	r3, [r7, #4]
 415 000e 0B23     		movs	r3, #11
 416 0010 FB18     		adds	r3, r7, r3
 417 0012 021C     		adds	r2, r0, #0
 418 0014 1A70     		strb	r2, [r3]
 419 0016 0A23     		movs	r3, #10
 420 0018 FB18     		adds	r3, r7, r3
 421 001a 0A1C     		adds	r2, r1, #0
 422 001c 1A70     		strb	r2, [r3]
  75:..\CANLib/CANMotorUnit.c ****     packetToAssemble->id = ConstructCANID(PACKET_PRIORITY_NORMAL, targetDeviceGroup, targetDeviceSe
 423              		.loc 1 75 0
 424 001e 0A23     		movs	r3, #10
 425 0020 FB18     		adds	r3, r7, r3
 426 0022 1A78     		ldrb	r2, [r3]
 427 0024 0B23     		movs	r3, #11
 428 0026 FB18     		adds	r3, r7, r3
 429 0028 1B78     		ldrb	r3, [r3]
 430 002a 1900     		movs	r1, r3
 431 002c 0120     		movs	r0, #1
 432 002e FFF7FEFF 		bl	ConstructCANID
 433 0032 0300     		movs	r3, r0
 434 0034 1A00     		movs	r2, r3
 435 0036 FB68     		ldr	r3, [r7, #12]
 436 0038 1A80     		strh	r2, [r3]
  76:..\CANLib/CANMotorUnit.c ****     packetToAssemble->dlc = DLC_MOTOR_UNIT_PID_P_SET;
 437              		.loc 1 76 0
ARM GAS  C:\Users\Austcha\AppData\Local\Temp\ccV5xKP9.s 			page 10


 438 003a FB68     		ldr	r3, [r7, #12]
 439 003c 0522     		movs	r2, #5
 440 003e 9A70     		strb	r2, [r3, #2]
  77:..\CANLib/CANMotorUnit.c ****     int nextByte = WritePacketIDOnly(packetToAssemble->data, ID_MOTOR_UNIT_PID_P_SET);
 441              		.loc 1 77 0
 442 0040 FB68     		ldr	r3, [r7, #12]
 443 0042 0333     		adds	r3, r3, #3
 444 0044 0521     		movs	r1, #5
 445 0046 1800     		movs	r0, r3
 446 0048 FFF7FEFF 		bl	WritePacketIDOnly
 447 004c 0300     		movs	r3, r0
 448 004e 7B61     		str	r3, [r7, #20]
  78:..\CANLib/CANMotorUnit.c ****     PackIntIntoDataMSBFirst(packetToAssemble->data, pCoef, nextByte);
 449              		.loc 1 78 0
 450 0050 FB68     		ldr	r3, [r7, #12]
 451 0052 0333     		adds	r3, r3, #3
 452 0054 7A69     		ldr	r2, [r7, #20]
 453 0056 7968     		ldr	r1, [r7, #4]
 454 0058 1800     		movs	r0, r3
 455 005a FFF7FEFF 		bl	PackIntIntoDataMSBFirst
  79:..\CANLib/CANMotorUnit.c **** }
 456              		.loc 1 79 0
 457 005e C046     		nop
 458 0060 BD46     		mov	sp, r7
 459 0062 06B0     		add	sp, sp, #24
 460              		@ sp needed
 461 0064 80BD     		pop	{r7, pc}
 462              		.cfi_endproc
 463              	.LFE7:
 464              		.size	AssemblePSetPacket, .-AssemblePSetPacket
 465 0066 C046     		.section	.text.GetPFromPacket,"ax",%progbits
 466              		.align	2
 467              		.global	GetPFromPacket
 468              		.code	16
 469              		.thumb_func
 470              		.type	GetPFromPacket, %function
 471              	GetPFromPacket:
 472              	.LFB8:
  80:..\CANLib/CANMotorUnit.c **** 
  81:..\CANLib/CANMotorUnit.c **** int32_t GetPFromPacket(CANPacket *packet)
  82:..\CANLib/CANMotorUnit.c **** {
 473              		.loc 1 82 0
 474              		.cfi_startproc
 475              		@ args = 0, pretend = 0, frame = 8
 476              		@ frame_needed = 1, uses_anonymous_args = 0
 477 0000 80B5     		push	{r7, lr}
 478              		.cfi_def_cfa_offset 8
 479              		.cfi_offset 7, -8
 480              		.cfi_offset 14, -4
 481 0002 82B0     		sub	sp, sp, #8
 482              		.cfi_def_cfa_offset 16
 483 0004 00AF     		add	r7, sp, #0
 484              		.cfi_def_cfa_register 7
 485 0006 7860     		str	r0, [r7, #4]
  83:..\CANLib/CANMotorUnit.c ****     return DecodeBytesToIntMSBFirst(packet->data, DLC_MOTOR_UNIT_PID_P_SET - 5, DLC_MOTOR_UNIT_PID_
 486              		.loc 1 83 0
 487 0008 7B68     		ldr	r3, [r7, #4]
ARM GAS  C:\Users\Austcha\AppData\Local\Temp\ccV5xKP9.s 			page 11


 488 000a 0333     		adds	r3, r3, #3
 489 000c 0422     		movs	r2, #4
 490 000e 0021     		movs	r1, #0
 491 0010 1800     		movs	r0, r3
 492 0012 FFF7FEFF 		bl	DecodeBytesToIntMSBFirst
 493 0016 0300     		movs	r3, r0
  84:..\CANLib/CANMotorUnit.c **** }
 494              		.loc 1 84 0
 495 0018 1800     		movs	r0, r3
 496 001a BD46     		mov	sp, r7
 497 001c 02B0     		add	sp, sp, #8
 498              		@ sp needed
 499 001e 80BD     		pop	{r7, pc}
 500              		.cfi_endproc
 501              	.LFE8:
 502              		.size	GetPFromPacket, .-GetPFromPacket
 503              		.section	.text.AssembleISetPacket,"ax",%progbits
 504              		.align	2
 505              		.global	AssembleISetPacket
 506              		.code	16
 507              		.thumb_func
 508              		.type	AssembleISetPacket, %function
 509              	AssembleISetPacket:
 510              	.LFB9:
  85:..\CANLib/CANMotorUnit.c **** 
  86:..\CANLib/CANMotorUnit.c **** void AssembleISetPacket(CANPacket *packetToAssemble,
  87:..\CANLib/CANMotorUnit.c ****     uint8_t targetDeviceGroup,
  88:..\CANLib/CANMotorUnit.c ****     uint8_t targetDeviceSerial,
  89:..\CANLib/CANMotorUnit.c ****     int32_t iCoef)
  90:..\CANLib/CANMotorUnit.c **** {
 511              		.loc 1 90 0
 512              		.cfi_startproc
 513              		@ args = 0, pretend = 0, frame = 24
 514              		@ frame_needed = 1, uses_anonymous_args = 0
 515 0000 80B5     		push	{r7, lr}
 516              		.cfi_def_cfa_offset 8
 517              		.cfi_offset 7, -8
 518              		.cfi_offset 14, -4
 519 0002 86B0     		sub	sp, sp, #24
 520              		.cfi_def_cfa_offset 32
 521 0004 00AF     		add	r7, sp, #0
 522              		.cfi_def_cfa_register 7
 523 0006 F860     		str	r0, [r7, #12]
 524 0008 0800     		movs	r0, r1
 525 000a 1100     		movs	r1, r2
 526 000c 7B60     		str	r3, [r7, #4]
 527 000e 0B23     		movs	r3, #11
 528 0010 FB18     		adds	r3, r7, r3
 529 0012 021C     		adds	r2, r0, #0
 530 0014 1A70     		strb	r2, [r3]
 531 0016 0A23     		movs	r3, #10
 532 0018 FB18     		adds	r3, r7, r3
 533 001a 0A1C     		adds	r2, r1, #0
 534 001c 1A70     		strb	r2, [r3]
  91:..\CANLib/CANMotorUnit.c ****     packetToAssemble->id = ConstructCANID(PACKET_PRIORITY_NORMAL, targetDeviceGroup, targetDeviceSe
 535              		.loc 1 91 0
 536 001e 0A23     		movs	r3, #10
ARM GAS  C:\Users\Austcha\AppData\Local\Temp\ccV5xKP9.s 			page 12


 537 0020 FB18     		adds	r3, r7, r3
 538 0022 1A78     		ldrb	r2, [r3]
 539 0024 0B23     		movs	r3, #11
 540 0026 FB18     		adds	r3, r7, r3
 541 0028 1B78     		ldrb	r3, [r3]
 542 002a 1900     		movs	r1, r3
 543 002c 0120     		movs	r0, #1
 544 002e FFF7FEFF 		bl	ConstructCANID
 545 0032 0300     		movs	r3, r0
 546 0034 1A00     		movs	r2, r3
 547 0036 FB68     		ldr	r3, [r7, #12]
 548 0038 1A80     		strh	r2, [r3]
  92:..\CANLib/CANMotorUnit.c ****     packetToAssemble->dlc = DLC_MOTOR_UNIT_PID_I_SET;
 549              		.loc 1 92 0
 550 003a FB68     		ldr	r3, [r7, #12]
 551 003c 0522     		movs	r2, #5
 552 003e 9A70     		strb	r2, [r3, #2]
  93:..\CANLib/CANMotorUnit.c ****     int nextByte = WritePacketIDOnly(packetToAssemble->data, ID_MOTOR_UNIT_PID_I_SET);
 553              		.loc 1 93 0
 554 0040 FB68     		ldr	r3, [r7, #12]
 555 0042 0333     		adds	r3, r3, #3
 556 0044 0621     		movs	r1, #6
 557 0046 1800     		movs	r0, r3
 558 0048 FFF7FEFF 		bl	WritePacketIDOnly
 559 004c 0300     		movs	r3, r0
 560 004e 7B61     		str	r3, [r7, #20]
  94:..\CANLib/CANMotorUnit.c ****     PackIntIntoDataMSBFirst(packetToAssemble->data, iCoef, nextByte);
 561              		.loc 1 94 0
 562 0050 FB68     		ldr	r3, [r7, #12]
 563 0052 0333     		adds	r3, r3, #3
 564 0054 7A69     		ldr	r2, [r7, #20]
 565 0056 7968     		ldr	r1, [r7, #4]
 566 0058 1800     		movs	r0, r3
 567 005a FFF7FEFF 		bl	PackIntIntoDataMSBFirst
  95:..\CANLib/CANMotorUnit.c **** }
 568              		.loc 1 95 0
 569 005e C046     		nop
 570 0060 BD46     		mov	sp, r7
 571 0062 06B0     		add	sp, sp, #24
 572              		@ sp needed
 573 0064 80BD     		pop	{r7, pc}
 574              		.cfi_endproc
 575              	.LFE9:
 576              		.size	AssembleISetPacket, .-AssembleISetPacket
 577 0066 C046     		.section	.text.GetIFromPacket,"ax",%progbits
 578              		.align	2
 579              		.global	GetIFromPacket
 580              		.code	16
 581              		.thumb_func
 582              		.type	GetIFromPacket, %function
 583              	GetIFromPacket:
 584              	.LFB10:
  96:..\CANLib/CANMotorUnit.c **** 
  97:..\CANLib/CANMotorUnit.c **** int32_t GetIFromPacket(CANPacket *packet)
  98:..\CANLib/CANMotorUnit.c **** {
 585              		.loc 1 98 0
 586              		.cfi_startproc
ARM GAS  C:\Users\Austcha\AppData\Local\Temp\ccV5xKP9.s 			page 13


 587              		@ args = 0, pretend = 0, frame = 8
 588              		@ frame_needed = 1, uses_anonymous_args = 0
 589 0000 80B5     		push	{r7, lr}
 590              		.cfi_def_cfa_offset 8
 591              		.cfi_offset 7, -8
 592              		.cfi_offset 14, -4
 593 0002 82B0     		sub	sp, sp, #8
 594              		.cfi_def_cfa_offset 16
 595 0004 00AF     		add	r7, sp, #0
 596              		.cfi_def_cfa_register 7
 597 0006 7860     		str	r0, [r7, #4]
  99:..\CANLib/CANMotorUnit.c ****     return DecodeBytesToIntMSBFirst(packet->data, DLC_MOTOR_UNIT_PID_I_SET - 5, DLC_MOTOR_UNIT_PID_
 598              		.loc 1 99 0
 599 0008 7B68     		ldr	r3, [r7, #4]
 600 000a 0333     		adds	r3, r3, #3
 601 000c 0422     		movs	r2, #4
 602 000e 0021     		movs	r1, #0
 603 0010 1800     		movs	r0, r3
 604 0012 FFF7FEFF 		bl	DecodeBytesToIntMSBFirst
 605 0016 0300     		movs	r3, r0
 100:..\CANLib/CANMotorUnit.c **** }
 606              		.loc 1 100 0
 607 0018 1800     		movs	r0, r3
 608 001a BD46     		mov	sp, r7
 609 001c 02B0     		add	sp, sp, #8
 610              		@ sp needed
 611 001e 80BD     		pop	{r7, pc}
 612              		.cfi_endproc
 613              	.LFE10:
 614              		.size	GetIFromPacket, .-GetIFromPacket
 615              		.section	.text.AssembleDSetPacket,"ax",%progbits
 616              		.align	2
 617              		.global	AssembleDSetPacket
 618              		.code	16
 619              		.thumb_func
 620              		.type	AssembleDSetPacket, %function
 621              	AssembleDSetPacket:
 622              	.LFB11:
 101:..\CANLib/CANMotorUnit.c **** 
 102:..\CANLib/CANMotorUnit.c **** void AssembleDSetPacket(CANPacket *packetToAssemble,
 103:..\CANLib/CANMotorUnit.c ****     uint8_t targetDeviceGroup,
 104:..\CANLib/CANMotorUnit.c ****     uint8_t targetDeviceSerial,
 105:..\CANLib/CANMotorUnit.c ****     int32_t dCoef)
 106:..\CANLib/CANMotorUnit.c **** {
 623              		.loc 1 106 0
 624              		.cfi_startproc
 625              		@ args = 0, pretend = 0, frame = 24
 626              		@ frame_needed = 1, uses_anonymous_args = 0
 627 0000 80B5     		push	{r7, lr}
 628              		.cfi_def_cfa_offset 8
 629              		.cfi_offset 7, -8
 630              		.cfi_offset 14, -4
 631 0002 86B0     		sub	sp, sp, #24
 632              		.cfi_def_cfa_offset 32
 633 0004 00AF     		add	r7, sp, #0
 634              		.cfi_def_cfa_register 7
 635 0006 F860     		str	r0, [r7, #12]
ARM GAS  C:\Users\Austcha\AppData\Local\Temp\ccV5xKP9.s 			page 14


 636 0008 0800     		movs	r0, r1
 637 000a 1100     		movs	r1, r2
 638 000c 7B60     		str	r3, [r7, #4]
 639 000e 0B23     		movs	r3, #11
 640 0010 FB18     		adds	r3, r7, r3
 641 0012 021C     		adds	r2, r0, #0
 642 0014 1A70     		strb	r2, [r3]
 643 0016 0A23     		movs	r3, #10
 644 0018 FB18     		adds	r3, r7, r3
 645 001a 0A1C     		adds	r2, r1, #0
 646 001c 1A70     		strb	r2, [r3]
 107:..\CANLib/CANMotorUnit.c ****     packetToAssemble->id = ConstructCANID(PACKET_PRIORITY_NORMAL, targetDeviceGroup, targetDeviceSe
 647              		.loc 1 107 0
 648 001e 0A23     		movs	r3, #10
 649 0020 FB18     		adds	r3, r7, r3
 650 0022 1A78     		ldrb	r2, [r3]
 651 0024 0B23     		movs	r3, #11
 652 0026 FB18     		adds	r3, r7, r3
 653 0028 1B78     		ldrb	r3, [r3]
 654 002a 1900     		movs	r1, r3
 655 002c 0120     		movs	r0, #1
 656 002e FFF7FEFF 		bl	ConstructCANID
 657 0032 0300     		movs	r3, r0
 658 0034 1A00     		movs	r2, r3
 659 0036 FB68     		ldr	r3, [r7, #12]
 660 0038 1A80     		strh	r2, [r3]
 108:..\CANLib/CANMotorUnit.c ****     packetToAssemble->dlc = DLC_MOTOR_UNIT_PID_D_SET;
 661              		.loc 1 108 0
 662 003a FB68     		ldr	r3, [r7, #12]
 663 003c 0522     		movs	r2, #5
 664 003e 9A70     		strb	r2, [r3, #2]
 109:..\CANLib/CANMotorUnit.c ****     int nextByte = WritePacketIDOnly(packetToAssemble->data, ID_MOTOR_UNIT_PID_D_SET);
 665              		.loc 1 109 0
 666 0040 FB68     		ldr	r3, [r7, #12]
 667 0042 0333     		adds	r3, r3, #3
 668 0044 0721     		movs	r1, #7
 669 0046 1800     		movs	r0, r3
 670 0048 FFF7FEFF 		bl	WritePacketIDOnly
 671 004c 0300     		movs	r3, r0
 672 004e 7B61     		str	r3, [r7, #20]
 110:..\CANLib/CANMotorUnit.c ****     PackIntIntoDataMSBFirst(packetToAssemble->data, dCoef, nextByte);
 673              		.loc 1 110 0
 674 0050 FB68     		ldr	r3, [r7, #12]
 675 0052 0333     		adds	r3, r3, #3
 676 0054 7A69     		ldr	r2, [r7, #20]
 677 0056 7968     		ldr	r1, [r7, #4]
 678 0058 1800     		movs	r0, r3
 679 005a FFF7FEFF 		bl	PackIntIntoDataMSBFirst
 111:..\CANLib/CANMotorUnit.c **** }
 680              		.loc 1 111 0
 681 005e C046     		nop
 682 0060 BD46     		mov	sp, r7
 683 0062 06B0     		add	sp, sp, #24
 684              		@ sp needed
 685 0064 80BD     		pop	{r7, pc}
 686              		.cfi_endproc
 687              	.LFE11:
ARM GAS  C:\Users\Austcha\AppData\Local\Temp\ccV5xKP9.s 			page 15


 688              		.size	AssembleDSetPacket, .-AssembleDSetPacket
 689 0066 C046     		.section	.text.GetDFromPacket,"ax",%progbits
 690              		.align	2
 691              		.global	GetDFromPacket
 692              		.code	16
 693              		.thumb_func
 694              		.type	GetDFromPacket, %function
 695              	GetDFromPacket:
 696              	.LFB12:
 112:..\CANLib/CANMotorUnit.c **** 
 113:..\CANLib/CANMotorUnit.c **** int32_t GetDFromPacket(CANPacket *packet)
 114:..\CANLib/CANMotorUnit.c **** {
 697              		.loc 1 114 0
 698              		.cfi_startproc
 699              		@ args = 0, pretend = 0, frame = 8
 700              		@ frame_needed = 1, uses_anonymous_args = 0
 701 0000 80B5     		push	{r7, lr}
 702              		.cfi_def_cfa_offset 8
 703              		.cfi_offset 7, -8
 704              		.cfi_offset 14, -4
 705 0002 82B0     		sub	sp, sp, #8
 706              		.cfi_def_cfa_offset 16
 707 0004 00AF     		add	r7, sp, #0
 708              		.cfi_def_cfa_register 7
 709 0006 7860     		str	r0, [r7, #4]
 115:..\CANLib/CANMotorUnit.c ****     return DecodeBytesToIntMSBFirst(packet->data, DLC_MOTOR_UNIT_PID_D_SET - 5, DLC_MOTOR_UNIT_PID_
 710              		.loc 1 115 0
 711 0008 7B68     		ldr	r3, [r7, #4]
 712 000a 0333     		adds	r3, r3, #3
 713 000c 0422     		movs	r2, #4
 714 000e 0021     		movs	r1, #0
 715 0010 1800     		movs	r0, r3
 716 0012 FFF7FEFF 		bl	DecodeBytesToIntMSBFirst
 717 0016 0300     		movs	r3, r0
 116:..\CANLib/CANMotorUnit.c **** }
 718              		.loc 1 116 0
 719 0018 1800     		movs	r0, r3
 720 001a BD46     		mov	sp, r7
 721 001c 02B0     		add	sp, sp, #8
 722              		@ sp needed
 723 001e 80BD     		pop	{r7, pc}
 724              		.cfi_endproc
 725              	.LFE12:
 726              		.size	GetDFromPacket, .-GetDFromPacket
 727              		.section	.text.AssembleInitializePacket,"ax",%progbits
 728              		.align	2
 729              		.global	AssembleInitializePacket
 730              		.code	16
 731              		.thumb_func
 732              		.type	AssembleInitializePacket, %function
 733              	AssembleInitializePacket:
 734              	.LFB13:
 117:..\CANLib/CANMotorUnit.c **** 
 118:..\CANLib/CANMotorUnit.c **** void AssembleInitializePacket(CANPacket *packetToAssemble,
 119:..\CANLib/CANMotorUnit.c ****     uint8_t targetDeviceGroup,
 120:..\CANLib/CANMotorUnit.c ****     uint8_t targetDeviceSerial,
 121:..\CANLib/CANMotorUnit.c ****     uint8_t initMode)
ARM GAS  C:\Users\Austcha\AppData\Local\Temp\ccV5xKP9.s 			page 16


 122:..\CANLib/CANMotorUnit.c **** {
 735              		.loc 1 122 0
 736              		.cfi_startproc
 737              		@ args = 0, pretend = 0, frame = 16
 738              		@ frame_needed = 1, uses_anonymous_args = 0
 739 0000 90B5     		push	{r4, r7, lr}
 740              		.cfi_def_cfa_offset 12
 741              		.cfi_offset 4, -12
 742              		.cfi_offset 7, -8
 743              		.cfi_offset 14, -4
 744 0002 85B0     		sub	sp, sp, #20
 745              		.cfi_def_cfa_offset 32
 746 0004 00AF     		add	r7, sp, #0
 747              		.cfi_def_cfa_register 7
 748 0006 7860     		str	r0, [r7, #4]
 749 0008 0C00     		movs	r4, r1
 750 000a 1000     		movs	r0, r2
 751 000c 1900     		movs	r1, r3
 752 000e FB1C     		adds	r3, r7, #3
 753 0010 221C     		adds	r2, r4, #0
 754 0012 1A70     		strb	r2, [r3]
 755 0014 BB1C     		adds	r3, r7, #2
 756 0016 021C     		adds	r2, r0, #0
 757 0018 1A70     		strb	r2, [r3]
 758 001a 7B1C     		adds	r3, r7, #1
 759 001c 0A1C     		adds	r2, r1, #0
 760 001e 1A70     		strb	r2, [r3]
 123:..\CANLib/CANMotorUnit.c ****     packetToAssemble->id = ConstructCANID(PRIO_MOTOR_UNIT_INIT, targetDeviceGroup, targetDeviceSeri
 761              		.loc 1 123 0
 762 0020 BB1C     		adds	r3, r7, #2
 763 0022 1A78     		ldrb	r2, [r3]
 764 0024 FB1C     		adds	r3, r7, #3
 765 0026 1B78     		ldrb	r3, [r3]
 766 0028 1900     		movs	r1, r3
 767 002a 0120     		movs	r0, #1
 768 002c FFF7FEFF 		bl	ConstructCANID
 769 0030 0300     		movs	r3, r0
 770 0032 1A00     		movs	r2, r3
 771 0034 7B68     		ldr	r3, [r7, #4]
 772 0036 1A80     		strh	r2, [r3]
 124:..\CANLib/CANMotorUnit.c ****     packetToAssemble->dlc = DLC_MOTOR_UNIT_INIT;
 773              		.loc 1 124 0
 774 0038 7B68     		ldr	r3, [r7, #4]
 775 003a 0222     		movs	r2, #2
 776 003c 9A70     		strb	r2, [r3, #2]
 125:..\CANLib/CANMotorUnit.c ****     int nextByte = WritePacketIDOnly(packetToAssemble->data, ID_MOTOR_UNIT_INIT);
 777              		.loc 1 125 0
 778 003e 7B68     		ldr	r3, [r7, #4]
 779 0040 0333     		adds	r3, r3, #3
 780 0042 0821     		movs	r1, #8
 781 0044 1800     		movs	r0, r3
 782 0046 FFF7FEFF 		bl	WritePacketIDOnly
 783 004a 0300     		movs	r3, r0
 784 004c FB60     		str	r3, [r7, #12]
 126:..\CANLib/CANMotorUnit.c ****     packetToAssemble->data[nextByte] = initMode;
 785              		.loc 1 126 0
 786 004e 7A68     		ldr	r2, [r7, #4]
ARM GAS  C:\Users\Austcha\AppData\Local\Temp\ccV5xKP9.s 			page 17


 787 0050 FB68     		ldr	r3, [r7, #12]
 788 0052 D318     		adds	r3, r2, r3
 789 0054 0333     		adds	r3, r3, #3
 790 0056 7A1C     		adds	r2, r7, #1
 791 0058 1278     		ldrb	r2, [r2]
 792 005a 1A70     		strb	r2, [r3]
 127:..\CANLib/CANMotorUnit.c **** }
 793              		.loc 1 127 0
 794 005c C046     		nop
 795 005e BD46     		mov	sp, r7
 796 0060 05B0     		add	sp, sp, #20
 797              		@ sp needed
 798 0062 90BD     		pop	{r4, r7, pc}
 799              		.cfi_endproc
 800              	.LFE13:
 801              		.size	AssembleInitializePacket, .-AssembleInitializePacket
 802              		.section	.text.GetInitModeFromPacket,"ax",%progbits
 803              		.align	2
 804              		.global	GetInitModeFromPacket
 805              		.code	16
 806              		.thumb_func
 807              		.type	GetInitModeFromPacket, %function
 808              	GetInitModeFromPacket:
 809              	.LFB14:
 128:..\CANLib/CANMotorUnit.c **** uint8_t GetInitModeFromPacket(CANPacket *packet)
 129:..\CANLib/CANMotorUnit.c **** {
 810              		.loc 1 129 0
 811              		.cfi_startproc
 812              		@ args = 0, pretend = 0, frame = 8
 813              		@ frame_needed = 1, uses_anonymous_args = 0
 814 0000 80B5     		push	{r7, lr}
 815              		.cfi_def_cfa_offset 8
 816              		.cfi_offset 7, -8
 817              		.cfi_offset 14, -4
 818 0002 82B0     		sub	sp, sp, #8
 819              		.cfi_def_cfa_offset 16
 820 0004 00AF     		add	r7, sp, #0
 821              		.cfi_def_cfa_register 7
 822 0006 7860     		str	r0, [r7, #4]
 130:..\CANLib/CANMotorUnit.c ****     return packet->data[1];
 823              		.loc 1 130 0
 824 0008 7B68     		ldr	r3, [r7, #4]
 825 000a 1B79     		ldrb	r3, [r3, #4]
 131:..\CANLib/CANMotorUnit.c **** }
 826              		.loc 1 131 0
 827 000c 1800     		movs	r0, r3
 828 000e BD46     		mov	sp, r7
 829 0010 02B0     		add	sp, sp, #8
 830              		@ sp needed
 831 0012 80BD     		pop	{r7, pc}
 832              		.cfi_endproc
 833              	.LFE14:
 834              		.size	GetInitModeFromPacket, .-GetInitModeFromPacket
 835              		.section	.text.AssembleLimitSwitchAlertPacket,"ax",%progbits
 836              		.align	2
 837              		.global	AssembleLimitSwitchAlertPacket
 838              		.code	16
ARM GAS  C:\Users\Austcha\AppData\Local\Temp\ccV5xKP9.s 			page 18


 839              		.thumb_func
 840              		.type	AssembleLimitSwitchAlertPacket, %function
 841              	AssembleLimitSwitchAlertPacket:
 842              	.LFB15:
 132:..\CANLib/CANMotorUnit.c **** 
 133:..\CANLib/CANMotorUnit.c **** void AssembleLimitSwitchAlertPacket(CANPacket *packetToAssemble,
 134:..\CANLib/CANMotorUnit.c ****     uint8_t targetDeviceGroup,
 135:..\CANLib/CANMotorUnit.c ****     uint8_t targetDeviceSerial,
 136:..\CANLib/CANMotorUnit.c ****     uint8_t switches)
 137:..\CANLib/CANMotorUnit.c **** {
 843              		.loc 1 137 0
 844              		.cfi_startproc
 845              		@ args = 0, pretend = 0, frame = 16
 846              		@ frame_needed = 1, uses_anonymous_args = 0
 847 0000 90B5     		push	{r4, r7, lr}
 848              		.cfi_def_cfa_offset 12
 849              		.cfi_offset 4, -12
 850              		.cfi_offset 7, -8
 851              		.cfi_offset 14, -4
 852 0002 85B0     		sub	sp, sp, #20
 853              		.cfi_def_cfa_offset 32
 854 0004 00AF     		add	r7, sp, #0
 855              		.cfi_def_cfa_register 7
 856 0006 7860     		str	r0, [r7, #4]
 857 0008 0C00     		movs	r4, r1
 858 000a 1000     		movs	r0, r2
 859 000c 1900     		movs	r1, r3
 860 000e FB1C     		adds	r3, r7, #3
 861 0010 221C     		adds	r2, r4, #0
 862 0012 1A70     		strb	r2, [r3]
 863 0014 BB1C     		adds	r3, r7, #2
 864 0016 021C     		adds	r2, r0, #0
 865 0018 1A70     		strb	r2, [r3]
 866 001a 7B1C     		adds	r3, r7, #1
 867 001c 0A1C     		adds	r2, r1, #0
 868 001e 1A70     		strb	r2, [r3]
 138:..\CANLib/CANMotorUnit.c ****     packetToAssemble->id = ConstructCANID(PRIO_MOTOR_UNIT_LIM_ALERT, targetDeviceGroup, targetDevic
 869              		.loc 1 138 0
 870 0020 BB1C     		adds	r3, r7, #2
 871 0022 1A78     		ldrb	r2, [r3]
 872 0024 FB1C     		adds	r3, r7, #3
 873 0026 1B78     		ldrb	r3, [r3]
 874 0028 1900     		movs	r1, r3
 875 002a 0020     		movs	r0, #0
 876 002c FFF7FEFF 		bl	ConstructCANID
 877 0030 0300     		movs	r3, r0
 878 0032 1A00     		movs	r2, r3
 879 0034 7B68     		ldr	r3, [r7, #4]
 880 0036 1A80     		strh	r2, [r3]
 139:..\CANLib/CANMotorUnit.c ****     packetToAssemble->dlc = DLC_MOTOR_UNIT_LIM_ALERT;
 881              		.loc 1 139 0
 882 0038 7B68     		ldr	r3, [r7, #4]
 883 003a 0322     		movs	r2, #3
 884 003c 9A70     		strb	r2, [r3, #2]
 140:..\CANLib/CANMotorUnit.c ****     int nextByte = WriteSenderSerialAndPacketID(packetToAssemble->data, ID_MOTOR_UNIT_LIM_ALERT);
 885              		.loc 1 140 0
 886 003e 7B68     		ldr	r3, [r7, #4]
ARM GAS  C:\Users\Austcha\AppData\Local\Temp\ccV5xKP9.s 			page 19


 887 0040 0333     		adds	r3, r3, #3
 888 0042 0921     		movs	r1, #9
 889 0044 1800     		movs	r0, r3
 890 0046 FFF7FEFF 		bl	WriteSenderSerialAndPacketID
 891 004a 0300     		movs	r3, r0
 892 004c FB60     		str	r3, [r7, #12]
 141:..\CANLib/CANMotorUnit.c ****     packetToAssemble->data[nextByte] = switches; 
 893              		.loc 1 141 0
 894 004e 7A68     		ldr	r2, [r7, #4]
 895 0050 FB68     		ldr	r3, [r7, #12]
 896 0052 D318     		adds	r3, r2, r3
 897 0054 0333     		adds	r3, r3, #3
 898 0056 7A1C     		adds	r2, r7, #1
 899 0058 1278     		ldrb	r2, [r2]
 900 005a 1A70     		strb	r2, [r3]
 142:..\CANLib/CANMotorUnit.c **** }
 901              		.loc 1 142 0
 902 005c C046     		nop
 903 005e BD46     		mov	sp, r7
 904 0060 05B0     		add	sp, sp, #20
 905              		@ sp needed
 906 0062 90BD     		pop	{r4, r7, pc}
 907              		.cfi_endproc
 908              	.LFE15:
 909              		.size	AssembleLimitSwitchAlertPacket, .-AssembleLimitSwitchAlertPacket
 910              		.section	.text.GetLimStatusFromPacket,"ax",%progbits
 911              		.align	2
 912              		.global	GetLimStatusFromPacket
 913              		.code	16
 914              		.thumb_func
 915              		.type	GetLimStatusFromPacket, %function
 916              	GetLimStatusFromPacket:
 917              	.LFB16:
 143:..\CANLib/CANMotorUnit.c **** uint8_t GetLimStatusFromPacket(CANPacket *packet)
 144:..\CANLib/CANMotorUnit.c **** {
 918              		.loc 1 144 0
 919              		.cfi_startproc
 920              		@ args = 0, pretend = 0, frame = 8
 921              		@ frame_needed = 1, uses_anonymous_args = 0
 922 0000 80B5     		push	{r7, lr}
 923              		.cfi_def_cfa_offset 8
 924              		.cfi_offset 7, -8
 925              		.cfi_offset 14, -4
 926 0002 82B0     		sub	sp, sp, #8
 927              		.cfi_def_cfa_offset 16
 928 0004 00AF     		add	r7, sp, #0
 929              		.cfi_def_cfa_register 7
 930 0006 7860     		str	r0, [r7, #4]
 145:..\CANLib/CANMotorUnit.c ****     return packet->data[1];
 931              		.loc 1 145 0
 932 0008 7B68     		ldr	r3, [r7, #4]
 933 000a 1B79     		ldrb	r3, [r3, #4]
 146:..\CANLib/CANMotorUnit.c **** }
 934              		.loc 1 146 0
 935 000c 1800     		movs	r0, r3
 936 000e BD46     		mov	sp, r7
 937 0010 02B0     		add	sp, sp, #8
ARM GAS  C:\Users\Austcha\AppData\Local\Temp\ccV5xKP9.s 			page 20


 938              		@ sp needed
 939 0012 80BD     		pop	{r7, pc}
 940              		.cfi_endproc
 941              	.LFE16:
 942              		.size	GetLimStatusFromPacket, .-GetLimStatusFromPacket
 943              		.section	.text.AssembleEncoderPPJRSetPacket,"ax",%progbits
 944              		.align	2
 945              		.global	AssembleEncoderPPJRSetPacket
 946              		.code	16
 947              		.thumb_func
 948              		.type	AssembleEncoderPPJRSetPacket, %function
 949              	AssembleEncoderPPJRSetPacket:
 950              	.LFB17:
 147:..\CANLib/CANMotorUnit.c **** 
 148:..\CANLib/CANMotorUnit.c **** void AssembleEncoderPPJRSetPacket(CANPacket *packetToAssemble,
 149:..\CANLib/CANMotorUnit.c ****     uint8_t targetDeviceGroup,
 150:..\CANLib/CANMotorUnit.c ****     uint8_t targetDeviceSerial,
 151:..\CANLib/CANMotorUnit.c ****     uint32_t pulses)
 152:..\CANLib/CANMotorUnit.c **** {
 951              		.loc 1 152 0
 952              		.cfi_startproc
 953              		@ args = 0, pretend = 0, frame = 24
 954              		@ frame_needed = 1, uses_anonymous_args = 0
 955 0000 80B5     		push	{r7, lr}
 956              		.cfi_def_cfa_offset 8
 957              		.cfi_offset 7, -8
 958              		.cfi_offset 14, -4
 959 0002 86B0     		sub	sp, sp, #24
 960              		.cfi_def_cfa_offset 32
 961 0004 00AF     		add	r7, sp, #0
 962              		.cfi_def_cfa_register 7
 963 0006 F860     		str	r0, [r7, #12]
 964 0008 0800     		movs	r0, r1
 965 000a 1100     		movs	r1, r2
 966 000c 7B60     		str	r3, [r7, #4]
 967 000e 0B23     		movs	r3, #11
 968 0010 FB18     		adds	r3, r7, r3
 969 0012 021C     		adds	r2, r0, #0
 970 0014 1A70     		strb	r2, [r3]
 971 0016 0A23     		movs	r3, #10
 972 0018 FB18     		adds	r3, r7, r3
 973 001a 0A1C     		adds	r2, r1, #0
 974 001c 1A70     		strb	r2, [r3]
 153:..\CANLib/CANMotorUnit.c ****     packetToAssemble->id = ConstructCANID(PRIO_MOTOR_UNIT_ENC_PPJR_SET, targetDeviceGroup, targetDe
 975              		.loc 1 153 0
 976 001e 0A23     		movs	r3, #10
 977 0020 FB18     		adds	r3, r7, r3
 978 0022 1A78     		ldrb	r2, [r3]
 979 0024 0B23     		movs	r3, #11
 980 0026 FB18     		adds	r3, r7, r3
 981 0028 1B78     		ldrb	r3, [r3]
 982 002a 1900     		movs	r1, r3
 983 002c 0120     		movs	r0, #1
 984 002e FFF7FEFF 		bl	ConstructCANID
 985 0032 0300     		movs	r3, r0
 986 0034 1A00     		movs	r2, r3
 987 0036 FB68     		ldr	r3, [r7, #12]
ARM GAS  C:\Users\Austcha\AppData\Local\Temp\ccV5xKP9.s 			page 21


 988 0038 1A80     		strh	r2, [r3]
 154:..\CANLib/CANMotorUnit.c ****     packetToAssemble->id = DLC_MOTOR_UNIT_ENC_PPJR_SET;
 989              		.loc 1 154 0
 990 003a FB68     		ldr	r3, [r7, #12]
 991 003c 0322     		movs	r2, #3
 992 003e 1A80     		strh	r2, [r3]
 155:..\CANLib/CANMotorUnit.c ****     int nextByte = WritePacketIDOnly(packetToAssemble->data, ID_MOTOR_UNIT_ENC_PPJR_SET);
 993              		.loc 1 155 0
 994 0040 FB68     		ldr	r3, [r7, #12]
 995 0042 0333     		adds	r3, r3, #3
 996 0044 0A21     		movs	r1, #10
 997 0046 1800     		movs	r0, r3
 998 0048 FFF7FEFF 		bl	WritePacketIDOnly
 999 004c 0300     		movs	r3, r0
 1000 004e 7B61     		str	r3, [r7, #20]
 156:..\CANLib/CANMotorUnit.c ****     PackIntIntoDataMSBFirst(packetToAssemble->data, pulses, nextByte);
 1001              		.loc 1 156 0
 1002 0050 FB68     		ldr	r3, [r7, #12]
 1003 0052 0333     		adds	r3, r3, #3
 1004 0054 7968     		ldr	r1, [r7, #4]
 1005 0056 7A69     		ldr	r2, [r7, #20]
 1006 0058 1800     		movs	r0, r3
 1007 005a FFF7FEFF 		bl	PackIntIntoDataMSBFirst
 157:..\CANLib/CANMotorUnit.c **** }
 1008              		.loc 1 157 0
 1009 005e C046     		nop
 1010 0060 BD46     		mov	sp, r7
 1011 0062 06B0     		add	sp, sp, #24
 1012              		@ sp needed
 1013 0064 80BD     		pop	{r7, pc}
 1014              		.cfi_endproc
 1015              	.LFE17:
 1016              		.size	AssembleEncoderPPJRSetPacket, .-AssembleEncoderPPJRSetPacket
 1017 0066 C046     		.section	.text.GetEncoderPPJRFromPacket,"ax",%progbits
 1018              		.align	2
 1019              		.global	GetEncoderPPJRFromPacket
 1020              		.code	16
 1021              		.thumb_func
 1022              		.type	GetEncoderPPJRFromPacket, %function
 1023              	GetEncoderPPJRFromPacket:
 1024              	.LFB18:
 158:..\CANLib/CANMotorUnit.c **** 
 159:..\CANLib/CANMotorUnit.c **** uint32_t GetEncoderPPJRFromPacket(CANPacket *packet)
 160:..\CANLib/CANMotorUnit.c **** {
 1025              		.loc 1 160 0
 1026              		.cfi_startproc
 1027              		@ args = 0, pretend = 0, frame = 8
 1028              		@ frame_needed = 1, uses_anonymous_args = 0
 1029 0000 80B5     		push	{r7, lr}
 1030              		.cfi_def_cfa_offset 8
 1031              		.cfi_offset 7, -8
 1032              		.cfi_offset 14, -4
 1033 0002 82B0     		sub	sp, sp, #8
 1034              		.cfi_def_cfa_offset 16
 1035 0004 00AF     		add	r7, sp, #0
 1036              		.cfi_def_cfa_register 7
 1037 0006 7860     		str	r0, [r7, #4]
ARM GAS  C:\Users\Austcha\AppData\Local\Temp\ccV5xKP9.s 			page 22


 161:..\CANLib/CANMotorUnit.c ****     return DecodeBytesToIntMSBFirst(packet->data, 1, 4);
 1038              		.loc 1 161 0
 1039 0008 7B68     		ldr	r3, [r7, #4]
 1040 000a 0333     		adds	r3, r3, #3
 1041 000c 0422     		movs	r2, #4
 1042 000e 0121     		movs	r1, #1
 1043 0010 1800     		movs	r0, r3
 1044 0012 FFF7FEFF 		bl	DecodeBytesToIntMSBFirst
 1045 0016 0300     		movs	r3, r0
 162:..\CANLib/CANMotorUnit.c **** }
 1046              		.loc 1 162 0
 1047 0018 1800     		movs	r0, r3
 1048 001a BD46     		mov	sp, r7
 1049 001c 02B0     		add	sp, sp, #8
 1050              		@ sp needed
 1051 001e 80BD     		pop	{r7, pc}
 1052              		.cfi_endproc
 1053              	.LFE18:
 1054              		.size	GetEncoderPPJRFromPacket, .-GetEncoderPPJRFromPacket
 1055              		.section	.text.AssembleMaxJointRevolutionPacket,"ax",%progbits
 1056              		.align	2
 1057              		.global	AssembleMaxJointRevolutionPacket
 1058              		.code	16
 1059              		.thumb_func
 1060              		.type	AssembleMaxJointRevolutionPacket, %function
 1061              	AssembleMaxJointRevolutionPacket:
 1062              	.LFB19:
 163:..\CANLib/CANMotorUnit.c **** 
 164:..\CANLib/CANMotorUnit.c **** void AssembleMaxJointRevolutionPacket(CANPacket *packetToAssemble,
 165:..\CANLib/CANMotorUnit.c ****     uint8_t targetDeviceGroup,
 166:..\CANLib/CANMotorUnit.c ****     uint8_t targetDeviceSerial,
 167:..\CANLib/CANMotorUnit.c ****     uint32_t revolutions)
 168:..\CANLib/CANMotorUnit.c **** {
 1063              		.loc 1 168 0
 1064              		.cfi_startproc
 1065              		@ args = 0, pretend = 0, frame = 24
 1066              		@ frame_needed = 1, uses_anonymous_args = 0
 1067 0000 80B5     		push	{r7, lr}
 1068              		.cfi_def_cfa_offset 8
 1069              		.cfi_offset 7, -8
 1070              		.cfi_offset 14, -4
 1071 0002 86B0     		sub	sp, sp, #24
 1072              		.cfi_def_cfa_offset 32
 1073 0004 00AF     		add	r7, sp, #0
 1074              		.cfi_def_cfa_register 7
 1075 0006 F860     		str	r0, [r7, #12]
 1076 0008 0800     		movs	r0, r1
 1077 000a 1100     		movs	r1, r2
 1078 000c 7B60     		str	r3, [r7, #4]
 1079 000e 0B23     		movs	r3, #11
 1080 0010 FB18     		adds	r3, r7, r3
 1081 0012 021C     		adds	r2, r0, #0
 1082 0014 1A70     		strb	r2, [r3]
 1083 0016 0A23     		movs	r3, #10
 1084 0018 FB18     		adds	r3, r7, r3
 1085 001a 0A1C     		adds	r2, r1, #0
 1086 001c 1A70     		strb	r2, [r3]
ARM GAS  C:\Users\Austcha\AppData\Local\Temp\ccV5xKP9.s 			page 23


 169:..\CANLib/CANMotorUnit.c ****     packetToAssemble->id = ConstructCANID(PRIO_MOTOR_UNIT_MAX_JNT_REV_SET, targetDeviceGroup, targe
 1087              		.loc 1 169 0
 1088 001e 0A23     		movs	r3, #10
 1089 0020 FB18     		adds	r3, r7, r3
 1090 0022 1A78     		ldrb	r2, [r3]
 1091 0024 0B23     		movs	r3, #11
 1092 0026 FB18     		adds	r3, r7, r3
 1093 0028 1B78     		ldrb	r3, [r3]
 1094 002a 1900     		movs	r1, r3
 1095 002c 0120     		movs	r0, #1
 1096 002e FFF7FEFF 		bl	ConstructCANID
 1097 0032 0300     		movs	r3, r0
 1098 0034 1A00     		movs	r2, r3
 1099 0036 FB68     		ldr	r3, [r7, #12]
 1100 0038 1A80     		strh	r2, [r3]
 170:..\CANLib/CANMotorUnit.c ****     packetToAssemble->id = DLC_MOTOR_UNIT_MAX_JNT_REV_SET;
 1101              		.loc 1 170 0
 1102 003a FB68     		ldr	r3, [r7, #12]
 1103 003c 0222     		movs	r2, #2
 1104 003e 1A80     		strh	r2, [r3]
 171:..\CANLib/CANMotorUnit.c ****     int nextByte = WritePacketIDOnly(packetToAssemble->data, ID_MOTOR_UNIT_MAX_JNT_REV_SET);
 1105              		.loc 1 171 0
 1106 0040 FB68     		ldr	r3, [r7, #12]
 1107 0042 0333     		adds	r3, r3, #3
 1108 0044 0B21     		movs	r1, #11
 1109 0046 1800     		movs	r0, r3
 1110 0048 FFF7FEFF 		bl	WritePacketIDOnly
 1111 004c 0300     		movs	r3, r0
 1112 004e 7B61     		str	r3, [r7, #20]
 172:..\CANLib/CANMotorUnit.c ****     PackIntIntoDataMSBFirst(packetToAssemble->data, revolutions, nextByte);
 1113              		.loc 1 172 0
 1114 0050 FB68     		ldr	r3, [r7, #12]
 1115 0052 0333     		adds	r3, r3, #3
 1116 0054 7968     		ldr	r1, [r7, #4]
 1117 0056 7A69     		ldr	r2, [r7, #20]
 1118 0058 1800     		movs	r0, r3
 1119 005a FFF7FEFF 		bl	PackIntIntoDataMSBFirst
 173:..\CANLib/CANMotorUnit.c ****     
 174:..\CANLib/CANMotorUnit.c **** }
 1120              		.loc 1 174 0
 1121 005e C046     		nop
 1122 0060 BD46     		mov	sp, r7
 1123 0062 06B0     		add	sp, sp, #24
 1124              		@ sp needed
 1125 0064 80BD     		pop	{r7, pc}
 1126              		.cfi_endproc
 1127              	.LFE19:
 1128              		.size	AssembleMaxJointRevolutionPacket, .-AssembleMaxJointRevolutionPacket
 1129 0066 C046     		.section	.text.GetMaxJointRevolutionsFromPacket,"ax",%progbits
 1130              		.align	2
 1131              		.global	GetMaxJointRevolutionsFromPacket
 1132              		.code	16
 1133              		.thumb_func
 1134              		.type	GetMaxJointRevolutionsFromPacket, %function
 1135              	GetMaxJointRevolutionsFromPacket:
 1136              	.LFB20:
 175:..\CANLib/CANMotorUnit.c **** uint32_t GetMaxJointRevolutionsFromPacket(CANPacket *packet)
ARM GAS  C:\Users\Austcha\AppData\Local\Temp\ccV5xKP9.s 			page 24


 176:..\CANLib/CANMotorUnit.c **** {
 1137              		.loc 1 176 0
 1138              		.cfi_startproc
 1139              		@ args = 0, pretend = 0, frame = 8
 1140              		@ frame_needed = 1, uses_anonymous_args = 0
 1141 0000 80B5     		push	{r7, lr}
 1142              		.cfi_def_cfa_offset 8
 1143              		.cfi_offset 7, -8
 1144              		.cfi_offset 14, -4
 1145 0002 82B0     		sub	sp, sp, #8
 1146              		.cfi_def_cfa_offset 16
 1147 0004 00AF     		add	r7, sp, #0
 1148              		.cfi_def_cfa_register 7
 1149 0006 7860     		str	r0, [r7, #4]
 177:..\CANLib/CANMotorUnit.c ****     return DecodeBytesToIntMSBFirst(packet->data, 1, 4);
 1150              		.loc 1 177 0
 1151 0008 7B68     		ldr	r3, [r7, #4]
 1152 000a 0333     		adds	r3, r3, #3
 1153 000c 0422     		movs	r2, #4
 1154 000e 0121     		movs	r1, #1
 1155 0010 1800     		movs	r0, r3
 1156 0012 FFF7FEFF 		bl	DecodeBytesToIntMSBFirst
 1157 0016 0300     		movs	r3, r0
 178:..\CANLib/CANMotorUnit.c **** }
 1158              		.loc 1 178 0
 1159 0018 1800     		movs	r0, r3
 1160 001a BD46     		mov	sp, r7
 1161 001c 02B0     		add	sp, sp, #8
 1162              		@ sp needed
 1163 001e 80BD     		pop	{r7, pc}
 1164              		.cfi_endproc
 1165              	.LFE20:
 1166              		.size	GetMaxJointRevolutionsFromPacket, .-GetMaxJointRevolutionsFromPacket
 1167              		.text
 1168              	.Letext0:
 1169              		.file 2 "c:\\program files (x86)\\cypress\\psoc creator\\4.3\\psoc creator\\import\\gnu\\arm\\5.4.
 1170              		.file 3 "c:\\program files (x86)\\cypress\\psoc creator\\4.3\\psoc creator\\import\\gnu\\arm\\5.4.
 1171              		.file 4 "..\\CANLib\\CANPacket.h"