ARM GAS  C:\Users\Austcha\AppData\Local\Temp\ccdNIALj.s 			page 1


   1              		.syntax unified
   2              		.cpu cortex-m0
   3              		.fpu softvfp
   4              		.eabi_attribute 20, 1
   5              		.eabi_attribute 21, 1
   6              		.eabi_attribute 23, 3
   7              		.eabi_attribute 24, 1
   8              		.eabi_attribute 25, 1
   9              		.eabi_attribute 26, 1
  10              		.eabi_attribute 30, 6
  11              		.eabi_attribute 34, 0
  12              		.eabi_attribute 18, 4
  13              		.thumb
  14              		.syntax unified
  15              		.file	"CANPacket.c"
  16              		.text
  17              	.Ltext0:
  18              		.cfi_sections	.debug_frame
  19              		.section	.text.ConstructCANID,"ax",%progbits
  20              		.align	2
  21              		.global	ConstructCANID
  22              		.code	16
  23              		.thumb_func
  24              		.type	ConstructCANID, %function
  25              	ConstructCANID:
  26              	.LFB0:
  27              		.file 1 "..\\CANLib\\CANPacket.c"
   1:..\CANLib/CANPacket.c **** /* File:         CANPacket.c
   2:..\CANLib/CANPacket.c ****  * Authors:      Jaden Bottemiller, Benton Kwong, Dylan Tomberlin.
   3:..\CANLib/CANPacket.c ****  * Organization: Husky Robotics Team
   4:..\CANLib/CANPacket.c ****  * 
   5:..\CANLib/CANPacket.c ****  * This file includes fuction definitions for CAN Packet manipulation
   6:..\CANLib/CANPacket.c ****  * using the Hindsight CAN Communication standard.
   7:..\CANLib/CANPacket.c ****  * Documentation: https://huskyroboticsteam.slite.com/app/channels/iU0BryG7M9/collections/aXvWTcIR6
   8:..\CANLib/CANPacket.c ****  */
   9:..\CANLib/CANPacket.c **** 
  10:..\CANLib/CANPacket.c **** #include "CANPacket.h"
  11:..\CANLib/CANPacket.c **** #include "Port.h"
  12:..\CANLib/CANPacket.c **** 
  13:..\CANLib/CANPacket.c **** // Constructs a CAN ID according to standards set by electronics subsystem
  14:..\CANLib/CANPacket.c **** // for hindsight (PY2020 rover). Not compatible with Orpheus (PY2019)
  15:..\CANLib/CANPacket.c **** // Inputs: 
  16:..\CANLib/CANPacket.c **** //      priority:   A byte determing if the packet should be prioritized
  17:..\CANLib/CANPacket.c **** //                  High priority would mean setting this value to 0
  18:..\CANLib/CANPacket.c **** //                  Low priority would mean setting this value to 1
  19:..\CANLib/CANPacket.c **** //      devGroup:   ID of device group
  20:..\CANLib/CANPacket.c **** //      devSerial:  Serial value of device in the device group
  21:..\CANLib/CANPacket.c **** // Output:
  22:..\CANLib/CANPacket.c **** //      CANID:      CAN ID with correct formatting        
  23:..\CANLib/CANPacket.c **** uint16_t ConstructCANID(uint8_t priority, uint8_t devGroup, uint8_t devSerial)
  24:..\CANLib/CANPacket.c **** {
  28              		.loc 1 24 0
  29              		.cfi_startproc
  30              		@ args = 0, pretend = 0, frame = 16
  31              		@ frame_needed = 1, uses_anonymous_args = 0
  32 0000 90B5     		push	{r4, r7, lr}
  33              		.cfi_def_cfa_offset 12
ARM GAS  C:\Users\Austcha\AppData\Local\Temp\ccdNIALj.s 			page 2


  34              		.cfi_offset 4, -12
  35              		.cfi_offset 7, -8
  36              		.cfi_offset 14, -4
  37 0002 85B0     		sub	sp, sp, #20
  38              		.cfi_def_cfa_offset 32
  39 0004 00AF     		add	r7, sp, #0
  40              		.cfi_def_cfa_register 7
  41 0006 0400     		movs	r4, r0
  42 0008 0800     		movs	r0, r1
  43 000a 1100     		movs	r1, r2
  44 000c FB1D     		adds	r3, r7, #7
  45 000e 221C     		adds	r2, r4, #0
  46 0010 1A70     		strb	r2, [r3]
  47 0012 BB1D     		adds	r3, r7, #6
  48 0014 021C     		adds	r2, r0, #0
  49 0016 1A70     		strb	r2, [r3]
  50 0018 7B1D     		adds	r3, r7, #5
  51 001a 0A1C     		adds	r2, r1, #0
  52 001c 1A70     		strb	r2, [r3]
  25:..\CANLib/CANPacket.c ****     uint16_t CANID = 0x0000;
  53              		.loc 1 25 0
  54 001e 0E23     		movs	r3, #14
  55 0020 FB18     		adds	r3, r7, r3
  56 0022 0022     		movs	r2, #0
  57 0024 1A80     		strh	r2, [r3]
  26:..\CANLib/CANPacket.c ****     CANID = CANID | ((priority & 0x01) << 10);
  58              		.loc 1 26 0
  59 0026 FB1D     		adds	r3, r7, #7
  60 0028 1B78     		ldrb	r3, [r3]
  61 002a 9B02     		lsls	r3, r3, #10
  62 002c 1AB2     		sxth	r2, r3
  63 002e 8023     		movs	r3, #128
  64 0030 DB00     		lsls	r3, r3, #3
  65 0032 1340     		ands	r3, r2
  66 0034 1AB2     		sxth	r2, r3
  67 0036 0E23     		movs	r3, #14
  68 0038 FB18     		adds	r3, r7, r3
  69 003a 0021     		movs	r1, #0
  70 003c 5B5E     		ldrsh	r3, [r3, r1]
  71 003e 1343     		orrs	r3, r2
  72 0040 1AB2     		sxth	r2, r3
  73 0042 0E23     		movs	r3, #14
  74 0044 FB18     		adds	r3, r7, r3
  75 0046 1A80     		strh	r2, [r3]
  27:..\CANLib/CANPacket.c ****     CANID = CANID | ((devGroup & 0x0F) << 6);
  76              		.loc 1 27 0
  77 0048 BB1D     		adds	r3, r7, #6
  78 004a 1B78     		ldrb	r3, [r3]
  79 004c 9B01     		lsls	r3, r3, #6
  80 004e 1AB2     		sxth	r2, r3
  81 0050 F023     		movs	r3, #240
  82 0052 9B00     		lsls	r3, r3, #2
  83 0054 1340     		ands	r3, r2
  84 0056 1AB2     		sxth	r2, r3
  85 0058 0E23     		movs	r3, #14
  86 005a FB18     		adds	r3, r7, r3
  87 005c 0021     		movs	r1, #0
ARM GAS  C:\Users\Austcha\AppData\Local\Temp\ccdNIALj.s 			page 3


  88 005e 5B5E     		ldrsh	r3, [r3, r1]
  89 0060 1343     		orrs	r3, r2
  90 0062 1AB2     		sxth	r2, r3
  91 0064 0E23     		movs	r3, #14
  92 0066 FB18     		adds	r3, r7, r3
  93 0068 1A80     		strh	r2, [r3]
  28:..\CANLib/CANPacket.c ****     CANID = CANID | (devSerial & 0x3F);
  94              		.loc 1 28 0
  95 006a 7B1D     		adds	r3, r7, #5
  96 006c 1B78     		ldrb	r3, [r3]
  97 006e 1BB2     		sxth	r3, r3
  98 0070 3F22     		movs	r2, #63
  99 0072 1340     		ands	r3, r2
 100 0074 1AB2     		sxth	r2, r3
 101 0076 0E23     		movs	r3, #14
 102 0078 FB18     		adds	r3, r7, r3
 103 007a 0021     		movs	r1, #0
 104 007c 5B5E     		ldrsh	r3, [r3, r1]
 105 007e 1343     		orrs	r3, r2
 106 0080 1AB2     		sxth	r2, r3
 107 0082 0E23     		movs	r3, #14
 108 0084 FB18     		adds	r3, r7, r3
 109 0086 1A80     		strh	r2, [r3]
  29:..\CANLib/CANPacket.c **** 
  30:..\CANLib/CANPacket.c ****     return CANID;
 110              		.loc 1 30 0
 111 0088 0E23     		movs	r3, #14
 112 008a FB18     		adds	r3, r7, r3
 113 008c 1B88     		ldrh	r3, [r3]
  31:..\CANLib/CANPacket.c **** }
 114              		.loc 1 31 0
 115 008e 1800     		movs	r0, r3
 116 0090 BD46     		mov	sp, r7
 117 0092 05B0     		add	sp, sp, #20
 118              		@ sp needed
 119 0094 90BD     		pop	{r4, r7, pc}
 120              		.cfi_endproc
 121              	.LFE0:
 122              		.size	ConstructCANID, .-ConstructCANID
 123 0096 C046     		.section	.text.ConstructCANPacket,"ax",%progbits
 124              		.align	2
 125              		.global	ConstructCANPacket
 126              		.code	16
 127              		.thumb_func
 128              		.type	ConstructCANPacket, %function
 129              	ConstructCANPacket:
 130              	.LFB1:
  32:..\CANLib/CANPacket.c **** 
  33:..\CANLib/CANPacket.c **** // Creates a CANPacket that can be used by fuctions in this file
  34:..\CANLib/CANPacket.c **** // Inputs:
  35:..\CANLib/CANPacket.c **** //      id:         CAN ID for the packet
  36:..\CANLib/CANPacket.c **** //      dlc:        Data length for the packet. It's the number of bytes used
  37:..\CANLib/CANPacket.c **** //                  in data payload for packet
  38:..\CANLib/CANPacket.c **** //      data:       An array of bytes used for sending data over CAN
  39:..\CANLib/CANPacket.c **** // Outputs:
  40:..\CANLib/CANPacket.c **** //      CANPacket:  A struct used for storing the parts needed for a CAN Packet
  41:..\CANLib/CANPacket.c **** CANPacket ConstructCANPacket(uint16_t id, uint8_t dlc, uint8_t* data)
ARM GAS  C:\Users\Austcha\AppData\Local\Temp\ccdNIALj.s 			page 4


  42:..\CANLib/CANPacket.c **** {
 131              		.loc 1 42 0
 132              		.cfi_startproc
 133              		@ args = 0, pretend = 0, frame = 32
 134              		@ frame_needed = 1, uses_anonymous_args = 0
 135 0000 80B5     		push	{r7, lr}
 136              		.cfi_def_cfa_offset 8
 137              		.cfi_offset 7, -8
 138              		.cfi_offset 14, -4
 139 0002 88B0     		sub	sp, sp, #32
 140              		.cfi_def_cfa_offset 40
 141 0004 00AF     		add	r7, sp, #0
 142              		.cfi_def_cfa_register 7
 143 0006 F860     		str	r0, [r7, #12]
 144 0008 0800     		movs	r0, r1
 145 000a 1100     		movs	r1, r2
 146 000c 7B60     		str	r3, [r7, #4]
 147 000e 0A23     		movs	r3, #10
 148 0010 FB18     		adds	r3, r7, r3
 149 0012 021C     		adds	r2, r0, #0
 150 0014 1A80     		strh	r2, [r3]
 151 0016 0923     		movs	r3, #9
 152 0018 FB18     		adds	r3, r7, r3
 153 001a 0A1C     		adds	r2, r1, #0
 154 001c 1A70     		strb	r2, [r3]
  43:..\CANLib/CANPacket.c ****     CANPacket cp;
  44:..\CANLib/CANPacket.c ****     cp.id = id;
 155              		.loc 1 44 0
 156 001e 1023     		movs	r3, #16
 157 0020 FB18     		adds	r3, r7, r3
 158 0022 0A22     		movs	r2, #10
 159 0024 BA18     		adds	r2, r7, r2
 160 0026 1288     		ldrh	r2, [r2]
 161 0028 1A80     		strh	r2, [r3]
  45:..\CANLib/CANPacket.c ****     cp.dlc = dlc;   
 162              		.loc 1 45 0
 163 002a 1023     		movs	r3, #16
 164 002c FB18     		adds	r3, r7, r3
 165 002e 0922     		movs	r2, #9
 166 0030 BA18     		adds	r2, r7, r2
 167 0032 1278     		ldrb	r2, [r2]
 168 0034 9A70     		strb	r2, [r3, #2]
 169              	.LBB2:
  46:..\CANLib/CANPacket.c ****     for(int i = 0; i < dlc; i++)
 170              		.loc 1 46 0
 171 0036 0023     		movs	r3, #0
 172 0038 FB61     		str	r3, [r7, #28]
 173 003a 0DE0     		b	.L4
 174              	.L5:
  47:..\CANLib/CANPacket.c ****     {
  48:..\CANLib/CANPacket.c ****         cp.data[i] = data[i];
 175              		.loc 1 48 0 discriminator 3
 176 003c FB69     		ldr	r3, [r7, #28]
 177 003e 7A68     		ldr	r2, [r7, #4]
 178 0040 D318     		adds	r3, r2, r3
 179 0042 1978     		ldrb	r1, [r3]
 180 0044 1023     		movs	r3, #16
ARM GAS  C:\Users\Austcha\AppData\Local\Temp\ccdNIALj.s 			page 5


 181 0046 FA18     		adds	r2, r7, r3
 182 0048 FB69     		ldr	r3, [r7, #28]
 183 004a D318     		adds	r3, r2, r3
 184 004c 0333     		adds	r3, r3, #3
 185 004e 0A1C     		adds	r2, r1, #0
 186 0050 1A70     		strb	r2, [r3]
  46:..\CANLib/CANPacket.c ****     for(int i = 0; i < dlc; i++)
 187              		.loc 1 46 0 discriminator 3
 188 0052 FB69     		ldr	r3, [r7, #28]
 189 0054 0133     		adds	r3, r3, #1
 190 0056 FB61     		str	r3, [r7, #28]
 191              	.L4:
  46:..\CANLib/CANPacket.c ****     for(int i = 0; i < dlc; i++)
 192              		.loc 1 46 0 is_stmt 0 discriminator 1
 193 0058 0923     		movs	r3, #9
 194 005a FB18     		adds	r3, r7, r3
 195 005c 1A78     		ldrb	r2, [r3]
 196 005e FB69     		ldr	r3, [r7, #28]
 197 0060 9A42     		cmp	r2, r3
 198 0062 EBDC     		bgt	.L5
 199              	.LBE2:
  49:..\CANLib/CANPacket.c ****     }
  50:..\CANLib/CANPacket.c **** 
  51:..\CANLib/CANPacket.c ****     return cp;
 200              		.loc 1 51 0 is_stmt 1
 201 0064 FA68     		ldr	r2, [r7, #12]
 202 0066 1023     		movs	r3, #16
 203 0068 FB18     		adds	r3, r7, r3
 204 006a 1000     		movs	r0, r2
 205 006c 1900     		movs	r1, r3
 206 006e 0C23     		movs	r3, #12
 207 0070 1A00     		movs	r2, r3
 208 0072 FFF7FEFF 		bl	memcpy
  52:..\CANLib/CANPacket.c **** }
 209              		.loc 1 52 0
 210 0076 F868     		ldr	r0, [r7, #12]
 211 0078 BD46     		mov	sp, r7
 212 007a 08B0     		add	sp, sp, #32
 213              		@ sp needed
 214 007c 80BD     		pop	{r7, pc}
 215              		.cfi_endproc
 216              	.LFE1:
 217              		.size	ConstructCANPacket, .-ConstructCANPacket
 218 007e C046     		.section	.text.WriteSenderSerialAndPacketID,"ax",%progbits
 219              		.align	2
 220              		.global	WriteSenderSerialAndPacketID
 221              		.code	16
 222              		.thumb_func
 223              		.type	WriteSenderSerialAndPacketID, %function
 224              	WriteSenderSerialAndPacketID:
 225              	.LFB2:
  53:..\CANLib/CANPacket.c **** 
  54:..\CANLib/CANPacket.c **** // Writes sender group, serial number, and packet ID to data bytes. Writes to bytes 0 and 1 in data
  55:..\CANLib/CANPacket.c **** // DO NOT OVERWRITE BYTES 0 AND 1 AFTER CALLING THIS FUNCTION.
  56:..\CANLib/CANPacket.c **** // Inputs:
  57:..\CANLib/CANPacket.c **** //      data:           Data to write to.
  58:..\CANLib/CANPacket.c **** //TODO, upon approval from @jaden, delete senderGroup and senderSerial params, as these are handled
ARM GAS  C:\Users\Austcha\AppData\Local\Temp\ccdNIALj.s 			page 6


  59:..\CANLib/CANPacket.c **** //      senderGroup:    Device group the sender device is a part of.
  60:..\CANLib/CANPacket.c **** //      senderSerial:   Device serial number for sender.
  61:..\CANLib/CANPacket.c **** //      packetID:       ID for packet to be sent.
  62:..\CANLib/CANPacket.c **** // Output:
  63:..\CANLib/CANPacket.c **** //                      Index of next byte in `data` that can be written
  64:..\CANLib/CANPacket.c **** int WriteSenderSerialAndPacketID(uint8_t *data, uint8_t packetID)
  65:..\CANLib/CANPacket.c **** {
 226              		.loc 1 65 0
 227              		.cfi_startproc
 228              		@ args = 0, pretend = 0, frame = 8
 229              		@ frame_needed = 1, uses_anonymous_args = 0
 230 0000 B0B5     		push	{r4, r5, r7, lr}
 231              		.cfi_def_cfa_offset 16
 232              		.cfi_offset 4, -16
 233              		.cfi_offset 5, -12
 234              		.cfi_offset 7, -8
 235              		.cfi_offset 14, -4
 236 0002 82B0     		sub	sp, sp, #8
 237              		.cfi_def_cfa_offset 24
 238 0004 00AF     		add	r7, sp, #0
 239              		.cfi_def_cfa_register 7
 240 0006 7860     		str	r0, [r7, #4]
 241 0008 0A00     		movs	r2, r1
 242 000a FB1C     		adds	r3, r7, #3
 243 000c 1A70     		strb	r2, [r3]
  66:..\CANLib/CANPacket.c ****     data[0] = ((getLocalDeviceGroup() & 0x0C) << 4) | packetID;
 244              		.loc 1 66 0
 245 000e FFF7FEFF 		bl	getLocalDeviceGroup
 246 0012 0300     		movs	r3, r0
 247 0014 1A00     		movs	r2, r3
 248 0016 0C23     		movs	r3, #12
 249 0018 1340     		ands	r3, r2
 250 001a 1B01     		lsls	r3, r3, #4
 251 001c 5AB2     		sxtb	r2, r3
 252 001e FB1C     		adds	r3, r7, #3
 253 0020 1B78     		ldrb	r3, [r3]
 254 0022 5BB2     		sxtb	r3, r3
 255 0024 1343     		orrs	r3, r2
 256 0026 5BB2     		sxtb	r3, r3
 257 0028 DAB2     		uxtb	r2, r3
 258 002a 7B68     		ldr	r3, [r7, #4]
 259 002c 1A70     		strb	r2, [r3]
  67:..\CANLib/CANPacket.c ****     data[1] = ((getLocalDeviceGroup() & 0x03) << 6) | getLocalDeviceSerial();
 260              		.loc 1 67 0
 261 002e 7B68     		ldr	r3, [r7, #4]
 262 0030 5C1C     		adds	r4, r3, #1
 263 0032 FFF7FEFF 		bl	getLocalDeviceGroup
 264 0036 0300     		movs	r3, r0
 265 0038 1A00     		movs	r2, r3
 266 003a 0323     		movs	r3, #3
 267 003c 1340     		ands	r3, r2
 268 003e 9B01     		lsls	r3, r3, #6
 269 0040 5DB2     		sxtb	r5, r3
 270 0042 FFF7FEFF 		bl	getLocalDeviceSerial
 271 0046 0300     		movs	r3, r0
 272 0048 5BB2     		sxtb	r3, r3
 273 004a 2B43     		orrs	r3, r5
ARM GAS  C:\Users\Austcha\AppData\Local\Temp\ccdNIALj.s 			page 7


 274 004c 5BB2     		sxtb	r3, r3
 275 004e DBB2     		uxtb	r3, r3
 276 0050 2370     		strb	r3, [r4]
  68:..\CANLib/CANPacket.c ****     return 2;
 277              		.loc 1 68 0
 278 0052 0223     		movs	r3, #2
  69:..\CANLib/CANPacket.c **** }
 279              		.loc 1 69 0
 280 0054 1800     		movs	r0, r3
 281 0056 BD46     		mov	sp, r7
 282 0058 02B0     		add	sp, sp, #8
 283              		@ sp needed
 284 005a B0BD     		pop	{r4, r5, r7, pc}
 285              		.cfi_endproc
 286              	.LFE2:
 287              		.size	WriteSenderSerialAndPacketID, .-WriteSenderSerialAndPacketID
 288              		.section	.text.WritePacketIDOnly,"ax",%progbits
 289              		.align	2
 290              		.global	WritePacketIDOnly
 291              		.code	16
 292              		.thumb_func
 293              		.type	WritePacketIDOnly, %function
 294              	WritePacketIDOnly:
 295              	.LFB3:
  70:..\CANLib/CANPacket.c **** 
  71:..\CANLib/CANPacket.c **** // Writes packet ID to data bytes. Writes to byte 0 data.
  72:..\CANLib/CANPacket.c **** // DO NOT OVERWRITE BYTE 0 AFTER CALLING THIS FUNCTION.
  73:..\CANLib/CANPacket.c **** // Inputs:
  74:..\CANLib/CANPacket.c **** //      data:           Data to write to.
  75:..\CANLib/CANPacket.c **** //      packetID:       ID for packet to be sent.
  76:..\CANLib/CANPacket.c **** // Outputs:
  77:..\CANLib/CANPacket.c **** //                      Index to next byte in `data` that can be written;
  78:..\CANLib/CANPacket.c **** int WritePacketIDOnly(uint8_t *data, uint8_t packetID)
  79:..\CANLib/CANPacket.c **** {
 296              		.loc 1 79 0
 297              		.cfi_startproc
 298              		@ args = 0, pretend = 0, frame = 8
 299              		@ frame_needed = 1, uses_anonymous_args = 0
 300 0000 80B5     		push	{r7, lr}
 301              		.cfi_def_cfa_offset 8
 302              		.cfi_offset 7, -8
 303              		.cfi_offset 14, -4
 304 0002 82B0     		sub	sp, sp, #8
 305              		.cfi_def_cfa_offset 16
 306 0004 00AF     		add	r7, sp, #0
 307              		.cfi_def_cfa_register 7
 308 0006 7860     		str	r0, [r7, #4]
 309 0008 0A00     		movs	r2, r1
 310 000a FB1C     		adds	r3, r7, #3
 311 000c 1A70     		strb	r2, [r3]
  80:..\CANLib/CANPacket.c ****     data[0] = ((PACKET_GROUP_NO_SENDER_SERIAL & 0x0C) << 4) | packetID;
 312              		.loc 1 80 0
 313 000e FB1C     		adds	r3, r7, #3
 314 0010 1B78     		ldrb	r3, [r3]
 315 0012 4022     		movs	r2, #64
 316 0014 5242     		rsbs	r2, r2, #0
 317 0016 1343     		orrs	r3, r2
ARM GAS  C:\Users\Austcha\AppData\Local\Temp\ccdNIALj.s 			page 8


 318 0018 DAB2     		uxtb	r2, r3
 319 001a 7B68     		ldr	r3, [r7, #4]
 320 001c 1A70     		strb	r2, [r3]
  81:..\CANLib/CANPacket.c ****     return 1;
 321              		.loc 1 81 0
 322 001e 0123     		movs	r3, #1
  82:..\CANLib/CANPacket.c **** }
 323              		.loc 1 82 0
 324 0020 1800     		movs	r0, r3
 325 0022 BD46     		mov	sp, r7
 326 0024 02B0     		add	sp, sp, #8
 327              		@ sp needed
 328 0026 80BD     		pop	{r7, pc}
 329              		.cfi_endproc
 330              	.LFE3:
 331              		.size	WritePacketIDOnly, .-WritePacketIDOnly
 332              		.section	.text.GetPacketPriority,"ax",%progbits
 333              		.align	2
 334              		.global	GetPacketPriority
 335              		.code	16
 336              		.thumb_func
 337              		.type	GetPacketPriority, %function
 338              	GetPacketPriority:
 339              	.LFB4:
  83:..\CANLib/CANPacket.c **** 
  84:..\CANLib/CANPacket.c **** // Gets the priority  of a given packet
  85:..\CANLib/CANPacket.c **** // Inputs:
  86:..\CANLib/CANPacket.c **** //      packet:     CAN Packet to analyze
  87:..\CANLib/CANPacket.c **** // Outputs:
  88:..\CANLib/CANPacket.c **** //      priority    byte representing packet priority,
  89:..\CANLib/CANPacket.c **** //                  (0 for high, 1 for low)
  90:..\CANLib/CANPacket.c **** uint8_t GetPacketPriority(CANPacket *packet)
  91:..\CANLib/CANPacket.c **** {
 340              		.loc 1 91 0
 341              		.cfi_startproc
 342              		@ args = 0, pretend = 0, frame = 8
 343              		@ frame_needed = 1, uses_anonymous_args = 0
 344 0000 80B5     		push	{r7, lr}
 345              		.cfi_def_cfa_offset 8
 346              		.cfi_offset 7, -8
 347              		.cfi_offset 14, -4
 348 0002 82B0     		sub	sp, sp, #8
 349              		.cfi_def_cfa_offset 16
 350 0004 00AF     		add	r7, sp, #0
 351              		.cfi_def_cfa_register 7
 352 0006 7860     		str	r0, [r7, #4]
  92:..\CANLib/CANPacket.c ****     return (packet->id >> 10) && 0x1;
 353              		.loc 1 92 0
 354 0008 7B68     		ldr	r3, [r7, #4]
 355 000a 1B88     		ldrh	r3, [r3]
 356 000c 9B0A     		lsrs	r3, r3, #10
 357 000e 9BB2     		uxth	r3, r3
 358 0010 5A1E     		subs	r2, r3, #1
 359 0012 9341     		sbcs	r3, r3, r2
 360 0014 DBB2     		uxtb	r3, r3
  93:..\CANLib/CANPacket.c **** }
 361              		.loc 1 93 0
ARM GAS  C:\Users\Austcha\AppData\Local\Temp\ccdNIALj.s 			page 9


 362 0016 1800     		movs	r0, r3
 363 0018 BD46     		mov	sp, r7
 364 001a 02B0     		add	sp, sp, #8
 365              		@ sp needed
 366 001c 80BD     		pop	{r7, pc}
 367              		.cfi_endproc
 368              	.LFE4:
 369              		.size	GetPacketPriority, .-GetPacketPriority
 370 001e C046     		.section	.text.GetDeviceSerialNumber,"ax",%progbits
 371              		.align	2
 372              		.global	GetDeviceSerialNumber
 373              		.code	16
 374              		.thumb_func
 375              		.type	GetDeviceSerialNumber, %function
 376              	GetDeviceSerialNumber:
 377              	.LFB5:
  94:..\CANLib/CANPacket.c **** 
  95:..\CANLib/CANPacket.c **** // Gets the device serial number from CAN packet
  96:..\CANLib/CANPacket.c **** // Inputs:
  97:..\CANLib/CANPacket.c **** //      packet:     CAN Packet to analyze
  98:..\CANLib/CANPacket.c **** // Outputs:
  99:..\CANLib/CANPacket.c **** //                  A byte representing the device
 100:..\CANLib/CANPacket.c **** //                  serial number.
 101:..\CANLib/CANPacket.c **** uint8_t GetDeviceSerialNumber(CANPacket *packet)
 102:..\CANLib/CANPacket.c **** {
 378              		.loc 1 102 0
 379              		.cfi_startproc
 380              		@ args = 0, pretend = 0, frame = 16
 381              		@ frame_needed = 1, uses_anonymous_args = 0
 382 0000 80B5     		push	{r7, lr}
 383              		.cfi_def_cfa_offset 8
 384              		.cfi_offset 7, -8
 385              		.cfi_offset 14, -4
 386 0002 84B0     		sub	sp, sp, #16
 387              		.cfi_def_cfa_offset 24
 388 0004 00AF     		add	r7, sp, #0
 389              		.cfi_def_cfa_register 7
 390 0006 7860     		str	r0, [r7, #4]
 103:..\CANLib/CANPacket.c ****     uint8_t id = (packet->id & 0x00FF);
 391              		.loc 1 103 0
 392 0008 7B68     		ldr	r3, [r7, #4]
 393 000a 1A88     		ldrh	r2, [r3]
 394 000c 0F23     		movs	r3, #15
 395 000e FB18     		adds	r3, r7, r3
 396 0010 1A70     		strb	r2, [r3]
 104:..\CANLib/CANPacket.c ****     // Strip fo only serial number portion of id
 105:..\CANLib/CANPacket.c ****     return id & 0x3F;
 397              		.loc 1 105 0
 398 0012 0F23     		movs	r3, #15
 399 0014 FB18     		adds	r3, r7, r3
 400 0016 1B78     		ldrb	r3, [r3]
 401 0018 3F22     		movs	r2, #63
 402 001a 1340     		ands	r3, r2
 403 001c DBB2     		uxtb	r3, r3
 106:..\CANLib/CANPacket.c **** }
 404              		.loc 1 106 0
 405 001e 1800     		movs	r0, r3
ARM GAS  C:\Users\Austcha\AppData\Local\Temp\ccdNIALj.s 			page 10


 406 0020 BD46     		mov	sp, r7
 407 0022 04B0     		add	sp, sp, #16
 408              		@ sp needed
 409 0024 80BD     		pop	{r7, pc}
 410              		.cfi_endproc
 411              	.LFE5:
 412              		.size	GetDeviceSerialNumber, .-GetDeviceSerialNumber
 413 0026 C046     		.section	.text.GetSenderDeviceSerialNumber,"ax",%progbits
 414              		.align	2
 415              		.global	GetSenderDeviceSerialNumber
 416              		.code	16
 417              		.thumb_func
 418              		.type	GetSenderDeviceSerialNumber, %function
 419              	GetSenderDeviceSerialNumber:
 420              	.LFB6:
 107:..\CANLib/CANPacket.c **** 
 108:..\CANLib/CANPacket.c **** // Returns Sender device serial number as 
 109:..\CANLib/CANPacket.c **** //      packet:       CAN packet from which to resolve serial number
 110:..\CANLib/CANPacket.c **** // Outputs:
 111:..\CANLib/CANPacket.c **** //                  A byte representing the sender device number
 112:..\CANLib/CANPacket.c **** uint8_t GetSenderDeviceSerialNumber(CANPacket *packet)
 113:..\CANLib/CANPacket.c **** {
 421              		.loc 1 113 0
 422              		.cfi_startproc
 423              		@ args = 0, pretend = 0, frame = 8
 424              		@ frame_needed = 1, uses_anonymous_args = 0
 425 0000 80B5     		push	{r7, lr}
 426              		.cfi_def_cfa_offset 8
 427              		.cfi_offset 7, -8
 428              		.cfi_offset 14, -4
 429 0002 82B0     		sub	sp, sp, #8
 430              		.cfi_def_cfa_offset 16
 431 0004 00AF     		add	r7, sp, #0
 432              		.cfi_def_cfa_register 7
 433 0006 7860     		str	r0, [r7, #4]
 114:..\CANLib/CANPacket.c ****     return (packet->data[1] & 0x3F);
 434              		.loc 1 114 0
 435 0008 7B68     		ldr	r3, [r7, #4]
 436 000a 1B79     		ldrb	r3, [r3, #4]
 437 000c 3F22     		movs	r2, #63
 438 000e 1340     		ands	r3, r2
 439 0010 DBB2     		uxtb	r3, r3
 115:..\CANLib/CANPacket.c **** }
 440              		.loc 1 115 0
 441 0012 1800     		movs	r0, r3
 442 0014 BD46     		mov	sp, r7
 443 0016 02B0     		add	sp, sp, #8
 444              		@ sp needed
 445 0018 80BD     		pop	{r7, pc}
 446              		.cfi_endproc
 447              	.LFE6:
 448              		.size	GetSenderDeviceSerialNumber, .-GetSenderDeviceSerialNumber
 449 001a C046     		.section	.text.GetDeviceGroupCode,"ax",%progbits
 450              		.align	2
 451              		.global	GetDeviceGroupCode
 452              		.code	16
 453              		.thumb_func
ARM GAS  C:\Users\Austcha\AppData\Local\Temp\ccdNIALj.s 			page 11


 454              		.type	GetDeviceGroupCode, %function
 455              	GetDeviceGroupCode:
 456              	.LFB7:
 116:..\CANLib/CANPacket.c **** 
 117:..\CANLib/CANPacket.c **** // Gets the device group code from CAN packet
 118:..\CANLib/CANPacket.c **** // Inputs:
 119:..\CANLib/CANPacket.c **** //      packet:     CAN Packet to analyze
 120:..\CANLib/CANPacket.c **** // Outputs:
 121:..\CANLib/CANPacket.c **** //                  A byte representing the device
 122:..\CANLib/CANPacket.c **** //                  group code.
 123:..\CANLib/CANPacket.c **** uint8_t GetDeviceGroupCode(CANPacket *packet)
 124:..\CANLib/CANPacket.c **** {
 457              		.loc 1 124 0
 458              		.cfi_startproc
 459              		@ args = 0, pretend = 0, frame = 16
 460              		@ frame_needed = 1, uses_anonymous_args = 0
 461 0000 80B5     		push	{r7, lr}
 462              		.cfi_def_cfa_offset 8
 463              		.cfi_offset 7, -8
 464              		.cfi_offset 14, -4
 465 0002 84B0     		sub	sp, sp, #16
 466              		.cfi_def_cfa_offset 24
 467 0004 00AF     		add	r7, sp, #0
 468              		.cfi_def_cfa_register 7
 469 0006 7860     		str	r0, [r7, #4]
 125:..\CANLib/CANPacket.c ****     uint8_t group = 0;
 470              		.loc 1 125 0
 471 0008 0F23     		movs	r3, #15
 472 000a FB18     		adds	r3, r7, r3
 473 000c 0022     		movs	r2, #0
 474 000e 1A70     		strb	r2, [r3]
 126:..\CANLib/CANPacket.c ****     int id = packet->id;
 475              		.loc 1 126 0
 476 0010 7B68     		ldr	r3, [r7, #4]
 477 0012 1B88     		ldrh	r3, [r3]
 478 0014 BB60     		str	r3, [r7, #8]
 127:..\CANLib/CANPacket.c ****     group = (uint8_t) ((id & 0x03C0) >> 6);
 479              		.loc 1 127 0
 480 0016 BB68     		ldr	r3, [r7, #8]
 481 0018 9B11     		asrs	r3, r3, #6
 482 001a DAB2     		uxtb	r2, r3
 483 001c 0F23     		movs	r3, #15
 484 001e FB18     		adds	r3, r7, r3
 485 0020 0F21     		movs	r1, #15
 486 0022 0A40     		ands	r2, r1
 487 0024 1A70     		strb	r2, [r3]
 128:..\CANLib/CANPacket.c ****     return group;
 488              		.loc 1 128 0
 489 0026 0F23     		movs	r3, #15
 490 0028 FB18     		adds	r3, r7, r3
 491 002a 1B78     		ldrb	r3, [r3]
 129:..\CANLib/CANPacket.c **** }
 492              		.loc 1 129 0
 493 002c 1800     		movs	r0, r3
 494 002e BD46     		mov	sp, r7
 495 0030 04B0     		add	sp, sp, #16
 496              		@ sp needed
ARM GAS  C:\Users\Austcha\AppData\Local\Temp\ccdNIALj.s 			page 12


 497 0032 80BD     		pop	{r7, pc}
 498              		.cfi_endproc
 499              	.LFE7:
 500              		.size	GetDeviceGroupCode, .-GetDeviceGroupCode
 501              		.section	.text.GetSenderDeviceGroupCode,"ax",%progbits
 502              		.align	2
 503              		.global	GetSenderDeviceGroupCode
 504              		.code	16
 505              		.thumb_func
 506              		.type	GetSenderDeviceGroupCode, %function
 507              	GetSenderDeviceGroupCode:
 508              	.LFB8:
 130:..\CANLib/CANPacket.c **** 
 131:..\CANLib/CANPacket.c **** // Gets the sender device group number from the payload data
 132:..\CANLib/CANPacket.c **** // Inputs:
 133:..\CANLib/CANPacket.c **** //      data:       Address of the byte array of the payload from CAN packet
 134:..\CANLib/CANPacket.c **** // Outputs:
 135:..\CANLib/CANPacket.c **** //                  A byte representing the sender device number
 136:..\CANLib/CANPacket.c **** uint8_t GetSenderDeviceGroupCode(CANPacket *packet)
 137:..\CANLib/CANPacket.c **** {
 509              		.loc 1 137 0
 510              		.cfi_startproc
 511              		@ args = 0, pretend = 0, frame = 16
 512              		@ frame_needed = 1, uses_anonymous_args = 0
 513 0000 80B5     		push	{r7, lr}
 514              		.cfi_def_cfa_offset 8
 515              		.cfi_offset 7, -8
 516              		.cfi_offset 14, -4
 517 0002 84B0     		sub	sp, sp, #16
 518              		.cfi_def_cfa_offset 24
 519 0004 00AF     		add	r7, sp, #0
 520              		.cfi_def_cfa_register 7
 521 0006 7860     		str	r0, [r7, #4]
 138:..\CANLib/CANPacket.c ****     uint8_t devGroupCode = (packet->data[0] & 0xC0) >> 4;
 522              		.loc 1 138 0
 523 0008 7B68     		ldr	r3, [r7, #4]
 524 000a DB78     		ldrb	r3, [r3, #3]
 525 000c 1B11     		asrs	r3, r3, #4
 526 000e DAB2     		uxtb	r2, r3
 527 0010 0F23     		movs	r3, #15
 528 0012 FB18     		adds	r3, r7, r3
 529 0014 0C21     		movs	r1, #12
 530 0016 0A40     		ands	r2, r1
 531 0018 1A70     		strb	r2, [r3]
 139:..\CANLib/CANPacket.c ****     devGroupCode |= (packet->data[1] & 0xC0) >> 6;
 532              		.loc 1 139 0
 533 001a 7B68     		ldr	r3, [r7, #4]
 534 001c 1B79     		ldrb	r3, [r3, #4]
 535 001e 9B09     		lsrs	r3, r3, #6
 536 0020 D9B2     		uxtb	r1, r3
 537 0022 0F23     		movs	r3, #15
 538 0024 FB18     		adds	r3, r7, r3
 539 0026 0F22     		movs	r2, #15
 540 0028 BA18     		adds	r2, r7, r2
 541 002a 1278     		ldrb	r2, [r2]
 542 002c 0A43     		orrs	r2, r1
 543 002e 1A70     		strb	r2, [r3]
ARM GAS  C:\Users\Austcha\AppData\Local\Temp\ccdNIALj.s 			page 13


 140:..\CANLib/CANPacket.c ****     return devGroupCode;
 544              		.loc 1 140 0
 545 0030 0F23     		movs	r3, #15
 546 0032 FB18     		adds	r3, r7, r3
 547 0034 1B78     		ldrb	r3, [r3]
 141:..\CANLib/CANPacket.c **** }
 548              		.loc 1 141 0
 549 0036 1800     		movs	r0, r3
 550 0038 BD46     		mov	sp, r7
 551 003a 04B0     		add	sp, sp, #16
 552              		@ sp needed
 553 003c 80BD     		pop	{r7, pc}
 554              		.cfi_endproc
 555              	.LFE8:
 556              		.size	GetSenderDeviceGroupCode, .-GetSenderDeviceGroupCode
 557 003e C046     		.section	.text.PacketIsInGroup,"ax",%progbits
 558              		.align	2
 559              		.global	PacketIsInGroup
 560              		.code	16
 561              		.thumb_func
 562              		.type	PacketIsInGroup, %function
 563              	PacketIsInGroup:
 564              	.LFB9:
 142:..\CANLib/CANPacket.c **** 
 143:..\CANLib/CANPacket.c **** // Ensures that the given packet is of a specified group
 144:..\CANLib/CANPacket.c **** // Inputs:
 145:..\CANLib/CANPacket.c **** //      packet:         CAN Packet to check
 146:..\CANLib/CANPacket.c **** //      expectedType:   ExpectedType of CAN packet
 147:..\CANLib/CANPacket.c **** // Outputs:
 148:..\CANLib/CANPacket.c **** //                  0 if packet not of expectedType,
 149:..\CANLib/CANPacket.c **** //                  Other int otherwise
 150:..\CANLib/CANPacket.c **** int PacketIsInGroup(CANPacket *packet, uint8_t expectedType) 
 151:..\CANLib/CANPacket.c **** {
 565              		.loc 1 151 0
 566              		.cfi_startproc
 567              		@ args = 0, pretend = 0, frame = 8
 568              		@ frame_needed = 1, uses_anonymous_args = 0
 569 0000 80B5     		push	{r7, lr}
 570              		.cfi_def_cfa_offset 8
 571              		.cfi_offset 7, -8
 572              		.cfi_offset 14, -4
 573 0002 82B0     		sub	sp, sp, #8
 574              		.cfi_def_cfa_offset 16
 575 0004 00AF     		add	r7, sp, #0
 576              		.cfi_def_cfa_register 7
 577 0006 7860     		str	r0, [r7, #4]
 578 0008 0A00     		movs	r2, r1
 579 000a FB1C     		adds	r3, r7, #3
 580 000c 1A70     		strb	r2, [r3]
 152:..\CANLib/CANPacket.c ****     return GetDeviceGroupCode(packet) == expectedType;
 581              		.loc 1 152 0
 582 000e 7B68     		ldr	r3, [r7, #4]
 583 0010 1800     		movs	r0, r3
 584 0012 FFF7FEFF 		bl	GetDeviceGroupCode
 585 0016 0300     		movs	r3, r0
 586 0018 1A00     		movs	r2, r3
 587 001a FB1C     		adds	r3, r7, #3
ARM GAS  C:\Users\Austcha\AppData\Local\Temp\ccdNIALj.s 			page 14


 588 001c 1B78     		ldrb	r3, [r3]
 589 001e 9B1A     		subs	r3, r3, r2
 590 0020 5A42     		rsbs	r2, r3, #0
 591 0022 5341     		adcs	r3, r3, r2
 592 0024 DBB2     		uxtb	r3, r3
 153:..\CANLib/CANPacket.c **** }
 593              		.loc 1 153 0
 594 0026 1800     		movs	r0, r3
 595 0028 BD46     		mov	sp, r7
 596 002a 02B0     		add	sp, sp, #8
 597              		@ sp needed
 598 002c 80BD     		pop	{r7, pc}
 599              		.cfi_endproc
 600              	.LFE9:
 601              		.size	PacketIsInGroup, .-PacketIsInGroup
 602 002e C046     		.section	.text.SenderPacketIsInGroup,"ax",%progbits
 603              		.align	2
 604              		.global	SenderPacketIsInGroup
 605              		.code	16
 606              		.thumb_func
 607              		.type	SenderPacketIsInGroup, %function
 608              	SenderPacketIsInGroup:
 609              	.LFB10:
 154:..\CANLib/CANPacket.c **** 
 155:..\CANLib/CANPacket.c **** int SenderPacketIsInGroup(CANPacket *packet, uint8_t expectedType)
 156:..\CANLib/CANPacket.c **** {
 610              		.loc 1 156 0
 611              		.cfi_startproc
 612              		@ args = 0, pretend = 0, frame = 8
 613              		@ frame_needed = 1, uses_anonymous_args = 0
 614 0000 80B5     		push	{r7, lr}
 615              		.cfi_def_cfa_offset 8
 616              		.cfi_offset 7, -8
 617              		.cfi_offset 14, -4
 618 0002 82B0     		sub	sp, sp, #8
 619              		.cfi_def_cfa_offset 16
 620 0004 00AF     		add	r7, sp, #0
 621              		.cfi_def_cfa_register 7
 622 0006 7860     		str	r0, [r7, #4]
 623 0008 0A00     		movs	r2, r1
 624 000a FB1C     		adds	r3, r7, #3
 625 000c 1A70     		strb	r2, [r3]
 157:..\CANLib/CANPacket.c ****     return GetSenderDeviceGroupCode(packet) == expectedType;
 626              		.loc 1 157 0
 627 000e 7B68     		ldr	r3, [r7, #4]
 628 0010 1800     		movs	r0, r3
 629 0012 FFF7FEFF 		bl	GetSenderDeviceGroupCode
 630 0016 0300     		movs	r3, r0
 631 0018 1A00     		movs	r2, r3
 632 001a FB1C     		adds	r3, r7, #3
 633 001c 1B78     		ldrb	r3, [r3]
 634 001e 9B1A     		subs	r3, r3, r2
 635 0020 5A42     		rsbs	r2, r3, #0
 636 0022 5341     		adcs	r3, r3, r2
 637 0024 DBB2     		uxtb	r3, r3
 158:..\CANLib/CANPacket.c **** }
 638              		.loc 1 158 0
ARM GAS  C:\Users\Austcha\AppData\Local\Temp\ccdNIALj.s 			page 15


 639 0026 1800     		movs	r0, r3
 640 0028 BD46     		mov	sp, r7
 641 002a 02B0     		add	sp, sp, #8
 642              		@ sp needed
 643 002c 80BD     		pop	{r7, pc}
 644              		.cfi_endproc
 645              	.LFE10:
 646              		.size	SenderPacketIsInGroup, .-SenderPacketIsInGroup
 647 002e C046     		.section	.text.SenderPacketIsOfDevice,"ax",%progbits
 648              		.align	2
 649              		.global	SenderPacketIsOfDevice
 650              		.code	16
 651              		.thumb_func
 652              		.type	SenderPacketIsOfDevice, %function
 653              	SenderPacketIsOfDevice:
 654              	.LFB11:
 159:..\CANLib/CANPacket.c **** 
 160:..\CANLib/CANPacket.c **** int SenderPacketIsOfDevice(CANPacket *packet, uint8_t expectedType)
 161:..\CANLib/CANPacket.c **** {
 655              		.loc 1 161 0
 656              		.cfi_startproc
 657              		@ args = 0, pretend = 0, frame = 8
 658              		@ frame_needed = 1, uses_anonymous_args = 0
 659 0000 80B5     		push	{r7, lr}
 660              		.cfi_def_cfa_offset 8
 661              		.cfi_offset 7, -8
 662              		.cfi_offset 14, -4
 663 0002 82B0     		sub	sp, sp, #8
 664              		.cfi_def_cfa_offset 16
 665 0004 00AF     		add	r7, sp, #0
 666              		.cfi_def_cfa_register 7
 667 0006 7860     		str	r0, [r7, #4]
 668 0008 0A00     		movs	r2, r1
 669 000a FB1C     		adds	r3, r7, #3
 670 000c 1A70     		strb	r2, [r3]
 162:..\CANLib/CANPacket.c ****     return GetSenderDeviceSerialNumber(packet) == expectedType;
 671              		.loc 1 162 0
 672 000e 7B68     		ldr	r3, [r7, #4]
 673 0010 1800     		movs	r0, r3
 674 0012 FFF7FEFF 		bl	GetSenderDeviceSerialNumber
 675 0016 0300     		movs	r3, r0
 676 0018 1A00     		movs	r2, r3
 677 001a FB1C     		adds	r3, r7, #3
 678 001c 1B78     		ldrb	r3, [r3]
 679 001e 9B1A     		subs	r3, r3, r2
 680 0020 5A42     		rsbs	r2, r3, #0
 681 0022 5341     		adcs	r3, r3, r2
 682 0024 DBB2     		uxtb	r3, r3
 163:..\CANLib/CANPacket.c **** }
 683              		.loc 1 163 0
 684 0026 1800     		movs	r0, r3
 685 0028 BD46     		mov	sp, r7
 686 002a 02B0     		add	sp, sp, #8
 687              		@ sp needed
 688 002c 80BD     		pop	{r7, pc}
 689              		.cfi_endproc
 690              	.LFE11:
ARM GAS  C:\Users\Austcha\AppData\Local\Temp\ccdNIALj.s 			page 16


 691              		.size	SenderPacketIsOfDevice, .-SenderPacketIsOfDevice
 692 002e C046     		.section	.text.GetPacketID,"ax",%progbits
 693              		.align	2
 694              		.global	GetPacketID
 695              		.code	16
 696              		.thumb_func
 697              		.type	GetPacketID, %function
 698              	GetPacketID:
 699              	.LFB12:
 164:..\CANLib/CANPacket.c **** 
 165:..\CANLib/CANPacket.c **** int GetPacketID(CANPacket *packet)
 166:..\CANLib/CANPacket.c **** {
 700              		.loc 1 166 0
 701              		.cfi_startproc
 702              		@ args = 0, pretend = 0, frame = 8
 703              		@ frame_needed = 1, uses_anonymous_args = 0
 704 0000 80B5     		push	{r7, lr}
 705              		.cfi_def_cfa_offset 8
 706              		.cfi_offset 7, -8
 707              		.cfi_offset 14, -4
 708 0002 82B0     		sub	sp, sp, #8
 709              		.cfi_def_cfa_offset 16
 710 0004 00AF     		add	r7, sp, #0
 711              		.cfi_def_cfa_register 7
 712 0006 7860     		str	r0, [r7, #4]
 167:..\CANLib/CANPacket.c ****     return packet->data[0] & 0x3F;
 713              		.loc 1 167 0
 714 0008 7B68     		ldr	r3, [r7, #4]
 715 000a DB78     		ldrb	r3, [r3, #3]
 716 000c 1A00     		movs	r2, r3
 717 000e 3F23     		movs	r3, #63
 718 0010 1340     		ands	r3, r2
 168:..\CANLib/CANPacket.c **** }
 719              		.loc 1 168 0
 720 0012 1800     		movs	r0, r3
 721 0014 BD46     		mov	sp, r7
 722 0016 02B0     		add	sp, sp, #8
 723              		@ sp needed
 724 0018 80BD     		pop	{r7, pc}
 725              		.cfi_endproc
 726              	.LFE12:
 727              		.size	GetPacketID, .-GetPacketID
 728 001a C046     		.section	.text.PacketIsOfID,"ax",%progbits
 729              		.align	2
 730              		.global	PacketIsOfID
 731              		.code	16
 732              		.thumb_func
 733              		.type	PacketIsOfID, %function
 734              	PacketIsOfID:
 735              	.LFB13:
 169:..\CANLib/CANPacket.c **** 
 170:..\CANLib/CANPacket.c **** int PacketIsOfID(CANPacket *packet, uint8_t expectedID)
 171:..\CANLib/CANPacket.c **** {
 736              		.loc 1 171 0
 737              		.cfi_startproc
 738              		@ args = 0, pretend = 0, frame = 8
 739              		@ frame_needed = 1, uses_anonymous_args = 0
ARM GAS  C:\Users\Austcha\AppData\Local\Temp\ccdNIALj.s 			page 17


 740 0000 80B5     		push	{r7, lr}
 741              		.cfi_def_cfa_offset 8
 742              		.cfi_offset 7, -8
 743              		.cfi_offset 14, -4
 744 0002 82B0     		sub	sp, sp, #8
 745              		.cfi_def_cfa_offset 16
 746 0004 00AF     		add	r7, sp, #0
 747              		.cfi_def_cfa_register 7
 748 0006 7860     		str	r0, [r7, #4]
 749 0008 0A00     		movs	r2, r1
 750 000a FB1C     		adds	r3, r7, #3
 751 000c 1A70     		strb	r2, [r3]
 172:..\CANLib/CANPacket.c ****     return GetPacketID(packet) == expectedID;
 752              		.loc 1 172 0
 753 000e 7B68     		ldr	r3, [r7, #4]
 754 0010 1800     		movs	r0, r3
 755 0012 FFF7FEFF 		bl	GetPacketID
 756 0016 0200     		movs	r2, r0
 757 0018 FB1C     		adds	r3, r7, #3
 758 001a 1B78     		ldrb	r3, [r3]
 759 001c D31A     		subs	r3, r2, r3
 760 001e 5A42     		rsbs	r2, r3, #0
 761 0020 5341     		adcs	r3, r3, r2
 762 0022 DBB2     		uxtb	r3, r3
 173:..\CANLib/CANPacket.c **** }
 763              		.loc 1 173 0
 764 0024 1800     		movs	r0, r3
 765 0026 BD46     		mov	sp, r7
 766 0028 02B0     		add	sp, sp, #8
 767              		@ sp needed
 768 002a 80BD     		pop	{r7, pc}
 769              		.cfi_endproc
 770              	.LFE13:
 771              		.size	PacketIsOfID, .-PacketIsOfID
 772              		.section	.text.TargetsDevice,"ax",%progbits
 773              		.align	2
 774              		.global	TargetsDevice
 775              		.code	16
 776              		.thumb_func
 777              		.type	TargetsDevice, %function
 778              	TargetsDevice:
 779              	.LFB14:
 174:..\CANLib/CANPacket.c **** 
 175:..\CANLib/CANPacket.c **** // Determines if a given packet targets a specific device
 176:..\CANLib/CANPacket.c **** // Useful for determing if a packet should be interpreted by
 177:..\CANLib/CANPacket.c **** // the device
 178:..\CANLib/CANPacket.c **** // Inputs:
 179:..\CANLib/CANPacket.c **** //      packet:                     CAN Packet to check
 180:..\CANLib/CANPacket.c **** //      targetDeviceGroup:          Device group of target device
 181:..\CANLib/CANPacket.c **** //      targetDeviceSerialNumber:   Serial number of target device
 182:..\CANLib/CANPacket.c **** // Outputs:
 183:..\CANLib/CANPacket.c **** //                  Returns 0 if packet does not target device
 184:..\CANLib/CANPacket.c **** //                  Returns any other int if packet does
 185:..\CANLib/CANPacket.c **** int TargetsDevice(CANPacket *packet, uint8_t targetDeviceGroup, uint8_t targetDeviceSerialNumber)
 186:..\CANLib/CANPacket.c **** {
 780              		.loc 1 186 0
 781              		.cfi_startproc
ARM GAS  C:\Users\Austcha\AppData\Local\Temp\ccdNIALj.s 			page 18


 782              		@ args = 0, pretend = 0, frame = 16
 783              		@ frame_needed = 1, uses_anonymous_args = 0
 784 0000 90B5     		push	{r4, r7, lr}
 785              		.cfi_def_cfa_offset 12
 786              		.cfi_offset 4, -12
 787              		.cfi_offset 7, -8
 788              		.cfi_offset 14, -4
 789 0002 85B0     		sub	sp, sp, #20
 790              		.cfi_def_cfa_offset 32
 791 0004 00AF     		add	r7, sp, #0
 792              		.cfi_def_cfa_register 7
 793 0006 7860     		str	r0, [r7, #4]
 794 0008 0800     		movs	r0, r1
 795 000a 1100     		movs	r1, r2
 796 000c FB1C     		adds	r3, r7, #3
 797 000e 021C     		adds	r2, r0, #0
 798 0010 1A70     		strb	r2, [r3]
 799 0012 BB1C     		adds	r3, r7, #2
 800 0014 0A1C     		adds	r2, r1, #0
 801 0016 1A70     		strb	r2, [r3]
 187:..\CANLib/CANPacket.c ****     uint8_t packetGroup = GetDeviceGroupCode(packet);
 802              		.loc 1 187 0
 803 0018 0F23     		movs	r3, #15
 804 001a FC18     		adds	r4, r7, r3
 805 001c 7B68     		ldr	r3, [r7, #4]
 806 001e 1800     		movs	r0, r3
 807 0020 FFF7FEFF 		bl	GetDeviceGroupCode
 808 0024 0300     		movs	r3, r0
 809 0026 2370     		strb	r3, [r4]
 188:..\CANLib/CANPacket.c ****     if (packetGroup == targetDeviceGroup) 
 810              		.loc 1 188 0
 811 0028 0F23     		movs	r3, #15
 812 002a FA18     		adds	r2, r7, r3
 813 002c FB1C     		adds	r3, r7, #3
 814 002e 1278     		ldrb	r2, [r2]
 815 0030 1B78     		ldrb	r3, [r3]
 816 0032 9A42     		cmp	r2, r3
 817 0034 17D1     		bne	.L32
 818              	.LBB3:
 189:..\CANLib/CANPacket.c ****     {
 190:..\CANLib/CANPacket.c ****         uint8_t serialNumber = GetDeviceSerialNumber(packet);
 819              		.loc 1 190 0
 820 0036 0E23     		movs	r3, #14
 821 0038 FC18     		adds	r4, r7, r3
 822 003a 7B68     		ldr	r3, [r7, #4]
 823 003c 1800     		movs	r0, r3
 824 003e FFF7FEFF 		bl	GetDeviceSerialNumber
 825 0042 0300     		movs	r3, r0
 826 0044 2370     		strb	r3, [r4]
 191:..\CANLib/CANPacket.c ****         // Return if serial number matches target
 192:..\CANLib/CANPacket.c ****         // Otherwise only return true if packet is broadcast to group
 193:..\CANLib/CANPacket.c ****         return serialNumber == DEVICE_SERIAL_BROADCAST || serialNumber == targetDeviceSerialNumber;
 827              		.loc 1 193 0
 828 0046 0E23     		movs	r3, #14
 829 0048 FB18     		adds	r3, r7, r3
 830 004a 1B78     		ldrb	r3, [r3]
 831 004c 002B     		cmp	r3, #0
ARM GAS  C:\Users\Austcha\AppData\Local\Temp\ccdNIALj.s 			page 19


 832 004e 06D0     		beq	.L33
 833              		.loc 1 193 0 is_stmt 0 discriminator 2
 834 0050 0E23     		movs	r3, #14
 835 0052 FA18     		adds	r2, r7, r3
 836 0054 BB1C     		adds	r3, r7, #2
 837 0056 1278     		ldrb	r2, [r2]
 838 0058 1B78     		ldrb	r3, [r3]
 839 005a 9A42     		cmp	r2, r3
 840 005c 01D1     		bne	.L34
 841              	.L33:
 842              		.loc 1 193 0 discriminator 3
 843 005e 0123     		movs	r3, #1
 844 0060 07E0     		b	.L36
 845              	.L34:
 846              		.loc 1 193 0 discriminator 4
 847 0062 0023     		movs	r3, #0
 848 0064 05E0     		b	.L36
 849              	.L32:
 850              	.LBE3:
 194:..\CANLib/CANPacket.c ****     }
 195:..\CANLib/CANPacket.c ****     // Otherwise only return true if packet is broadcast to all devices
 196:..\CANLib/CANPacket.c ****     return packetGroup == DEVICE_GROUP_BROADCAST;
 851              		.loc 1 196 0 is_stmt 1
 852 0066 0F23     		movs	r3, #15
 853 0068 FB18     		adds	r3, r7, r3
 854 006a 1B78     		ldrb	r3, [r3]
 855 006c 5A42     		rsbs	r2, r3, #0
 856 006e 5341     		adcs	r3, r3, r2
 857 0070 DBB2     		uxtb	r3, r3
 858              	.L36:
 197:..\CANLib/CANPacket.c **** }
 859              		.loc 1 197 0
 860 0072 1800     		movs	r0, r3
 861 0074 BD46     		mov	sp, r7
 862 0076 05B0     		add	sp, sp, #20
 863              		@ sp needed
 864 0078 90BD     		pop	{r4, r7, pc}
 865              		.cfi_endproc
 866              	.LFE14:
 867              		.size	TargetsDevice, .-TargetsDevice
 868 007a C046     		.section	.text.PackIntIntoDataMSBFirst,"ax",%progbits
 869              		.align	2
 870              		.global	PackIntIntoDataMSBFirst
 871              		.code	16
 872              		.thumb_func
 873              		.type	PackIntIntoDataMSBFirst, %function
 874              	PackIntIntoDataMSBFirst:
 875              	.LFB15:
 198:..\CANLib/CANPacket.c **** 
 199:..\CANLib/CANPacket.c **** void PackIntIntoDataMSBFirst(uint8_t *data, int32_t dataToPack, int startIndex)
 200:..\CANLib/CANPacket.c **** {
 876              		.loc 1 200 0
 877              		.cfi_startproc
 878              		@ args = 0, pretend = 0, frame = 16
 879              		@ frame_needed = 1, uses_anonymous_args = 0
 880 0000 80B5     		push	{r7, lr}
 881              		.cfi_def_cfa_offset 8
ARM GAS  C:\Users\Austcha\AppData\Local\Temp\ccdNIALj.s 			page 20


 882              		.cfi_offset 7, -8
 883              		.cfi_offset 14, -4
 884 0002 84B0     		sub	sp, sp, #16
 885              		.cfi_def_cfa_offset 24
 886 0004 00AF     		add	r7, sp, #0
 887              		.cfi_def_cfa_register 7
 888 0006 F860     		str	r0, [r7, #12]
 889 0008 B960     		str	r1, [r7, #8]
 890 000a 7A60     		str	r2, [r7, #4]
 201:..\CANLib/CANPacket.c ****     data[startIndex]     = (dataToPack & 0xFF000000) >> 24;
 891              		.loc 1 201 0
 892 000c 7B68     		ldr	r3, [r7, #4]
 893 000e FA68     		ldr	r2, [r7, #12]
 894 0010 D318     		adds	r3, r2, r3
 895 0012 BA68     		ldr	r2, [r7, #8]
 896 0014 120E     		lsrs	r2, r2, #24
 897 0016 D2B2     		uxtb	r2, r2
 898 0018 1A70     		strb	r2, [r3]
 202:..\CANLib/CANPacket.c ****     data[startIndex + 1] = (dataToPack & 0x00FF0000) >> 16;
 899              		.loc 1 202 0
 900 001a 7B68     		ldr	r3, [r7, #4]
 901 001c 0133     		adds	r3, r3, #1
 902 001e FA68     		ldr	r2, [r7, #12]
 903 0020 D318     		adds	r3, r2, r3
 904 0022 BA68     		ldr	r2, [r7, #8]
 905 0024 1214     		asrs	r2, r2, #16
 906 0026 D2B2     		uxtb	r2, r2
 907 0028 1A70     		strb	r2, [r3]
 203:..\CANLib/CANPacket.c ****     data[startIndex + 2] = (dataToPack & 0x0000FF00) >> 8;
 908              		.loc 1 203 0
 909 002a 7B68     		ldr	r3, [r7, #4]
 910 002c 0233     		adds	r3, r3, #2
 911 002e FA68     		ldr	r2, [r7, #12]
 912 0030 D318     		adds	r3, r2, r3
 913 0032 BA68     		ldr	r2, [r7, #8]
 914 0034 1212     		asrs	r2, r2, #8
 915 0036 D2B2     		uxtb	r2, r2
 916 0038 1A70     		strb	r2, [r3]
 204:..\CANLib/CANPacket.c ****     data[startIndex + 3] = (dataToPack & 0x000000FF);
 917              		.loc 1 204 0
 918 003a 7B68     		ldr	r3, [r7, #4]
 919 003c 0333     		adds	r3, r3, #3
 920 003e FA68     		ldr	r2, [r7, #12]
 921 0040 D318     		adds	r3, r2, r3
 922 0042 BA68     		ldr	r2, [r7, #8]
 923 0044 D2B2     		uxtb	r2, r2
 924 0046 1A70     		strb	r2, [r3]
 205:..\CANLib/CANPacket.c **** }
 925              		.loc 1 205 0
 926 0048 C046     		nop
 927 004a BD46     		mov	sp, r7
 928 004c 04B0     		add	sp, sp, #16
 929              		@ sp needed
 930 004e 80BD     		pop	{r7, pc}
 931              		.cfi_endproc
 932              	.LFE15:
 933              		.size	PackIntIntoDataMSBFirst, .-PackIntIntoDataMSBFirst
ARM GAS  C:\Users\Austcha\AppData\Local\Temp\ccdNIALj.s 			page 21


 934              		.section	.text.DecodeBytesToIntMSBFirst,"ax",%progbits
 935              		.align	2
 936              		.global	DecodeBytesToIntMSBFirst
 937              		.code	16
 938              		.thumb_func
 939              		.type	DecodeBytesToIntMSBFirst, %function
 940              	DecodeBytesToIntMSBFirst:
 941              	.LFB16:
 206:..\CANLib/CANPacket.c **** 
 207:..\CANLib/CANPacket.c **** int32_t DecodeBytesToIntMSBFirst(uint8_t *data, int startIndex, int endIndex)
 208:..\CANLib/CANPacket.c **** {
 942              		.loc 1 208 0
 943              		.cfi_startproc
 944              		@ args = 0, pretend = 0, frame = 32
 945              		@ frame_needed = 1, uses_anonymous_args = 0
 946 0000 80B5     		push	{r7, lr}
 947              		.cfi_def_cfa_offset 8
 948              		.cfi_offset 7, -8
 949              		.cfi_offset 14, -4
 950 0002 88B0     		sub	sp, sp, #32
 951              		.cfi_def_cfa_offset 40
 952 0004 00AF     		add	r7, sp, #0
 953              		.cfi_def_cfa_register 7
 954 0006 F860     		str	r0, [r7, #12]
 955 0008 B960     		str	r1, [r7, #8]
 956 000a 7A60     		str	r2, [r7, #4]
 209:..\CANLib/CANPacket.c ****     int length = 4;
 957              		.loc 1 209 0
 958 000c 0423     		movs	r3, #4
 959 000e FB61     		str	r3, [r7, #28]
 210:..\CANLib/CANPacket.c ****     int32_t decodedData = 0;
 960              		.loc 1 210 0
 961 0010 0023     		movs	r3, #0
 962 0012 BB61     		str	r3, [r7, #24]
 211:..\CANLib/CANPacket.c **** 
 212:..\CANLib/CANPacket.c ****     if (endIndex > 0 && startIndex >= 0) {
 963              		.loc 1 212 0
 964 0014 7B68     		ldr	r3, [r7, #4]
 965 0016 002B     		cmp	r3, #0
 966 0018 10DD     		ble	.L39
 967              		.loc 1 212 0 is_stmt 0 discriminator 1
 968 001a BB68     		ldr	r3, [r7, #8]
 969 001c 002B     		cmp	r3, #0
 970 001e 0DDB     		blt	.L39
 213:..\CANLib/CANPacket.c ****         length = endIndex - startIndex;
 971              		.loc 1 213 0 is_stmt 1
 972 0020 7A68     		ldr	r2, [r7, #4]
 973 0022 BB68     		ldr	r3, [r7, #8]
 974 0024 D31A     		subs	r3, r2, r3
 975 0026 FB61     		str	r3, [r7, #28]
 214:..\CANLib/CANPacket.c ****         if (length > 4) { length = 4; }
 976              		.loc 1 214 0
 977 0028 FB69     		ldr	r3, [r7, #28]
 978 002a 042B     		cmp	r3, #4
 979 002c 01DD     		ble	.L40
 980              		.loc 1 214 0 is_stmt 0 discriminator 1
 981 002e 0423     		movs	r3, #4
ARM GAS  C:\Users\Austcha\AppData\Local\Temp\ccdNIALj.s 			page 22


 982 0030 FB61     		str	r3, [r7, #28]
 983              	.L40:
 215:..\CANLib/CANPacket.c ****         if (length < 1) { length = 0; }
 984              		.loc 1 215 0 is_stmt 1
 985 0032 FB69     		ldr	r3, [r7, #28]
 986 0034 002B     		cmp	r3, #0
 987 0036 01DC     		bgt	.L39
 988              		.loc 1 215 0 is_stmt 0 discriminator 1
 989 0038 0023     		movs	r3, #0
 990 003a FB61     		str	r3, [r7, #28]
 991              	.L39:
 992              	.LBB4:
 216:..\CANLib/CANPacket.c ****     }
 217:..\CANLib/CANPacket.c **** 
 218:..\CANLib/CANPacket.c ****     for (int i = 0; i < length; i++) 
 993              		.loc 1 218 0 is_stmt 1
 994 003c 0023     		movs	r3, #0
 995 003e 7B61     		str	r3, [r7, #20]
 996 0040 14E0     		b	.L41
 997              	.L42:
 219:..\CANLib/CANPacket.c ****     {
 220:..\CANLib/CANPacket.c ****         decodedData |= data[startIndex + i] << (8 * (length-1-i));
 998              		.loc 1 220 0 discriminator 3
 999 0042 BA68     		ldr	r2, [r7, #8]
 1000 0044 7B69     		ldr	r3, [r7, #20]
 1001 0046 D318     		adds	r3, r2, r3
 1002 0048 1A00     		movs	r2, r3
 1003 004a FB68     		ldr	r3, [r7, #12]
 1004 004c 9B18     		adds	r3, r3, r2
 1005 004e 1B78     		ldrb	r3, [r3]
 1006 0050 1900     		movs	r1, r3
 1007 0052 FB69     		ldr	r3, [r7, #28]
 1008 0054 5A1E     		subs	r2, r3, #1
 1009 0056 7B69     		ldr	r3, [r7, #20]
 1010 0058 D31A     		subs	r3, r2, r3
 1011 005a DB00     		lsls	r3, r3, #3
 1012 005c 9940     		lsls	r1, r1, r3
 1013 005e 0B00     		movs	r3, r1
 1014 0060 BA69     		ldr	r2, [r7, #24]
 1015 0062 1343     		orrs	r3, r2
 1016 0064 BB61     		str	r3, [r7, #24]
 218:..\CANLib/CANPacket.c ****     {
 1017              		.loc 1 218 0 discriminator 3
 1018 0066 7B69     		ldr	r3, [r7, #20]
 1019 0068 0133     		adds	r3, r3, #1
 1020 006a 7B61     		str	r3, [r7, #20]
 1021              	.L41:
 218:..\CANLib/CANPacket.c ****     {
 1022              		.loc 1 218 0 is_stmt 0 discriminator 1
 1023 006c 7A69     		ldr	r2, [r7, #20]
 1024 006e FB69     		ldr	r3, [r7, #28]
 1025 0070 9A42     		cmp	r2, r3
 1026 0072 E6DB     		blt	.L42
 1027              	.LBE4:
 221:..\CANLib/CANPacket.c ****     }
 222:..\CANLib/CANPacket.c ****     return decodedData;
 1028              		.loc 1 222 0 is_stmt 1
ARM GAS  C:\Users\Austcha\AppData\Local\Temp\ccdNIALj.s 			page 23


 1029 0074 BB69     		ldr	r3, [r7, #24]
 223:..\CANLib/CANPacket.c **** }
 1030              		.loc 1 223 0
 1031 0076 1800     		movs	r0, r3
 1032 0078 BD46     		mov	sp, r7
 1033 007a 08B0     		add	sp, sp, #32
 1034              		@ sp needed
 1035 007c 80BD     		pop	{r7, pc}
 1036              		.cfi_endproc
 1037              	.LFE16:
 1038              		.size	DecodeBytesToIntMSBFirst, .-DecodeBytesToIntMSBFirst
 1039 007e C046     		.text
 1040              	.Letext0:
 1041              		.file 2 "c:\\program files (x86)\\cypress\\psoc creator\\4.3\\psoc creator\\import\\gnu\\arm\\5.4.
 1042              		.file 3 "c:\\program files (x86)\\cypress\\psoc creator\\4.3\\psoc creator\\import\\gnu\\arm\\5.4.
 1043              		.file 4 "..\\CANLib\\CANPacket.h"
 1044              		.section	.debug_info,"",%progbits
 1045              	.Ldebug_info0:
 1046 0000 42050000 		.4byte	0x542
 1047 0004 0400     		.2byte	0x4
 1048 0006 00000000 		.4byte	.Ldebug_abbrev0
 1049 000a 04       		.byte	0x4
 1050 000b 01       		.uleb128 0x1
 1051 000c CF010000 		.4byte	.LASF54
 1052 0010 0C       		.byte	0xc
 1053 0011 E2000000 		.4byte	.LASF55
 1054 0015 00000000 		.4byte	.LASF56
 1055 0019 00000000 		.4byte	.Ldebug_ranges0+0
 1056 001d 00000000 		.4byte	0
 1057 0021 00000000 		.4byte	.Ldebug_line0
 1058 0025 02       		.uleb128 0x2
 1059 0026 01       		.byte	0x1
 1060 0027 06       		.byte	0x6
 1061 0028 A8020000 		.4byte	.LASF0
 1062 002c 03       		.uleb128 0x3
 1063 002d C5010000 		.4byte	.LASF3
 1064 0031 02       		.byte	0x2
 1065 0032 1D       		.byte	0x1d
 1066 0033 37000000 		.4byte	0x37
 1067 0037 02       		.uleb128 0x2
 1068 0038 01       		.byte	0x1
 1069 0039 08       		.byte	0x8
 1070 003a 73020000 		.4byte	.LASF1
 1071 003e 02       		.uleb128 0x2
 1072 003f 02       		.byte	0x2
 1073 0040 05       		.byte	0x5
 1074 0041 B0000000 		.4byte	.LASF2
 1075 0045 03       		.uleb128 0x3
 1076 0046 12010000 		.4byte	.LASF4
 1077 004a 02       		.byte	0x2
 1078 004b 2B       		.byte	0x2b
 1079 004c 50000000 		.4byte	0x50
 1080 0050 02       		.uleb128 0x2
 1081 0051 02       		.byte	0x2
 1082 0052 07       		.byte	0x7
 1083 0053 04030000 		.4byte	.LASF5
 1084 0057 03       		.uleb128 0x3
ARM GAS  C:\Users\Austcha\AppData\Local\Temp\ccdNIALj.s 			page 24


 1085 0058 8E030000 		.4byte	.LASF6
 1086 005c 02       		.byte	0x2
 1087 005d 3F       		.byte	0x3f
 1088 005e 62000000 		.4byte	0x62
 1089 0062 02       		.uleb128 0x2
 1090 0063 04       		.byte	0x4
 1091 0064 05       		.byte	0x5
 1092 0065 AF010000 		.4byte	.LASF7
 1093 0069 02       		.uleb128 0x2
 1094 006a 04       		.byte	0x4
 1095 006b 07       		.byte	0x7
 1096 006c 39030000 		.4byte	.LASF8
 1097 0070 02       		.uleb128 0x2
 1098 0071 08       		.byte	0x8
 1099 0072 05       		.byte	0x5
 1100 0073 6D010000 		.4byte	.LASF9
 1101 0077 02       		.uleb128 0x2
 1102 0078 08       		.byte	0x8
 1103 0079 07       		.byte	0x7
 1104 007a B4020000 		.4byte	.LASF10
 1105 007e 04       		.uleb128 0x4
 1106 007f 04       		.byte	0x4
 1107 0080 05       		.byte	0x5
 1108 0081 696E7400 		.ascii	"int\000"
 1109 0085 02       		.uleb128 0x2
 1110 0086 04       		.byte	0x4
 1111 0087 07       		.byte	0x7
 1112 0088 D1020000 		.4byte	.LASF11
 1113 008c 03       		.uleb128 0x3
 1114 008d 4C010000 		.4byte	.LASF12
 1115 0091 03       		.byte	0x3
 1116 0092 18       		.byte	0x18
 1117 0093 2C000000 		.4byte	0x2c
 1118 0097 03       		.uleb128 0x3
 1119 0098 DE020000 		.4byte	.LASF13
 1120 009c 03       		.byte	0x3
 1121 009d 24       		.byte	0x24
 1122 009e 45000000 		.4byte	0x45
 1123 00a2 03       		.uleb128 0x3
 1124 00a3 2C030000 		.4byte	.LASF14
 1125 00a7 03       		.byte	0x3
 1126 00a8 2C       		.byte	0x2c
 1127 00a9 57000000 		.4byte	0x57
 1128 00ad 05       		.uleb128 0x5
 1129 00ae 0C       		.byte	0xc
 1130 00af 04       		.byte	0x4
 1131 00b0 0F       		.byte	0xf
 1132 00b1 D9000000 		.4byte	0xd9
 1133 00b5 06       		.uleb128 0x6
 1134 00b6 696400   		.ascii	"id\000"
 1135 00b9 04       		.byte	0x4
 1136 00ba 11       		.byte	0x11
 1137 00bb 97000000 		.4byte	0x97
 1138 00bf 00       		.byte	0
 1139 00c0 06       		.uleb128 0x6
 1140 00c1 646C6300 		.ascii	"dlc\000"
 1141 00c5 04       		.byte	0x4
ARM GAS  C:\Users\Austcha\AppData\Local\Temp\ccdNIALj.s 			page 25


 1142 00c6 12       		.byte	0x12
 1143 00c7 8C000000 		.4byte	0x8c
 1144 00cb 02       		.byte	0x2
 1145 00cc 07       		.uleb128 0x7
 1146 00cd 34030000 		.4byte	.LASF15
 1147 00d1 04       		.byte	0x4
 1148 00d2 13       		.byte	0x13
 1149 00d3 D9000000 		.4byte	0xd9
 1150 00d7 03       		.byte	0x3
 1151 00d8 00       		.byte	0
 1152 00d9 08       		.uleb128 0x8
 1153 00da 8C000000 		.4byte	0x8c
 1154 00de E9000000 		.4byte	0xe9
 1155 00e2 09       		.uleb128 0x9
 1156 00e3 E9000000 		.4byte	0xe9
 1157 00e7 07       		.byte	0x7
 1158 00e8 00       		.byte	0
 1159 00e9 02       		.uleb128 0x2
 1160 00ea 04       		.byte	0x4
 1161 00eb 07       		.byte	0x7
 1162 00ec D3000000 		.4byte	.LASF16
 1163 00f0 03       		.uleb128 0x3
 1164 00f1 89010000 		.4byte	.LASF17
 1165 00f5 04       		.byte	0x4
 1166 00f6 14       		.byte	0x14
 1167 00f7 AD000000 		.4byte	0xad
 1168 00fb 0A       		.uleb128 0xa
 1169 00fc 64020000 		.4byte	.LASF21
 1170 0100 01       		.byte	0x1
 1171 0101 17       		.byte	0x17
 1172 0102 97000000 		.4byte	0x97
 1173 0106 00000000 		.4byte	.LFB0
 1174 010a 96000000 		.4byte	.LFE0-.LFB0
 1175 010e 01       		.uleb128 0x1
 1176 010f 9C       		.byte	0x9c
 1177 0110 4D010000 		.4byte	0x14d
 1178 0114 0B       		.uleb128 0xb
 1179 0115 7E000000 		.4byte	.LASF18
 1180 0119 01       		.byte	0x1
 1181 011a 17       		.byte	0x17
 1182 011b 8C000000 		.4byte	0x8c
 1183 011f 02       		.uleb128 0x2
 1184 0120 91       		.byte	0x91
 1185 0121 67       		.sleb128 -25
 1186 0122 0B       		.uleb128 0xb
 1187 0123 6F030000 		.4byte	.LASF19
 1188 0127 01       		.byte	0x1
 1189 0128 17       		.byte	0x17
 1190 0129 8C000000 		.4byte	0x8c
 1191 012d 02       		.uleb128 0x2
 1192 012e 91       		.byte	0x91
 1193 012f 66       		.sleb128 -26
 1194 0130 0B       		.uleb128 0xb
 1195 0131 81020000 		.4byte	.LASF20
 1196 0135 01       		.byte	0x1
 1197 0136 17       		.byte	0x17
 1198 0137 8C000000 		.4byte	0x8c
ARM GAS  C:\Users\Austcha\AppData\Local\Temp\ccdNIALj.s 			page 26


 1199 013b 02       		.uleb128 0x2
 1200 013c 91       		.byte	0x91
 1201 013d 65       		.sleb128 -27
 1202 013e 0C       		.uleb128 0xc
 1203 013f DC000000 		.4byte	.LASF23
 1204 0143 01       		.byte	0x1
 1205 0144 19       		.byte	0x19
 1206 0145 97000000 		.4byte	0x97
 1207 0149 02       		.uleb128 0x2
 1208 014a 91       		.byte	0x91
 1209 014b 6E       		.sleb128 -18
 1210 014c 00       		.byte	0
 1211 014d 0D       		.uleb128 0xd
 1212 014e 93010000 		.4byte	.LASF22
 1213 0152 01       		.byte	0x1
 1214 0153 29       		.byte	0x29
 1215 0154 F0000000 		.4byte	0xf0
 1216 0158 00000000 		.4byte	.LFB1
 1217 015c 7E000000 		.4byte	.LFE1-.LFB1
 1218 0160 01       		.uleb128 0x1
 1219 0161 9C       		.byte	0x9c
 1220 0162 B3010000 		.4byte	0x1b3
 1221 0166 0E       		.uleb128 0xe
 1222 0167 696400   		.ascii	"id\000"
 1223 016a 01       		.byte	0x1
 1224 016b 29       		.byte	0x29
 1225 016c 97000000 		.4byte	0x97
 1226 0170 02       		.uleb128 0x2
 1227 0171 91       		.byte	0x91
 1228 0172 62       		.sleb128 -30
 1229 0173 0E       		.uleb128 0xe
 1230 0174 646C6300 		.ascii	"dlc\000"
 1231 0178 01       		.byte	0x1
 1232 0179 29       		.byte	0x29
 1233 017a 8C000000 		.4byte	0x8c
 1234 017e 02       		.uleb128 0x2
 1235 017f 91       		.byte	0x91
 1236 0180 61       		.sleb128 -31
 1237 0181 0B       		.uleb128 0xb
 1238 0182 34030000 		.4byte	.LASF15
 1239 0186 01       		.byte	0x1
 1240 0187 29       		.byte	0x29
 1241 0188 B3010000 		.4byte	0x1b3
 1242 018c 02       		.uleb128 0x2
 1243 018d 91       		.byte	0x91
 1244 018e 5C       		.sleb128 -36
 1245 018f 0F       		.uleb128 0xf
 1246 0190 637000   		.ascii	"cp\000"
 1247 0193 01       		.byte	0x1
 1248 0194 2B       		.byte	0x2b
 1249 0195 F0000000 		.4byte	0xf0
 1250 0199 02       		.uleb128 0x2
 1251 019a 91       		.byte	0x91
 1252 019b 68       		.sleb128 -24
 1253 019c 10       		.uleb128 0x10
 1254 019d 36000000 		.4byte	.LBB2
 1255 01a1 2E000000 		.4byte	.LBE2-.LBB2
ARM GAS  C:\Users\Austcha\AppData\Local\Temp\ccdNIALj.s 			page 27


 1256 01a5 0F       		.uleb128 0xf
 1257 01a6 6900     		.ascii	"i\000"
 1258 01a8 01       		.byte	0x1
 1259 01a9 2E       		.byte	0x2e
 1260 01aa 7E000000 		.4byte	0x7e
 1261 01ae 02       		.uleb128 0x2
 1262 01af 91       		.byte	0x91
 1263 01b0 74       		.sleb128 -12
 1264 01b1 00       		.byte	0
 1265 01b2 00       		.byte	0
 1266 01b3 11       		.uleb128 0x11
 1267 01b4 04       		.byte	0x4
 1268 01b5 8C000000 		.4byte	0x8c
 1269 01b9 0D       		.uleb128 0xd
 1270 01ba 8B020000 		.4byte	.LASF24
 1271 01be 01       		.byte	0x1
 1272 01bf 40       		.byte	0x40
 1273 01c0 7E000000 		.4byte	0x7e
 1274 01c4 00000000 		.4byte	.LFB2
 1275 01c8 5C000000 		.4byte	.LFE2-.LFB2
 1276 01cc 01       		.uleb128 0x1
 1277 01cd 9C       		.byte	0x9c
 1278 01ce EF010000 		.4byte	0x1ef
 1279 01d2 0B       		.uleb128 0xb
 1280 01d3 34030000 		.4byte	.LASF15
 1281 01d7 01       		.byte	0x1
 1282 01d8 40       		.byte	0x40
 1283 01d9 B3010000 		.4byte	0x1b3
 1284 01dd 02       		.uleb128 0x2
 1285 01de 91       		.byte	0x91
 1286 01df 6C       		.sleb128 -20
 1287 01e0 0B       		.uleb128 0xb
 1288 01e1 23030000 		.4byte	.LASF25
 1289 01e5 01       		.byte	0x1
 1290 01e6 40       		.byte	0x40
 1291 01e7 8C000000 		.4byte	0x8c
 1292 01eb 02       		.uleb128 0x2
 1293 01ec 91       		.byte	0x91
 1294 01ed 6B       		.sleb128 -21
 1295 01ee 00       		.byte	0
 1296 01ef 0A       		.uleb128 0xa
 1297 01f0 DE030000 		.4byte	.LASF26
 1298 01f4 01       		.byte	0x1
 1299 01f5 4E       		.byte	0x4e
 1300 01f6 7E000000 		.4byte	0x7e
 1301 01fa 00000000 		.4byte	.LFB3
 1302 01fe 28000000 		.4byte	.LFE3-.LFB3
 1303 0202 01       		.uleb128 0x1
 1304 0203 9C       		.byte	0x9c
 1305 0204 25020000 		.4byte	0x225
 1306 0208 0B       		.uleb128 0xb
 1307 0209 34030000 		.4byte	.LASF15
 1308 020d 01       		.byte	0x1
 1309 020e 4E       		.byte	0x4e
 1310 020f B3010000 		.4byte	0x1b3
 1311 0213 02       		.uleb128 0x2
 1312 0214 91       		.byte	0x91
ARM GAS  C:\Users\Austcha\AppData\Local\Temp\ccdNIALj.s 			page 28


 1313 0215 74       		.sleb128 -12
 1314 0216 0B       		.uleb128 0xb
 1315 0217 23030000 		.4byte	.LASF25
 1316 021b 01       		.byte	0x1
 1317 021c 4E       		.byte	0x4e
 1318 021d 8C000000 		.4byte	0x8c
 1319 0221 02       		.uleb128 0x2
 1320 0222 91       		.byte	0x91
 1321 0223 73       		.sleb128 -13
 1322 0224 00       		.byte	0
 1323 0225 0A       		.uleb128 0xa
 1324 0226 5B010000 		.4byte	.LASF27
 1325 022a 01       		.byte	0x1
 1326 022b 5A       		.byte	0x5a
 1327 022c 8C000000 		.4byte	0x8c
 1328 0230 00000000 		.4byte	.LFB4
 1329 0234 1E000000 		.4byte	.LFE4-.LFB4
 1330 0238 01       		.uleb128 0x1
 1331 0239 9C       		.byte	0x9c
 1332 023a 4D020000 		.4byte	0x24d
 1333 023e 0B       		.uleb128 0xb
 1334 023f 54010000 		.4byte	.LASF28
 1335 0243 01       		.byte	0x1
 1336 0244 5A       		.byte	0x5a
 1337 0245 4D020000 		.4byte	0x24d
 1338 0249 02       		.uleb128 0x2
 1339 024a 91       		.byte	0x91
 1340 024b 74       		.sleb128 -12
 1341 024c 00       		.byte	0
 1342 024d 11       		.uleb128 0x11
 1343 024e 04       		.byte	0x4
 1344 024f F0000000 		.4byte	0xf0
 1345 0253 0A       		.uleb128 0xa
 1346 0254 1D010000 		.4byte	.LASF29
 1347 0258 01       		.byte	0x1
 1348 0259 65       		.byte	0x65
 1349 025a 8C000000 		.4byte	0x8c
 1350 025e 00000000 		.4byte	.LFB5
 1351 0262 26000000 		.4byte	.LFE5-.LFB5
 1352 0266 01       		.uleb128 0x1
 1353 0267 9C       		.byte	0x9c
 1354 0268 88020000 		.4byte	0x288
 1355 026c 0B       		.uleb128 0xb
 1356 026d 54010000 		.4byte	.LASF28
 1357 0271 01       		.byte	0x1
 1358 0272 65       		.byte	0x65
 1359 0273 4D020000 		.4byte	0x24d
 1360 0277 02       		.uleb128 0x2
 1361 0278 91       		.byte	0x91
 1362 0279 6C       		.sleb128 -20
 1363 027a 0F       		.uleb128 0xf
 1364 027b 696400   		.ascii	"id\000"
 1365 027e 01       		.byte	0x1
 1366 027f 67       		.byte	0x67
 1367 0280 8C000000 		.4byte	0x8c
 1368 0284 02       		.uleb128 0x2
 1369 0285 91       		.byte	0x91
ARM GAS  C:\Users\Austcha\AppData\Local\Temp\ccdNIALj.s 			page 29


 1370 0286 77       		.sleb128 -9
 1371 0287 00       		.byte	0
 1372 0288 0A       		.uleb128 0xa
 1373 0289 AF030000 		.4byte	.LASF30
 1374 028d 01       		.byte	0x1
 1375 028e 70       		.byte	0x70
 1376 028f 8C000000 		.4byte	0x8c
 1377 0293 00000000 		.4byte	.LFB6
 1378 0297 1A000000 		.4byte	.LFE6-.LFB6
 1379 029b 01       		.uleb128 0x1
 1380 029c 9C       		.byte	0x9c
 1381 029d B0020000 		.4byte	0x2b0
 1382 02a1 0B       		.uleb128 0xb
 1383 02a2 54010000 		.4byte	.LASF28
 1384 02a6 01       		.byte	0x1
 1385 02a7 70       		.byte	0x70
 1386 02a8 4D020000 		.4byte	0x24d
 1387 02ac 02       		.uleb128 0x2
 1388 02ad 91       		.byte	0x91
 1389 02ae 74       		.sleb128 -12
 1390 02af 00       		.byte	0
 1391 02b0 0A       		.uleb128 0xa
 1392 02b1 CB030000 		.4byte	.LASF31
 1393 02b5 01       		.byte	0x1
 1394 02b6 7B       		.byte	0x7b
 1395 02b7 8C000000 		.4byte	0x8c
 1396 02bb 00000000 		.4byte	.LFB7
 1397 02bf 34000000 		.4byte	.LFE7-.LFB7
 1398 02c3 01       		.uleb128 0x1
 1399 02c4 9C       		.byte	0x9c
 1400 02c5 F3020000 		.4byte	0x2f3
 1401 02c9 0B       		.uleb128 0xb
 1402 02ca 54010000 		.4byte	.LASF28
 1403 02ce 01       		.byte	0x1
 1404 02cf 7B       		.byte	0x7b
 1405 02d0 4D020000 		.4byte	0x24d
 1406 02d4 02       		.uleb128 0x2
 1407 02d5 91       		.byte	0x91
 1408 02d6 6C       		.sleb128 -20
 1409 02d7 0C       		.uleb128 0xc
 1410 02d8 CB020000 		.4byte	.LASF32
 1411 02dc 01       		.byte	0x1
 1412 02dd 7D       		.byte	0x7d
 1413 02de 8C000000 		.4byte	0x8c
 1414 02e2 02       		.uleb128 0x2
 1415 02e3 91       		.byte	0x91
 1416 02e4 77       		.sleb128 -9
 1417 02e5 0F       		.uleb128 0xf
 1418 02e6 696400   		.ascii	"id\000"
 1419 02e9 01       		.byte	0x1
 1420 02ea 7E       		.byte	0x7e
 1421 02eb 7E000000 		.4byte	0x7e
 1422 02ef 02       		.uleb128 0x2
 1423 02f0 91       		.byte	0x91
 1424 02f1 70       		.sleb128 -16
 1425 02f2 00       		.byte	0
 1426 02f3 0A       		.uleb128 0xa
ARM GAS  C:\Users\Austcha\AppData\Local\Temp\ccdNIALj.s 			page 30


 1427 02f4 33010000 		.4byte	.LASF33
 1428 02f8 01       		.byte	0x1
 1429 02f9 88       		.byte	0x88
 1430 02fa 8C000000 		.4byte	0x8c
 1431 02fe 00000000 		.4byte	.LFB8
 1432 0302 3E000000 		.4byte	.LFE8-.LFB8
 1433 0306 01       		.uleb128 0x1
 1434 0307 9C       		.byte	0x9c
 1435 0308 29030000 		.4byte	0x329
 1436 030c 0B       		.uleb128 0xb
 1437 030d 54010000 		.4byte	.LASF28
 1438 0311 01       		.byte	0x1
 1439 0312 88       		.byte	0x88
 1440 0313 4D020000 		.4byte	0x24d
 1441 0317 02       		.uleb128 0x2
 1442 0318 91       		.byte	0x91
 1443 0319 6C       		.sleb128 -20
 1444 031a 0C       		.uleb128 0xc
 1445 031b B8010000 		.4byte	.LASF34
 1446 031f 01       		.byte	0x1
 1447 0320 8A       		.byte	0x8a
 1448 0321 8C000000 		.4byte	0x8c
 1449 0325 02       		.uleb128 0x2
 1450 0326 91       		.byte	0x91
 1451 0327 77       		.sleb128 -9
 1452 0328 00       		.byte	0
 1453 0329 0D       		.uleb128 0xd
 1454 032a A0000000 		.4byte	.LASF35
 1455 032e 01       		.byte	0x1
 1456 032f 96       		.byte	0x96
 1457 0330 7E000000 		.4byte	0x7e
 1458 0334 00000000 		.4byte	.LFB9
 1459 0338 2E000000 		.4byte	.LFE9-.LFB9
 1460 033c 01       		.uleb128 0x1
 1461 033d 9C       		.byte	0x9c
 1462 033e 5F030000 		.4byte	0x35f
 1463 0342 0B       		.uleb128 0xb
 1464 0343 54010000 		.4byte	.LASF28
 1465 0347 01       		.byte	0x1
 1466 0348 96       		.byte	0x96
 1467 0349 4D020000 		.4byte	0x24d
 1468 034d 02       		.uleb128 0x2
 1469 034e 91       		.byte	0x91
 1470 034f 74       		.sleb128 -12
 1471 0350 0B       		.uleb128 0xb
 1472 0351 F8000000 		.4byte	.LASF36
 1473 0355 01       		.byte	0x1
 1474 0356 96       		.byte	0x96
 1475 0357 8C000000 		.4byte	0x8c
 1476 035b 02       		.uleb128 0x2
 1477 035c 91       		.byte	0x91
 1478 035d 73       		.sleb128 -13
 1479 035e 00       		.byte	0
 1480 035f 0D       		.uleb128 0xd
 1481 0360 78030000 		.4byte	.LASF37
 1482 0364 01       		.byte	0x1
 1483 0365 9B       		.byte	0x9b
ARM GAS  C:\Users\Austcha\AppData\Local\Temp\ccdNIALj.s 			page 31


 1484 0366 7E000000 		.4byte	0x7e
 1485 036a 00000000 		.4byte	.LFB10
 1486 036e 2E000000 		.4byte	.LFE10-.LFB10
 1487 0372 01       		.uleb128 0x1
 1488 0373 9C       		.byte	0x9c
 1489 0374 95030000 		.4byte	0x395
 1490 0378 0B       		.uleb128 0xb
 1491 0379 54010000 		.4byte	.LASF28
 1492 037d 01       		.byte	0x1
 1493 037e 9B       		.byte	0x9b
 1494 037f 4D020000 		.4byte	0x24d
 1495 0383 02       		.uleb128 0x2
 1496 0384 91       		.byte	0x91
 1497 0385 74       		.sleb128 -12
 1498 0386 0B       		.uleb128 0xb
 1499 0387 F8000000 		.4byte	.LASF36
 1500 038b 01       		.byte	0x1
 1501 038c 9B       		.byte	0x9b
 1502 038d 8C000000 		.4byte	0x8c
 1503 0391 02       		.uleb128 0x2
 1504 0392 91       		.byte	0x91
 1505 0393 73       		.sleb128 -13
 1506 0394 00       		.byte	0
 1507 0395 0D       		.uleb128 0xd
 1508 0396 98030000 		.4byte	.LASF38
 1509 039a 01       		.byte	0x1
 1510 039b A0       		.byte	0xa0
 1511 039c 7E000000 		.4byte	0x7e
 1512 03a0 00000000 		.4byte	.LFB11
 1513 03a4 2E000000 		.4byte	.LFE11-.LFB11
 1514 03a8 01       		.uleb128 0x1
 1515 03a9 9C       		.byte	0x9c
 1516 03aa CB030000 		.4byte	0x3cb
 1517 03ae 0B       		.uleb128 0xb
 1518 03af 54010000 		.4byte	.LASF28
 1519 03b3 01       		.byte	0x1
 1520 03b4 A0       		.byte	0xa0
 1521 03b5 4D020000 		.4byte	0x24d
 1522 03b9 02       		.uleb128 0x2
 1523 03ba 91       		.byte	0x91
 1524 03bb 74       		.sleb128 -12
 1525 03bc 0B       		.uleb128 0xb
 1526 03bd F8000000 		.4byte	.LASF36
 1527 03c1 01       		.byte	0x1
 1528 03c2 A0       		.byte	0xa0
 1529 03c3 8C000000 		.4byte	0x8c
 1530 03c7 02       		.uleb128 0x2
 1531 03c8 91       		.byte	0x91
 1532 03c9 73       		.sleb128 -13
 1533 03ca 00       		.byte	0
 1534 03cb 0A       		.uleb128 0xa
 1535 03cc 13040000 		.4byte	.LASF39
 1536 03d0 01       		.byte	0x1
 1537 03d1 A5       		.byte	0xa5
 1538 03d2 7E000000 		.4byte	0x7e
 1539 03d6 00000000 		.4byte	.LFB12
 1540 03da 1A000000 		.4byte	.LFE12-.LFB12
ARM GAS  C:\Users\Austcha\AppData\Local\Temp\ccdNIALj.s 			page 32


 1541 03de 01       		.uleb128 0x1
 1542 03df 9C       		.byte	0x9c
 1543 03e0 F3030000 		.4byte	0x3f3
 1544 03e4 0B       		.uleb128 0xb
 1545 03e5 54010000 		.4byte	.LASF28
 1546 03e9 01       		.byte	0x1
 1547 03ea A5       		.byte	0xa5
 1548 03eb 4D020000 		.4byte	0x24d
 1549 03ef 02       		.uleb128 0x2
 1550 03f0 91       		.byte	0x91
 1551 03f1 74       		.sleb128 -12
 1552 03f2 00       		.byte	0
 1553 03f3 0D       		.uleb128 0xd
 1554 03f4 05010000 		.4byte	.LASF40
 1555 03f8 01       		.byte	0x1
 1556 03f9 AA       		.byte	0xaa
 1557 03fa 7E000000 		.4byte	0x7e
 1558 03fe 00000000 		.4byte	.LFB13
 1559 0402 2C000000 		.4byte	.LFE13-.LFB13
 1560 0406 01       		.uleb128 0x1
 1561 0407 9C       		.byte	0x9c
 1562 0408 29040000 		.4byte	0x429
 1563 040c 0B       		.uleb128 0xb
 1564 040d 54010000 		.4byte	.LASF28
 1565 0411 01       		.byte	0x1
 1566 0412 AA       		.byte	0xaa
 1567 0413 4D020000 		.4byte	0x24d
 1568 0417 02       		.uleb128 0x2
 1569 0418 91       		.byte	0x91
 1570 0419 74       		.sleb128 -12
 1571 041a 0B       		.uleb128 0xb
 1572 041b 4B030000 		.4byte	.LASF41
 1573 041f 01       		.byte	0x1
 1574 0420 AA       		.byte	0xaa
 1575 0421 8C000000 		.4byte	0x8c
 1576 0425 02       		.uleb128 0x2
 1577 0426 91       		.byte	0x91
 1578 0427 73       		.sleb128 -13
 1579 0428 00       		.byte	0
 1580 0429 0D       		.uleb128 0xd
 1581 042a 7B010000 		.4byte	.LASF42
 1582 042e 01       		.byte	0x1
 1583 042f B9       		.byte	0xb9
 1584 0430 7E000000 		.4byte	0x7e
 1585 0434 00000000 		.4byte	.LFB14
 1586 0438 7A000000 		.4byte	.LFE14-.LFB14
 1587 043c 01       		.uleb128 0x1
 1588 043d 9C       		.byte	0x9c
 1589 043e 93040000 		.4byte	0x493
 1590 0442 0B       		.uleb128 0xb
 1591 0443 54010000 		.4byte	.LASF28
 1592 0447 01       		.byte	0x1
 1593 0448 B9       		.byte	0xb9
 1594 0449 4D020000 		.4byte	0x24d
 1595 044d 02       		.uleb128 0x2
 1596 044e 91       		.byte	0x91
 1597 044f 64       		.sleb128 -28
ARM GAS  C:\Users\Austcha\AppData\Local\Temp\ccdNIALj.s 			page 33


 1598 0450 0B       		.uleb128 0xb
 1599 0451 E7020000 		.4byte	.LASF43
 1600 0455 01       		.byte	0x1
 1601 0456 B9       		.byte	0xb9
 1602 0457 8C000000 		.4byte	0x8c
 1603 045b 02       		.uleb128 0x2
 1604 045c 91       		.byte	0x91
 1605 045d 63       		.sleb128 -29
 1606 045e 0B       		.uleb128 0xb
 1607 045f BA000000 		.4byte	.LASF44
 1608 0463 01       		.byte	0x1
 1609 0464 B9       		.byte	0xb9
 1610 0465 8C000000 		.4byte	0x8c
 1611 0469 02       		.uleb128 0x2
 1612 046a 91       		.byte	0x91
 1613 046b 62       		.sleb128 -30
 1614 046c 0C       		.uleb128 0xc
 1615 046d 63030000 		.4byte	.LASF45
 1616 0471 01       		.byte	0x1
 1617 0472 BB       		.byte	0xbb
 1618 0473 8C000000 		.4byte	0x8c
 1619 0477 02       		.uleb128 0x2
 1620 0478 91       		.byte	0x91
 1621 0479 6F       		.sleb128 -17
 1622 047a 10       		.uleb128 0x10
 1623 047b 36000000 		.4byte	.LBB3
 1624 047f 30000000 		.4byte	.LBE3-.LBB3
 1625 0483 0C       		.uleb128 0xc
 1626 0484 56030000 		.4byte	.LASF46
 1627 0488 01       		.byte	0x1
 1628 0489 BE       		.byte	0xbe
 1629 048a 8C000000 		.4byte	0x8c
 1630 048e 02       		.uleb128 0x2
 1631 048f 91       		.byte	0x91
 1632 0490 6E       		.sleb128 -18
 1633 0491 00       		.byte	0
 1634 0492 00       		.byte	0
 1635 0493 12       		.uleb128 0x12
 1636 0494 F0030000 		.4byte	.LASF49
 1637 0498 01       		.byte	0x1
 1638 0499 C7       		.byte	0xc7
 1639 049a 00000000 		.4byte	.LFB15
 1640 049e 50000000 		.4byte	.LFE15-.LFB15
 1641 04a2 01       		.uleb128 0x1
 1642 04a3 9C       		.byte	0x9c
 1643 04a4 D3040000 		.4byte	0x4d3
 1644 04a8 0B       		.uleb128 0xb
 1645 04a9 34030000 		.4byte	.LASF15
 1646 04ad 01       		.byte	0x1
 1647 04ae C7       		.byte	0xc7
 1648 04af B3010000 		.4byte	0x1b3
 1649 04b3 02       		.uleb128 0x2
 1650 04b4 91       		.byte	0x91
 1651 04b5 74       		.sleb128 -12
 1652 04b6 0B       		.uleb128 0xb
 1653 04b7 F9020000 		.4byte	.LASF47
 1654 04bb 01       		.byte	0x1
ARM GAS  C:\Users\Austcha\AppData\Local\Temp\ccdNIALj.s 			page 34


 1655 04bc C7       		.byte	0xc7
 1656 04bd A2000000 		.4byte	0xa2
 1657 04c1 02       		.uleb128 0x2
 1658 04c2 91       		.byte	0x91
 1659 04c3 70       		.sleb128 -16
 1660 04c4 0B       		.uleb128 0xb
 1661 04c5 08040000 		.4byte	.LASF48
 1662 04c9 01       		.byte	0x1
 1663 04ca C7       		.byte	0xc7
 1664 04cb 7E000000 		.4byte	0x7e
 1665 04cf 02       		.uleb128 0x2
 1666 04d0 91       		.byte	0x91
 1667 04d1 6C       		.sleb128 -20
 1668 04d2 00       		.byte	0
 1669 04d3 13       		.uleb128 0x13
 1670 04d4 87000000 		.4byte	.LASF50
 1671 04d8 01       		.byte	0x1
 1672 04d9 CF       		.byte	0xcf
 1673 04da A2000000 		.4byte	0xa2
 1674 04de 00000000 		.4byte	.LFB16
 1675 04e2 7E000000 		.4byte	.LFE16-.LFB16
 1676 04e6 01       		.uleb128 0x1
 1677 04e7 9C       		.byte	0x9c
 1678 04e8 0B       		.uleb128 0xb
 1679 04e9 34030000 		.4byte	.LASF15
 1680 04ed 01       		.byte	0x1
 1681 04ee CF       		.byte	0xcf
 1682 04ef B3010000 		.4byte	0x1b3
 1683 04f3 02       		.uleb128 0x2
 1684 04f4 91       		.byte	0x91
 1685 04f5 64       		.sleb128 -28
 1686 04f6 0B       		.uleb128 0xb
 1687 04f7 08040000 		.4byte	.LASF48
 1688 04fb 01       		.byte	0x1
 1689 04fc CF       		.byte	0xcf
 1690 04fd 7E000000 		.4byte	0x7e
 1691 0501 02       		.uleb128 0x2
 1692 0502 91       		.byte	0x91
 1693 0503 60       		.sleb128 -32
 1694 0504 0B       		.uleb128 0xb
 1695 0505 A6010000 		.4byte	.LASF51
 1696 0509 01       		.byte	0x1
 1697 050a CF       		.byte	0xcf
 1698 050b 7E000000 		.4byte	0x7e
 1699 050f 02       		.uleb128 0x2
 1700 0510 91       		.byte	0x91
 1701 0511 5C       		.sleb128 -36
 1702 0512 0C       		.uleb128 0xc
 1703 0513 5D020000 		.4byte	.LASF52
 1704 0517 01       		.byte	0x1
 1705 0518 D1       		.byte	0xd1
 1706 0519 7E000000 		.4byte	0x7e
 1707 051d 02       		.uleb128 0x2
 1708 051e 91       		.byte	0x91
 1709 051f 74       		.sleb128 -12
 1710 0520 0C       		.uleb128 0xc
 1711 0521 17030000 		.4byte	.LASF53
ARM GAS  C:\Users\Austcha\AppData\Local\Temp\ccdNIALj.s 			page 35


 1712 0525 01       		.byte	0x1
 1713 0526 D2       		.byte	0xd2
 1714 0527 A2000000 		.4byte	0xa2
 1715 052b 02       		.uleb128 0x2
 1716 052c 91       		.byte	0x91
 1717 052d 70       		.sleb128 -16
 1718 052e 10       		.uleb128 0x10
 1719 052f 3C000000 		.4byte	.LBB4
 1720 0533 38000000 		.4byte	.LBE4-.LBB4
 1721 0537 0F       		.uleb128 0xf
 1722 0538 6900     		.ascii	"i\000"
 1723 053a 01       		.byte	0x1
 1724 053b DA       		.byte	0xda
 1725 053c 7E000000 		.4byte	0x7e
 1726 0540 02       		.uleb128 0x2
 1727 0541 91       		.byte	0x91
 1728 0542 6C       		.sleb128 -20
 1729 0543 00       		.byte	0
 1730 0544 00       		.byte	0
 1731 0545 00       		.byte	0
 1732              		.section	.debug_abbrev,"",%progbits
 1733              	.Ldebug_abbrev0:
 1734 0000 01       		.uleb128 0x1
 1735 0001 11       		.uleb128 0x11
 1736 0002 01       		.byte	0x1
 1737 0003 25       		.uleb128 0x25
 1738 0004 0E       		.uleb128 0xe
 1739 0005 13       		.uleb128 0x13
 1740 0006 0B       		.uleb128 0xb
 1741 0007 03       		.uleb128 0x3
 1742 0008 0E       		.uleb128 0xe
 1743 0009 1B       		.uleb128 0x1b
 1744 000a 0E       		.uleb128 0xe
 1745 000b 55       		.uleb128 0x55
 1746 000c 17       		.uleb128 0x17
 1747 000d 11       		.uleb128 0x11
 1748 000e 01       		.uleb128 0x1
 1749 000f 10       		.uleb128 0x10
 1750 0010 17       		.uleb128 0x17
 1751 0011 00       		.byte	0
 1752 0012 00       		.byte	0
 1753 0013 02       		.uleb128 0x2
 1754 0014 24       		.uleb128 0x24
 1755 0015 00       		.byte	0
 1756 0016 0B       		.uleb128 0xb
 1757 0017 0B       		.uleb128 0xb
 1758 0018 3E       		.uleb128 0x3e
 1759 0019 0B       		.uleb128 0xb
 1760 001a 03       		.uleb128 0x3
 1761 001b 0E       		.uleb128 0xe
 1762 001c 00       		.byte	0
 1763 001d 00       		.byte	0
 1764 001e 03       		.uleb128 0x3
 1765 001f 16       		.uleb128 0x16
 1766 0020 00       		.byte	0
 1767 0021 03       		.uleb128 0x3
 1768 0022 0E       		.uleb128 0xe
ARM GAS  C:\Users\Austcha\AppData\Local\Temp\ccdNIALj.s 			page 36


 1769 0023 3A       		.uleb128 0x3a
 1770 0024 0B       		.uleb128 0xb
 1771 0025 3B       		.uleb128 0x3b
 1772 0026 0B       		.uleb128 0xb
 1773 0027 49       		.uleb128 0x49
 1774 0028 13       		.uleb128 0x13
 1775 0029 00       		.byte	0
 1776 002a 00       		.byte	0
 1777 002b 04       		.uleb128 0x4
 1778 002c 24       		.uleb128 0x24
 1779 002d 00       		.byte	0
 1780 002e 0B       		.uleb128 0xb
 1781 002f 0B       		.uleb128 0xb
 1782 0030 3E       		.uleb128 0x3e
 1783 0031 0B       		.uleb128 0xb
 1784 0032 03       		.uleb128 0x3
 1785 0033 08       		.uleb128 0x8
 1786 0034 00       		.byte	0
 1787 0035 00       		.byte	0
 1788 0036 05       		.uleb128 0x5
 1789 0037 13       		.uleb128 0x13
 1790 0038 01       		.byte	0x1
 1791 0039 0B       		.uleb128 0xb
 1792 003a 0B       		.uleb128 0xb
 1793 003b 3A       		.uleb128 0x3a
 1794 003c 0B       		.uleb128 0xb
 1795 003d 3B       		.uleb128 0x3b
 1796 003e 0B       		.uleb128 0xb
 1797 003f 01       		.uleb128 0x1
 1798 0040 13       		.uleb128 0x13
 1799 0041 00       		.byte	0
 1800 0042 00       		.byte	0
 1801 0043 06       		.uleb128 0x6
 1802 0044 0D       		.uleb128 0xd
 1803 0045 00       		.byte	0
 1804 0046 03       		.uleb128 0x3
 1805 0047 08       		.uleb128 0x8
 1806 0048 3A       		.uleb128 0x3a
 1807 0049 0B       		.uleb128 0xb
 1808 004a 3B       		.uleb128 0x3b
 1809 004b 0B       		.uleb128 0xb
 1810 004c 49       		.uleb128 0x49
 1811 004d 13       		.uleb128 0x13
 1812 004e 38       		.uleb128 0x38
 1813 004f 0B       		.uleb128 0xb
 1814 0050 00       		.byte	0
 1815 0051 00       		.byte	0
 1816 0052 07       		.uleb128 0x7
 1817 0053 0D       		.uleb128 0xd
 1818 0054 00       		.byte	0
 1819 0055 03       		.uleb128 0x3
 1820 0056 0E       		.uleb128 0xe
 1821 0057 3A       		.uleb128 0x3a
 1822 0058 0B       		.uleb128 0xb
 1823 0059 3B       		.uleb128 0x3b
 1824 005a 0B       		.uleb128 0xb
 1825 005b 49       		.uleb128 0x49
ARM GAS  C:\Users\Austcha\AppData\Local\Temp\ccdNIALj.s 			page 37


 1826 005c 13       		.uleb128 0x13
 1827 005d 38       		.uleb128 0x38
 1828 005e 0B       		.uleb128 0xb
 1829 005f 00       		.byte	0
 1830 0060 00       		.byte	0
 1831 0061 08       		.uleb128 0x8
 1832 0062 01       		.uleb128 0x1
 1833 0063 01       		.byte	0x1
 1834 0064 49       		.uleb128 0x49
 1835 0065 13       		.uleb128 0x13
 1836 0066 01       		.uleb128 0x1
 1837 0067 13       		.uleb128 0x13
 1838 0068 00       		.byte	0
 1839 0069 00       		.byte	0
 1840 006a 09       		.uleb128 0x9
 1841 006b 21       		.uleb128 0x21
 1842 006c 00       		.byte	0
 1843 006d 49       		.uleb128 0x49
 1844 006e 13       		.uleb128 0x13
 1845 006f 2F       		.uleb128 0x2f
 1846 0070 0B       		.uleb128 0xb
 1847 0071 00       		.byte	0
 1848 0072 00       		.byte	0
 1849 0073 0A       		.uleb128 0xa
 1850 0074 2E       		.uleb128 0x2e
 1851 0075 01       		.byte	0x1
 1852 0076 3F       		.uleb128 0x3f
 1853 0077 19       		.uleb128 0x19
 1854 0078 03       		.uleb128 0x3
 1855 0079 0E       		.uleb128 0xe
 1856 007a 3A       		.uleb128 0x3a
 1857 007b 0B       		.uleb128 0xb
 1858 007c 3B       		.uleb128 0x3b
 1859 007d 0B       		.uleb128 0xb
 1860 007e 27       		.uleb128 0x27
 1861 007f 19       		.uleb128 0x19
 1862 0080 49       		.uleb128 0x49
 1863 0081 13       		.uleb128 0x13
 1864 0082 11       		.uleb128 0x11
 1865 0083 01       		.uleb128 0x1
 1866 0084 12       		.uleb128 0x12
 1867 0085 06       		.uleb128 0x6
 1868 0086 40       		.uleb128 0x40
 1869 0087 18       		.uleb128 0x18
 1870 0088 9742     		.uleb128 0x2117
 1871 008a 19       		.uleb128 0x19
 1872 008b 01       		.uleb128 0x1
 1873 008c 13       		.uleb128 0x13
 1874 008d 00       		.byte	0
 1875 008e 00       		.byte	0
 1876 008f 0B       		.uleb128 0xb
 1877 0090 05       		.uleb128 0x5
 1878 0091 00       		.byte	0
 1879 0092 03       		.uleb128 0x3
 1880 0093 0E       		.uleb128 0xe
 1881 0094 3A       		.uleb128 0x3a
 1882 0095 0B       		.uleb128 0xb
ARM GAS  C:\Users\Austcha\AppData\Local\Temp\ccdNIALj.s 			page 38


 1883 0096 3B       		.uleb128 0x3b
 1884 0097 0B       		.uleb128 0xb
 1885 0098 49       		.uleb128 0x49
 1886 0099 13       		.uleb128 0x13
 1887 009a 02       		.uleb128 0x2
 1888 009b 18       		.uleb128 0x18
 1889 009c 00       		.byte	0
 1890 009d 00       		.byte	0
 1891 009e 0C       		.uleb128 0xc
 1892 009f 34       		.uleb128 0x34
 1893 00a0 00       		.byte	0
 1894 00a1 03       		.uleb128 0x3
 1895 00a2 0E       		.uleb128 0xe
 1896 00a3 3A       		.uleb128 0x3a
 1897 00a4 0B       		.uleb128 0xb
 1898 00a5 3B       		.uleb128 0x3b
 1899 00a6 0B       		.uleb128 0xb
 1900 00a7 49       		.uleb128 0x49
 1901 00a8 13       		.uleb128 0x13
 1902 00a9 02       		.uleb128 0x2
 1903 00aa 18       		.uleb128 0x18
 1904 00ab 00       		.byte	0
 1905 00ac 00       		.byte	0
 1906 00ad 0D       		.uleb128 0xd
 1907 00ae 2E       		.uleb128 0x2e
 1908 00af 01       		.byte	0x1
 1909 00b0 3F       		.uleb128 0x3f
 1910 00b1 19       		.uleb128 0x19
 1911 00b2 03       		.uleb128 0x3
 1912 00b3 0E       		.uleb128 0xe
 1913 00b4 3A       		.uleb128 0x3a
 1914 00b5 0B       		.uleb128 0xb
 1915 00b6 3B       		.uleb128 0x3b
 1916 00b7 0B       		.uleb128 0xb
 1917 00b8 27       		.uleb128 0x27
 1918 00b9 19       		.uleb128 0x19
 1919 00ba 49       		.uleb128 0x49
 1920 00bb 13       		.uleb128 0x13
 1921 00bc 11       		.uleb128 0x11
 1922 00bd 01       		.uleb128 0x1
 1923 00be 12       		.uleb128 0x12
 1924 00bf 06       		.uleb128 0x6
 1925 00c0 40       		.uleb128 0x40
 1926 00c1 18       		.uleb128 0x18
 1927 00c2 9642     		.uleb128 0x2116
 1928 00c4 19       		.uleb128 0x19
 1929 00c5 01       		.uleb128 0x1
 1930 00c6 13       		.uleb128 0x13
 1931 00c7 00       		.byte	0
 1932 00c8 00       		.byte	0
 1933 00c9 0E       		.uleb128 0xe
 1934 00ca 05       		.uleb128 0x5
 1935 00cb 00       		.byte	0
 1936 00cc 03       		.uleb128 0x3
 1937 00cd 08       		.uleb128 0x8
 1938 00ce 3A       		.uleb128 0x3a
 1939 00cf 0B       		.uleb128 0xb
ARM GAS  C:\Users\Austcha\AppData\Local\Temp\ccdNIALj.s 			page 39


 1940 00d0 3B       		.uleb128 0x3b
 1941 00d1 0B       		.uleb128 0xb
 1942 00d2 49       		.uleb128 0x49
 1943 00d3 13       		.uleb128 0x13
 1944 00d4 02       		.uleb128 0x2
 1945 00d5 18       		.uleb128 0x18
 1946 00d6 00       		.byte	0
 1947 00d7 00       		.byte	0
 1948 00d8 0F       		.uleb128 0xf
 1949 00d9 34       		.uleb128 0x34
 1950 00da 00       		.byte	0
 1951 00db 03       		.uleb128 0x3
 1952 00dc 08       		.uleb128 0x8
 1953 00dd 3A       		.uleb128 0x3a
 1954 00de 0B       		.uleb128 0xb
 1955 00df 3B       		.uleb128 0x3b
 1956 00e0 0B       		.uleb128 0xb
 1957 00e1 49       		.uleb128 0x49
 1958 00e2 13       		.uleb128 0x13
 1959 00e3 02       		.uleb128 0x2
 1960 00e4 18       		.uleb128 0x18
 1961 00e5 00       		.byte	0
 1962 00e6 00       		.byte	0
 1963 00e7 10       		.uleb128 0x10
 1964 00e8 0B       		.uleb128 0xb
 1965 00e9 01       		.byte	0x1
 1966 00ea 11       		.uleb128 0x11
 1967 00eb 01       		.uleb128 0x1
 1968 00ec 12       		.uleb128 0x12
 1969 00ed 06       		.uleb128 0x6
 1970 00ee 00       		.byte	0
 1971 00ef 00       		.byte	0
 1972 00f0 11       		.uleb128 0x11
 1973 00f1 0F       		.uleb128 0xf
 1974 00f2 00       		.byte	0
 1975 00f3 0B       		.uleb128 0xb
 1976 00f4 0B       		.uleb128 0xb
 1977 00f5 49       		.uleb128 0x49
 1978 00f6 13       		.uleb128 0x13
 1979 00f7 00       		.byte	0
 1980 00f8 00       		.byte	0
 1981 00f9 12       		.uleb128 0x12
 1982 00fa 2E       		.uleb128 0x2e
 1983 00fb 01       		.byte	0x1
 1984 00fc 3F       		.uleb128 0x3f
 1985 00fd 19       		.uleb128 0x19
 1986 00fe 03       		.uleb128 0x3
 1987 00ff 0E       		.uleb128 0xe
 1988 0100 3A       		.uleb128 0x3a
 1989 0101 0B       		.uleb128 0xb
 1990 0102 3B       		.uleb128 0x3b
 1991 0103 0B       		.uleb128 0xb
 1992 0104 27       		.uleb128 0x27
 1993 0105 19       		.uleb128 0x19
 1994 0106 11       		.uleb128 0x11
 1995 0107 01       		.uleb128 0x1
 1996 0108 12       		.uleb128 0x12
ARM GAS  C:\Users\Austcha\AppData\Local\Temp\ccdNIALj.s 			page 40


 1997 0109 06       		.uleb128 0x6
 1998 010a 40       		.uleb128 0x40
 1999 010b 18       		.uleb128 0x18
 2000 010c 9742     		.uleb128 0x2117
 2001 010e 19       		.uleb128 0x19
 2002 010f 01       		.uleb128 0x1
 2003 0110 13       		.uleb128 0x13
 2004 0111 00       		.byte	0
 2005 0112 00       		.byte	0
 2006 0113 13       		.uleb128 0x13
 2007 0114 2E       		.uleb128 0x2e
 2008 0115 01       		.byte	0x1
 2009 0116 3F       		.uleb128 0x3f
 2010 0117 19       		.uleb128 0x19
 2011 0118 03       		.uleb128 0x3
 2012 0119 0E       		.uleb128 0xe
 2013 011a 3A       		.uleb128 0x3a
 2014 011b 0B       		.uleb128 0xb
 2015 011c 3B       		.uleb128 0x3b
 2016 011d 0B       		.uleb128 0xb
 2017 011e 27       		.uleb128 0x27
 2018 011f 19       		.uleb128 0x19
 2019 0120 49       		.uleb128 0x49
 2020 0121 13       		.uleb128 0x13
 2021 0122 11       		.uleb128 0x11
 2022 0123 01       		.uleb128 0x1
 2023 0124 12       		.uleb128 0x12
 2024 0125 06       		.uleb128 0x6
 2025 0126 40       		.uleb128 0x40
 2026 0127 18       		.uleb128 0x18
 2027 0128 9742     		.uleb128 0x2117
 2028 012a 19       		.uleb128 0x19
 2029 012b 00       		.byte	0
 2030 012c 00       		.byte	0
 2031 012d 00       		.byte	0
 2032              		.section	.debug_aranges,"",%progbits
 2033 0000 9C000000 		.4byte	0x9c
 2034 0004 0200     		.2byte	0x2
 2035 0006 00000000 		.4byte	.Ldebug_info0
 2036 000a 04       		.byte	0x4
 2037 000b 00       		.byte	0
 2038 000c 0000     		.2byte	0
 2039 000e 0000     		.2byte	0
 2040 0010 00000000 		.4byte	.LFB0
 2041 0014 96000000 		.4byte	.LFE0-.LFB0
 2042 0018 00000000 		.4byte	.LFB1
 2043 001c 7E000000 		.4byte	.LFE1-.LFB1
 2044 0020 00000000 		.4byte	.LFB2
 2045 0024 5C000000 		.4byte	.LFE2-.LFB2
 2046 0028 00000000 		.4byte	.LFB3
 2047 002c 28000000 		.4byte	.LFE3-.LFB3
 2048 0030 00000000 		.4byte	.LFB4
 2049 0034 1E000000 		.4byte	.LFE4-.LFB4
 2050 0038 00000000 		.4byte	.LFB5
 2051 003c 26000000 		.4byte	.LFE5-.LFB5
 2052 0040 00000000 		.4byte	.LFB6
 2053 0044 1A000000 		.4byte	.LFE6-.LFB6
ARM GAS  C:\Users\Austcha\AppData\Local\Temp\ccdNIALj.s 			page 41


 2054 0048 00000000 		.4byte	.LFB7
 2055 004c 34000000 		.4byte	.LFE7-.LFB7
 2056 0050 00000000 		.4byte	.LFB8
 2057 0054 3E000000 		.4byte	.LFE8-.LFB8
 2058 0058 00000000 		.4byte	.LFB9
 2059 005c 2E000000 		.4byte	.LFE9-.LFB9
 2060 0060 00000000 		.4byte	.LFB10
 2061 0064 2E000000 		.4byte	.LFE10-.LFB10
 2062 0068 00000000 		.4byte	.LFB11
 2063 006c 2E000000 		.4byte	.LFE11-.LFB11
 2064 0070 00000000 		.4byte	.LFB12
 2065 0074 1A000000 		.4byte	.LFE12-.LFB12
 2066 0078 00000000 		.4byte	.LFB13
 2067 007c 2C000000 		.4byte	.LFE13-.LFB13
 2068 0080 00000000 		.4byte	.LFB14
 2069 0084 7A000000 		.4byte	.LFE14-.LFB14
 2070 0088 00000000 		.4byte	.LFB15
 2071 008c 50000000 		.4byte	.LFE15-.LFB15
 2072 0090 00000000 		.4byte	.LFB16
 2073 0094 7E000000 		.4byte	.LFE16-.LFB16
 2074 0098 00000000 		.4byte	0
 2075 009c 00000000 		.4byte	0
 2076              		.section	.debug_ranges,"",%progbits
 2077              	.Ldebug_ranges0:
 2078 0000 00000000 		.4byte	.LFB0
 2079 0004 96000000 		.4byte	.LFE0
 2080 0008 00000000 		.4byte	.LFB1
 2081 000c 7E000000 		.4byte	.LFE1
 2082 0010 00000000 		.4byte	.LFB2
 2083 0014 5C000000 		.4byte	.LFE2
 2084 0018 00000000 		.4byte	.LFB3
 2085 001c 28000000 		.4byte	.LFE3
 2086 0020 00000000 		.4byte	.LFB4
 2087 0024 1E000000 		.4byte	.LFE4
 2088 0028 00000000 		.4byte	.LFB5
 2089 002c 26000000 		.4byte	.LFE5
 2090 0030 00000000 		.4byte	.LFB6
 2091 0034 1A000000 		.4byte	.LFE6
 2092 0038 00000000 		.4byte	.LFB7
 2093 003c 34000000 		.4byte	.LFE7
 2094 0040 00000000 		.4byte	.LFB8
 2095 0044 3E000000 		.4byte	.LFE8
 2096 0048 00000000 		.4byte	.LFB9
 2097 004c 2E000000 		.4byte	.LFE9
 2098 0050 00000000 		.4byte	.LFB10
 2099 0054 2E000000 		.4byte	.LFE10
 2100 0058 00000000 		.4byte	.LFB11
 2101 005c 2E000000 		.4byte	.LFE11
 2102 0060 00000000 		.4byte	.LFB12
 2103 0064 1A000000 		.4byte	.LFE12
 2104 0068 00000000 		.4byte	.LFB13
 2105 006c 2C000000 		.4byte	.LFE13
 2106 0070 00000000 		.4byte	.LFB14
 2107 0074 7A000000 		.4byte	.LFE14
 2108 0078 00000000 		.4byte	.LFB15
 2109 007c 50000000 		.4byte	.LFE15
 2110 0080 00000000 		.4byte	.LFB16
ARM GAS  C:\Users\Austcha\AppData\Local\Temp\ccdNIALj.s 			page 42


 2111 0084 7E000000 		.4byte	.LFE16
 2112 0088 00000000 		.4byte	0
 2113 008c 00000000 		.4byte	0
 2114              		.section	.debug_line,"",%progbits
 2115              	.Ldebug_line0:
 2116 0000 D8020000 		.section	.debug_str,"MS",%progbits,1
 2116      02003801 
 2116      00000201 
 2116      FB0E0D00 
 2116      01010101 
 2117              	.LASF56:
 2118 0000 433A5C55 		.ascii	"C:\\Users\\Austcha\\Documents\\Husky Robotics\\Moto"
 2118      73657273 
 2118      5C417573 
 2118      74636861 
 2118      5C446F63 
 2119 002e 7220426F 		.ascii	"r Boards\\Rev3\\Motor-Unit-Firmware-A-2019-2020\\Mo"
 2119      61726473 
 2119      5C526576 
 2119      335C4D6F 
 2119      746F722D 
 2120 005e 746F7220 		.ascii	"tor Unit\\Motor_Board_Rev3.cydsn\000"
 2120      556E6974 
 2120      5C4D6F74 
 2120      6F725F42 
 2120      6F617264 
 2121              	.LASF18:
 2122 007e 7072696F 		.ascii	"priority\000"
 2122      72697479 
 2122      00
 2123              	.LASF50:
 2124 0087 4465636F 		.ascii	"DecodeBytesToIntMSBFirst\000"
 2124      64654279 
 2124      74657354 
 2124      6F496E74 
 2124      4D534246 
 2125              	.LASF35:
 2126 00a0 5061636B 		.ascii	"PacketIsInGroup\000"
 2126      65744973 
 2126      496E4772 
 2126      6F757000 
 2127              	.LASF2:
 2128 00b0 73686F72 		.ascii	"short int\000"
 2128      7420696E 
 2128      7400
 2129              	.LASF44:
 2130 00ba 74617267 		.ascii	"targetDeviceSerialNumber\000"
 2130      65744465 
 2130      76696365 
 2130      53657269 
 2130      616C4E75 
 2131              	.LASF16:
 2132 00d3 73697A65 		.ascii	"sizetype\000"
 2132      74797065 
 2132      00
 2133              	.LASF23:
 2134 00dc 43414E49 		.ascii	"CANID\000"
ARM GAS  C:\Users\Austcha\AppData\Local\Temp\ccdNIALj.s 			page 43


 2134      4400
 2135              	.LASF55:
 2136 00e2 2E2E5C43 		.ascii	"..\\CANLib\\CANPacket.c\000"
 2136      414E4C69 
 2136      625C4341 
 2136      4E506163 
 2136      6B65742E 
 2137              	.LASF36:
 2138 00f8 65787065 		.ascii	"expectedType\000"
 2138      63746564 
 2138      54797065 
 2138      00
 2139              	.LASF40:
 2140 0105 5061636B 		.ascii	"PacketIsOfID\000"
 2140      65744973 
 2140      4F664944 
 2140      00
 2141              	.LASF4:
 2142 0112 5F5F7569 		.ascii	"__uint16_t\000"
 2142      6E743136 
 2142      5F7400
 2143              	.LASF29:
 2144 011d 47657444 		.ascii	"GetDeviceSerialNumber\000"
 2144      65766963 
 2144      65536572 
 2144      69616C4E 
 2144      756D6265 
 2145              	.LASF33:
 2146 0133 47657453 		.ascii	"GetSenderDeviceGroupCode\000"
 2146      656E6465 
 2146      72446576 
 2146      69636547 
 2146      726F7570 
 2147              	.LASF12:
 2148 014c 75696E74 		.ascii	"uint8_t\000"
 2148      385F7400 
 2149              	.LASF28:
 2150 0154 7061636B 		.ascii	"packet\000"
 2150      657400
 2151              	.LASF27:
 2152 015b 47657450 		.ascii	"GetPacketPriority\000"
 2152      61636B65 
 2152      74507269 
 2152      6F726974 
 2152      7900
 2153              	.LASF9:
 2154 016d 6C6F6E67 		.ascii	"long long int\000"
 2154      206C6F6E 
 2154      6720696E 
 2154      7400
 2155              	.LASF42:
 2156 017b 54617267 		.ascii	"TargetsDevice\000"
 2156      65747344 
 2156      65766963 
 2156      6500
 2157              	.LASF17:
 2158 0189 43414E50 		.ascii	"CANPacket\000"
ARM GAS  C:\Users\Austcha\AppData\Local\Temp\ccdNIALj.s 			page 44


 2158      61636B65 
 2158      7400
 2159              	.LASF22:
 2160 0193 436F6E73 		.ascii	"ConstructCANPacket\000"
 2160      74727563 
 2160      7443414E 
 2160      5061636B 
 2160      657400
 2161              	.LASF51:
 2162 01a6 656E6449 		.ascii	"endIndex\000"
 2162      6E646578 
 2162      00
 2163              	.LASF7:
 2164 01af 6C6F6E67 		.ascii	"long int\000"
 2164      20696E74 
 2164      00
 2165              	.LASF34:
 2166 01b8 64657647 		.ascii	"devGroupCode\000"
 2166      726F7570 
 2166      436F6465 
 2166      00
 2167              	.LASF3:
 2168 01c5 5F5F7569 		.ascii	"__uint8_t\000"
 2168      6E74385F 
 2168      7400
 2169              	.LASF54:
 2170 01cf 474E5520 		.ascii	"GNU C11 5.4.1 20160609 (release) [ARM/embedded-5-br"
 2170      43313120 
 2170      352E342E 
 2170      31203230 
 2170      31363036 
 2171 0202 616E6368 		.ascii	"anch revision 237715] -mcpu=cortex-m0 -mthumb -g -O"
 2171      20726576 
 2171      6973696F 
 2171      6E203233 
 2171      37373135 
 2172 0235 30202D66 		.ascii	"0 -ffunction-sections -ffat-lto-objects\000"
 2172      66756E63 
 2172      74696F6E 
 2172      2D736563 
 2172      74696F6E 
 2173              	.LASF52:
 2174 025d 6C656E67 		.ascii	"length\000"
 2174      746800
 2175              	.LASF21:
 2176 0264 436F6E73 		.ascii	"ConstructCANID\000"
 2176      74727563 
 2176      7443414E 
 2176      494400
 2177              	.LASF1:
 2178 0273 756E7369 		.ascii	"unsigned char\000"
 2178      676E6564 
 2178      20636861 
 2178      7200
 2179              	.LASF20:
 2180 0281 64657653 		.ascii	"devSerial\000"
 2180      65726961 
ARM GAS  C:\Users\Austcha\AppData\Local\Temp\ccdNIALj.s 			page 45


 2180      6C00
 2181              	.LASF24:
 2182 028b 57726974 		.ascii	"WriteSenderSerialAndPacketID\000"
 2182      6553656E 
 2182      64657253 
 2182      65726961 
 2182      6C416E64 
 2183              	.LASF0:
 2184 02a8 7369676E 		.ascii	"signed char\000"
 2184      65642063 
 2184      68617200 
 2185              	.LASF10:
 2186 02b4 6C6F6E67 		.ascii	"long long unsigned int\000"
 2186      206C6F6E 
 2186      6720756E 
 2186      7369676E 
 2186      65642069 
 2187              	.LASF32:
 2188 02cb 67726F75 		.ascii	"group\000"
 2188      7000
 2189              	.LASF11:
 2190 02d1 756E7369 		.ascii	"unsigned int\000"
 2190      676E6564 
 2190      20696E74 
 2190      00
 2191              	.LASF13:
 2192 02de 75696E74 		.ascii	"uint16_t\000"
 2192      31365F74 
 2192      00
 2193              	.LASF43:
 2194 02e7 74617267 		.ascii	"targetDeviceGroup\000"
 2194      65744465 
 2194      76696365 
 2194      47726F75 
 2194      7000
 2195              	.LASF47:
 2196 02f9 64617461 		.ascii	"dataToPack\000"
 2196      546F5061 
 2196      636B00
 2197              	.LASF5:
 2198 0304 73686F72 		.ascii	"short unsigned int\000"
 2198      7420756E 
 2198      7369676E 
 2198      65642069 
 2198      6E7400
 2199              	.LASF53:
 2200 0317 6465636F 		.ascii	"decodedData\000"
 2200      64656444 
 2200      61746100 
 2201              	.LASF25:
 2202 0323 7061636B 		.ascii	"packetID\000"
 2202      65744944 
 2202      00
 2203              	.LASF14:
 2204 032c 696E7433 		.ascii	"int32_t\000"
 2204      325F7400 
 2205              	.LASF15:
ARM GAS  C:\Users\Austcha\AppData\Local\Temp\ccdNIALj.s 			page 46


 2206 0334 64617461 		.ascii	"data\000"
 2206      00
 2207              	.LASF8:
 2208 0339 6C6F6E67 		.ascii	"long unsigned int\000"
 2208      20756E73 
 2208      69676E65 
 2208      6420696E 
 2208      7400
 2209              	.LASF41:
 2210 034b 65787065 		.ascii	"expectedID\000"
 2210      63746564 
 2210      494400
 2211              	.LASF46:
 2212 0356 73657269 		.ascii	"serialNumber\000"
 2212      616C4E75 
 2212      6D626572 
 2212      00
 2213              	.LASF45:
 2214 0363 7061636B 		.ascii	"packetGroup\000"
 2214      65744772 
 2214      6F757000 
 2215              	.LASF19:
 2216 036f 64657647 		.ascii	"devGroup\000"
 2216      726F7570 
 2216      00
 2217              	.LASF37:
 2218 0378 53656E64 		.ascii	"SenderPacketIsInGroup\000"
 2218      65725061 
 2218      636B6574 
 2218      4973496E 
 2218      47726F75 
 2219              	.LASF6:
 2220 038e 5F5F696E 		.ascii	"__int32_t\000"
 2220      7433325F 
 2220      7400
 2221              	.LASF38:
 2222 0398 53656E64 		.ascii	"SenderPacketIsOfDevice\000"
 2222      65725061 
 2222      636B6574 
 2222      49734F66 
 2222      44657669 
 2223              	.LASF30:
 2224 03af 47657453 		.ascii	"GetSenderDeviceSerialNumber\000"
 2224      656E6465 
 2224      72446576 
 2224      69636553 
 2224      65726961 
 2225              	.LASF31:
 2226 03cb 47657444 		.ascii	"GetDeviceGroupCode\000"
 2226      65766963 
 2226      6547726F 
 2226      7570436F 
 2226      646500
 2227              	.LASF26:
 2228 03de 57726974 		.ascii	"WritePacketIDOnly\000"
 2228      65506163 
 2228      6B657449 
ARM GAS  C:\Users\Austcha\AppData\Local\Temp\ccdNIALj.s 			page 47


 2228      444F6E6C 
 2228      7900
 2229              	.LASF49:
 2230 03f0 5061636B 		.ascii	"PackIntIntoDataMSBFirst\000"
 2230      496E7449 
 2230      6E746F44 
 2230      6174614D 
 2230      53424669 
 2231              	.LASF48:
 2232 0408 73746172 		.ascii	"startIndex\000"
 2232      74496E64 
 2232      657800
 2233              	.LASF39:
 2234 0413 47657450 		.ascii	"GetPacketID\000"
 2234      61636B65 
 2234      74494400 
 2235              		.ident	"GCC: (GNU Tools for ARM Embedded Processors) 5.4.1 20160609 (release) [ARM/embedded-5-bran
