ARM GAS  C:\Users\Austcha\AppData\Local\Temp\ccAkA8SP.s 			page 1


   1              		.syntax unified
   2              		.cpu cortex-m0
   3              		.fpu softvfp
   4              		.eabi_attribute 20, 1
   5              		.eabi_attribute 21, 1
   6              		.eabi_attribute 23, 3
   7              		.eabi_attribute 24, 1
   8              		.eabi_attribute 25, 1
   9              		.eabi_attribute 26, 1
  10              		.eabi_attribute 30, 1
  11              		.eabi_attribute 34, 0
  12              		.eabi_attribute 18, 4
  13              		.thumb
  14              		.syntax unified
  15              		.file	"CANPacket.c"
  16              		.text
  17              	.Ltext0:
  18              		.cfi_sections	.debug_frame
  19              		.section	.text.ConstructCANID,"ax",%progbits
  20              		.align	2
  21              		.global	ConstructCANID
  22              		.code	16
  23              		.thumb_func
  24              		.type	ConstructCANID, %function
  25              	ConstructCANID:
  26              	.LFB0:
  27              		.file 1 "..\\CANLib\\CANPacket.c"
   1:..\CANLib/CANPacket.c **** /* File:         CANPacket.c
   2:..\CANLib/CANPacket.c ****  * Authors:      Jaden Bottemiller, Benton Kwong, Dylan Tomberlin.
   3:..\CANLib/CANPacket.c ****  * Organization: Husky Robotics Team
   4:..\CANLib/CANPacket.c ****  * 
   5:..\CANLib/CANPacket.c ****  * This file includes fuction definitions for CAN Packet manipulation
   6:..\CANLib/CANPacket.c ****  * using the Hindsight CAN Communication standard.
   7:..\CANLib/CANPacket.c ****  * Documentation: https://huskyroboticsteam.slite.com/app/channels/iU0BryG7M9/collections/aXvWTcIR6
   8:..\CANLib/CANPacket.c ****  */
   9:..\CANLib/CANPacket.c **** 
  10:..\CANLib/CANPacket.c **** #include "CANPacket.h"
  11:..\CANLib/CANPacket.c **** #include "Port.h"
  12:..\CANLib/CANPacket.c **** 
  13:..\CANLib/CANPacket.c **** // Constructs a CAN ID according to standards set by electronics subsystem
  14:..\CANLib/CANPacket.c **** // for hindsight (PY2020 rover). Not compatible with Orpheus (PY2019)
  15:..\CANLib/CANPacket.c **** // Inputs: 
  16:..\CANLib/CANPacket.c **** //      priority:   A byte determing if the packet should be prioritized
  17:..\CANLib/CANPacket.c **** //                  High priority would mean setting this value to 0
  18:..\CANLib/CANPacket.c **** //                  Low priority would mean setting this value to 1
  19:..\CANLib/CANPacket.c **** //      devGroup:   ID of device group
  20:..\CANLib/CANPacket.c **** //      devSerial:  Serial value of device in the device group
  21:..\CANLib/CANPacket.c **** // Output:
  22:..\CANLib/CANPacket.c **** //      CANID:      CAN ID with correct formatting        
  23:..\CANLib/CANPacket.c **** uint16_t ConstructCANID(uint8_t priority, uint8_t devGroup, uint8_t devSerial)
  24:..\CANLib/CANPacket.c **** {
  28              		.loc 1 24 0
  29              		.cfi_startproc
  30              		@ args = 0, pretend = 0, frame = 0
  31              		@ frame_needed = 0, uses_anonymous_args = 0
  32              		@ link register save eliminated.
  33              	.LVL0:
ARM GAS  C:\Users\Austcha\AppData\Local\Temp\ccAkA8SP.s 			page 2


  25:..\CANLib/CANPacket.c ****     uint16_t CANID = 0x0000;
  26:..\CANLib/CANPacket.c ****     CANID = CANID | ((priority & 0x01) << 10);
  34              		.loc 1 26 0
  35 0000 8002     		lsls	r0, r0, #10
  36              	.LVL1:
  37 0002 8023     		movs	r3, #128
  38 0004 DB00     		lsls	r3, r3, #3
  39 0006 1840     		ands	r0, r3
  40              	.LVL2:
  27:..\CANLib/CANPacket.c ****     CANID = CANID | ((devGroup & 0x0F) << 6);
  41              		.loc 1 27 0
  42 0008 8901     		lsls	r1, r1, #6
  43              	.LVL3:
  44 000a 403B     		subs	r3, r3, #64
  45 000c 1940     		ands	r1, r3
  46 000e 0143     		orrs	r1, r0
  47              	.LVL4:
  28:..\CANLib/CANPacket.c ****     CANID = CANID | (devSerial & 0x3F);
  48              		.loc 1 28 0
  49 0010 3F20     		movs	r0, #63
  50 0012 0240     		ands	r2, r0
  51              	.LVL5:
  52 0014 1143     		orrs	r1, r2
  53              	.LVL6:
  54 0016 0800     		movs	r0, r1
  55              	.LVL7:
  29:..\CANLib/CANPacket.c **** 
  30:..\CANLib/CANPacket.c ****     return CANID;
  31:..\CANLib/CANPacket.c **** }
  56              		.loc 1 31 0
  57              		@ sp needed
  58 0018 7047     		bx	lr
  59              		.cfi_endproc
  60              	.LFE0:
  61              		.size	ConstructCANID, .-ConstructCANID
  62 001a C046     		.section	.text.ConstructCANPacket,"ax",%progbits
  63              		.align	2
  64              		.global	ConstructCANPacket
  65              		.code	16
  66              		.thumb_func
  67              		.type	ConstructCANPacket, %function
  68              	ConstructCANPacket:
  69              	.LFB1:
  32:..\CANLib/CANPacket.c **** 
  33:..\CANLib/CANPacket.c **** // Creates a CANPacket that can be used by fuctions in this file
  34:..\CANLib/CANPacket.c **** // Inputs:
  35:..\CANLib/CANPacket.c **** //      id:         CAN ID for the packet
  36:..\CANLib/CANPacket.c **** //      dlc:        Data length for the packet. It's the number of bytes used
  37:..\CANLib/CANPacket.c **** //                  in data payload for packet
  38:..\CANLib/CANPacket.c **** //      data:       An array of bytes used for sending data over CAN
  39:..\CANLib/CANPacket.c **** // Outputs:
  40:..\CANLib/CANPacket.c **** //      CANPacket:  A struct used for storing the parts needed for a CAN Packet
  41:..\CANLib/CANPacket.c **** CANPacket ConstructCANPacket(uint16_t id, uint8_t dlc, uint8_t* data)
  42:..\CANLib/CANPacket.c **** {
  70              		.loc 1 42 0
  71              		.cfi_startproc
  72              		@ args = 0, pretend = 0, frame = 0
ARM GAS  C:\Users\Austcha\AppData\Local\Temp\ccAkA8SP.s 			page 3


  73              		@ frame_needed = 0, uses_anonymous_args = 0
  74              	.LVL8:
  75 0000 30B5     		push	{r4, r5, lr}
  76              		.cfi_def_cfa_offset 12
  77              		.cfi_offset 4, -12
  78              		.cfi_offset 5, -8
  79              		.cfi_offset 14, -4
  43:..\CANLib/CANPacket.c ****     CANPacket cp;
  44:..\CANLib/CANPacket.c ****     cp.id = id;
  80              		.loc 1 44 0
  81 0002 0180     		strh	r1, [r0]
  45:..\CANLib/CANPacket.c ****     cp.dlc = dlc;   
  82              		.loc 1 45 0
  83 0004 8270     		strb	r2, [r0, #2]
  84              	.LVL9:
  85              	.LBB2:
  46:..\CANLib/CANPacket.c ****     for(int i = 0; i < dlc; i++)
  86              		.loc 1 46 0
  87 0006 0021     		movs	r1, #0
  88              	.LVL10:
  89 0008 03E0     		b	.L3
  90              	.LVL11:
  91              	.L4:
  47:..\CANLib/CANPacket.c ****     {
  48:..\CANLib/CANPacket.c ****         cp.data[i] = data[i];
  92              		.loc 1 48 0 discriminator 3
  93 000a 5D5C     		ldrb	r5, [r3, r1]
  94 000c 4418     		adds	r4, r0, r1
  95 000e E570     		strb	r5, [r4, #3]
  46:..\CANLib/CANPacket.c ****     for(int i = 0; i < dlc; i++)
  96              		.loc 1 46 0 discriminator 3
  97 0010 0131     		adds	r1, r1, #1
  98              	.LVL12:
  99              	.L3:
  46:..\CANLib/CANPacket.c ****     for(int i = 0; i < dlc; i++)
 100              		.loc 1 46 0 is_stmt 0 discriminator 1
 101 0012 9142     		cmp	r1, r2
 102 0014 F9DB     		blt	.L4
 103              	.LBE2:
  49:..\CANLib/CANPacket.c ****     }
  50:..\CANLib/CANPacket.c **** 
  51:..\CANLib/CANPacket.c ****     return cp;
  52:..\CANLib/CANPacket.c **** }
 104              		.loc 1 52 0 is_stmt 1
 105              		@ sp needed
 106 0016 30BD     		pop	{r4, r5, pc}
 107              		.cfi_endproc
 108              	.LFE1:
 109              		.size	ConstructCANPacket, .-ConstructCANPacket
 110              		.section	.text.WriteSenderSerialAndPacketID,"ax",%progbits
 111              		.align	2
 112              		.global	WriteSenderSerialAndPacketID
 113              		.code	16
 114              		.thumb_func
 115              		.type	WriteSenderSerialAndPacketID, %function
 116              	WriteSenderSerialAndPacketID:
 117              	.LFB2:
ARM GAS  C:\Users\Austcha\AppData\Local\Temp\ccAkA8SP.s 			page 4


  53:..\CANLib/CANPacket.c **** 
  54:..\CANLib/CANPacket.c **** // Writes sender group, serial number, and packet ID to data bytes. Writes to bytes 0 and 1 in data
  55:..\CANLib/CANPacket.c **** // DO NOT OVERWRITE BYTES 0 AND 1 AFTER CALLING THIS FUNCTION.
  56:..\CANLib/CANPacket.c **** // Inputs:
  57:..\CANLib/CANPacket.c **** //      data:           Data to write to.
  58:..\CANLib/CANPacket.c **** //TODO, upon approval from @jaden, delete senderGroup and senderSerial params, as these are handled
  59:..\CANLib/CANPacket.c **** //      senderGroup:    Device group the sender device is a part of.
  60:..\CANLib/CANPacket.c **** //      senderSerial:   Device serial number for sender.
  61:..\CANLib/CANPacket.c **** //      packetID:       ID for packet to be sent.
  62:..\CANLib/CANPacket.c **** // Output:
  63:..\CANLib/CANPacket.c **** //                      Index of next byte in `data` that can be written
  64:..\CANLib/CANPacket.c **** int WriteSenderSerialAndPacketID(uint8_t *data, uint8_t packetID)
  65:..\CANLib/CANPacket.c **** {
 118              		.loc 1 65 0
 119              		.cfi_startproc
 120              		@ args = 0, pretend = 0, frame = 0
 121              		@ frame_needed = 0, uses_anonymous_args = 0
 122              	.LVL13:
 123 0000 70B5     		push	{r4, r5, r6, lr}
 124              		.cfi_def_cfa_offset 16
 125              		.cfi_offset 4, -16
 126              		.cfi_offset 5, -12
 127              		.cfi_offset 6, -8
 128              		.cfi_offset 14, -4
 129 0002 0500     		movs	r5, r0
 130 0004 0C00     		movs	r4, r1
  66:..\CANLib/CANPacket.c ****     data[0] = ((getLocalDeviceGroup() & 0x0C) << 4) | packetID;
 131              		.loc 1 66 0
 132 0006 FFF7FEFF 		bl	getLocalDeviceGroup
 133              	.LVL14:
 134 000a 0C23     		movs	r3, #12
 135 000c 1840     		ands	r0, r3
 136 000e 0001     		lsls	r0, r0, #4
 137 0010 2043     		orrs	r0, r4
 138 0012 2870     		strb	r0, [r5]
  67:..\CANLib/CANPacket.c ****     data[1] = ((getLocalDeviceGroup() & 0x03) << 6) | getLocalDeviceSerial();
 139              		.loc 1 67 0
 140 0014 FFF7FEFF 		bl	getLocalDeviceGroup
 141              	.LVL15:
 142 0018 0324     		movs	r4, #3
 143 001a 0440     		ands	r4, r0
 144 001c A401     		lsls	r4, r4, #6
 145 001e FFF7FEFF 		bl	getLocalDeviceSerial
 146              	.LVL16:
 147 0022 0443     		orrs	r4, r0
 148 0024 6C70     		strb	r4, [r5, #1]
  68:..\CANLib/CANPacket.c ****     return 2;
  69:..\CANLib/CANPacket.c **** }
 149              		.loc 1 69 0
 150 0026 0220     		movs	r0, #2
 151              		@ sp needed
 152              	.LVL17:
 153 0028 70BD     		pop	{r4, r5, r6, pc}
 154              		.cfi_endproc
 155              	.LFE2:
 156              		.size	WriteSenderSerialAndPacketID, .-WriteSenderSerialAndPacketID
 157 002a C046     		.section	.text.WritePacketIDOnly,"ax",%progbits
ARM GAS  C:\Users\Austcha\AppData\Local\Temp\ccAkA8SP.s 			page 5


 158              		.align	2
 159              		.global	WritePacketIDOnly
 160              		.code	16
 161              		.thumb_func
 162              		.type	WritePacketIDOnly, %function
 163              	WritePacketIDOnly:
 164              	.LFB3:
  70:..\CANLib/CANPacket.c **** 
  71:..\CANLib/CANPacket.c **** // Writes packet ID to data bytes. Writes to byte 0 data.
  72:..\CANLib/CANPacket.c **** // DO NOT OVERWRITE BYTE 0 AFTER CALLING THIS FUNCTION.
  73:..\CANLib/CANPacket.c **** // Inputs:
  74:..\CANLib/CANPacket.c **** //      data:           Data to write to.
  75:..\CANLib/CANPacket.c **** //      packetID:       ID for packet to be sent.
  76:..\CANLib/CANPacket.c **** // Outputs:
  77:..\CANLib/CANPacket.c **** //                      Index to next byte in `data` that can be written;
  78:..\CANLib/CANPacket.c **** int WritePacketIDOnly(uint8_t *data, uint8_t packetID)
  79:..\CANLib/CANPacket.c **** {
 165              		.loc 1 79 0
 166              		.cfi_startproc
 167              		@ args = 0, pretend = 0, frame = 0
 168              		@ frame_needed = 0, uses_anonymous_args = 0
 169              		@ link register save eliminated.
 170              	.LVL18:
  80:..\CANLib/CANPacket.c ****     data[0] = ((PACKET_GROUP_NO_SENDER_SERIAL & 0x0C) << 4) | packetID;
 171              		.loc 1 80 0
 172 0000 4023     		movs	r3, #64
 173 0002 5B42     		rsbs	r3, r3, #0
 174 0004 1943     		orrs	r1, r3
 175              	.LVL19:
 176 0006 0170     		strb	r1, [r0]
  81:..\CANLib/CANPacket.c ****     return 1;
  82:..\CANLib/CANPacket.c **** }
 177              		.loc 1 82 0
 178 0008 0120     		movs	r0, #1
 179              	.LVL20:
 180              		@ sp needed
 181 000a 7047     		bx	lr
 182              		.cfi_endproc
 183              	.LFE3:
 184              		.size	WritePacketIDOnly, .-WritePacketIDOnly
 185              		.section	.text.GetPacketPriority,"ax",%progbits
 186              		.align	2
 187              		.global	GetPacketPriority
 188              		.code	16
 189              		.thumb_func
 190              		.type	GetPacketPriority, %function
 191              	GetPacketPriority:
 192              	.LFB4:
  83:..\CANLib/CANPacket.c **** 
  84:..\CANLib/CANPacket.c **** // Gets the priority  of a given packet
  85:..\CANLib/CANPacket.c **** // Inputs:
  86:..\CANLib/CANPacket.c **** //      packet:     CAN Packet to analyze
  87:..\CANLib/CANPacket.c **** // Outputs:
  88:..\CANLib/CANPacket.c **** //      priority    byte representing packet priority,
  89:..\CANLib/CANPacket.c **** //                  (0 for high, 1 for low)
  90:..\CANLib/CANPacket.c **** uint8_t GetPacketPriority(CANPacket *packet)
  91:..\CANLib/CANPacket.c **** {
ARM GAS  C:\Users\Austcha\AppData\Local\Temp\ccAkA8SP.s 			page 6


 193              		.loc 1 91 0
 194              		.cfi_startproc
 195              		@ args = 0, pretend = 0, frame = 0
 196              		@ frame_needed = 0, uses_anonymous_args = 0
 197              		@ link register save eliminated.
 198              	.LVL21:
  92:..\CANLib/CANPacket.c ****     return (packet->id >> 10) && 0x1;
 199              		.loc 1 92 0
 200 0000 0088     		ldrh	r0, [r0]
 201              	.LVL22:
 202 0002 800A     		lsrs	r0, r0, #10
 203 0004 431E     		subs	r3, r0, #1
 204 0006 9841     		sbcs	r0, r0, r3
 205 0008 C0B2     		uxtb	r0, r0
  93:..\CANLib/CANPacket.c **** }
 206              		.loc 1 93 0
 207              		@ sp needed
 208 000a 7047     		bx	lr
 209              		.cfi_endproc
 210              	.LFE4:
 211              		.size	GetPacketPriority, .-GetPacketPriority
 212              		.section	.text.GetDeviceSerialNumber,"ax",%progbits
 213              		.align	2
 214              		.global	GetDeviceSerialNumber
 215              		.code	16
 216              		.thumb_func
 217              		.type	GetDeviceSerialNumber, %function
 218              	GetDeviceSerialNumber:
 219              	.LFB5:
  94:..\CANLib/CANPacket.c **** 
  95:..\CANLib/CANPacket.c **** // Gets the device serial number from CAN packet
  96:..\CANLib/CANPacket.c **** // Inputs:
  97:..\CANLib/CANPacket.c **** //      packet:     CAN Packet to analyze
  98:..\CANLib/CANPacket.c **** // Outputs:
  99:..\CANLib/CANPacket.c **** //                  A byte representing the device
 100:..\CANLib/CANPacket.c **** //                  serial number.
 101:..\CANLib/CANPacket.c **** uint8_t GetDeviceSerialNumber(CANPacket *packet)
 102:..\CANLib/CANPacket.c **** {
 220              		.loc 1 102 0
 221              		.cfi_startproc
 222              		@ args = 0, pretend = 0, frame = 0
 223              		@ frame_needed = 0, uses_anonymous_args = 0
 224              		@ link register save eliminated.
 225              	.LVL23:
 103:..\CANLib/CANPacket.c ****     uint8_t id = (packet->id & 0x00FF);
 226              		.loc 1 103 0
 227 0000 0378     		ldrb	r3, [r0]
 228              	.LVL24:
 104:..\CANLib/CANPacket.c ****     // Strip fo only serial number portion of id
 105:..\CANLib/CANPacket.c ****     return id & 0x3F;
 229              		.loc 1 105 0
 230 0002 3F20     		movs	r0, #63
 231              	.LVL25:
 232 0004 1840     		ands	r0, r3
 106:..\CANLib/CANPacket.c **** }
 233              		.loc 1 106 0
 234              		@ sp needed
ARM GAS  C:\Users\Austcha\AppData\Local\Temp\ccAkA8SP.s 			page 7


 235 0006 7047     		bx	lr
 236              		.cfi_endproc
 237              	.LFE5:
 238              		.size	GetDeviceSerialNumber, .-GetDeviceSerialNumber
 239              		.section	.text.GetSenderDeviceSerialNumber,"ax",%progbits
 240              		.align	2
 241              		.global	GetSenderDeviceSerialNumber
 242              		.code	16
 243              		.thumb_func
 244              		.type	GetSenderDeviceSerialNumber, %function
 245              	GetSenderDeviceSerialNumber:
 246              	.LFB6:
 107:..\CANLib/CANPacket.c **** 
 108:..\CANLib/CANPacket.c **** // Returns Sender device serial number as 
 109:..\CANLib/CANPacket.c **** //      packet:       CAN packet from which to resolve serial number
 110:..\CANLib/CANPacket.c **** // Outputs:
 111:..\CANLib/CANPacket.c **** //                  A byte representing the sender device number
 112:..\CANLib/CANPacket.c **** uint8_t GetSenderDeviceSerialNumber(CANPacket *packet)
 113:..\CANLib/CANPacket.c **** {
 247              		.loc 1 113 0
 248              		.cfi_startproc
 249              		@ args = 0, pretend = 0, frame = 0
 250              		@ frame_needed = 0, uses_anonymous_args = 0
 251              		@ link register save eliminated.
 252              	.LVL26:
 114:..\CANLib/CANPacket.c ****     return (packet->data[1] & 0x3F);
 253              		.loc 1 114 0
 254 0000 0379     		ldrb	r3, [r0, #4]
 255 0002 3F20     		movs	r0, #63
 256              	.LVL27:
 257 0004 1840     		ands	r0, r3
 115:..\CANLib/CANPacket.c **** }
 258              		.loc 1 115 0
 259              		@ sp needed
 260 0006 7047     		bx	lr
 261              		.cfi_endproc
 262              	.LFE6:
 263              		.size	GetSenderDeviceSerialNumber, .-GetSenderDeviceSerialNumber
 264              		.section	.text.GetDeviceGroupCode,"ax",%progbits
 265              		.align	2
 266              		.global	GetDeviceGroupCode
 267              		.code	16
 268              		.thumb_func
 269              		.type	GetDeviceGroupCode, %function
 270              	GetDeviceGroupCode:
 271              	.LFB7:
 116:..\CANLib/CANPacket.c **** 
 117:..\CANLib/CANPacket.c **** // Gets the device group code from CAN packet
 118:..\CANLib/CANPacket.c **** // Inputs:
 119:..\CANLib/CANPacket.c **** //      packet:     CAN Packet to analyze
 120:..\CANLib/CANPacket.c **** // Outputs:
 121:..\CANLib/CANPacket.c **** //                  A byte representing the device
 122:..\CANLib/CANPacket.c **** //                  group code.
 123:..\CANLib/CANPacket.c **** uint8_t GetDeviceGroupCode(CANPacket *packet)
 124:..\CANLib/CANPacket.c **** {
 272              		.loc 1 124 0
 273              		.cfi_startproc
ARM GAS  C:\Users\Austcha\AppData\Local\Temp\ccAkA8SP.s 			page 8


 274              		@ args = 0, pretend = 0, frame = 0
 275              		@ frame_needed = 0, uses_anonymous_args = 0
 276              		@ link register save eliminated.
 277              	.LVL28:
 125:..\CANLib/CANPacket.c ****     uint8_t group = 0;
 126:..\CANLib/CANPacket.c ****     int id = packet->id;
 278              		.loc 1 126 0
 279 0000 0088     		ldrh	r0, [r0]
 280              	.LVL29:
 127:..\CANLib/CANPacket.c ****     group = (uint8_t) ((id & 0x03C0) >> 6);
 281              		.loc 1 127 0
 282 0002 8011     		asrs	r0, r0, #6
 283              	.LVL30:
 284 0004 0F23     		movs	r3, #15
 285 0006 1840     		ands	r0, r3
 286              	.LVL31:
 128:..\CANLib/CANPacket.c ****     return group;
 129:..\CANLib/CANPacket.c **** }
 287              		.loc 1 129 0
 288              		@ sp needed
 289 0008 7047     		bx	lr
 290              		.cfi_endproc
 291              	.LFE7:
 292              		.size	GetDeviceGroupCode, .-GetDeviceGroupCode
 293 000a C046     		.section	.text.GetSenderDeviceGroupCode,"ax",%progbits
 294              		.align	2
 295              		.global	GetSenderDeviceGroupCode
 296              		.code	16
 297              		.thumb_func
 298              		.type	GetSenderDeviceGroupCode, %function
 299              	GetSenderDeviceGroupCode:
 300              	.LFB8:
 130:..\CANLib/CANPacket.c **** 
 131:..\CANLib/CANPacket.c **** // Gets the sender device group number from the payload data
 132:..\CANLib/CANPacket.c **** // Inputs:
 133:..\CANLib/CANPacket.c **** //      data:       Address of the byte array of the payload from CAN packet
 134:..\CANLib/CANPacket.c **** // Outputs:
 135:..\CANLib/CANPacket.c **** //                  A byte representing the sender device number
 136:..\CANLib/CANPacket.c **** uint8_t GetSenderDeviceGroupCode(CANPacket *packet)
 137:..\CANLib/CANPacket.c **** {
 301              		.loc 1 137 0
 302              		.cfi_startproc
 303              		@ args = 0, pretend = 0, frame = 0
 304              		@ frame_needed = 0, uses_anonymous_args = 0
 305              		@ link register save eliminated.
 306              	.LVL32:
 138:..\CANLib/CANPacket.c ****     uint8_t devGroupCode = (packet->data[0] & 0xC0) >> 4;
 307              		.loc 1 138 0
 308 0000 C278     		ldrb	r2, [r0, #3]
 309 0002 1211     		asrs	r2, r2, #4
 310 0004 0C23     		movs	r3, #12
 311 0006 1A40     		ands	r2, r3
 312              	.LVL33:
 139:..\CANLib/CANPacket.c ****     devGroupCode |= (packet->data[1] & 0xC0) >> 6;
 313              		.loc 1 139 0
 314 0008 0379     		ldrb	r3, [r0, #4]
 315 000a 9B09     		lsrs	r3, r3, #6
ARM GAS  C:\Users\Austcha\AppData\Local\Temp\ccAkA8SP.s 			page 9


 316 000c 1A43     		orrs	r2, r3
 317              	.LVL34:
 318 000e 1000     		movs	r0, r2
 319              	.LVL35:
 140:..\CANLib/CANPacket.c ****     return devGroupCode;
 141:..\CANLib/CANPacket.c **** }
 320              		.loc 1 141 0
 321              		@ sp needed
 322 0010 7047     		bx	lr
 323              		.cfi_endproc
 324              	.LFE8:
 325              		.size	GetSenderDeviceGroupCode, .-GetSenderDeviceGroupCode
 326 0012 C046     		.section	.text.PacketIsInGroup,"ax",%progbits
 327              		.align	2
 328              		.global	PacketIsInGroup
 329              		.code	16
 330              		.thumb_func
 331              		.type	PacketIsInGroup, %function
 332              	PacketIsInGroup:
 333              	.LFB9:
 142:..\CANLib/CANPacket.c **** 
 143:..\CANLib/CANPacket.c **** // Ensures that the given packet is of a specified group
 144:..\CANLib/CANPacket.c **** // Inputs:
 145:..\CANLib/CANPacket.c **** //      packet:         CAN Packet to check
 146:..\CANLib/CANPacket.c **** //      expectedType:   ExpectedType of CAN packet
 147:..\CANLib/CANPacket.c **** // Outputs:
 148:..\CANLib/CANPacket.c **** //                  0 if packet not of expectedType,
 149:..\CANLib/CANPacket.c **** //                  Other int otherwise
 150:..\CANLib/CANPacket.c **** int PacketIsInGroup(CANPacket *packet, uint8_t expectedType) 
 151:..\CANLib/CANPacket.c **** {
 334              		.loc 1 151 0
 335              		.cfi_startproc
 336              		@ args = 0, pretend = 0, frame = 0
 337              		@ frame_needed = 0, uses_anonymous_args = 0
 338              	.LVL36:
 339 0000 10B5     		push	{r4, lr}
 340              		.cfi_def_cfa_offset 8
 341              		.cfi_offset 4, -8
 342              		.cfi_offset 14, -4
 343 0002 0C00     		movs	r4, r1
 152:..\CANLib/CANPacket.c ****     return GetDeviceGroupCode(packet) == expectedType;
 344              		.loc 1 152 0
 345 0004 FFF7FEFF 		bl	GetDeviceGroupCode
 346              	.LVL37:
 347 0008 001B     		subs	r0, r0, r4
 348 000a 4342     		rsbs	r3, r0, #0
 349 000c 5841     		adcs	r0, r0, r3
 350 000e C0B2     		uxtb	r0, r0
 153:..\CANLib/CANPacket.c **** }
 351              		.loc 1 153 0
 352              		@ sp needed
 353 0010 10BD     		pop	{r4, pc}
 354              		.cfi_endproc
 355              	.LFE9:
 356              		.size	PacketIsInGroup, .-PacketIsInGroup
 357 0012 C046     		.section	.text.SenderPacketIsInGroup,"ax",%progbits
 358              		.align	2
ARM GAS  C:\Users\Austcha\AppData\Local\Temp\ccAkA8SP.s 			page 10


 359              		.global	SenderPacketIsInGroup
 360              		.code	16
 361              		.thumb_func
 362              		.type	SenderPacketIsInGroup, %function
 363              	SenderPacketIsInGroup:
 364              	.LFB10:
 154:..\CANLib/CANPacket.c **** 
 155:..\CANLib/CANPacket.c **** int SenderPacketIsInGroup(CANPacket *packet, uint8_t expectedType)
 156:..\CANLib/CANPacket.c **** {
 365              		.loc 1 156 0
 366              		.cfi_startproc
 367              		@ args = 0, pretend = 0, frame = 0
 368              		@ frame_needed = 0, uses_anonymous_args = 0
 369              	.LVL38:
 370 0000 10B5     		push	{r4, lr}
 371              		.cfi_def_cfa_offset 8
 372              		.cfi_offset 4, -8
 373              		.cfi_offset 14, -4
 374 0002 0C00     		movs	r4, r1
 157:..\CANLib/CANPacket.c ****     return GetSenderDeviceGroupCode(packet) == expectedType;
 375              		.loc 1 157 0
 376 0004 FFF7FEFF 		bl	GetSenderDeviceGroupCode
 377              	.LVL39:
 378 0008 001B     		subs	r0, r0, r4
 379 000a 4342     		rsbs	r3, r0, #0
 380 000c 5841     		adcs	r0, r0, r3
 381 000e C0B2     		uxtb	r0, r0
 158:..\CANLib/CANPacket.c **** }
 382              		.loc 1 158 0
 383              		@ sp needed
 384 0010 10BD     		pop	{r4, pc}
 385              		.cfi_endproc
 386              	.LFE10:
 387              		.size	SenderPacketIsInGroup, .-SenderPacketIsInGroup
 388 0012 C046     		.section	.text.SenderPacketIsOfDevice,"ax",%progbits
 389              		.align	2
 390              		.global	SenderPacketIsOfDevice
 391              		.code	16
 392              		.thumb_func
 393              		.type	SenderPacketIsOfDevice, %function
 394              	SenderPacketIsOfDevice:
 395              	.LFB11:
 159:..\CANLib/CANPacket.c **** 
 160:..\CANLib/CANPacket.c **** int SenderPacketIsOfDevice(CANPacket *packet, uint8_t expectedType)
 161:..\CANLib/CANPacket.c **** {
 396              		.loc 1 161 0
 397              		.cfi_startproc
 398              		@ args = 0, pretend = 0, frame = 0
 399              		@ frame_needed = 0, uses_anonymous_args = 0
 400              	.LVL40:
 401 0000 10B5     		push	{r4, lr}
 402              		.cfi_def_cfa_offset 8
 403              		.cfi_offset 4, -8
 404              		.cfi_offset 14, -4
 405 0002 0C00     		movs	r4, r1
 162:..\CANLib/CANPacket.c ****     return GetSenderDeviceSerialNumber(packet) == expectedType;
 406              		.loc 1 162 0
ARM GAS  C:\Users\Austcha\AppData\Local\Temp\ccAkA8SP.s 			page 11


 407 0004 FFF7FEFF 		bl	GetSenderDeviceSerialNumber
 408              	.LVL41:
 409 0008 001B     		subs	r0, r0, r4
 410 000a 4342     		rsbs	r3, r0, #0
 411 000c 5841     		adcs	r0, r0, r3
 412 000e C0B2     		uxtb	r0, r0
 163:..\CANLib/CANPacket.c **** }
 413              		.loc 1 163 0
 414              		@ sp needed
 415 0010 10BD     		pop	{r4, pc}
 416              		.cfi_endproc
 417              	.LFE11:
 418              		.size	SenderPacketIsOfDevice, .-SenderPacketIsOfDevice
 419 0012 C046     		.section	.text.GetPacketID,"ax",%progbits
 420              		.align	2
 421              		.global	GetPacketID
 422              		.code	16
 423              		.thumb_func
 424              		.type	GetPacketID, %function
 425              	GetPacketID:
 426              	.LFB12:
 164:..\CANLib/CANPacket.c **** 
 165:..\CANLib/CANPacket.c **** int GetPacketID(CANPacket *packet)
 166:..\CANLib/CANPacket.c **** {
 427              		.loc 1 166 0
 428              		.cfi_startproc
 429              		@ args = 0, pretend = 0, frame = 0
 430              		@ frame_needed = 0, uses_anonymous_args = 0
 431              		@ link register save eliminated.
 432              	.LVL42:
 167:..\CANLib/CANPacket.c ****     return packet->data[0] & 0x3F;
 433              		.loc 1 167 0
 434 0000 C378     		ldrb	r3, [r0, #3]
 435 0002 3F20     		movs	r0, #63
 436              	.LVL43:
 437 0004 1840     		ands	r0, r3
 168:..\CANLib/CANPacket.c **** }
 438              		.loc 1 168 0
 439              		@ sp needed
 440 0006 7047     		bx	lr
 441              		.cfi_endproc
 442              	.LFE12:
 443              		.size	GetPacketID, .-GetPacketID
 444              		.section	.text.PacketIsOfID,"ax",%progbits
 445              		.align	2
 446              		.global	PacketIsOfID
 447              		.code	16
 448              		.thumb_func
 449              		.type	PacketIsOfID, %function
 450              	PacketIsOfID:
 451              	.LFB13:
 169:..\CANLib/CANPacket.c **** 
 170:..\CANLib/CANPacket.c **** int PacketIsOfID(CANPacket *packet, uint8_t expectedID)
 171:..\CANLib/CANPacket.c **** {
 452              		.loc 1 171 0
 453              		.cfi_startproc
 454              		@ args = 0, pretend = 0, frame = 0
ARM GAS  C:\Users\Austcha\AppData\Local\Temp\ccAkA8SP.s 			page 12


 455              		@ frame_needed = 0, uses_anonymous_args = 0
 456              	.LVL44:
 457 0000 10B5     		push	{r4, lr}
 458              		.cfi_def_cfa_offset 8
 459              		.cfi_offset 4, -8
 460              		.cfi_offset 14, -4
 461 0002 0C00     		movs	r4, r1
 172:..\CANLib/CANPacket.c ****     return GetPacketID(packet) == expectedID;
 462              		.loc 1 172 0
 463 0004 FFF7FEFF 		bl	GetPacketID
 464              	.LVL45:
 465 0008 201A     		subs	r0, r4, r0
 466 000a 4442     		rsbs	r4, r0, #0
 467 000c 6041     		adcs	r0, r0, r4
 468 000e C0B2     		uxtb	r0, r0
 173:..\CANLib/CANPacket.c **** }
 469              		.loc 1 173 0
 470              		@ sp needed
 471 0010 10BD     		pop	{r4, pc}
 472              		.cfi_endproc
 473              	.LFE13:
 474              		.size	PacketIsOfID, .-PacketIsOfID
 475 0012 C046     		.section	.text.TargetsDevice,"ax",%progbits
 476              		.align	2
 477              		.global	TargetsDevice
 478              		.code	16
 479              		.thumb_func
 480              		.type	TargetsDevice, %function
 481              	TargetsDevice:
 482              	.LFB14:
 174:..\CANLib/CANPacket.c **** 
 175:..\CANLib/CANPacket.c **** // Determines if a given packet targets a specific device
 176:..\CANLib/CANPacket.c **** // Useful for determing if a packet should be interpreted by
 177:..\CANLib/CANPacket.c **** // the device
 178:..\CANLib/CANPacket.c **** // Inputs:
 179:..\CANLib/CANPacket.c **** //      packet:                     CAN Packet to check
 180:..\CANLib/CANPacket.c **** //      targetDeviceGroup:          Device group of target device
 181:..\CANLib/CANPacket.c **** //      targetDeviceSerialNumber:   Serial number of target device
 182:..\CANLib/CANPacket.c **** // Outputs:
 183:..\CANLib/CANPacket.c **** //                  Returns 0 if packet does not target device
 184:..\CANLib/CANPacket.c **** //                  Returns any other int if packet does
 185:..\CANLib/CANPacket.c **** int TargetsDevice(CANPacket *packet, uint8_t targetDeviceGroup, uint8_t targetDeviceSerialNumber)
 186:..\CANLib/CANPacket.c **** {
 483              		.loc 1 186 0
 484              		.cfi_startproc
 485              		@ args = 0, pretend = 0, frame = 0
 486              		@ frame_needed = 0, uses_anonymous_args = 0
 487              	.LVL46:
 488 0000 70B5     		push	{r4, r5, r6, lr}
 489              		.cfi_def_cfa_offset 16
 490              		.cfi_offset 4, -16
 491              		.cfi_offset 5, -12
 492              		.cfi_offset 6, -8
 493              		.cfi_offset 14, -4
 494 0002 0400     		movs	r4, r0
 495 0004 0D00     		movs	r5, r1
 496 0006 1600     		movs	r6, r2
ARM GAS  C:\Users\Austcha\AppData\Local\Temp\ccAkA8SP.s 			page 13


 187:..\CANLib/CANPacket.c ****     uint8_t packetGroup = GetDeviceGroupCode(packet);
 497              		.loc 1 187 0
 498 0008 FFF7FEFF 		bl	GetDeviceGroupCode
 499              	.LVL47:
 188:..\CANLib/CANPacket.c ****     if (packetGroup == targetDeviceGroup) 
 500              		.loc 1 188 0
 501 000c A842     		cmp	r0, r5
 502 000e 08D1     		bne	.L18
 503              	.LBB3:
 189:..\CANLib/CANPacket.c ****     {
 190:..\CANLib/CANPacket.c ****         uint8_t serialNumber = GetDeviceSerialNumber(packet);
 504              		.loc 1 190 0
 505 0010 2000     		movs	r0, r4
 506              	.LVL48:
 507 0012 FFF7FEFF 		bl	GetDeviceSerialNumber
 508              	.LVL49:
 191:..\CANLib/CANPacket.c ****         // Return if serial number matches target
 192:..\CANLib/CANPacket.c ****         // Otherwise only return true if packet is broadcast to group
 193:..\CANLib/CANPacket.c ****         return serialNumber == DEVICE_SERIAL_BROADCAST || serialNumber == targetDeviceSerialNumber;
 509              		.loc 1 193 0
 510 0016 0028     		cmp	r0, #0
 511 0018 07D0     		beq	.L20
 512              		.loc 1 193 0 is_stmt 0 discriminator 2
 513 001a B042     		cmp	r0, r6
 514 001c 07D1     		bne	.L21
 515              		.loc 1 193 0
 516 001e 0120     		movs	r0, #1
 517              	.LVL50:
 518 0020 06E0     		b	.L19
 519              	.LVL51:
 520              	.L18:
 521              	.LBE3:
 194:..\CANLib/CANPacket.c ****     }
 195:..\CANLib/CANPacket.c ****     // Otherwise only return true if packet is broadcast to all devices
 196:..\CANLib/CANPacket.c ****     return packetGroup == DEVICE_GROUP_BROADCAST;
 522              		.loc 1 196 0 is_stmt 1
 523 0022 4342     		rsbs	r3, r0, #0
 524 0024 5841     		adcs	r0, r0, r3
 525              	.LVL52:
 526 0026 C0B2     		uxtb	r0, r0
 527 0028 02E0     		b	.L19
 528              	.LVL53:
 529              	.L20:
 530              	.LBB4:
 193:..\CANLib/CANPacket.c ****     }
 531              		.loc 1 193 0
 532 002a 0120     		movs	r0, #1
 533              	.LVL54:
 534 002c 00E0     		b	.L19
 535              	.LVL55:
 536              	.L21:
 537 002e 0020     		movs	r0, #0
 538              	.LVL56:
 539              	.L19:
 540              	.LBE4:
 197:..\CANLib/CANPacket.c **** }
 541              		.loc 1 197 0
ARM GAS  C:\Users\Austcha\AppData\Local\Temp\ccAkA8SP.s 			page 14


 542              		@ sp needed
 543              	.LVL57:
 544 0030 70BD     		pop	{r4, r5, r6, pc}
 545              		.cfi_endproc
 546              	.LFE14:
 547              		.size	TargetsDevice, .-TargetsDevice
 548 0032 C046     		.section	.text.PackIntIntoDataMSBFirst,"ax",%progbits
 549              		.align	2
 550              		.global	PackIntIntoDataMSBFirst
 551              		.code	16
 552              		.thumb_func
 553              		.type	PackIntIntoDataMSBFirst, %function
 554              	PackIntIntoDataMSBFirst:
 555              	.LFB15:
 198:..\CANLib/CANPacket.c **** 
 199:..\CANLib/CANPacket.c **** void PackIntIntoDataMSBFirst(uint8_t *data, int32_t dataToPack, int startIndex)
 200:..\CANLib/CANPacket.c **** {
 556              		.loc 1 200 0
 557              		.cfi_startproc
 558              		@ args = 0, pretend = 0, frame = 0
 559              		@ frame_needed = 0, uses_anonymous_args = 0
 560              	.LVL58:
 561 0000 10B5     		push	{r4, lr}
 562              		.cfi_def_cfa_offset 8
 563              		.cfi_offset 4, -8
 564              		.cfi_offset 14, -4
 201:..\CANLib/CANPacket.c ****     data[startIndex]     = (dataToPack & 0xFF000000) >> 24;
 565              		.loc 1 201 0
 566 0002 0B0E     		lsrs	r3, r1, #24
 567 0004 8354     		strb	r3, [r0, r2]
 202:..\CANLib/CANPacket.c ****     data[startIndex + 1] = (dataToPack & 0x00FF0000) >> 16;
 568              		.loc 1 202 0
 569 0006 531C     		adds	r3, r2, #1
 570 0008 0C14     		asrs	r4, r1, #16
 571 000a C454     		strb	r4, [r0, r3]
 203:..\CANLib/CANPacket.c ****     data[startIndex + 2] = (dataToPack & 0x0000FF00) >> 8;
 572              		.loc 1 203 0
 573 000c 931C     		adds	r3, r2, #2
 574 000e 0C12     		asrs	r4, r1, #8
 575 0010 C454     		strb	r4, [r0, r3]
 204:..\CANLib/CANPacket.c ****     data[startIndex + 3] = (dataToPack & 0x000000FF);
 576              		.loc 1 204 0
 577 0012 0332     		adds	r2, r2, #3
 578              	.LVL59:
 579 0014 8154     		strb	r1, [r0, r2]
 205:..\CANLib/CANPacket.c **** }
 580              		.loc 1 205 0
 581              		@ sp needed
 582 0016 10BD     		pop	{r4, pc}
 583              		.cfi_endproc
 584              	.LFE15:
 585              		.size	PackIntIntoDataMSBFirst, .-PackIntIntoDataMSBFirst
 586              		.section	.text.DecodeBytesToIntMSBFirst,"ax",%progbits
 587              		.align	2
 588              		.global	DecodeBytesToIntMSBFirst
 589              		.code	16
 590              		.thumb_func
ARM GAS  C:\Users\Austcha\AppData\Local\Temp\ccAkA8SP.s 			page 15


 591              		.type	DecodeBytesToIntMSBFirst, %function
 592              	DecodeBytesToIntMSBFirst:
 593              	.LFB16:
 206:..\CANLib/CANPacket.c **** 
 207:..\CANLib/CANPacket.c **** int32_t DecodeBytesToIntMSBFirst(uint8_t *data, int startIndex, int endIndex)
 208:..\CANLib/CANPacket.c **** {
 594              		.loc 1 208 0
 595              		.cfi_startproc
 596              		@ args = 0, pretend = 0, frame = 0
 597              		@ frame_needed = 0, uses_anonymous_args = 0
 598              	.LVL60:
 599 0000 70B5     		push	{r4, r5, r6, lr}
 600              		.cfi_def_cfa_offset 16
 601              		.cfi_offset 4, -16
 602              		.cfi_offset 5, -12
 603              		.cfi_offset 6, -8
 604              		.cfi_offset 14, -4
 605 0002 0600     		movs	r6, r0
 606              	.LVL61:
 209:..\CANLib/CANPacket.c ****     int length = 4;
 210:..\CANLib/CANPacket.c ****     int32_t decodedData = 0;
 211:..\CANLib/CANPacket.c **** 
 212:..\CANLib/CANPacket.c ****     if (endIndex > 0 && startIndex >= 0) {
 607              		.loc 1 212 0
 608 0004 002A     		cmp	r2, #0
 609 0006 09DD     		ble	.L28
 610              		.loc 1 212 0 is_stmt 0 discriminator 1
 611 0008 0029     		cmp	r1, #0
 612 000a 09DB     		blt	.L29
 213:..\CANLib/CANPacket.c ****         length = endIndex - startIndex + 1;
 613              		.loc 1 213 0 is_stmt 1
 614 000c 521A     		subs	r2, r2, r1
 615              	.LVL62:
 616 000e 0132     		adds	r2, r2, #1
 617              	.LVL63:
 214:..\CANLib/CANPacket.c ****         if (length > 4) { length = 4; }
 618              		.loc 1 214 0
 619 0010 042A     		cmp	r2, #4
 620 0012 00DD     		ble	.L25
 621 0014 0422     		movs	r2, #4
 622              	.LVL64:
 623              	.L25:
 215:..\CANLib/CANPacket.c ****         if (length < 1) { length = 0; }
 624              		.loc 1 215 0
 625 0016 002A     		cmp	r2, #0
 626 0018 05DC     		bgt	.L24
 627 001a 03E0     		b	.L31
 628              	.LVL65:
 629              	.L28:
 209:..\CANLib/CANPacket.c ****     int32_t decodedData = 0;
 630              		.loc 1 209 0
 631 001c 0422     		movs	r2, #4
 632              	.LVL66:
 633 001e 02E0     		b	.L24
 634              	.LVL67:
 635              	.L29:
 636 0020 0422     		movs	r2, #4
ARM GAS  C:\Users\Austcha\AppData\Local\Temp\ccAkA8SP.s 			page 16


 637              	.LVL68:
 638 0022 00E0     		b	.L24
 639              	.LVL69:
 640              	.L31:
 641              		.loc 1 215 0
 642 0024 0022     		movs	r2, #0
 643              	.LVL70:
 644              	.L24:
 645              	.LBB5:
 216:..\CANLib/CANPacket.c ****     }
 217:..\CANLib/CANPacket.c **** 
 218:..\CANLib/CANPacket.c ****     for (int i = 0; i < length; i++) 
 646              		.loc 1 218 0
 647 0026 0024     		movs	r4, #0
 648              	.LBE5:
 210:..\CANLib/CANPacket.c **** 
 649              		.loc 1 210 0
 650 0028 0020     		movs	r0, #0
 651              	.LVL71:
 652              	.LBB6:
 653              		.loc 1 218 0
 654 002a 07E0     		b	.L26
 655              	.LVL72:
 656              	.L27:
 219:..\CANLib/CANPacket.c ****     {
 220:..\CANLib/CANPacket.c ****         decodedData |= data[startIndex + i] << (8 * (length-1-i));
 657              		.loc 1 220 0 discriminator 3
 658 002c 6318     		adds	r3, r4, r1
 659 002e F55C     		ldrb	r5, [r6, r3]
 660 0030 531E     		subs	r3, r2, #1
 661 0032 1B1B     		subs	r3, r3, r4
 662 0034 DB00     		lsls	r3, r3, #3
 663 0036 9D40     		lsls	r5, r5, r3
 664 0038 2843     		orrs	r0, r5
 665              	.LVL73:
 218:..\CANLib/CANPacket.c ****     {
 666              		.loc 1 218 0 discriminator 3
 667 003a 0134     		adds	r4, r4, #1
 668              	.LVL74:
 669              	.L26:
 218:..\CANLib/CANPacket.c ****     {
 670              		.loc 1 218 0 is_stmt 0 discriminator 1
 671 003c A242     		cmp	r2, r4
 672 003e F5DC     		bgt	.L27
 673              	.LBE6:
 221:..\CANLib/CANPacket.c ****     }
 222:..\CANLib/CANPacket.c ****     return decodedData;
 223:..\CANLib/CANPacket.c **** }
 674              		.loc 1 223 0 is_stmt 1
 675              		@ sp needed
 676              	.LVL75:
 677              	.LVL76:
 678 0040 70BD     		pop	{r4, r5, r6, pc}
 679              		.cfi_endproc
 680              	.LFE16:
 681              		.size	DecodeBytesToIntMSBFirst, .-DecodeBytesToIntMSBFirst
 682 0042 C046     		.text
ARM GAS  C:\Users\Austcha\AppData\Local\Temp\ccAkA8SP.s 			page 17


 683              	.Letext0:
 684              		.file 2 "c:\\program files (x86)\\cypress\\psoc creator\\4.3\\psoc creator\\import\\gnu\\arm\\5.4.
 685              		.file 3 "c:\\program files (x86)\\cypress\\psoc creator\\4.3\\psoc creator\\import\\gnu\\arm\\5.4.
 686              		.file 4 "..\\CANLib\\CANPacket.h"
 687              		.file 5 "..\\CANLib\\Port.h"