ARM GAS  C:\Users\Austcha\AppData\Local\Temp\cckSBptf.s 			page 1


   1              		.syntax unified
   2              		.cpu cortex-m0
   3              		.fpu softvfp
   4              		.eabi_attribute 20, 1
   5              		.eabi_attribute 21, 1
   6              		.eabi_attribute 23, 3
   7              		.eabi_attribute 24, 1
   8              		.eabi_attribute 25, 1
   9              		.eabi_attribute 26, 1
  10              		.eabi_attribute 30, 6
  11              		.eabi_attribute 34, 0
  12              		.eabi_attribute 18, 4
  13              		.thumb
  14              		.syntax unified
  15              		.file	"CANPower.c"
  16              		.text
  17              	.Ltext0:
  18              		.cfi_sections	.debug_frame
  19              		.section	.text.AssemblePowerRailsSetPacket,"ax",%progbits
  20              		.align	2
  21              		.global	AssemblePowerRailsSetPacket
  22              		.code	16
  23              		.thumb_func
  24              		.type	AssemblePowerRailsSetPacket, %function
  25              	AssemblePowerRailsSetPacket:
  26              	.LFB0:
  27              		.file 1 "..\\CANLib\\CANPower.c"
   1:..\CANLib/CANPower.c **** /* File:         CANPower.c
   2:..\CANLib/CANPower.c ****  * Authors:      Jaden Bottemiller, Benton Kwong, Dylan Tomberlin.
   3:..\CANLib/CANPower.c ****  * Organization: Husky Robotics Team
   4:..\CANLib/CANPower.c ****  * 
   5:..\CANLib/CANPower.c ****  * This file includes fuction implementations for the power boards CAN Communication
   6:..\CANLib/CANPower.c ****  * using the Hindsight CAN Communication standard.
   7:..\CANLib/CANPower.c ****  * Documentation: https://huskyroboticsteam.slite.com/app/channels/iU0BryG7M9/collections/aXvWTcIR6
   8:..\CANLib/CANPower.c ****  */
   9:..\CANLib/CANPower.c **** #include "CANPower.h"
  10:..\CANLib/CANPower.c **** #include "CANPacket.h"
  11:..\CANLib/CANPower.c **** 
  12:..\CANLib/CANPower.c **** //Power Rail Set State
  13:..\CANLib/CANPower.c **** void AssemblePowerRailsSetPacket(CANPacket *packetToAssemble,
  14:..\CANLib/CANPower.c ****     uint8_t targetDeviceGroup,
  15:..\CANLib/CANPower.c ****     uint8_t targetDeviceSerialNumber,
  16:..\CANLib/CANPower.c ****     uint8_t state)
  17:..\CANLib/CANPower.c **** {
  28              		.loc 1 17 0
  29              		.cfi_startproc
  30              		@ args = 0, pretend = 0, frame = 16
  31              		@ frame_needed = 1, uses_anonymous_args = 0
  32 0000 90B5     		push	{r4, r7, lr}
  33              		.cfi_def_cfa_offset 12
  34              		.cfi_offset 4, -12
  35              		.cfi_offset 7, -8
  36              		.cfi_offset 14, -4
  37 0002 85B0     		sub	sp, sp, #20
  38              		.cfi_def_cfa_offset 32
  39 0004 00AF     		add	r7, sp, #0
  40              		.cfi_def_cfa_register 7
ARM GAS  C:\Users\Austcha\AppData\Local\Temp\cckSBptf.s 			page 2


  41 0006 7860     		str	r0, [r7, #4]
  42 0008 0C00     		movs	r4, r1
  43 000a 1000     		movs	r0, r2
  44 000c 1900     		movs	r1, r3
  45 000e FB1C     		adds	r3, r7, #3
  46 0010 221C     		adds	r2, r4, #0
  47 0012 1A70     		strb	r2, [r3]
  48 0014 BB1C     		adds	r3, r7, #2
  49 0016 021C     		adds	r2, r0, #0
  50 0018 1A70     		strb	r2, [r3]
  51 001a 7B1C     		adds	r3, r7, #1
  52 001c 0A1C     		adds	r2, r1, #0
  53 001e 1A70     		strb	r2, [r3]
  18:..\CANLib/CANPower.c ****     packetToAssemble->id = ConstructCANID(PACKET_PRIORITY_NORMAL, targetDeviceGroup, targetDeviceSe
  54              		.loc 1 18 0
  55 0020 BB1C     		adds	r3, r7, #2
  56 0022 1A78     		ldrb	r2, [r3]
  57 0024 FB1C     		adds	r3, r7, #3
  58 0026 1B78     		ldrb	r3, [r3]
  59 0028 1900     		movs	r1, r3
  60 002a 0120     		movs	r0, #1
  61 002c FFF7FEFF 		bl	ConstructCANID
  62 0030 0300     		movs	r3, r0
  63 0032 1A00     		movs	r2, r3
  64 0034 7B68     		ldr	r3, [r7, #4]
  65 0036 1A80     		strh	r2, [r3]
  19:..\CANLib/CANPower.c ****     packetToAssemble->dlc = DLC_POWER_RAIL_SET;
  66              		.loc 1 19 0
  67 0038 7B68     		ldr	r3, [r7, #4]
  68 003a 0222     		movs	r2, #2
  69 003c 9A70     		strb	r2, [r3, #2]
  20:..\CANLib/CANPower.c ****     int nextByte = WriteSenderSerialAndPacketID(packetToAssemble->data, ID_POWER_RAIL_SET);
  70              		.loc 1 20 0
  71 003e 7B68     		ldr	r3, [r7, #4]
  72 0040 0333     		adds	r3, r3, #3
  73 0042 0021     		movs	r1, #0
  74 0044 1800     		movs	r0, r3
  75 0046 FFF7FEFF 		bl	WriteSenderSerialAndPacketID
  76 004a 0300     		movs	r3, r0
  77 004c FB60     		str	r3, [r7, #12]
  21:..\CANLib/CANPower.c ****     packetToAssemble->data[nextByte] = state;
  78              		.loc 1 21 0
  79 004e 7A68     		ldr	r2, [r7, #4]
  80 0050 FB68     		ldr	r3, [r7, #12]
  81 0052 D318     		adds	r3, r2, r3
  82 0054 0333     		adds	r3, r3, #3
  83 0056 7A1C     		adds	r2, r7, #1
  84 0058 1278     		ldrb	r2, [r2]
  85 005a 1A70     		strb	r2, [r3]
  22:..\CANLib/CANPower.c ****     
  23:..\CANLib/CANPower.c **** }
  86              		.loc 1 23 0
  87 005c C046     		nop
  88 005e BD46     		mov	sp, r7
  89 0060 05B0     		add	sp, sp, #20
  90              		@ sp needed
  91 0062 90BD     		pop	{r4, r7, pc}
ARM GAS  C:\Users\Austcha\AppData\Local\Temp\cckSBptf.s 			page 3


  92              		.cfi_endproc
  93              	.LFE0:
  94              		.size	AssemblePowerRailsSetPacket, .-AssemblePowerRailsSetPacket
  95              		.section	.text.GetPowerRailsStateFromPacket,"ax",%progbits
  96              		.align	2
  97              		.global	GetPowerRailsStateFromPacket
  98              		.code	16
  99              		.thumb_func
 100              		.type	GetPowerRailsStateFromPacket, %function
 101              	GetPowerRailsStateFromPacket:
 102              	.LFB1:
  24:..\CANLib/CANPower.c **** uint8_t GetPowerRailsStateFromPacket(CANPacket *packet)
  25:..\CANLib/CANPower.c **** {
 103              		.loc 1 25 0
 104              		.cfi_startproc
 105              		@ args = 0, pretend = 0, frame = 8
 106              		@ frame_needed = 1, uses_anonymous_args = 0
 107 0000 80B5     		push	{r7, lr}
 108              		.cfi_def_cfa_offset 8
 109              		.cfi_offset 7, -8
 110              		.cfi_offset 14, -4
 111 0002 82B0     		sub	sp, sp, #8
 112              		.cfi_def_cfa_offset 16
 113 0004 00AF     		add	r7, sp, #0
 114              		.cfi_def_cfa_register 7
 115 0006 7860     		str	r0, [r7, #4]
  26:..\CANLib/CANPower.c ****     return packet->data[2];
 116              		.loc 1 26 0
 117 0008 7B68     		ldr	r3, [r7, #4]
 118 000a 5B79     		ldrb	r3, [r3, #5]
  27:..\CANLib/CANPower.c **** }
 119              		.loc 1 27 0
 120 000c 1800     		movs	r0, r3
 121 000e BD46     		mov	sp, r7
 122 0010 02B0     		add	sp, sp, #8
 123              		@ sp needed
 124 0012 80BD     		pop	{r7, pc}
 125              		.cfi_endproc
 126              	.LFE1:
 127              		.size	GetPowerRailsStateFromPacket, .-GetPowerRailsStateFromPacket
 128              		.section	.text.AssembleOverCurrentPacket,"ax",%progbits
 129              		.align	2
 130              		.global	AssembleOverCurrentPacket
 131              		.code	16
 132              		.thumb_func
 133              		.type	AssembleOverCurrentPacket, %function
 134              	AssembleOverCurrentPacket:
 135              	.LFB2:
  28:..\CANLib/CANPower.c **** 
  29:..\CANLib/CANPower.c **** 
  30:..\CANLib/CANPower.c **** //Power Set Over Current Limit
  31:..\CANLib/CANPower.c **** void AssembleOverCurrentPacket(CANPacket *packetToAssemble,
  32:..\CANLib/CANPower.c ****     uint8_t targetDeviceGroup,
  33:..\CANLib/CANPower.c ****     uint8_t targetDeviceSerialNumber,
  34:..\CANLib/CANPower.c ****     uint8_t railNumber,
  35:..\CANLib/CANPower.c ****     uint32_t currentLim)
  36:..\CANLib/CANPower.c **** {
ARM GAS  C:\Users\Austcha\AppData\Local\Temp\cckSBptf.s 			page 4


 136              		.loc 1 36 0
 137              		.cfi_startproc
 138              		@ args = 4, pretend = 0, frame = 16
 139              		@ frame_needed = 1, uses_anonymous_args = 0
 140 0000 90B5     		push	{r4, r7, lr}
 141              		.cfi_def_cfa_offset 12
 142              		.cfi_offset 4, -12
 143              		.cfi_offset 7, -8
 144              		.cfi_offset 14, -4
 145 0002 85B0     		sub	sp, sp, #20
 146              		.cfi_def_cfa_offset 32
 147 0004 00AF     		add	r7, sp, #0
 148              		.cfi_def_cfa_register 7
 149 0006 7860     		str	r0, [r7, #4]
 150 0008 0C00     		movs	r4, r1
 151 000a 1000     		movs	r0, r2
 152 000c 1900     		movs	r1, r3
 153 000e FB1C     		adds	r3, r7, #3
 154 0010 221C     		adds	r2, r4, #0
 155 0012 1A70     		strb	r2, [r3]
 156 0014 BB1C     		adds	r3, r7, #2
 157 0016 021C     		adds	r2, r0, #0
 158 0018 1A70     		strb	r2, [r3]
 159 001a 7B1C     		adds	r3, r7, #1
 160 001c 0A1C     		adds	r2, r1, #0
 161 001e 1A70     		strb	r2, [r3]
  37:..\CANLib/CANPower.c ****     packetToAssemble->id = ConstructCANID(PRIO_POWER_CURRENT_LIM_SET, targetDeviceGroup, targetDevi
 162              		.loc 1 37 0
 163 0020 BB1C     		adds	r3, r7, #2
 164 0022 1A78     		ldrb	r2, [r3]
 165 0024 FB1C     		adds	r3, r7, #3
 166 0026 1B78     		ldrb	r3, [r3]
 167 0028 1900     		movs	r1, r3
 168 002a 0120     		movs	r0, #1
 169 002c FFF7FEFF 		bl	ConstructCANID
 170 0030 0300     		movs	r3, r0
 171 0032 1A00     		movs	r2, r3
 172 0034 7B68     		ldr	r3, [r7, #4]
 173 0036 1A80     		strh	r2, [r3]
  38:..\CANLib/CANPower.c ****     packetToAssemble->dlc = DLC_POWER_CURRENT_LIM_SET;
 174              		.loc 1 38 0
 175 0038 7B68     		ldr	r3, [r7, #4]
 176 003a 0522     		movs	r2, #5
 177 003c 9A70     		strb	r2, [r3, #2]
  39:..\CANLib/CANPower.c ****     int nextByte = WriteSenderSerialAndPacketID(packetToAssemble->data, ID_POWER_CURRENT_LIM_SET);
 178              		.loc 1 39 0
 179 003e 7B68     		ldr	r3, [r7, #4]
 180 0040 0333     		adds	r3, r3, #3
 181 0042 0121     		movs	r1, #1
 182 0044 1800     		movs	r0, r3
 183 0046 FFF7FEFF 		bl	WriteSenderSerialAndPacketID
 184 004a 0300     		movs	r3, r0
 185 004c FB60     		str	r3, [r7, #12]
  40:..\CANLib/CANPower.c ****     packetToAssemble->data[nextByte] = railNumber;
 186              		.loc 1 40 0
 187 004e 7A68     		ldr	r2, [r7, #4]
 188 0050 FB68     		ldr	r3, [r7, #12]
ARM GAS  C:\Users\Austcha\AppData\Local\Temp\cckSBptf.s 			page 5


 189 0052 D318     		adds	r3, r2, r3
 190 0054 0333     		adds	r3, r3, #3
 191 0056 7A1C     		adds	r2, r7, #1
 192 0058 1278     		ldrb	r2, [r2]
 193 005a 1A70     		strb	r2, [r3]
  41:..\CANLib/CANPower.c ****     PackIntIntoDataMSBFirst(packetToAssemble->data, currentLim, nextByte + 1);
 194              		.loc 1 41 0
 195 005c 7B68     		ldr	r3, [r7, #4]
 196 005e D81C     		adds	r0, r3, #3
 197 0060 396A     		ldr	r1, [r7, #32]
 198 0062 FB68     		ldr	r3, [r7, #12]
 199 0064 0133     		adds	r3, r3, #1
 200 0066 1A00     		movs	r2, r3
 201 0068 FFF7FEFF 		bl	PackIntIntoDataMSBFirst
  42:..\CANLib/CANPower.c **** }
 202              		.loc 1 42 0
 203 006c C046     		nop
 204 006e BD46     		mov	sp, r7
 205 0070 05B0     		add	sp, sp, #20
 206              		@ sp needed
 207 0072 90BD     		pop	{r4, r7, pc}
 208              		.cfi_endproc
 209              	.LFE2:
 210              		.size	AssembleOverCurrentPacket, .-AssembleOverCurrentPacket
 211              		.section	.text.GetOverCurrentRailNumFromPacket,"ax",%progbits
 212              		.align	2
 213              		.global	GetOverCurrentRailNumFromPacket
 214              		.code	16
 215              		.thumb_func
 216              		.type	GetOverCurrentRailNumFromPacket, %function
 217              	GetOverCurrentRailNumFromPacket:
 218              	.LFB3:
  43:..\CANLib/CANPower.c **** uint8_t GetOverCurrentRailNumFromPacket(CANPacket *packetToAssemble)
  44:..\CANLib/CANPower.c **** {
 219              		.loc 1 44 0
 220              		.cfi_startproc
 221              		@ args = 0, pretend = 0, frame = 8
 222              		@ frame_needed = 1, uses_anonymous_args = 0
 223 0000 80B5     		push	{r7, lr}
 224              		.cfi_def_cfa_offset 8
 225              		.cfi_offset 7, -8
 226              		.cfi_offset 14, -4
 227 0002 82B0     		sub	sp, sp, #8
 228              		.cfi_def_cfa_offset 16
 229 0004 00AF     		add	r7, sp, #0
 230              		.cfi_def_cfa_register 7
 231 0006 7860     		str	r0, [r7, #4]
  45:..\CANLib/CANPower.c ****     return packetToAssemble->data[2];
 232              		.loc 1 45 0
 233 0008 7B68     		ldr	r3, [r7, #4]
 234 000a 5B79     		ldrb	r3, [r3, #5]
  46:..\CANLib/CANPower.c **** }
 235              		.loc 1 46 0
 236 000c 1800     		movs	r0, r3
 237 000e BD46     		mov	sp, r7
 238 0010 02B0     		add	sp, sp, #8
 239              		@ sp needed
ARM GAS  C:\Users\Austcha\AppData\Local\Temp\cckSBptf.s 			page 6


 240 0012 80BD     		pop	{r7, pc}
 241              		.cfi_endproc
 242              	.LFE3:
 243              		.size	GetOverCurrentRailNumFromPacket, .-GetOverCurrentRailNumFromPacket
 244              		.section	.text.GetOverCurrentLimitFromPacket,"ax",%progbits
 245              		.align	2
 246              		.global	GetOverCurrentLimitFromPacket
 247              		.code	16
 248              		.thumb_func
 249              		.type	GetOverCurrentLimitFromPacket, %function
 250              	GetOverCurrentLimitFromPacket:
 251              	.LFB4:
  47:..\CANLib/CANPower.c **** uint8_t GetOverCurrentLimitFromPacket(CANPacket *packetToAssemble)
  48:..\CANLib/CANPower.c **** {
 252              		.loc 1 48 0
 253              		.cfi_startproc
 254              		@ args = 0, pretend = 0, frame = 8
 255              		@ frame_needed = 1, uses_anonymous_args = 0
 256 0000 80B5     		push	{r7, lr}
 257              		.cfi_def_cfa_offset 8
 258              		.cfi_offset 7, -8
 259              		.cfi_offset 14, -4
 260 0002 82B0     		sub	sp, sp, #8
 261              		.cfi_def_cfa_offset 16
 262 0004 00AF     		add	r7, sp, #0
 263              		.cfi_def_cfa_register 7
 264 0006 7860     		str	r0, [r7, #4]
  49:..\CANLib/CANPower.c ****     return DecodeBytesToIntMSBFirst(packetToAssemble->data, 3, 6);
 265              		.loc 1 49 0
 266 0008 7B68     		ldr	r3, [r7, #4]
 267 000a 0333     		adds	r3, r3, #3
 268 000c 0622     		movs	r2, #6
 269 000e 0321     		movs	r1, #3
 270 0010 1800     		movs	r0, r3
 271 0012 FFF7FEFF 		bl	DecodeBytesToIntMSBFirst
 272 0016 0300     		movs	r3, r0
 273 0018 DBB2     		uxtb	r3, r3
  50:..\CANLib/CANPower.c **** }...
 274              		.loc 1 50 0
 275 001a 1800     		movs	r0, r3
 276 001c BD46     		mov	sp, r7
 277 001e 02B0     		add	sp, sp, #8
 278              		@ sp needed
 279 0020 80BD     		pop	{r7, pc}
 280              		.cfi_endproc
 281              	.LFE4:
 282              		.size	GetOverCurrentLimitFromPacket, .-GetOverCurrentLimitFromPacket
 283 0022 C046     		.text
 284              	.Letext0:
 285              		.file 2 "c:\\program files (x86)\\cypress\\psoc creator\\4.3\\psoc creator\\import\\gnu\\arm\\5.4.
 286              		.file 3 "c:\\program files (x86)\\cypress\\psoc creator\\4.3\\psoc creator\\import\\gnu\\arm\\5.4.
 287              		.file 4 "..\\CANLib\\CANPacket.h"