ARM GAS  C:\Users\austc\AppData\Local\Temp\ccPHGH8e.s 			page 1


   1              		.syntax unified
   2              		.cpu cortex-m0
   3              		.fpu softvfp
   4              		.eabi_attribute 20, 1
   5              		.eabi_attribute 21, 1
   6              		.eabi_attribute 23, 3
   7              		.eabi_attribute 24, 1
   8              		.eabi_attribute 25, 1
   9              		.eabi_attribute 26, 1
  10              		.eabi_attribute 30, 1
  11              		.eabi_attribute 34, 0
  12              		.eabi_attribute 18, 4
  13              		.thumb
  14              		.syntax unified
  15              		.file	"cyfitter_cfg.c"
  16              		.text
  17              	.Ltext0:
  18              		.cfi_sections	.debug_frame
  19              		.section	.text.cfg_write_bytes32,"ax",%progbits
  20              		.align	2
  21              		.code	16
  22              		.thumb_func
  23              		.type	cfg_write_bytes32, %function
  24              	cfg_write_bytes32:
  25              	.LFB37:
  26              		.file 1 "Generated_Source\\PSoC4\\cyfitter_cfg.c"
   1:Generated_Source\PSoC4/cyfitter_cfg.c **** 
   2:Generated_Source\PSoC4/cyfitter_cfg.c **** /*******************************************************************************
   3:Generated_Source\PSoC4/cyfitter_cfg.c **** * File Name: cyfitter_cfg.c
   4:Generated_Source\PSoC4/cyfitter_cfg.c **** * 
   5:Generated_Source\PSoC4/cyfitter_cfg.c **** * PSoC Creator  4.2
   6:Generated_Source\PSoC4/cyfitter_cfg.c **** *
   7:Generated_Source\PSoC4/cyfitter_cfg.c **** * Description:
   8:Generated_Source\PSoC4/cyfitter_cfg.c **** * This file contains device initialization code.
   9:Generated_Source\PSoC4/cyfitter_cfg.c **** * Except for the user defined sections in CyClockStartupError(), this file should not be modified.
  10:Generated_Source\PSoC4/cyfitter_cfg.c **** * This file is automatically generated by PSoC Creator.
  11:Generated_Source\PSoC4/cyfitter_cfg.c **** *
  12:Generated_Source\PSoC4/cyfitter_cfg.c **** ********************************************************************************
  13:Generated_Source\PSoC4/cyfitter_cfg.c **** * Copyright (c) 2007-2018 Cypress Semiconductor.  All rights reserved.
  14:Generated_Source\PSoC4/cyfitter_cfg.c **** * You may use this file only in accordance with the license, terms, conditions, 
  15:Generated_Source\PSoC4/cyfitter_cfg.c **** * disclaimers, and limitations in the end user license agreement accompanying 
  16:Generated_Source\PSoC4/cyfitter_cfg.c **** * the software package with which this file was provided.
  17:Generated_Source\PSoC4/cyfitter_cfg.c **** ********************************************************************************/
  18:Generated_Source\PSoC4/cyfitter_cfg.c **** 
  19:Generated_Source\PSoC4/cyfitter_cfg.c **** #include <string.h>
  20:Generated_Source\PSoC4/cyfitter_cfg.c **** #include "cytypes.h"
  21:Generated_Source\PSoC4/cyfitter_cfg.c **** #include "cydevice_trm.h"
  22:Generated_Source\PSoC4/cyfitter_cfg.c **** #include "cyfitter.h"
  23:Generated_Source\PSoC4/cyfitter_cfg.c **** #include "CyLib.h"
  24:Generated_Source\PSoC4/cyfitter_cfg.c **** #include "CyLFClk.h"
  25:Generated_Source\PSoC4/cyfitter_cfg.c **** #include "cyfitter_cfg.h"
  26:Generated_Source\PSoC4/cyfitter_cfg.c **** #include "cyapicallbacks.h"
  27:Generated_Source\PSoC4/cyfitter_cfg.c **** 
  28:Generated_Source\PSoC4/cyfitter_cfg.c **** 
  29:Generated_Source\PSoC4/cyfitter_cfg.c **** #if defined(__GNUC__) || defined(__ARMCC_VERSION)
  30:Generated_Source\PSoC4/cyfitter_cfg.c ****     #define CYPACKED 
  31:Generated_Source\PSoC4/cyfitter_cfg.c ****     #define CYPACKED_ATTR __attribute__ ((packed))
ARM GAS  C:\Users\austc\AppData\Local\Temp\ccPHGH8e.s 			page 2


  32:Generated_Source\PSoC4/cyfitter_cfg.c ****     #define CYALIGNED __attribute__ ((aligned))
  33:Generated_Source\PSoC4/cyfitter_cfg.c ****     #define CY_CFG_UNUSED __attribute__ ((unused))
  34:Generated_Source\PSoC4/cyfitter_cfg.c ****     #ifndef CY_CFG_SECTION
  35:Generated_Source\PSoC4/cyfitter_cfg.c ****         #define CY_CFG_SECTION __attribute__ ((section(".psocinit")))
  36:Generated_Source\PSoC4/cyfitter_cfg.c ****     #endif
  37:Generated_Source\PSoC4/cyfitter_cfg.c ****     
  38:Generated_Source\PSoC4/cyfitter_cfg.c ****     #if defined(__ARMCC_VERSION)
  39:Generated_Source\PSoC4/cyfitter_cfg.c ****         #define CY_CFG_MEMORY_BARRIER() __memory_changed()
  40:Generated_Source\PSoC4/cyfitter_cfg.c ****     #else
  41:Generated_Source\PSoC4/cyfitter_cfg.c ****         #define CY_CFG_MEMORY_BARRIER() __sync_synchronize()
  42:Generated_Source\PSoC4/cyfitter_cfg.c ****     #endif
  43:Generated_Source\PSoC4/cyfitter_cfg.c ****     
  44:Generated_Source\PSoC4/cyfitter_cfg.c **** #elif defined(__ICCARM__)
  45:Generated_Source\PSoC4/cyfitter_cfg.c ****     #include <intrinsics.h>
  46:Generated_Source\PSoC4/cyfitter_cfg.c **** 
  47:Generated_Source\PSoC4/cyfitter_cfg.c ****     #define CYPACKED __packed
  48:Generated_Source\PSoC4/cyfitter_cfg.c ****     #define CYPACKED_ATTR 
  49:Generated_Source\PSoC4/cyfitter_cfg.c ****     #define CYALIGNED _Pragma("data_alignment=4")
  50:Generated_Source\PSoC4/cyfitter_cfg.c ****     #define CY_CFG_UNUSED _Pragma("diag_suppress=Pe177")
  51:Generated_Source\PSoC4/cyfitter_cfg.c ****     #define CY_CFG_SECTION _Pragma("location=\".psocinit\"")
  52:Generated_Source\PSoC4/cyfitter_cfg.c ****     
  53:Generated_Source\PSoC4/cyfitter_cfg.c ****     #define CY_CFG_MEMORY_BARRIER() __DMB()
  54:Generated_Source\PSoC4/cyfitter_cfg.c ****     
  55:Generated_Source\PSoC4/cyfitter_cfg.c **** #else
  56:Generated_Source\PSoC4/cyfitter_cfg.c ****     #error Unsupported toolchain
  57:Generated_Source\PSoC4/cyfitter_cfg.c **** #endif
  58:Generated_Source\PSoC4/cyfitter_cfg.c **** 
  59:Generated_Source\PSoC4/cyfitter_cfg.c **** #ifndef CYCODE
  60:Generated_Source\PSoC4/cyfitter_cfg.c ****     #define CYCODE
  61:Generated_Source\PSoC4/cyfitter_cfg.c **** #endif
  62:Generated_Source\PSoC4/cyfitter_cfg.c **** #ifndef CYDATA
  63:Generated_Source\PSoC4/cyfitter_cfg.c ****     #define CYDATA
  64:Generated_Source\PSoC4/cyfitter_cfg.c **** #endif
  65:Generated_Source\PSoC4/cyfitter_cfg.c **** #ifndef CYFAR
  66:Generated_Source\PSoC4/cyfitter_cfg.c ****     #define CYFAR
  67:Generated_Source\PSoC4/cyfitter_cfg.c **** #endif
  68:Generated_Source\PSoC4/cyfitter_cfg.c **** #ifndef CYXDATA
  69:Generated_Source\PSoC4/cyfitter_cfg.c ****     #define CYXDATA
  70:Generated_Source\PSoC4/cyfitter_cfg.c **** #endif
  71:Generated_Source\PSoC4/cyfitter_cfg.c **** 
  72:Generated_Source\PSoC4/cyfitter_cfg.c **** 
  73:Generated_Source\PSoC4/cyfitter_cfg.c **** CY_CFG_UNUSED
  74:Generated_Source\PSoC4/cyfitter_cfg.c **** static void CYMEMZERO(void *s, size_t n);
  75:Generated_Source\PSoC4/cyfitter_cfg.c **** CY_CFG_UNUSED
  76:Generated_Source\PSoC4/cyfitter_cfg.c **** static void CYMEMZERO(void *s, size_t n)
  77:Generated_Source\PSoC4/cyfitter_cfg.c **** {
  78:Generated_Source\PSoC4/cyfitter_cfg.c **** 	(void)memset(s, 0, n);
  79:Generated_Source\PSoC4/cyfitter_cfg.c **** }
  80:Generated_Source\PSoC4/cyfitter_cfg.c **** CY_CFG_UNUSED
  81:Generated_Source\PSoC4/cyfitter_cfg.c **** static void CYCONFIGCPY(void *dest, const void *src, size_t n);
  82:Generated_Source\PSoC4/cyfitter_cfg.c **** CY_CFG_UNUSED
  83:Generated_Source\PSoC4/cyfitter_cfg.c **** static void CYCONFIGCPY(void *dest, const void *src, size_t n)
  84:Generated_Source\PSoC4/cyfitter_cfg.c **** {
  85:Generated_Source\PSoC4/cyfitter_cfg.c **** 	(void)memcpy(dest, src, n);
  86:Generated_Source\PSoC4/cyfitter_cfg.c **** }
  87:Generated_Source\PSoC4/cyfitter_cfg.c **** CY_CFG_UNUSED
  88:Generated_Source\PSoC4/cyfitter_cfg.c **** static void CYCONFIGCPYCODE(void *dest, const void *src, size_t n);
ARM GAS  C:\Users\austc\AppData\Local\Temp\ccPHGH8e.s 			page 3


  89:Generated_Source\PSoC4/cyfitter_cfg.c **** CY_CFG_UNUSED
  90:Generated_Source\PSoC4/cyfitter_cfg.c **** static void CYCONFIGCPYCODE(void *dest, const void *src, size_t n)
  91:Generated_Source\PSoC4/cyfitter_cfg.c **** {
  92:Generated_Source\PSoC4/cyfitter_cfg.c **** 	(void)memcpy(dest, src, n);
  93:Generated_Source\PSoC4/cyfitter_cfg.c **** }
  94:Generated_Source\PSoC4/cyfitter_cfg.c **** 
  95:Generated_Source\PSoC4/cyfitter_cfg.c **** 
  96:Generated_Source\PSoC4/cyfitter_cfg.c **** 
  97:Generated_Source\PSoC4/cyfitter_cfg.c **** 
  98:Generated_Source\PSoC4/cyfitter_cfg.c **** /* Clock startup error codes                                                   */
  99:Generated_Source\PSoC4/cyfitter_cfg.c **** #define CYCLOCKSTART_NO_ERROR    0u
 100:Generated_Source\PSoC4/cyfitter_cfg.c **** #define CYCLOCKSTART_XTAL_ERROR  1u
 101:Generated_Source\PSoC4/cyfitter_cfg.c **** #define CYCLOCKSTART_32KHZ_ERROR 2u
 102:Generated_Source\PSoC4/cyfitter_cfg.c **** #define CYCLOCKSTART_PLL_ERROR   3u
 103:Generated_Source\PSoC4/cyfitter_cfg.c **** #define CYCLOCKSTART_FLL_ERROR   4u
 104:Generated_Source\PSoC4/cyfitter_cfg.c **** #define CYCLOCKSTART_WCO_ERROR   5u
 105:Generated_Source\PSoC4/cyfitter_cfg.c **** 
 106:Generated_Source\PSoC4/cyfitter_cfg.c **** 
 107:Generated_Source\PSoC4/cyfitter_cfg.c **** #ifdef CY_NEED_CYCLOCKSTARTUPERROR
 108:Generated_Source\PSoC4/cyfitter_cfg.c **** /*******************************************************************************
 109:Generated_Source\PSoC4/cyfitter_cfg.c **** * Function Name: CyClockStartupError
 110:Generated_Source\PSoC4/cyfitter_cfg.c **** ********************************************************************************
 111:Generated_Source\PSoC4/cyfitter_cfg.c **** * Summary:
 112:Generated_Source\PSoC4/cyfitter_cfg.c **** *  If an error is encountered during clock configuration (crystal startup error,
 113:Generated_Source\PSoC4/cyfitter_cfg.c **** *  PLL lock error, etc.), the system will end up here.  Unless reimplemented by
 114:Generated_Source\PSoC4/cyfitter_cfg.c **** *  the customer, this function will stop in an infinite loop.
 115:Generated_Source\PSoC4/cyfitter_cfg.c **** *
 116:Generated_Source\PSoC4/cyfitter_cfg.c **** * Parameters:
 117:Generated_Source\PSoC4/cyfitter_cfg.c **** *   void
 118:Generated_Source\PSoC4/cyfitter_cfg.c **** *
 119:Generated_Source\PSoC4/cyfitter_cfg.c **** * Return:
 120:Generated_Source\PSoC4/cyfitter_cfg.c **** *   void
 121:Generated_Source\PSoC4/cyfitter_cfg.c **** *
 122:Generated_Source\PSoC4/cyfitter_cfg.c **** *******************************************************************************/
 123:Generated_Source\PSoC4/cyfitter_cfg.c **** CY_CFG_UNUSED
 124:Generated_Source\PSoC4/cyfitter_cfg.c **** static void CyClockStartupError(uint8 errorCode);
 125:Generated_Source\PSoC4/cyfitter_cfg.c **** CY_CFG_UNUSED
 126:Generated_Source\PSoC4/cyfitter_cfg.c **** static void CyClockStartupError(uint8 errorCode)
 127:Generated_Source\PSoC4/cyfitter_cfg.c **** {
 128:Generated_Source\PSoC4/cyfitter_cfg.c ****     /* To remove the compiler warning if errorCode not used.                */
 129:Generated_Source\PSoC4/cyfitter_cfg.c ****     errorCode = errorCode;
 130:Generated_Source\PSoC4/cyfitter_cfg.c **** 
 131:Generated_Source\PSoC4/cyfitter_cfg.c ****     /* If we have a clock startup error (bad MHz crystal, PLL lock, etc.),  */
 132:Generated_Source\PSoC4/cyfitter_cfg.c ****     /* we will end up here to allow the customer to implement something to  */
 133:Generated_Source\PSoC4/cyfitter_cfg.c ****     /* deal with the clock condition.                                       */
 134:Generated_Source\PSoC4/cyfitter_cfg.c **** 
 135:Generated_Source\PSoC4/cyfitter_cfg.c **** #ifdef CY_CFG_CLOCK_STARTUP_ERROR_CALLBACK
 136:Generated_Source\PSoC4/cyfitter_cfg.c ****     CY_CFG_Clock_Startup_ErrorCallback();
 137:Generated_Source\PSoC4/cyfitter_cfg.c **** #else
 138:Generated_Source\PSoC4/cyfitter_cfg.c ****     /*  If not using CY_CFG_CLOCK_STARTUP_ERROR_CALLBACK, place your clock startup code here. */
 139:Generated_Source\PSoC4/cyfitter_cfg.c ****     /* `#START CyClockStartupError` */
 140:Generated_Source\PSoC4/cyfitter_cfg.c **** 
 141:Generated_Source\PSoC4/cyfitter_cfg.c **** 
 142:Generated_Source\PSoC4/cyfitter_cfg.c **** 
 143:Generated_Source\PSoC4/cyfitter_cfg.c ****     /* `#END` */
 144:Generated_Source\PSoC4/cyfitter_cfg.c **** 
 145:Generated_Source\PSoC4/cyfitter_cfg.c ****     while(1) {}
ARM GAS  C:\Users\austc\AppData\Local\Temp\ccPHGH8e.s 			page 4


 146:Generated_Source\PSoC4/cyfitter_cfg.c **** #endif /* CY_CFG_CLOCK_STARTUP_ERROR_CALLBACK */
 147:Generated_Source\PSoC4/cyfitter_cfg.c **** }
 148:Generated_Source\PSoC4/cyfitter_cfg.c **** #endif
 149:Generated_Source\PSoC4/cyfitter_cfg.c **** 
 150:Generated_Source\PSoC4/cyfitter_cfg.c **** #define CY_CFG_BASE_ADDR_COUNT 16u
 151:Generated_Source\PSoC4/cyfitter_cfg.c **** CYPACKED typedef struct
 152:Generated_Source\PSoC4/cyfitter_cfg.c **** {
 153:Generated_Source\PSoC4/cyfitter_cfg.c **** 	uint8 offset;
 154:Generated_Source\PSoC4/cyfitter_cfg.c **** 	uint8 value;
 155:Generated_Source\PSoC4/cyfitter_cfg.c **** } CYPACKED_ATTR cy_cfg_addrvalue_t;
 156:Generated_Source\PSoC4/cyfitter_cfg.c **** 
 157:Generated_Source\PSoC4/cyfitter_cfg.c **** 
 158:Generated_Source\PSoC4/cyfitter_cfg.c **** 
 159:Generated_Source\PSoC4/cyfitter_cfg.c **** /*******************************************************************************
 160:Generated_Source\PSoC4/cyfitter_cfg.c **** * Function Name: cfg_write_bytes32
 161:Generated_Source\PSoC4/cyfitter_cfg.c **** ********************************************************************************
 162:Generated_Source\PSoC4/cyfitter_cfg.c **** * Summary:
 163:Generated_Source\PSoC4/cyfitter_cfg.c **** *  This function is used for setting up the chip configuration areas that
 164:Generated_Source\PSoC4/cyfitter_cfg.c **** *  contain relatively sparse data.
 165:Generated_Source\PSoC4/cyfitter_cfg.c **** *
 166:Generated_Source\PSoC4/cyfitter_cfg.c **** * Parameters:
 167:Generated_Source\PSoC4/cyfitter_cfg.c **** *   void
 168:Generated_Source\PSoC4/cyfitter_cfg.c **** *
 169:Generated_Source\PSoC4/cyfitter_cfg.c **** * Return:
 170:Generated_Source\PSoC4/cyfitter_cfg.c **** *   void
 171:Generated_Source\PSoC4/cyfitter_cfg.c **** *
 172:Generated_Source\PSoC4/cyfitter_cfg.c **** *******************************************************************************/
 173:Generated_Source\PSoC4/cyfitter_cfg.c **** static void cfg_write_bytes32(const uint32 addr_table[], const cy_cfg_addrvalue_t data_table[]);
 174:Generated_Source\PSoC4/cyfitter_cfg.c **** static void cfg_write_bytes32(const uint32 addr_table[], const cy_cfg_addrvalue_t data_table[])
 175:Generated_Source\PSoC4/cyfitter_cfg.c **** {
  27              		.loc 1 175 0
  28              		.cfi_startproc
  29              		@ args = 0, pretend = 0, frame = 0
  30              		@ frame_needed = 0, uses_anonymous_args = 0
  31              	.LVL0:
  32 0000 F0B5     		push	{r4, r5, r6, r7, lr}
  33              		.cfi_def_cfa_offset 20
  34              		.cfi_offset 4, -20
  35              		.cfi_offset 5, -16
  36              		.cfi_offset 6, -12
  37              		.cfi_offset 7, -8
  38              		.cfi_offset 14, -4
  39              	.LVL1:
 176:Generated_Source\PSoC4/cyfitter_cfg.c **** 	/* For 32-bit little-endian architectures */
 177:Generated_Source\PSoC4/cyfitter_cfg.c **** 	uint32 i, j = 0u;
  40              		.loc 1 177 0
  41 0002 0025     		movs	r5, #0
 178:Generated_Source\PSoC4/cyfitter_cfg.c **** 	for (i = 0u; i < CY_CFG_BASE_ADDR_COUNT; i++)
  42              		.loc 1 178 0
  43 0004 0027     		movs	r7, #0
  44 0006 11E0     		b	.L2
  45              	.LVL2:
  46              	.L5:
  47              	.LBB2:
 179:Generated_Source\PSoC4/cyfitter_cfg.c **** 	{
 180:Generated_Source\PSoC4/cyfitter_cfg.c **** 		uint32 baseAddr = addr_table[i];
  48              		.loc 1 180 0
ARM GAS  C:\Users\austc\AppData\Local\Temp\ccPHGH8e.s 			page 5


  49 0008 BB00     		lsls	r3, r7, #2
  50 000a C658     		ldr	r6, [r0, r3]
  51              	.LVL3:
 181:Generated_Source\PSoC4/cyfitter_cfg.c **** 		uint8 count = (uint8)baseAddr;
  52              		.loc 1 181 0
  53 000c F3B2     		uxtb	r3, r6
  54              	.LVL4:
 182:Generated_Source\PSoC4/cyfitter_cfg.c **** 		baseAddr &= 0xFFFFFF00u;
  55              		.loc 1 182 0
  56 000e FF22     		movs	r2, #255
  57 0010 9643     		bics	r6, r2
  58              	.LVL5:
 183:Generated_Source\PSoC4/cyfitter_cfg.c **** 		while (count != 0u)
  59              		.loc 1 183 0
  60 0012 08E0     		b	.L3
  61              	.L4:
 184:Generated_Source\PSoC4/cyfitter_cfg.c **** 		{
 185:Generated_Source\PSoC4/cyfitter_cfg.c **** 			CY_SET_REG8((void *)(baseAddr + data_table[j].offset), data_table[j].value);
  62              		.loc 1 185 0
  63 0014 6A00     		lsls	r2, r5, #1
  64 0016 8A18     		adds	r2, r1, r2
  65 0018 1478     		ldrb	r4, [r2]
  66 001a A419     		adds	r4, r4, r6
  67 001c 5278     		ldrb	r2, [r2, #1]
  68 001e 2270     		strb	r2, [r4]
 186:Generated_Source\PSoC4/cyfitter_cfg.c **** 			j++;
  69              		.loc 1 186 0
  70 0020 0135     		adds	r5, r5, #1
  71              	.LVL6:
 187:Generated_Source\PSoC4/cyfitter_cfg.c **** 			count--;
  72              		.loc 1 187 0
  73 0022 013B     		subs	r3, r3, #1
  74              	.LVL7:
  75 0024 DBB2     		uxtb	r3, r3
  76              	.LVL8:
  77              	.L3:
 183:Generated_Source\PSoC4/cyfitter_cfg.c **** 		{
  78              		.loc 1 183 0
  79 0026 002B     		cmp	r3, #0
  80 0028 F4D1     		bne	.L4
  81              	.LBE2:
 178:Generated_Source\PSoC4/cyfitter_cfg.c **** 	{
  82              		.loc 1 178 0 discriminator 2
  83 002a 0137     		adds	r7, r7, #1
  84              	.LVL9:
  85              	.L2:
 178:Generated_Source\PSoC4/cyfitter_cfg.c **** 	{
  86              		.loc 1 178 0 is_stmt 0 discriminator 1
  87 002c 0F2F     		cmp	r7, #15
  88 002e EBD9     		bls	.L5
 188:Generated_Source\PSoC4/cyfitter_cfg.c **** 		}
 189:Generated_Source\PSoC4/cyfitter_cfg.c **** 	}
 190:Generated_Source\PSoC4/cyfitter_cfg.c **** }
  89              		.loc 1 190 0 is_stmt 1
  90              		@ sp needed
  91              	.LVL10:
  92              	.LVL11:
ARM GAS  C:\Users\austc\AppData\Local\Temp\ccPHGH8e.s 			page 6


  93 0030 F0BD     		pop	{r4, r5, r6, r7, pc}
  94              		.cfi_endproc
  95              	.LFE37:
  96              		.size	cfg_write_bytes32, .-cfg_write_bytes32
  97 0032 C046     		.section	.text.CYMEMZERO,"ax",%progbits
  98              		.align	2
  99              		.code	16
 100              		.thumb_func
 101              		.type	CYMEMZERO, %function
 102              	CYMEMZERO:
 103              	.LFB34:
  77:Generated_Source\PSoC4/cyfitter_cfg.c **** 	(void)memset(s, 0, n);
 104              		.loc 1 77 0
 105              		.cfi_startproc
 106              		@ args = 0, pretend = 0, frame = 0
 107              		@ frame_needed = 0, uses_anonymous_args = 0
 108              	.LVL12:
 109 0000 10B5     		push	{r4, lr}
 110              		.cfi_def_cfa_offset 8
 111              		.cfi_offset 4, -8
 112              		.cfi_offset 14, -4
 113 0002 0A00     		movs	r2, r1
  78:Generated_Source\PSoC4/cyfitter_cfg.c **** }
 114              		.loc 1 78 0
 115 0004 0021     		movs	r1, #0
 116              	.LVL13:
 117 0006 FFF7FEFF 		bl	memset
 118              	.LVL14:
  79:Generated_Source\PSoC4/cyfitter_cfg.c **** CY_CFG_UNUSED
 119              		.loc 1 79 0
 120              		@ sp needed
 121 000a 10BD     		pop	{r4, pc}
 122              		.cfi_endproc
 123              	.LFE34:
 124              		.size	CYMEMZERO, .-CYMEMZERO
 125              		.section	.psocinit,"ax",%progbits
 126              		.align	2
 127              		.code	16
 128              		.thumb_func
 129              		.type	ClockSetup, %function
 130              	ClockSetup:
 131              	.LFB38:
 191:Generated_Source\PSoC4/cyfitter_cfg.c **** 
 192:Generated_Source\PSoC4/cyfitter_cfg.c **** 
 193:Generated_Source\PSoC4/cyfitter_cfg.c **** /*******************************************************************************
 194:Generated_Source\PSoC4/cyfitter_cfg.c **** * Function Name: ClockSetup
 195:Generated_Source\PSoC4/cyfitter_cfg.c **** ********************************************************************************
 196:Generated_Source\PSoC4/cyfitter_cfg.c **** *
 197:Generated_Source\PSoC4/cyfitter_cfg.c **** * Summary:
 198:Generated_Source\PSoC4/cyfitter_cfg.c **** *   Performs the initialization of all of the clocks in the device based on the
 199:Generated_Source\PSoC4/cyfitter_cfg.c **** *   settings in the Clock tab of the DWR.  This includes enabling the requested
 200:Generated_Source\PSoC4/cyfitter_cfg.c **** *   clocks and setting the necessary dividers to produce the desired frequency. 
 201:Generated_Source\PSoC4/cyfitter_cfg.c **** *
 202:Generated_Source\PSoC4/cyfitter_cfg.c **** * Parameters:
 203:Generated_Source\PSoC4/cyfitter_cfg.c **** *   void
 204:Generated_Source\PSoC4/cyfitter_cfg.c **** *
 205:Generated_Source\PSoC4/cyfitter_cfg.c **** * Return:
ARM GAS  C:\Users\austc\AppData\Local\Temp\ccPHGH8e.s 			page 7


 206:Generated_Source\PSoC4/cyfitter_cfg.c **** *   void
 207:Generated_Source\PSoC4/cyfitter_cfg.c **** *
 208:Generated_Source\PSoC4/cyfitter_cfg.c **** *******************************************************************************/
 209:Generated_Source\PSoC4/cyfitter_cfg.c **** static void ClockSetup(void);
 210:Generated_Source\PSoC4/cyfitter_cfg.c **** CY_CFG_SECTION
 211:Generated_Source\PSoC4/cyfitter_cfg.c **** static void ClockSetup(void)
 212:Generated_Source\PSoC4/cyfitter_cfg.c **** {
 132              		.loc 1 212 0
 133              		.cfi_startproc
 134              		@ args = 0, pretend = 0, frame = 0
 135              		@ frame_needed = 0, uses_anonymous_args = 0
 136 0000 70B5     		push	{r4, r5, r6, lr}
 137              		.cfi_def_cfa_offset 16
 138              		.cfi_offset 4, -16
 139              		.cfi_offset 5, -12
 140              		.cfi_offset 6, -8
 141              		.cfi_offset 14, -4
 213:Generated_Source\PSoC4/cyfitter_cfg.c **** 
 214:Generated_Source\PSoC4/cyfitter_cfg.c **** 	/* Set Flash Cycles based on max possible frequency in case a glitch occurs during ClockSetup(). *
 215:Generated_Source\PSoC4/cyfitter_cfg.c **** 	CY_SET_REG32((void CYXDATA *)(CYREG_CPUSS_FLASH_CTL), (0x0012u));
 142              		.loc 1 215 0
 143 0002 1222     		movs	r2, #18
 144 0004 284B     		ldr	r3, .L8
 145 0006 1A60     		str	r2, [r3]
 216:Generated_Source\PSoC4/cyfitter_cfg.c **** 	/* Setup and trim IMO based on desired frequency. */
 217:Generated_Source\PSoC4/cyfitter_cfg.c **** 	CySysClkWriteImoFreq(48u);
 146              		.loc 1 217 0
 147 0008 3020     		movs	r0, #48
 148 000a FFF7FEFF 		bl	CySysClkWriteImoFreq
 149              	.LVL15:
 218:Generated_Source\PSoC4/cyfitter_cfg.c **** 	/* CYDEV_WDT_CONFIG Starting address: CYDEV_WDT_CONFIG */
 219:Generated_Source\PSoC4/cyfitter_cfg.c **** 	CY_SET_REG32((void *)(CYREG_WDT_CONFIG), 0x40000000u);
 150              		.loc 1 219 0
 151 000e 274C     		ldr	r4, .L8+4
 152 0010 8025     		movs	r5, #128
 153 0012 ED05     		lsls	r5, r5, #23
 154 0014 2560     		str	r5, [r4]
 220:Generated_Source\PSoC4/cyfitter_cfg.c **** 
 221:Generated_Source\PSoC4/cyfitter_cfg.c **** 
 222:Generated_Source\PSoC4/cyfitter_cfg.c **** 	/* Setup phase aligned clocks */
 223:Generated_Source\PSoC4/cyfitter_cfg.c **** 	CY_SET_REG32((void *)CYREG_PERI_DIV_16_CTL0, 0x00000000u);
 155              		.loc 1 223 0
 156 0016 0022     		movs	r2, #0
 157 0018 254B     		ldr	r3, .L8+8
 158 001a 1A60     		str	r2, [r3]
 224:Generated_Source\PSoC4/cyfitter_cfg.c **** 	CY_SET_REG32((void *)CYREG_PERI_DIV_CMD, 0x8000FF40u);
 159              		.loc 1 224 0
 160 001c 254B     		ldr	r3, .L8+12
 161 001e 264A     		ldr	r2, .L8+16
 162 0020 1A60     		str	r2, [r3]
 225:Generated_Source\PSoC4/cyfitter_cfg.c **** 	CY_SET_REG32((void *)CYREG_PERI_DIV_16_CTL2, 0x00000100u);
 163              		.loc 1 225 0
 164 0022 8022     		movs	r2, #128
 165 0024 5200     		lsls	r2, r2, #1
 166 0026 2549     		ldr	r1, .L8+20
 167 0028 0A60     		str	r2, [r1]
 226:Generated_Source\PSoC4/cyfitter_cfg.c **** 	CY_SET_REG32((void *)CYREG_PERI_DIV_CMD, 0x8000FF42u);
ARM GAS  C:\Users\austc\AppData\Local\Temp\ccPHGH8e.s 			page 8


 168              		.loc 1 226 0
 169 002a 2549     		ldr	r1, .L8+24
 170 002c 1960     		str	r1, [r3]
 227:Generated_Source\PSoC4/cyfitter_cfg.c **** 	CY_SET_REG32((void *)CYREG_PERI_DIV_24_5_CTL, 0x061A7F00u);
 171              		.loc 1 227 0
 172 002e 2548     		ldr	r0, .L8+28
 173 0030 2549     		ldr	r1, .L8+32
 174 0032 0860     		str	r0, [r1]
 228:Generated_Source\PSoC4/cyfitter_cfg.c **** 	CY_SET_REG32((void *)CYREG_PERI_DIV_CMD, 0x8000FFC0u);
 175              		.loc 1 228 0
 176 0034 2549     		ldr	r1, .L8+36
 177 0036 1960     		str	r1, [r3]
 229:Generated_Source\PSoC4/cyfitter_cfg.c **** 	CY_SET_REG32((void *)CYREG_PERI_DIV_16_CTL1, 0x00000100u);
 178              		.loc 1 229 0
 179 0038 2549     		ldr	r1, .L8+40
 180 003a 0A60     		str	r2, [r1]
 230:Generated_Source\PSoC4/cyfitter_cfg.c **** 	CY_SET_REG32((void *)CYREG_PERI_DIV_CMD, 0x8000FF41u);
 181              		.loc 1 230 0
 182 003c 254A     		ldr	r2, .L8+44
 183 003e 1A60     		str	r2, [r3]
 231:Generated_Source\PSoC4/cyfitter_cfg.c **** 	CY_SET_REG32((void *)CYREG_PERI_DIV_16_CTL3, 0x00000300u);
 184              		.loc 1 231 0
 185 0040 C021     		movs	r1, #192
 186 0042 8900     		lsls	r1, r1, #2
 187 0044 244A     		ldr	r2, .L8+48
 188 0046 1160     		str	r1, [r2]
 232:Generated_Source\PSoC4/cyfitter_cfg.c **** 	CY_SET_REG32((void *)CYREG_PERI_DIV_CMD, 0x8000FF43u);
 189              		.loc 1 232 0
 190 0048 244A     		ldr	r2, .L8+52
 191 004a 1A60     		str	r2, [r3]
 233:Generated_Source\PSoC4/cyfitter_cfg.c **** 	CY_SET_REG32((void *)CYREG_PERI_DIV_16_CTL4, 0x00000E00u);
 192              		.loc 1 233 0
 193 004c E021     		movs	r1, #224
 194 004e 0901     		lsls	r1, r1, #4
 195 0050 234A     		ldr	r2, .L8+56
 196 0052 1160     		str	r1, [r2]
 234:Generated_Source\PSoC4/cyfitter_cfg.c **** 	CY_SET_REG32((void *)CYREG_PERI_DIV_CMD, 0x8000FF44u);
 197              		.loc 1 234 0
 198 0054 234A     		ldr	r2, .L8+60
 199 0056 1A60     		str	r2, [r3]
 235:Generated_Source\PSoC4/cyfitter_cfg.c **** 	CY_SET_REG32((void *)CYREG_PERI_DIV_16_CTL5, 0x00001C00u);
 200              		.loc 1 235 0
 201 0058 E021     		movs	r1, #224
 202 005a 4901     		lsls	r1, r1, #5
 203 005c 224A     		ldr	r2, .L8+64
 204 005e 1160     		str	r1, [r2]
 236:Generated_Source\PSoC4/cyfitter_cfg.c **** 	CY_SET_REG32((void *)CYREG_PERI_DIV_CMD, 0x8000FF45u);
 205              		.loc 1 236 0
 206 0060 224A     		ldr	r2, .L8+68
 207 0062 1A60     		str	r2, [r3]
 237:Generated_Source\PSoC4/cyfitter_cfg.c **** 
 238:Generated_Source\PSoC4/cyfitter_cfg.c **** 	/* CYDEV_CLK_IMO_CONFIG Starting address: CYDEV_CLK_IMO_CONFIG */
 239:Generated_Source\PSoC4/cyfitter_cfg.c **** 	CY_SET_REG32((void *)(CYREG_CLK_IMO_CONFIG), 0x82000000u);
 208              		.loc 1 239 0
 209 0064 8222     		movs	r2, #130
 210 0066 1206     		lsls	r2, r2, #24
 211 0068 214B     		ldr	r3, .L8+72
ARM GAS  C:\Users\austc\AppData\Local\Temp\ccPHGH8e.s 			page 9


 212 006a 1A60     		str	r2, [r3]
 240:Generated_Source\PSoC4/cyfitter_cfg.c **** 
 241:Generated_Source\PSoC4/cyfitter_cfg.c **** 	/* CYDEV_CLK_SELECT Starting address: CYDEV_CLK_SELECT */
 242:Generated_Source\PSoC4/cyfitter_cfg.c **** 	CY_SET_REG32((void *)(CYREG_CLK_SELECT), 0x00060249u);
 213              		.loc 1 242 0
 214 006c 214A     		ldr	r2, .L8+76
 215 006e 224B     		ldr	r3, .L8+80
 216 0070 1A60     		str	r2, [r3]
 243:Generated_Source\PSoC4/cyfitter_cfg.c **** 
 244:Generated_Source\PSoC4/cyfitter_cfg.c **** 	/* CYDEV_PERI_PCLK_CTL22 Starting address: CYDEV_PERI_PCLK_CTL22 */
 245:Generated_Source\PSoC4/cyfitter_cfg.c **** 	CY_SET_REG32((void *)(CYREG_PERI_PCLK_CTL22), 0x00000042u);
 217              		.loc 1 245 0
 218 0072 4222     		movs	r2, #66
 219 0074 214B     		ldr	r3, .L8+84
 220 0076 1A60     		str	r2, [r3]
 246:Generated_Source\PSoC4/cyfitter_cfg.c **** 
 247:Generated_Source\PSoC4/cyfitter_cfg.c **** 	/* CYDEV_PERI_PCLK_CTL21 Starting address: CYDEV_PERI_PCLK_CTL21 */
 248:Generated_Source\PSoC4/cyfitter_cfg.c **** 	CY_SET_REG32((void *)(CYREG_PERI_PCLK_CTL21), 0x000000C0u);
 221              		.loc 1 248 0
 222 0078 7E32     		adds	r2, r2, #126
 223 007a 214B     		ldr	r3, .L8+88
 224 007c 1A60     		str	r2, [r3]
 249:Generated_Source\PSoC4/cyfitter_cfg.c **** 
 250:Generated_Source\PSoC4/cyfitter_cfg.c **** 	/* CYDEV_PERI_PCLK_CTL20 Starting address: CYDEV_PERI_PCLK_CTL20 */
 251:Generated_Source\PSoC4/cyfitter_cfg.c **** 	CY_SET_REG32((void *)(CYREG_PERI_PCLK_CTL20), 0x00000041u);
 225              		.loc 1 251 0
 226 007e 7F3A     		subs	r2, r2, #127
 227 0080 204B     		ldr	r3, .L8+92
 228 0082 1A60     		str	r2, [r3]
 252:Generated_Source\PSoC4/cyfitter_cfg.c **** 
 253:Generated_Source\PSoC4/cyfitter_cfg.c **** 	/* CYDEV_PERI_PCLK_CTL11 Starting address: CYDEV_PERI_PCLK_CTL11 */
 254:Generated_Source\PSoC4/cyfitter_cfg.c **** 	CY_SET_REG32((void *)(CYREG_PERI_PCLK_CTL11), 0x00000043u);
 229              		.loc 1 254 0
 230 0084 0232     		adds	r2, r2, #2
 231 0086 204B     		ldr	r3, .L8+96
 232 0088 1A60     		str	r2, [r3]
 255:Generated_Source\PSoC4/cyfitter_cfg.c **** 
 256:Generated_Source\PSoC4/cyfitter_cfg.c **** 	/* CYDEV_PERI_PCLK_CTL10 Starting address: CYDEV_PERI_PCLK_CTL10 */
 257:Generated_Source\PSoC4/cyfitter_cfg.c **** 	CY_SET_REG32((void *)(CYREG_PERI_PCLK_CTL10), 0x00000044u);
 233              		.loc 1 257 0
 234 008a 0132     		adds	r2, r2, #1
 235 008c 1F4B     		ldr	r3, .L8+100
 236 008e 1A60     		str	r2, [r3]
 258:Generated_Source\PSoC4/cyfitter_cfg.c **** 
 259:Generated_Source\PSoC4/cyfitter_cfg.c **** 	/* CYDEV_PERI_PCLK_CTL5 Starting address: CYDEV_PERI_PCLK_CTL5 */
 260:Generated_Source\PSoC4/cyfitter_cfg.c **** 	CY_SET_REG32((void *)(CYREG_PERI_PCLK_CTL5), 0x00000045u);
 237              		.loc 1 260 0
 238 0090 0132     		adds	r2, r2, #1
 239 0092 1F4B     		ldr	r3, .L8+104
 240 0094 1A60     		str	r2, [r3]
 261:Generated_Source\PSoC4/cyfitter_cfg.c **** 
 262:Generated_Source\PSoC4/cyfitter_cfg.c **** 	(void)CyIntSetVector(8u, &CySysWdtIsr);
 241              		.loc 1 262 0
 242 0096 1F49     		ldr	r1, .L8+108
 243 0098 0820     		movs	r0, #8
 244 009a FFF7FEFF 		bl	CyIntSetVector
 245              	.LVL16:
ARM GAS  C:\Users\austc\AppData\Local\Temp\ccPHGH8e.s 			page 10


 263:Generated_Source\PSoC4/cyfitter_cfg.c **** 	CyIntEnable(8u);
 246              		.loc 1 263 0
 247 009e 0820     		movs	r0, #8
 248 00a0 FFF7FEFF 		bl	CyIntEnable
 249              	.LVL17:
 264:Generated_Source\PSoC4/cyfitter_cfg.c **** 	CY_SET_REG32((void *)(CYREG_WDT_CONFIG), 0x40000000u);
 250              		.loc 1 264 0
 251 00a4 2560     		str	r5, [r4]
 265:Generated_Source\PSoC4/cyfitter_cfg.c **** }
 252              		.loc 1 265 0
 253              		@ sp needed
 254 00a6 70BD     		pop	{r4, r5, r6, pc}
 255              	.L9:
 256              		.align	2
 257              	.L8:
 258 00a8 30001040 		.word	1074790448
 259 00ac 0C020B40 		.word	1074463244
 260 00b0 00030140 		.word	1073808128
 261 00b4 00000140 		.word	1073807360
 262 00b8 40FF0080 		.word	-2147418304
 263 00bc 08030140 		.word	1073808136
 264 00c0 42FF0080 		.word	-2147418302
 265 00c4 007F1A06 		.word	102399744
 266 00c8 00050140 		.word	1073808640
 267 00cc C0FF0080 		.word	-2147418176
 268 00d0 04030140 		.word	1073808132
 269 00d4 41FF0080 		.word	-2147418303
 270 00d8 0C030140 		.word	1073808140
 271 00dc 43FF0080 		.word	-2147418301
 272 00e0 10030140 		.word	1073808144
 273 00e4 44FF0080 		.word	-2147418300
 274 00e8 14030140 		.word	1073808148
 275 00ec 45FF0080 		.word	-2147418299
 276 00f0 08010B40 		.word	1074462984
 277 00f4 49020600 		.word	393801
 278 00f8 00010B40 		.word	1074462976
 279 00fc 58010140 		.word	1073807704
 280 0100 54010140 		.word	1073807700
 281 0104 50010140 		.word	1073807696
 282 0108 2C010140 		.word	1073807660
 283 010c 28010140 		.word	1073807656
 284 0110 14010140 		.word	1073807636
 285 0114 00000000 		.word	CySysWdtIsr
 286              		.cfi_endproc
 287              	.LFE38:
 288              		.size	ClockSetup, .-ClockSetup
 289              		.section	.text.SetAnalogRoutingPumps,"ax",%progbits
 290              		.align	2
 291              		.global	SetAnalogRoutingPumps
 292              		.code	16
 293              		.thumb_func
 294              		.type	SetAnalogRoutingPumps, %function
 295              	SetAnalogRoutingPumps:
 296              	.LFB40:
 266:Generated_Source\PSoC4/cyfitter_cfg.c **** 
 267:Generated_Source\PSoC4/cyfitter_cfg.c **** 
 268:Generated_Source\PSoC4/cyfitter_cfg.c **** /* Analog API Functions */
ARM GAS  C:\Users\austc\AppData\Local\Temp\ccPHGH8e.s 			page 11


 269:Generated_Source\PSoC4/cyfitter_cfg.c **** 
 270:Generated_Source\PSoC4/cyfitter_cfg.c **** 
 271:Generated_Source\PSoC4/cyfitter_cfg.c **** /*******************************************************************************
 272:Generated_Source\PSoC4/cyfitter_cfg.c **** * Function Name: AnalogSetDefault
 273:Generated_Source\PSoC4/cyfitter_cfg.c **** ********************************************************************************
 274:Generated_Source\PSoC4/cyfitter_cfg.c **** *
 275:Generated_Source\PSoC4/cyfitter_cfg.c **** * Summary:
 276:Generated_Source\PSoC4/cyfitter_cfg.c **** *  Sets up the analog portions of the chip to default values based on chip
 277:Generated_Source\PSoC4/cyfitter_cfg.c **** *  configuration options from the project.
 278:Generated_Source\PSoC4/cyfitter_cfg.c **** *
 279:Generated_Source\PSoC4/cyfitter_cfg.c **** * Parameters:
 280:Generated_Source\PSoC4/cyfitter_cfg.c **** *  void
 281:Generated_Source\PSoC4/cyfitter_cfg.c **** *
 282:Generated_Source\PSoC4/cyfitter_cfg.c **** * Return:
 283:Generated_Source\PSoC4/cyfitter_cfg.c **** *  void
 284:Generated_Source\PSoC4/cyfitter_cfg.c **** *
 285:Generated_Source\PSoC4/cyfitter_cfg.c **** *******************************************************************************/
 286:Generated_Source\PSoC4/cyfitter_cfg.c **** static void AnalogSetDefault(void);
 287:Generated_Source\PSoC4/cyfitter_cfg.c **** static void AnalogSetDefault(void)
 288:Generated_Source\PSoC4/cyfitter_cfg.c **** {
 289:Generated_Source\PSoC4/cyfitter_cfg.c **** 	CY_SET_XTND_REG32((void CYFAR *)CYREG_CTBM0_DFT_CTRL, 0x00000003u);
 290:Generated_Source\PSoC4/cyfitter_cfg.c **** 	CY_SET_XTND_REG32((void CYFAR *)CYREG_CTBM1_DFT_CTRL, 0x00000003u);
 291:Generated_Source\PSoC4/cyfitter_cfg.c **** 	CY_SET_XTND_REG32((void CYFAR *)CYREG_SAR_CTRL, 0x80000000u);
 292:Generated_Source\PSoC4/cyfitter_cfg.c **** 	CY_SET_XTND_REG32((void CYFAR *)CYREG_SAR_MUX_SWITCH0, 0x00000001u);
 293:Generated_Source\PSoC4/cyfitter_cfg.c **** 	CY_SET_XTND_REG32((void CYFAR *)CYREG_PASS_DSAB_DSAB_CTRL, 0x00000000u);
 294:Generated_Source\PSoC4/cyfitter_cfg.c **** 	SetAnalogRoutingPumps(1);
 295:Generated_Source\PSoC4/cyfitter_cfg.c **** }
 296:Generated_Source\PSoC4/cyfitter_cfg.c **** 
 297:Generated_Source\PSoC4/cyfitter_cfg.c **** 
 298:Generated_Source\PSoC4/cyfitter_cfg.c **** /*******************************************************************************
 299:Generated_Source\PSoC4/cyfitter_cfg.c **** * Function Name: SetAnalogRoutingPumps
 300:Generated_Source\PSoC4/cyfitter_cfg.c **** ********************************************************************************
 301:Generated_Source\PSoC4/cyfitter_cfg.c **** *
 302:Generated_Source\PSoC4/cyfitter_cfg.c **** * Summary:
 303:Generated_Source\PSoC4/cyfitter_cfg.c **** * Enables or disables the analog pumps feeding analog routing switches.
 304:Generated_Source\PSoC4/cyfitter_cfg.c **** * Intended to be called at startup, based on the Vdda system configuration;
 305:Generated_Source\PSoC4/cyfitter_cfg.c **** * may be called during operation when the user informs us that the Vdda voltage crossed the pump th
 306:Generated_Source\PSoC4/cyfitter_cfg.c **** *
 307:Generated_Source\PSoC4/cyfitter_cfg.c **** * Parameters:
 308:Generated_Source\PSoC4/cyfitter_cfg.c **** *  enabled - 1 to enable the pumps, 0 to disable the pumps
 309:Generated_Source\PSoC4/cyfitter_cfg.c **** *
 310:Generated_Source\PSoC4/cyfitter_cfg.c **** * Return:
 311:Generated_Source\PSoC4/cyfitter_cfg.c **** *  void
 312:Generated_Source\PSoC4/cyfitter_cfg.c **** *
 313:Generated_Source\PSoC4/cyfitter_cfg.c **** *******************************************************************************/
 314:Generated_Source\PSoC4/cyfitter_cfg.c **** void SetAnalogRoutingPumps(uint8 enabled)
 315:Generated_Source\PSoC4/cyfitter_cfg.c **** {
 297              		.loc 1 315 0
 298              		.cfi_startproc
 299              		@ args = 0, pretend = 0, frame = 0
 300              		@ frame_needed = 0, uses_anonymous_args = 0
 301              		@ link register save eliminated.
 302              	.LVL18:
 316:Generated_Source\PSoC4/cyfitter_cfg.c **** 	uint32 regValue = CY_GET_XTND_REG32((void *)(CYREG_SAR_PUMP_CTRL));
 303              		.loc 1 316 0
 304 0000 064B     		ldr	r3, .L13
 305 0002 1B68     		ldr	r3, [r3]
ARM GAS  C:\Users\austc\AppData\Local\Temp\ccPHGH8e.s 			page 12


 306              	.LVL19:
 317:Generated_Source\PSoC4/cyfitter_cfg.c **** 	if (enabled != 0u)
 307              		.loc 1 317 0
 308 0004 0028     		cmp	r0, #0
 309 0006 03D0     		beq	.L11
 318:Generated_Source\PSoC4/cyfitter_cfg.c **** 	{
 319:Generated_Source\PSoC4/cyfitter_cfg.c **** 		regValue |= 0x80000000u;
 310              		.loc 1 319 0
 311 0008 8022     		movs	r2, #128
 312 000a 1206     		lsls	r2, r2, #24
 313 000c 1343     		orrs	r3, r2
 314              	.LVL20:
 315 000e 01E0     		b	.L12
 316              	.L11:
 320:Generated_Source\PSoC4/cyfitter_cfg.c **** 	}
 321:Generated_Source\PSoC4/cyfitter_cfg.c **** 	else
 322:Generated_Source\PSoC4/cyfitter_cfg.c **** 	{
 323:Generated_Source\PSoC4/cyfitter_cfg.c **** 		regValue &= ~0x80000000u;
 317              		.loc 1 323 0
 318 0010 5B00     		lsls	r3, r3, #1
 319              	.LVL21:
 320 0012 5B08     		lsrs	r3, r3, #1
 321              	.LVL22:
 322              	.L12:
 324:Generated_Source\PSoC4/cyfitter_cfg.c **** 	}
 325:Generated_Source\PSoC4/cyfitter_cfg.c **** 	CY_SET_XTND_REG32((void *)(CYREG_SAR_PUMP_CTRL), regValue);
 323              		.loc 1 325 0
 324 0014 014A     		ldr	r2, .L13
 325 0016 1360     		str	r3, [r2]
 326:Generated_Source\PSoC4/cyfitter_cfg.c **** }
 326              		.loc 1 326 0
 327              		@ sp needed
 328 0018 7047     		bx	lr
 329              	.L14:
 330 001a C046     		.align	2
 331              	.L13:
 332 001c 80033A40 		.word	1077543808
 333              		.cfi_endproc
 334              	.LFE40:
 335              		.size	SetAnalogRoutingPumps, .-SetAnalogRoutingPumps
 336              		.section	.text.AnalogSetDefault,"ax",%progbits
 337              		.align	2
 338              		.code	16
 339              		.thumb_func
 340              		.type	AnalogSetDefault, %function
 341              	AnalogSetDefault:
 342              	.LFB39:
 288:Generated_Source\PSoC4/cyfitter_cfg.c **** 	CY_SET_XTND_REG32((void CYFAR *)CYREG_CTBM0_DFT_CTRL, 0x00000003u);
 343              		.loc 1 288 0
 344              		.cfi_startproc
 345              		@ args = 0, pretend = 0, frame = 0
 346              		@ frame_needed = 0, uses_anonymous_args = 0
 347 0000 10B5     		push	{r4, lr}
 348              		.cfi_def_cfa_offset 8
 349              		.cfi_offset 4, -8
 350              		.cfi_offset 14, -4
 289:Generated_Source\PSoC4/cyfitter_cfg.c **** 	CY_SET_XTND_REG32((void CYFAR *)CYREG_CTBM1_DFT_CTRL, 0x00000003u);
ARM GAS  C:\Users\austc\AppData\Local\Temp\ccPHGH8e.s 			page 13


 351              		.loc 1 289 0
 352 0002 0323     		movs	r3, #3
 353 0004 084A     		ldr	r2, .L16
 354 0006 1360     		str	r3, [r2]
 290:Generated_Source\PSoC4/cyfitter_cfg.c **** 	CY_SET_XTND_REG32((void CYFAR *)CYREG_SAR_CTRL, 0x80000000u);
 355              		.loc 1 290 0
 356 0008 084A     		ldr	r2, .L16+4
 357 000a 1360     		str	r3, [r2]
 291:Generated_Source\PSoC4/cyfitter_cfg.c **** 	CY_SET_XTND_REG32((void CYFAR *)CYREG_SAR_MUX_SWITCH0, 0x00000001u);
 358              		.loc 1 291 0
 359 000c 8022     		movs	r2, #128
 360 000e 1206     		lsls	r2, r2, #24
 361 0010 074B     		ldr	r3, .L16+8
 362 0012 1A60     		str	r2, [r3]
 292:Generated_Source\PSoC4/cyfitter_cfg.c **** 	CY_SET_XTND_REG32((void CYFAR *)CYREG_PASS_DSAB_DSAB_CTRL, 0x00000000u);
 363              		.loc 1 292 0
 364 0014 0122     		movs	r2, #1
 365 0016 074B     		ldr	r3, .L16+12
 366 0018 1A60     		str	r2, [r3]
 293:Generated_Source\PSoC4/cyfitter_cfg.c **** 	SetAnalogRoutingPumps(1);
 367              		.loc 1 293 0
 368 001a 0022     		movs	r2, #0
 369 001c 064B     		ldr	r3, .L16+16
 370 001e 1A60     		str	r2, [r3]
 294:Generated_Source\PSoC4/cyfitter_cfg.c **** }
 371              		.loc 1 294 0
 372 0020 0120     		movs	r0, #1
 373 0022 FFF7FEFF 		bl	SetAnalogRoutingPumps
 374              	.LVL23:
 295:Generated_Source\PSoC4/cyfitter_cfg.c **** 
 375              		.loc 1 295 0
 376              		@ sp needed
 377 0026 10BD     		pop	{r4, pc}
 378              	.L17:
 379              		.align	2
 380              	.L16:
 381 0028 30003040 		.word	1076887600
 382 002c 30003140 		.word	1076953136
 383 0030 00003A40 		.word	1077542912
 384 0034 00033A40 		.word	1077543680
 385 0038 000E3F40 		.word	1077874176
 386              		.cfi_endproc
 387              	.LFE39:
 388              		.size	AnalogSetDefault, .-AnalogSetDefault
 389              		.section	.psocinit
 390              		.align	2
 391              		.global	cyfitter_cfg
 392              		.code	16
 393              		.thumb_func
 394              		.type	cyfitter_cfg, %function
 395              	cyfitter_cfg:
 396              	.LFB41:
 327:Generated_Source\PSoC4/cyfitter_cfg.c **** 
 328:Generated_Source\PSoC4/cyfitter_cfg.c **** 
 329:Generated_Source\PSoC4/cyfitter_cfg.c **** 
 330:Generated_Source\PSoC4/cyfitter_cfg.c **** 
 331:Generated_Source\PSoC4/cyfitter_cfg.c **** /*******************************************************************************
ARM GAS  C:\Users\austc\AppData\Local\Temp\ccPHGH8e.s 			page 14


 332:Generated_Source\PSoC4/cyfitter_cfg.c **** * Function Name: cyfitter_cfg
 333:Generated_Source\PSoC4/cyfitter_cfg.c **** ********************************************************************************
 334:Generated_Source\PSoC4/cyfitter_cfg.c **** * Summary:
 335:Generated_Source\PSoC4/cyfitter_cfg.c **** *  This function is called by the start-up code for the selected device. It
 336:Generated_Source\PSoC4/cyfitter_cfg.c **** *  performs all of the necessary device configuration based on the design
 337:Generated_Source\PSoC4/cyfitter_cfg.c **** *  settings.  This includes settings from the Design Wide Resources (DWR) such
 338:Generated_Source\PSoC4/cyfitter_cfg.c **** *  as Clocks and Pins as well as any component configuration that is necessary.
 339:Generated_Source\PSoC4/cyfitter_cfg.c **** *
 340:Generated_Source\PSoC4/cyfitter_cfg.c **** * Parameters:
 341:Generated_Source\PSoC4/cyfitter_cfg.c **** *   void
 342:Generated_Source\PSoC4/cyfitter_cfg.c **** *
 343:Generated_Source\PSoC4/cyfitter_cfg.c **** * Return:
 344:Generated_Source\PSoC4/cyfitter_cfg.c **** *   void
 345:Generated_Source\PSoC4/cyfitter_cfg.c **** *
 346:Generated_Source\PSoC4/cyfitter_cfg.c **** *******************************************************************************/
 347:Generated_Source\PSoC4/cyfitter_cfg.c **** CY_CFG_SECTION
 348:Generated_Source\PSoC4/cyfitter_cfg.c **** void cyfitter_cfg(void)
 349:Generated_Source\PSoC4/cyfitter_cfg.c **** {
 397              		.loc 1 349 0
 398              		.cfi_startproc
 399              		@ args = 0, pretend = 0, frame = 0
 400              		@ frame_needed = 0, uses_anonymous_args = 0
 401 0118 10B5     		push	{r4, lr}
 402              		.cfi_def_cfa_offset 8
 403              		.cfi_offset 4, -8
 404              		.cfi_offset 14, -4
 350:Generated_Source\PSoC4/cyfitter_cfg.c **** 	/* Disable interrupts by default. Let user enable if/when they want. */
 351:Generated_Source\PSoC4/cyfitter_cfg.c **** 	CyGlobalIntDisable;
 405              		.loc 1 351 0
 406              		.syntax divided
 407              	@ 351 "Generated_Source\PSoC4\cyfitter_cfg.c" 1
 408 011a 72B6     		CPSID   i
 409              	@ 0 "" 2
 352:Generated_Source\PSoC4/cyfitter_cfg.c **** 
 353:Generated_Source\PSoC4/cyfitter_cfg.c **** 	/* Enable the clock in the interrupt controller for the routed interrupts */
 354:Generated_Source\PSoC4/cyfitter_cfg.c **** 	CY_SET_REG8((void *)CYREG_UDB_UDB_INT_CLK_CTL, 0x01u);
 410              		.loc 1 354 0
 411              		.thumb
 412              		.syntax unified
 413 011c 0122     		movs	r2, #1
 414 011e 494B     		ldr	r3, .L21
 415 0120 1A70     		strb	r2, [r3]
 416              	.LVL24:
 417              	.LBB3:
 355:Generated_Source\PSoC4/cyfitter_cfg.c **** 	{
 356:Generated_Source\PSoC4/cyfitter_cfg.c **** 		static const uint32 CYCODE cy_cfg_addr_table[] = {
 357:Generated_Source\PSoC4/cyfitter_cfg.c **** 			0x400F0008u, /* Base address: 0x400F0000 Count: 8 */
 358:Generated_Source\PSoC4/cyfitter_cfg.c **** 			0x400F303Du, /* Base address: 0x400F3000 Count: 61 */
 359:Generated_Source\PSoC4/cyfitter_cfg.c **** 			0x400F3131u, /* Base address: 0x400F3100 Count: 49 */
 360:Generated_Source\PSoC4/cyfitter_cfg.c **** 			0x400F3261u, /* Base address: 0x400F3200 Count: 97 */
 361:Generated_Source\PSoC4/cyfitter_cfg.c **** 			0x400F334Du, /* Base address: 0x400F3300 Count: 77 */
 362:Generated_Source\PSoC4/cyfitter_cfg.c **** 			0x400F3460u, /* Base address: 0x400F3400 Count: 96 */
 363:Generated_Source\PSoC4/cyfitter_cfg.c **** 			0x400F3548u, /* Base address: 0x400F3500 Count: 72 */
 364:Generated_Source\PSoC4/cyfitter_cfg.c **** 			0x400F366Au, /* Base address: 0x400F3600 Count: 106 */
 365:Generated_Source\PSoC4/cyfitter_cfg.c **** 			0x400F3745u, /* Base address: 0x400F3700 Count: 69 */
 366:Generated_Source\PSoC4/cyfitter_cfg.c **** 			0x400F400Bu, /* Base address: 0x400F4000 Count: 11 */
 367:Generated_Source\PSoC4/cyfitter_cfg.c **** 			0x400F410Cu, /* Base address: 0x400F4100 Count: 12 */
ARM GAS  C:\Users\austc\AppData\Local\Temp\ccPHGH8e.s 			page 15


 368:Generated_Source\PSoC4/cyfitter_cfg.c **** 			0x400F4204u, /* Base address: 0x400F4200 Count: 4 */
 369:Generated_Source\PSoC4/cyfitter_cfg.c **** 			0x400F4306u, /* Base address: 0x400F4300 Count: 6 */
 370:Generated_Source\PSoC4/cyfitter_cfg.c **** 			0x400F4508u, /* Base address: 0x400F4500 Count: 8 */
 371:Generated_Source\PSoC4/cyfitter_cfg.c **** 			0x400F4603u, /* Base address: 0x400F4600 Count: 3 */
 372:Generated_Source\PSoC4/cyfitter_cfg.c **** 			0x400F6004u, /* Base address: 0x400F6000 Count: 4 */
 373:Generated_Source\PSoC4/cyfitter_cfg.c **** 		};
 374:Generated_Source\PSoC4/cyfitter_cfg.c **** 
 375:Generated_Source\PSoC4/cyfitter_cfg.c **** 		static const cy_cfg_addrvalue_t CYCODE cy_cfg_data_table[] = {
 376:Generated_Source\PSoC4/cyfitter_cfg.c **** 			{0x05u, 0x18u},
 377:Generated_Source\PSoC4/cyfitter_cfg.c **** 			{0x15u, 0x18u},
 378:Generated_Source\PSoC4/cyfitter_cfg.c **** 			{0x25u, 0x14u},
 379:Generated_Source\PSoC4/cyfitter_cfg.c **** 			{0x35u, 0x0Cu},
 380:Generated_Source\PSoC4/cyfitter_cfg.c **** 			{0x80u, 0x0Fu},
 381:Generated_Source\PSoC4/cyfitter_cfg.c **** 			{0x81u, 0x03u},
 382:Generated_Source\PSoC4/cyfitter_cfg.c **** 			{0x84u, 0x6Fu},
 383:Generated_Source\PSoC4/cyfitter_cfg.c **** 			{0x87u, 0x0Du},
 384:Generated_Source\PSoC4/cyfitter_cfg.c **** 			{0x01u, 0x01u},
 385:Generated_Source\PSoC4/cyfitter_cfg.c **** 			{0x05u, 0x01u},
 386:Generated_Source\PSoC4/cyfitter_cfg.c **** 			{0x06u, 0x01u},
 387:Generated_Source\PSoC4/cyfitter_cfg.c **** 			{0x09u, 0x01u},
 388:Generated_Source\PSoC4/cyfitter_cfg.c **** 			{0x0Au, 0x02u},
 389:Generated_Source\PSoC4/cyfitter_cfg.c **** 			{0x11u, 0x01u},
 390:Generated_Source\PSoC4/cyfitter_cfg.c **** 			{0x17u, 0x02u},
 391:Generated_Source\PSoC4/cyfitter_cfg.c **** 			{0x1Fu, 0x01u},
 392:Generated_Source\PSoC4/cyfitter_cfg.c **** 			{0x2Fu, 0x02u},
 393:Generated_Source\PSoC4/cyfitter_cfg.c **** 			{0x30u, 0x01u},
 394:Generated_Source\PSoC4/cyfitter_cfg.c **** 			{0x31u, 0x01u},
 395:Generated_Source\PSoC4/cyfitter_cfg.c **** 			{0x34u, 0x02u},
 396:Generated_Source\PSoC4/cyfitter_cfg.c **** 			{0x37u, 0x02u},
 397:Generated_Source\PSoC4/cyfitter_cfg.c **** 			{0x3Fu, 0x41u},
 398:Generated_Source\PSoC4/cyfitter_cfg.c **** 			{0x54u, 0x0Fu},
 399:Generated_Source\PSoC4/cyfitter_cfg.c **** 			{0x58u, 0x04u},
 400:Generated_Source\PSoC4/cyfitter_cfg.c **** 			{0x59u, 0x04u},
 401:Generated_Source\PSoC4/cyfitter_cfg.c **** 			{0x5Bu, 0x04u},
 402:Generated_Source\PSoC4/cyfitter_cfg.c **** 			{0x5Cu, 0x01u},
 403:Generated_Source\PSoC4/cyfitter_cfg.c **** 			{0x5Du, 0x10u},
 404:Generated_Source\PSoC4/cyfitter_cfg.c **** 			{0x5Fu, 0x01u},
 405:Generated_Source\PSoC4/cyfitter_cfg.c **** 			{0x82u, 0x09u},
 406:Generated_Source\PSoC4/cyfitter_cfg.c **** 			{0x86u, 0x09u},
 407:Generated_Source\PSoC4/cyfitter_cfg.c **** 			{0x88u, 0xA4u},
 408:Generated_Source\PSoC4/cyfitter_cfg.c **** 			{0x8Au, 0x53u},
 409:Generated_Source\PSoC4/cyfitter_cfg.c **** 			{0x8Cu, 0x0Cu},
 410:Generated_Source\PSoC4/cyfitter_cfg.c **** 			{0x9Au, 0x89u},
 411:Generated_Source\PSoC4/cyfitter_cfg.c **** 			{0x9Cu, 0x6Du},
 412:Generated_Source\PSoC4/cyfitter_cfg.c **** 			{0x9Eu, 0x12u},
 413:Generated_Source\PSoC4/cyfitter_cfg.c **** 			{0xA2u, 0x49u},
 414:Generated_Source\PSoC4/cyfitter_cfg.c **** 			{0xA4u, 0x02u},
 415:Generated_Source\PSoC4/cyfitter_cfg.c **** 			{0xA5u, 0x01u},
 416:Generated_Source\PSoC4/cyfitter_cfg.c **** 			{0xA6u, 0x10u},
 417:Generated_Source\PSoC4/cyfitter_cfg.c **** 			{0xA9u, 0x02u},
 418:Generated_Source\PSoC4/cyfitter_cfg.c **** 			{0xAEu, 0x0Cu},
 419:Generated_Source\PSoC4/cyfitter_cfg.c **** 			{0xB1u, 0x02u},
 420:Generated_Source\PSoC4/cyfitter_cfg.c **** 			{0xB2u, 0x38u},
 421:Generated_Source\PSoC4/cyfitter_cfg.c **** 			{0xB4u, 0xC0u},
 422:Generated_Source\PSoC4/cyfitter_cfg.c **** 			{0xB5u, 0x01u},
 423:Generated_Source\PSoC4/cyfitter_cfg.c **** 			{0xB6u, 0x07u},
 424:Generated_Source\PSoC4/cyfitter_cfg.c **** 			{0xB8u, 0x08u},
ARM GAS  C:\Users\austc\AppData\Local\Temp\ccPHGH8e.s 			page 16


 425:Generated_Source\PSoC4/cyfitter_cfg.c **** 			{0xBAu, 0x20u},
 426:Generated_Source\PSoC4/cyfitter_cfg.c **** 			{0xC0u, 0x32u},
 427:Generated_Source\PSoC4/cyfitter_cfg.c **** 			{0xC5u, 0xC0u},
 428:Generated_Source\PSoC4/cyfitter_cfg.c **** 			{0xC6u, 0xE0u},
 429:Generated_Source\PSoC4/cyfitter_cfg.c **** 			{0xC7u, 0x0Bu},
 430:Generated_Source\PSoC4/cyfitter_cfg.c **** 			{0xC8u, 0x1Au},
 431:Generated_Source\PSoC4/cyfitter_cfg.c **** 			{0xC9u, 0xFFu},
 432:Generated_Source\PSoC4/cyfitter_cfg.c **** 			{0xCAu, 0xFFu},
 433:Generated_Source\PSoC4/cyfitter_cfg.c **** 			{0xCBu, 0xFFu},
 434:Generated_Source\PSoC4/cyfitter_cfg.c **** 			{0xD6u, 0x04u},
 435:Generated_Source\PSoC4/cyfitter_cfg.c **** 			{0xD8u, 0x04u},
 436:Generated_Source\PSoC4/cyfitter_cfg.c **** 			{0xD9u, 0x04u},
 437:Generated_Source\PSoC4/cyfitter_cfg.c **** 			{0xDAu, 0x04u},
 438:Generated_Source\PSoC4/cyfitter_cfg.c **** 			{0xDBu, 0x04u},
 439:Generated_Source\PSoC4/cyfitter_cfg.c **** 			{0xDCu, 0x29u},
 440:Generated_Source\PSoC4/cyfitter_cfg.c **** 			{0xDDu, 0x09u},
 441:Generated_Source\PSoC4/cyfitter_cfg.c **** 			{0xDFu, 0x01u},
 442:Generated_Source\PSoC4/cyfitter_cfg.c **** 			{0xE2u, 0xC0u},
 443:Generated_Source\PSoC4/cyfitter_cfg.c **** 			{0xE4u, 0x40u},
 444:Generated_Source\PSoC4/cyfitter_cfg.c **** 			{0xE5u, 0x01u},
 445:Generated_Source\PSoC4/cyfitter_cfg.c **** 			{0x01u, 0x28u},
 446:Generated_Source\PSoC4/cyfitter_cfg.c **** 			{0x04u, 0x94u},
 447:Generated_Source\PSoC4/cyfitter_cfg.c **** 			{0x05u, 0x01u},
 448:Generated_Source\PSoC4/cyfitter_cfg.c **** 			{0x0Eu, 0x0Au},
 449:Generated_Source\PSoC4/cyfitter_cfg.c **** 			{0x15u, 0x40u},
 450:Generated_Source\PSoC4/cyfitter_cfg.c **** 			{0x16u, 0x40u},
 451:Generated_Source\PSoC4/cyfitter_cfg.c **** 			{0x17u, 0x08u},
 452:Generated_Source\PSoC4/cyfitter_cfg.c **** 			{0x19u, 0x02u},
 453:Generated_Source\PSoC4/cyfitter_cfg.c **** 			{0x1Au, 0x04u},
 454:Generated_Source\PSoC4/cyfitter_cfg.c **** 			{0x1Cu, 0x10u},
 455:Generated_Source\PSoC4/cyfitter_cfg.c **** 			{0x1Eu, 0x0Au},
 456:Generated_Source\PSoC4/cyfitter_cfg.c **** 			{0x1Fu, 0x40u},
 457:Generated_Source\PSoC4/cyfitter_cfg.c **** 			{0x21u, 0x01u},
 458:Generated_Source\PSoC4/cyfitter_cfg.c **** 			{0x22u, 0x40u},
 459:Generated_Source\PSoC4/cyfitter_cfg.c **** 			{0x24u, 0x40u},
 460:Generated_Source\PSoC4/cyfitter_cfg.c **** 			{0x26u, 0x10u},
 461:Generated_Source\PSoC4/cyfitter_cfg.c **** 			{0x2Au, 0x80u},
 462:Generated_Source\PSoC4/cyfitter_cfg.c **** 			{0x2Fu, 0x14u},
 463:Generated_Source\PSoC4/cyfitter_cfg.c **** 			{0x30u, 0x0Au},
 464:Generated_Source\PSoC4/cyfitter_cfg.c **** 			{0x31u, 0x80u},
 465:Generated_Source\PSoC4/cyfitter_cfg.c **** 			{0x39u, 0x15u},
 466:Generated_Source\PSoC4/cyfitter_cfg.c **** 			{0x45u, 0x08u},
 467:Generated_Source\PSoC4/cyfitter_cfg.c **** 			{0x47u, 0x10u},
 468:Generated_Source\PSoC4/cyfitter_cfg.c **** 			{0x4Cu, 0x40u},
 469:Generated_Source\PSoC4/cyfitter_cfg.c **** 			{0x4Fu, 0x02u},
 470:Generated_Source\PSoC4/cyfitter_cfg.c **** 			{0x57u, 0x14u},
 471:Generated_Source\PSoC4/cyfitter_cfg.c **** 			{0x59u, 0x80u},
 472:Generated_Source\PSoC4/cyfitter_cfg.c **** 			{0x5Au, 0x29u},
 473:Generated_Source\PSoC4/cyfitter_cfg.c **** 			{0x5Cu, 0x40u},
 474:Generated_Source\PSoC4/cyfitter_cfg.c **** 			{0x5Eu, 0x20u},
 475:Generated_Source\PSoC4/cyfitter_cfg.c **** 			{0x64u, 0x80u},
 476:Generated_Source\PSoC4/cyfitter_cfg.c **** 			{0x68u, 0x02u},
 477:Generated_Source\PSoC4/cyfitter_cfg.c **** 			{0x69u, 0x15u},
 478:Generated_Source\PSoC4/cyfitter_cfg.c **** 			{0x6Du, 0x40u},
 479:Generated_Source\PSoC4/cyfitter_cfg.c **** 			{0x6Fu, 0x81u},
 480:Generated_Source\PSoC4/cyfitter_cfg.c **** 			{0x76u, 0x02u},
 481:Generated_Source\PSoC4/cyfitter_cfg.c **** 			{0x77u, 0x08u},
ARM GAS  C:\Users\austc\AppData\Local\Temp\ccPHGH8e.s 			page 17


 482:Generated_Source\PSoC4/cyfitter_cfg.c **** 			{0x85u, 0x40u},
 483:Generated_Source\PSoC4/cyfitter_cfg.c **** 			{0x8Cu, 0x80u},
 484:Generated_Source\PSoC4/cyfitter_cfg.c **** 			{0xC0u, 0xF6u},
 485:Generated_Source\PSoC4/cyfitter_cfg.c **** 			{0xC2u, 0xC0u},
 486:Generated_Source\PSoC4/cyfitter_cfg.c **** 			{0xC4u, 0xB0u},
 487:Generated_Source\PSoC4/cyfitter_cfg.c **** 			{0xCAu, 0x68u},
 488:Generated_Source\PSoC4/cyfitter_cfg.c **** 			{0xCCu, 0x0Bu},
 489:Generated_Source\PSoC4/cyfitter_cfg.c **** 			{0xCEu, 0x07u},
 490:Generated_Source\PSoC4/cyfitter_cfg.c **** 			{0xD0u, 0x60u},
 491:Generated_Source\PSoC4/cyfitter_cfg.c **** 			{0xD6u, 0x3Fu},
 492:Generated_Source\PSoC4/cyfitter_cfg.c **** 			{0xD8u, 0x80u},
 493:Generated_Source\PSoC4/cyfitter_cfg.c **** 			{0xE2u, 0x10u},
 494:Generated_Source\PSoC4/cyfitter_cfg.c **** 			{0x00u, 0x01u},
 495:Generated_Source\PSoC4/cyfitter_cfg.c **** 			{0x02u, 0x80u},
 496:Generated_Source\PSoC4/cyfitter_cfg.c **** 			{0x03u, 0x02u},
 497:Generated_Source\PSoC4/cyfitter_cfg.c **** 			{0x04u, 0x02u},
 498:Generated_Source\PSoC4/cyfitter_cfg.c **** 			{0x06u, 0x60u},
 499:Generated_Source\PSoC4/cyfitter_cfg.c **** 			{0x08u, 0xA0u},
 500:Generated_Source\PSoC4/cyfitter_cfg.c **** 			{0x0Au, 0x5Fu},
 501:Generated_Source\PSoC4/cyfitter_cfg.c **** 			{0x13u, 0x03u},
 502:Generated_Source\PSoC4/cyfitter_cfg.c **** 			{0x16u, 0x08u},
 503:Generated_Source\PSoC4/cyfitter_cfg.c **** 			{0x18u, 0x04u},
 504:Generated_Source\PSoC4/cyfitter_cfg.c **** 			{0x1Au, 0x50u},
 505:Generated_Source\PSoC4/cyfitter_cfg.c **** 			{0x1Cu, 0x57u},
 506:Generated_Source\PSoC4/cyfitter_cfg.c **** 			{0x1Eu, 0x08u},
 507:Generated_Source\PSoC4/cyfitter_cfg.c **** 			{0x1Fu, 0x02u},
 508:Generated_Source\PSoC4/cyfitter_cfg.c **** 			{0x22u, 0x57u},
 509:Generated_Source\PSoC4/cyfitter_cfg.c **** 			{0x23u, 0x01u},
 510:Generated_Source\PSoC4/cyfitter_cfg.c **** 			{0x2Fu, 0x01u},
 511:Generated_Source\PSoC4/cyfitter_cfg.c **** 			{0x30u, 0xC0u},
 512:Generated_Source\PSoC4/cyfitter_cfg.c **** 			{0x32u, 0x0Fu},
 513:Generated_Source\PSoC4/cyfitter_cfg.c **** 			{0x33u, 0x01u},
 514:Generated_Source\PSoC4/cyfitter_cfg.c **** 			{0x34u, 0x30u},
 515:Generated_Source\PSoC4/cyfitter_cfg.c **** 			{0x37u, 0x02u},
 516:Generated_Source\PSoC4/cyfitter_cfg.c **** 			{0x3Au, 0x22u},
 517:Generated_Source\PSoC4/cyfitter_cfg.c **** 			{0x3Fu, 0x44u},
 518:Generated_Source\PSoC4/cyfitter_cfg.c **** 			{0x40u, 0x56u},
 519:Generated_Source\PSoC4/cyfitter_cfg.c **** 			{0x49u, 0xFFu},
 520:Generated_Source\PSoC4/cyfitter_cfg.c **** 			{0x4Au, 0xFFu},
 521:Generated_Source\PSoC4/cyfitter_cfg.c **** 			{0x4Bu, 0xFFu},
 522:Generated_Source\PSoC4/cyfitter_cfg.c **** 			{0x4Fu, 0x01u},
 523:Generated_Source\PSoC4/cyfitter_cfg.c **** 			{0x50u, 0x18u},
 524:Generated_Source\PSoC4/cyfitter_cfg.c **** 			{0x58u, 0x04u},
 525:Generated_Source\PSoC4/cyfitter_cfg.c **** 			{0x59u, 0x04u},
 526:Generated_Source\PSoC4/cyfitter_cfg.c **** 			{0x5Au, 0x04u},
 527:Generated_Source\PSoC4/cyfitter_cfg.c **** 			{0x5Bu, 0x04u},
 528:Generated_Source\PSoC4/cyfitter_cfg.c **** 			{0x5Cu, 0x09u},
 529:Generated_Source\PSoC4/cyfitter_cfg.c **** 			{0x5Du, 0x03u},
 530:Generated_Source\PSoC4/cyfitter_cfg.c **** 			{0x5Fu, 0x01u},
 531:Generated_Source\PSoC4/cyfitter_cfg.c **** 			{0x60u, 0x40u},
 532:Generated_Source\PSoC4/cyfitter_cfg.c **** 			{0x62u, 0x40u},
 533:Generated_Source\PSoC4/cyfitter_cfg.c **** 			{0x64u, 0x40u},
 534:Generated_Source\PSoC4/cyfitter_cfg.c **** 			{0x65u, 0x40u},
 535:Generated_Source\PSoC4/cyfitter_cfg.c **** 			{0x66u, 0x80u},
 536:Generated_Source\PSoC4/cyfitter_cfg.c **** 			{0x68u, 0x80u},
 537:Generated_Source\PSoC4/cyfitter_cfg.c **** 			{0x6Au, 0x80u},
 538:Generated_Source\PSoC4/cyfitter_cfg.c **** 			{0x6Cu, 0x80u},
ARM GAS  C:\Users\austc\AppData\Local\Temp\ccPHGH8e.s 			page 18


 539:Generated_Source\PSoC4/cyfitter_cfg.c **** 			{0x6Eu, 0x80u},
 540:Generated_Source\PSoC4/cyfitter_cfg.c **** 			{0x81u, 0x02u},
 541:Generated_Source\PSoC4/cyfitter_cfg.c **** 			{0x85u, 0x3Cu},
 542:Generated_Source\PSoC4/cyfitter_cfg.c **** 			{0x89u, 0x0Cu},
 543:Generated_Source\PSoC4/cyfitter_cfg.c **** 			{0x8Bu, 0x30u},
 544:Generated_Source\PSoC4/cyfitter_cfg.c **** 			{0x8Eu, 0x01u},
 545:Generated_Source\PSoC4/cyfitter_cfg.c **** 			{0x8Fu, 0x01u},
 546:Generated_Source\PSoC4/cyfitter_cfg.c **** 			{0x95u, 0x1Cu},
 547:Generated_Source\PSoC4/cyfitter_cfg.c **** 			{0x98u, 0x04u},
 548:Generated_Source\PSoC4/cyfitter_cfg.c **** 			{0x99u, 0x28u},
 549:Generated_Source\PSoC4/cyfitter_cfg.c **** 			{0x9Au, 0x02u},
 550:Generated_Source\PSoC4/cyfitter_cfg.c **** 			{0x9Bu, 0x14u},
 551:Generated_Source\PSoC4/cyfitter_cfg.c **** 			{0x9Fu, 0x02u},
 552:Generated_Source\PSoC4/cyfitter_cfg.c **** 			{0xA1u, 0x14u},
 553:Generated_Source\PSoC4/cyfitter_cfg.c **** 			{0xA2u, 0x06u},
 554:Generated_Source\PSoC4/cyfitter_cfg.c **** 			{0xA3u, 0x28u},
 555:Generated_Source\PSoC4/cyfitter_cfg.c **** 			{0xA9u, 0x30u},
 556:Generated_Source\PSoC4/cyfitter_cfg.c **** 			{0xABu, 0x0Cu},
 557:Generated_Source\PSoC4/cyfitter_cfg.c **** 			{0xACu, 0x07u},
 558:Generated_Source\PSoC4/cyfitter_cfg.c **** 			{0xB0u, 0x01u},
 559:Generated_Source\PSoC4/cyfitter_cfg.c **** 			{0xB1u, 0x01u},
 560:Generated_Source\PSoC4/cyfitter_cfg.c **** 			{0xB2u, 0x04u},
 561:Generated_Source\PSoC4/cyfitter_cfg.c **** 			{0xB3u, 0x3Cu},
 562:Generated_Source\PSoC4/cyfitter_cfg.c **** 			{0xB5u, 0x02u},
 563:Generated_Source\PSoC4/cyfitter_cfg.c **** 			{0xB6u, 0x02u},
 564:Generated_Source\PSoC4/cyfitter_cfg.c **** 			{0xBEu, 0x45u},
 565:Generated_Source\PSoC4/cyfitter_cfg.c **** 			{0xBFu, 0x10u},
 566:Generated_Source\PSoC4/cyfitter_cfg.c **** 			{0xC0u, 0x56u},
 567:Generated_Source\PSoC4/cyfitter_cfg.c **** 			{0xC9u, 0xFFu},
 568:Generated_Source\PSoC4/cyfitter_cfg.c **** 			{0xCAu, 0xFFu},
 569:Generated_Source\PSoC4/cyfitter_cfg.c **** 			{0xCBu, 0xFFu},
 570:Generated_Source\PSoC4/cyfitter_cfg.c **** 			{0xCDu, 0x83u},
 571:Generated_Source\PSoC4/cyfitter_cfg.c **** 			{0xCEu, 0x03u},
 572:Generated_Source\PSoC4/cyfitter_cfg.c **** 			{0xCFu, 0x01u},
 573:Generated_Source\PSoC4/cyfitter_cfg.c **** 			{0xD0u, 0x18u},
 574:Generated_Source\PSoC4/cyfitter_cfg.c **** 			{0xD2u, 0x80u},
 575:Generated_Source\PSoC4/cyfitter_cfg.c **** 			{0xD8u, 0x04u},
 576:Generated_Source\PSoC4/cyfitter_cfg.c **** 			{0xD9u, 0x04u},
 577:Generated_Source\PSoC4/cyfitter_cfg.c **** 			{0xDAu, 0x04u},
 578:Generated_Source\PSoC4/cyfitter_cfg.c **** 			{0xDBu, 0x04u},
 579:Generated_Source\PSoC4/cyfitter_cfg.c **** 			{0xDCu, 0x10u},
 580:Generated_Source\PSoC4/cyfitter_cfg.c **** 			{0xDDu, 0x33u},
 581:Generated_Source\PSoC4/cyfitter_cfg.c **** 			{0xDFu, 0x01u},
 582:Generated_Source\PSoC4/cyfitter_cfg.c **** 			{0xE0u, 0x40u},
 583:Generated_Source\PSoC4/cyfitter_cfg.c **** 			{0xE2u, 0x40u},
 584:Generated_Source\PSoC4/cyfitter_cfg.c **** 			{0xE4u, 0x40u},
 585:Generated_Source\PSoC4/cyfitter_cfg.c **** 			{0xE5u, 0x40u},
 586:Generated_Source\PSoC4/cyfitter_cfg.c **** 			{0xE6u, 0x80u},
 587:Generated_Source\PSoC4/cyfitter_cfg.c **** 			{0xE8u, 0x80u},
 588:Generated_Source\PSoC4/cyfitter_cfg.c **** 			{0xEAu, 0x80u},
 589:Generated_Source\PSoC4/cyfitter_cfg.c **** 			{0xECu, 0x80u},
 590:Generated_Source\PSoC4/cyfitter_cfg.c **** 			{0xEEu, 0x80u},
 591:Generated_Source\PSoC4/cyfitter_cfg.c **** 			{0x00u, 0xC0u},
 592:Generated_Source\PSoC4/cyfitter_cfg.c **** 			{0x04u, 0x14u},
 593:Generated_Source\PSoC4/cyfitter_cfg.c **** 			{0x05u, 0x01u},
 594:Generated_Source\PSoC4/cyfitter_cfg.c **** 			{0x06u, 0x01u},
 595:Generated_Source\PSoC4/cyfitter_cfg.c **** 			{0x07u, 0x01u},
ARM GAS  C:\Users\austc\AppData\Local\Temp\ccPHGH8e.s 			page 19


 596:Generated_Source\PSoC4/cyfitter_cfg.c **** 			{0x08u, 0x20u},
 597:Generated_Source\PSoC4/cyfitter_cfg.c **** 			{0x0Du, 0x08u},
 598:Generated_Source\PSoC4/cyfitter_cfg.c **** 			{0x0Eu, 0x0Au},
 599:Generated_Source\PSoC4/cyfitter_cfg.c **** 			{0x12u, 0x82u},
 600:Generated_Source\PSoC4/cyfitter_cfg.c **** 			{0x16u, 0x40u},
 601:Generated_Source\PSoC4/cyfitter_cfg.c **** 			{0x19u, 0x80u},
 602:Generated_Source\PSoC4/cyfitter_cfg.c **** 			{0x1Au, 0x60u},
 603:Generated_Source\PSoC4/cyfitter_cfg.c **** 			{0x1Cu, 0x04u},
 604:Generated_Source\PSoC4/cyfitter_cfg.c **** 			{0x1Du, 0x09u},
 605:Generated_Source\PSoC4/cyfitter_cfg.c **** 			{0x21u, 0x04u},
 606:Generated_Source\PSoC4/cyfitter_cfg.c **** 			{0x22u, 0x02u},
 607:Generated_Source\PSoC4/cyfitter_cfg.c **** 			{0x23u, 0x08u},
 608:Generated_Source\PSoC4/cyfitter_cfg.c **** 			{0x25u, 0x40u},
 609:Generated_Source\PSoC4/cyfitter_cfg.c **** 			{0x27u, 0x20u},
 610:Generated_Source\PSoC4/cyfitter_cfg.c **** 			{0x29u, 0x02u},
 611:Generated_Source\PSoC4/cyfitter_cfg.c **** 			{0x2Bu, 0x08u},
 612:Generated_Source\PSoC4/cyfitter_cfg.c **** 			{0x2Du, 0x40u},
 613:Generated_Source\PSoC4/cyfitter_cfg.c **** 			{0x2Fu, 0x80u},
 614:Generated_Source\PSoC4/cyfitter_cfg.c **** 			{0x30u, 0xA0u},
 615:Generated_Source\PSoC4/cyfitter_cfg.c **** 			{0x32u, 0x04u},
 616:Generated_Source\PSoC4/cyfitter_cfg.c **** 			{0x37u, 0x41u},
 617:Generated_Source\PSoC4/cyfitter_cfg.c **** 			{0x38u, 0x40u},
 618:Generated_Source\PSoC4/cyfitter_cfg.c **** 			{0x39u, 0x2Au},
 619:Generated_Source\PSoC4/cyfitter_cfg.c **** 			{0x3Eu, 0x02u},
 620:Generated_Source\PSoC4/cyfitter_cfg.c **** 			{0x48u, 0x08u},
 621:Generated_Source\PSoC4/cyfitter_cfg.c **** 			{0x4Bu, 0x40u},
 622:Generated_Source\PSoC4/cyfitter_cfg.c **** 			{0x4Cu, 0x08u},
 623:Generated_Source\PSoC4/cyfitter_cfg.c **** 			{0x4Fu, 0x40u},
 624:Generated_Source\PSoC4/cyfitter_cfg.c **** 			{0x58u, 0x82u},
 625:Generated_Source\PSoC4/cyfitter_cfg.c **** 			{0x59u, 0x28u},
 626:Generated_Source\PSoC4/cyfitter_cfg.c **** 			{0x5Du, 0x40u},
 627:Generated_Source\PSoC4/cyfitter_cfg.c **** 			{0x5Eu, 0x20u},
 628:Generated_Source\PSoC4/cyfitter_cfg.c **** 			{0x65u, 0x04u},
 629:Generated_Source\PSoC4/cyfitter_cfg.c **** 			{0x66u, 0x01u},
 630:Generated_Source\PSoC4/cyfitter_cfg.c **** 			{0x72u, 0x80u},
 631:Generated_Source\PSoC4/cyfitter_cfg.c **** 			{0x73u, 0x40u},
 632:Generated_Source\PSoC4/cyfitter_cfg.c **** 			{0x79u, 0x40u},
 633:Generated_Source\PSoC4/cyfitter_cfg.c **** 			{0x7Au, 0x10u},
 634:Generated_Source\PSoC4/cyfitter_cfg.c **** 			{0x7Bu, 0x11u},
 635:Generated_Source\PSoC4/cyfitter_cfg.c **** 			{0x81u, 0x08u},
 636:Generated_Source\PSoC4/cyfitter_cfg.c **** 			{0x83u, 0x20u},
 637:Generated_Source\PSoC4/cyfitter_cfg.c **** 			{0x85u, 0x04u},
 638:Generated_Source\PSoC4/cyfitter_cfg.c **** 			{0x86u, 0x01u},
 639:Generated_Source\PSoC4/cyfitter_cfg.c **** 			{0x88u, 0x02u},
 640:Generated_Source\PSoC4/cyfitter_cfg.c **** 			{0x90u, 0x10u},
 641:Generated_Source\PSoC4/cyfitter_cfg.c **** 			{0x92u, 0x84u},
 642:Generated_Source\PSoC4/cyfitter_cfg.c **** 			{0x93u, 0x80u},
 643:Generated_Source\PSoC4/cyfitter_cfg.c **** 			{0x94u, 0x04u},
 644:Generated_Source\PSoC4/cyfitter_cfg.c **** 			{0x96u, 0x29u},
 645:Generated_Source\PSoC4/cyfitter_cfg.c **** 			{0x97u, 0x28u},
 646:Generated_Source\PSoC4/cyfitter_cfg.c **** 			{0x99u, 0x02u},
 647:Generated_Source\PSoC4/cyfitter_cfg.c **** 			{0x9Au, 0x02u},
 648:Generated_Source\PSoC4/cyfitter_cfg.c **** 			{0x9Bu, 0x01u},
 649:Generated_Source\PSoC4/cyfitter_cfg.c **** 			{0x9Du, 0x81u},
 650:Generated_Source\PSoC4/cyfitter_cfg.c **** 			{0x9Eu, 0xC0u},
 651:Generated_Source\PSoC4/cyfitter_cfg.c **** 			{0x9Fu, 0x10u},
 652:Generated_Source\PSoC4/cyfitter_cfg.c **** 			{0xA2u, 0x05u},
ARM GAS  C:\Users\austc\AppData\Local\Temp\ccPHGH8e.s 			page 20


 653:Generated_Source\PSoC4/cyfitter_cfg.c **** 			{0xA3u, 0x95u},
 654:Generated_Source\PSoC4/cyfitter_cfg.c **** 			{0xA4u, 0x08u},
 655:Generated_Source\PSoC4/cyfitter_cfg.c **** 			{0xA5u, 0xC8u},
 656:Generated_Source\PSoC4/cyfitter_cfg.c **** 			{0xA9u, 0x28u},
 657:Generated_Source\PSoC4/cyfitter_cfg.c **** 			{0xADu, 0x01u},
 658:Generated_Source\PSoC4/cyfitter_cfg.c **** 			{0xC0u, 0x71u},
 659:Generated_Source\PSoC4/cyfitter_cfg.c **** 			{0xC2u, 0xE2u},
 660:Generated_Source\PSoC4/cyfitter_cfg.c **** 			{0xC4u, 0x19u},
 661:Generated_Source\PSoC4/cyfitter_cfg.c **** 			{0xCAu, 0x95u},
 662:Generated_Source\PSoC4/cyfitter_cfg.c **** 			{0xCCu, 0x9Eu},
 663:Generated_Source\PSoC4/cyfitter_cfg.c **** 			{0xCEu, 0x8Fu},
 664:Generated_Source\PSoC4/cyfitter_cfg.c **** 			{0xD2u, 0x3Cu},
 665:Generated_Source\PSoC4/cyfitter_cfg.c **** 			{0xD6u, 0x3Fu},
 666:Generated_Source\PSoC4/cyfitter_cfg.c **** 			{0xD8u, 0xC0u},
 667:Generated_Source\PSoC4/cyfitter_cfg.c **** 			{0xE6u, 0x04u},
 668:Generated_Source\PSoC4/cyfitter_cfg.c **** 			{0x04u, 0x01u},
 669:Generated_Source\PSoC4/cyfitter_cfg.c **** 			{0x05u, 0xFDu},
 670:Generated_Source\PSoC4/cyfitter_cfg.c **** 			{0x07u, 0x02u},
 671:Generated_Source\PSoC4/cyfitter_cfg.c **** 			{0x09u, 0x94u},
 672:Generated_Source\PSoC4/cyfitter_cfg.c **** 			{0x0Bu, 0x60u},
 673:Generated_Source\PSoC4/cyfitter_cfg.c **** 			{0x15u, 0x73u},
 674:Generated_Source\PSoC4/cyfitter_cfg.c **** 			{0x19u, 0x9Eu},
 675:Generated_Source\PSoC4/cyfitter_cfg.c **** 			{0x1Bu, 0x60u},
 676:Generated_Source\PSoC4/cyfitter_cfg.c **** 			{0x21u, 0x30u},
 677:Generated_Source\PSoC4/cyfitter_cfg.c **** 			{0x23u, 0xC9u},
 678:Generated_Source\PSoC4/cyfitter_cfg.c **** 			{0x26u, 0x03u},
 679:Generated_Source\PSoC4/cyfitter_cfg.c **** 			{0x27u, 0x0Fu},
 680:Generated_Source\PSoC4/cyfitter_cfg.c **** 			{0x29u, 0xCFu},
 681:Generated_Source\PSoC4/cyfitter_cfg.c **** 			{0x2Bu, 0x30u},
 682:Generated_Source\PSoC4/cyfitter_cfg.c **** 			{0x31u, 0xFFu},
 683:Generated_Source\PSoC4/cyfitter_cfg.c **** 			{0x34u, 0x02u},
 684:Generated_Source\PSoC4/cyfitter_cfg.c **** 			{0x36u, 0x01u},
 685:Generated_Source\PSoC4/cyfitter_cfg.c **** 			{0x3Eu, 0x40u},
 686:Generated_Source\PSoC4/cyfitter_cfg.c **** 			{0x3Fu, 0x01u},
 687:Generated_Source\PSoC4/cyfitter_cfg.c **** 			{0x40u, 0x56u},
 688:Generated_Source\PSoC4/cyfitter_cfg.c **** 			{0x45u, 0xECu},
 689:Generated_Source\PSoC4/cyfitter_cfg.c **** 			{0x47u, 0x02u},
 690:Generated_Source\PSoC4/cyfitter_cfg.c **** 			{0x48u, 0x13u},
 691:Generated_Source\PSoC4/cyfitter_cfg.c **** 			{0x49u, 0xFFu},
 692:Generated_Source\PSoC4/cyfitter_cfg.c **** 			{0x4Au, 0xFFu},
 693:Generated_Source\PSoC4/cyfitter_cfg.c **** 			{0x4Bu, 0xFFu},
 694:Generated_Source\PSoC4/cyfitter_cfg.c **** 			{0x4Du, 0x83u},
 695:Generated_Source\PSoC4/cyfitter_cfg.c **** 			{0x4Eu, 0x03u},
 696:Generated_Source\PSoC4/cyfitter_cfg.c **** 			{0x4Fu, 0x01u},
 697:Generated_Source\PSoC4/cyfitter_cfg.c **** 			{0x50u, 0x18u},
 698:Generated_Source\PSoC4/cyfitter_cfg.c **** 			{0x54u, 0x0Fu},
 699:Generated_Source\PSoC4/cyfitter_cfg.c **** 			{0x58u, 0x04u},
 700:Generated_Source\PSoC4/cyfitter_cfg.c **** 			{0x59u, 0x04u},
 701:Generated_Source\PSoC4/cyfitter_cfg.c **** 			{0x5Au, 0x04u},
 702:Generated_Source\PSoC4/cyfitter_cfg.c **** 			{0x5Bu, 0x04u},
 703:Generated_Source\PSoC4/cyfitter_cfg.c **** 			{0x5Cu, 0x01u},
 704:Generated_Source\PSoC4/cyfitter_cfg.c **** 			{0x5Du, 0x13u},
 705:Generated_Source\PSoC4/cyfitter_cfg.c **** 			{0x5Fu, 0x05u},
 706:Generated_Source\PSoC4/cyfitter_cfg.c **** 			{0x60u, 0x40u},
 707:Generated_Source\PSoC4/cyfitter_cfg.c **** 			{0x62u, 0x40u},
 708:Generated_Source\PSoC4/cyfitter_cfg.c **** 			{0x64u, 0x40u},
 709:Generated_Source\PSoC4/cyfitter_cfg.c **** 			{0x65u, 0x40u},
ARM GAS  C:\Users\austc\AppData\Local\Temp\ccPHGH8e.s 			page 21


 710:Generated_Source\PSoC4/cyfitter_cfg.c **** 			{0x66u, 0x80u},
 711:Generated_Source\PSoC4/cyfitter_cfg.c **** 			{0x68u, 0x80u},
 712:Generated_Source\PSoC4/cyfitter_cfg.c **** 			{0x6Au, 0x80u},
 713:Generated_Source\PSoC4/cyfitter_cfg.c **** 			{0x6Cu, 0x80u},
 714:Generated_Source\PSoC4/cyfitter_cfg.c **** 			{0x6Eu, 0x80u},
 715:Generated_Source\PSoC4/cyfitter_cfg.c **** 			{0x80u, 0x80u},
 716:Generated_Source\PSoC4/cyfitter_cfg.c **** 			{0x81u, 0x20u},
 717:Generated_Source\PSoC4/cyfitter_cfg.c **** 			{0x82u, 0x1Fu},
 718:Generated_Source\PSoC4/cyfitter_cfg.c **** 			{0x84u, 0xCCu},
 719:Generated_Source\PSoC4/cyfitter_cfg.c **** 			{0x85u, 0x01u},
 720:Generated_Source\PSoC4/cyfitter_cfg.c **** 			{0x86u, 0x21u},
 721:Generated_Source\PSoC4/cyfitter_cfg.c **** 			{0x87u, 0x02u},
 722:Generated_Source\PSoC4/cyfitter_cfg.c **** 			{0x88u, 0xCCu},
 723:Generated_Source\PSoC4/cyfitter_cfg.c **** 			{0x89u, 0x04u},
 724:Generated_Source\PSoC4/cyfitter_cfg.c **** 			{0x8Au, 0x12u},
 725:Generated_Source\PSoC4/cyfitter_cfg.c **** 			{0x8Bu, 0xD3u},
 726:Generated_Source\PSoC4/cyfitter_cfg.c **** 			{0x93u, 0x20u},
 727:Generated_Source\PSoC4/cyfitter_cfg.c **** 			{0x94u, 0x77u},
 728:Generated_Source\PSoC4/cyfitter_cfg.c **** 			{0x95u, 0x80u},
 729:Generated_Source\PSoC4/cyfitter_cfg.c **** 			{0x98u, 0x08u},
 730:Generated_Source\PSoC4/cyfitter_cfg.c **** 			{0x9Au, 0xF1u},
 731:Generated_Source\PSoC4/cyfitter_cfg.c **** 			{0x9Bu, 0x08u},
 732:Generated_Source\PSoC4/cyfitter_cfg.c **** 			{0xA1u, 0x63u},
 733:Generated_Source\PSoC4/cyfitter_cfg.c **** 			{0xA3u, 0x1Cu},
 734:Generated_Source\PSoC4/cyfitter_cfg.c **** 			{0xA4u, 0xBBu},
 735:Generated_Source\PSoC4/cyfitter_cfg.c **** 			{0xA5u, 0x01u},
 736:Generated_Source\PSoC4/cyfitter_cfg.c **** 			{0xA6u, 0x44u},
 737:Generated_Source\PSoC4/cyfitter_cfg.c **** 			{0xADu, 0x02u},
 738:Generated_Source\PSoC4/cyfitter_cfg.c **** 			{0xB1u, 0x10u},
 739:Generated_Source\PSoC4/cyfitter_cfg.c **** 			{0xB2u, 0xF0u},
 740:Generated_Source\PSoC4/cyfitter_cfg.c **** 			{0xB3u, 0x0Cu},
 741:Generated_Source\PSoC4/cyfitter_cfg.c **** 			{0xB4u, 0x0Fu},
 742:Generated_Source\PSoC4/cyfitter_cfg.c **** 			{0xB5u, 0xE0u},
 743:Generated_Source\PSoC4/cyfitter_cfg.c **** 			{0xB7u, 0x07u},
 744:Generated_Source\PSoC4/cyfitter_cfg.c **** 			{0xB9u, 0x20u},
 745:Generated_Source\PSoC4/cyfitter_cfg.c **** 			{0xC0u, 0x35u},
 746:Generated_Source\PSoC4/cyfitter_cfg.c **** 			{0xC6u, 0x12u},
 747:Generated_Source\PSoC4/cyfitter_cfg.c **** 			{0xC7u, 0x50u},
 748:Generated_Source\PSoC4/cyfitter_cfg.c **** 			{0xC8u, 0x2Cu},
 749:Generated_Source\PSoC4/cyfitter_cfg.c **** 			{0xC9u, 0xFFu},
 750:Generated_Source\PSoC4/cyfitter_cfg.c **** 			{0xCAu, 0xFFu},
 751:Generated_Source\PSoC4/cyfitter_cfg.c **** 			{0xCBu, 0xFFu},
 752:Generated_Source\PSoC4/cyfitter_cfg.c **** 			{0xCDu, 0xA0u},
 753:Generated_Source\PSoC4/cyfitter_cfg.c **** 			{0xD8u, 0x04u},
 754:Generated_Source\PSoC4/cyfitter_cfg.c **** 			{0xD9u, 0x04u},
 755:Generated_Source\PSoC4/cyfitter_cfg.c **** 			{0xDAu, 0x04u},
 756:Generated_Source\PSoC4/cyfitter_cfg.c **** 			{0xDCu, 0x91u},
 757:Generated_Source\PSoC4/cyfitter_cfg.c **** 			{0xDDu, 0x09u},
 758:Generated_Source\PSoC4/cyfitter_cfg.c **** 			{0xDFu, 0x01u},
 759:Generated_Source\PSoC4/cyfitter_cfg.c **** 			{0xE0u, 0x40u},
 760:Generated_Source\PSoC4/cyfitter_cfg.c **** 			{0xE1u, 0x40u},
 761:Generated_Source\PSoC4/cyfitter_cfg.c **** 			{0xE2u, 0xC0u},
 762:Generated_Source\PSoC4/cyfitter_cfg.c **** 			{0xE4u, 0xC0u},
 763:Generated_Source\PSoC4/cyfitter_cfg.c **** 			{0xE6u, 0xC0u},
 764:Generated_Source\PSoC4/cyfitter_cfg.c **** 			{0x00u, 0x04u},
 765:Generated_Source\PSoC4/cyfitter_cfg.c **** 			{0x05u, 0x16u},
 766:Generated_Source\PSoC4/cyfitter_cfg.c **** 			{0x0Cu, 0x04u},
ARM GAS  C:\Users\austc\AppData\Local\Temp\ccPHGH8e.s 			page 22


 767:Generated_Source\PSoC4/cyfitter_cfg.c **** 			{0x0Eu, 0x04u},
 768:Generated_Source\PSoC4/cyfitter_cfg.c **** 			{0x10u, 0x10u},
 769:Generated_Source\PSoC4/cyfitter_cfg.c **** 			{0x13u, 0x04u},
 770:Generated_Source\PSoC4/cyfitter_cfg.c **** 			{0x15u, 0x08u},
 771:Generated_Source\PSoC4/cyfitter_cfg.c **** 			{0x18u, 0x04u},
 772:Generated_Source\PSoC4/cyfitter_cfg.c **** 			{0x1Au, 0x02u},
 773:Generated_Source\PSoC4/cyfitter_cfg.c **** 			{0x1Du, 0x14u},
 774:Generated_Source\PSoC4/cyfitter_cfg.c **** 			{0x1Fu, 0x08u},
 775:Generated_Source\PSoC4/cyfitter_cfg.c **** 			{0x22u, 0x02u},
 776:Generated_Source\PSoC4/cyfitter_cfg.c **** 			{0x25u, 0x80u},
 777:Generated_Source\PSoC4/cyfitter_cfg.c **** 			{0x27u, 0x54u},
 778:Generated_Source\PSoC4/cyfitter_cfg.c **** 			{0x28u, 0x20u},
 779:Generated_Source\PSoC4/cyfitter_cfg.c **** 			{0x29u, 0x02u},
 780:Generated_Source\PSoC4/cyfitter_cfg.c **** 			{0x2Bu, 0x18u},
 781:Generated_Source\PSoC4/cyfitter_cfg.c **** 			{0x2Fu, 0x62u},
 782:Generated_Source\PSoC4/cyfitter_cfg.c **** 			{0x30u, 0x20u},
 783:Generated_Source\PSoC4/cyfitter_cfg.c **** 			{0x31u, 0x10u},
 784:Generated_Source\PSoC4/cyfitter_cfg.c **** 			{0x32u, 0x14u},
 785:Generated_Source\PSoC4/cyfitter_cfg.c **** 			{0x37u, 0x15u},
 786:Generated_Source\PSoC4/cyfitter_cfg.c **** 			{0x39u, 0x28u},
 787:Generated_Source\PSoC4/cyfitter_cfg.c **** 			{0x3Cu, 0x10u},
 788:Generated_Source\PSoC4/cyfitter_cfg.c **** 			{0x3Fu, 0x0Au},
 789:Generated_Source\PSoC4/cyfitter_cfg.c **** 			{0x41u, 0x10u},
 790:Generated_Source\PSoC4/cyfitter_cfg.c **** 			{0x42u, 0x04u},
 791:Generated_Source\PSoC4/cyfitter_cfg.c **** 			{0x47u, 0x04u},
 792:Generated_Source\PSoC4/cyfitter_cfg.c **** 			{0x48u, 0x08u},
 793:Generated_Source\PSoC4/cyfitter_cfg.c **** 			{0x49u, 0x09u},
 794:Generated_Source\PSoC4/cyfitter_cfg.c **** 			{0x4Bu, 0x40u},
 795:Generated_Source\PSoC4/cyfitter_cfg.c **** 			{0x4Fu, 0x80u},
 796:Generated_Source\PSoC4/cyfitter_cfg.c **** 			{0x50u, 0x08u},
 797:Generated_Source\PSoC4/cyfitter_cfg.c **** 			{0x56u, 0x40u},
 798:Generated_Source\PSoC4/cyfitter_cfg.c **** 			{0x57u, 0x62u},
 799:Generated_Source\PSoC4/cyfitter_cfg.c **** 			{0x58u, 0x10u},
 800:Generated_Source\PSoC4/cyfitter_cfg.c **** 			{0x5Au, 0x42u},
 801:Generated_Source\PSoC4/cyfitter_cfg.c **** 			{0x5Bu, 0x08u},
 802:Generated_Source\PSoC4/cyfitter_cfg.c **** 			{0x62u, 0x24u},
 803:Generated_Source\PSoC4/cyfitter_cfg.c **** 			{0x78u, 0x04u},
 804:Generated_Source\PSoC4/cyfitter_cfg.c **** 			{0x90u, 0x10u},
 805:Generated_Source\PSoC4/cyfitter_cfg.c **** 			{0x91u, 0x08u},
 806:Generated_Source\PSoC4/cyfitter_cfg.c **** 			{0x92u, 0xC4u},
 807:Generated_Source\PSoC4/cyfitter_cfg.c **** 			{0x93u, 0xC0u},
 808:Generated_Source\PSoC4/cyfitter_cfg.c **** 			{0x95u, 0x22u},
 809:Generated_Source\PSoC4/cyfitter_cfg.c **** 			{0x96u, 0x08u},
 810:Generated_Source\PSoC4/cyfitter_cfg.c **** 			{0x97u, 0x28u},
 811:Generated_Source\PSoC4/cyfitter_cfg.c **** 			{0x99u, 0x02u},
 812:Generated_Source\PSoC4/cyfitter_cfg.c **** 			{0x9Bu, 0x09u},
 813:Generated_Source\PSoC4/cyfitter_cfg.c **** 			{0x9Cu, 0x20u},
 814:Generated_Source\PSoC4/cyfitter_cfg.c **** 			{0x9Eu, 0x40u},
 815:Generated_Source\PSoC4/cyfitter_cfg.c **** 			{0x9Fu, 0x50u},
 816:Generated_Source\PSoC4/cyfitter_cfg.c **** 			{0xA3u, 0x05u},
 817:Generated_Source\PSoC4/cyfitter_cfg.c **** 			{0xA4u, 0xE8u},
 818:Generated_Source\PSoC4/cyfitter_cfg.c **** 			{0xA5u, 0x80u},
 819:Generated_Source\PSoC4/cyfitter_cfg.c **** 			{0xA6u, 0x80u},
 820:Generated_Source\PSoC4/cyfitter_cfg.c **** 			{0xA7u, 0x08u},
 821:Generated_Source\PSoC4/cyfitter_cfg.c **** 			{0xA9u, 0x04u},
 822:Generated_Source\PSoC4/cyfitter_cfg.c **** 			{0xABu, 0x40u},
 823:Generated_Source\PSoC4/cyfitter_cfg.c **** 			{0xB0u, 0x80u},
ARM GAS  C:\Users\austc\AppData\Local\Temp\ccPHGH8e.s 			page 23


 824:Generated_Source\PSoC4/cyfitter_cfg.c **** 			{0xB5u, 0x20u},
 825:Generated_Source\PSoC4/cyfitter_cfg.c **** 			{0xC0u, 0x74u},
 826:Generated_Source\PSoC4/cyfitter_cfg.c **** 			{0xC2u, 0x60u},
 827:Generated_Source\PSoC4/cyfitter_cfg.c **** 			{0xC4u, 0x24u},
 828:Generated_Source\PSoC4/cyfitter_cfg.c **** 			{0xCAu, 0xD7u},
 829:Generated_Source\PSoC4/cyfitter_cfg.c **** 			{0xCCu, 0xE6u},
 830:Generated_Source\PSoC4/cyfitter_cfg.c **** 			{0xCEu, 0xE6u},
 831:Generated_Source\PSoC4/cyfitter_cfg.c **** 			{0xD0u, 0x40u},
 832:Generated_Source\PSoC4/cyfitter_cfg.c **** 			{0xD2u, 0x1Cu},
 833:Generated_Source\PSoC4/cyfitter_cfg.c **** 			{0xD6u, 0x0Fu},
 834:Generated_Source\PSoC4/cyfitter_cfg.c **** 			{0xD8u, 0x06u},
 835:Generated_Source\PSoC4/cyfitter_cfg.c **** 			{0xDEu, 0x02u},
 836:Generated_Source\PSoC4/cyfitter_cfg.c **** 			{0x00u, 0x96u},
 837:Generated_Source\PSoC4/cyfitter_cfg.c **** 			{0x02u, 0x68u},
 838:Generated_Source\PSoC4/cyfitter_cfg.c **** 			{0x04u, 0xA3u},
 839:Generated_Source\PSoC4/cyfitter_cfg.c **** 			{0x06u, 0x5Cu},
 840:Generated_Source\PSoC4/cyfitter_cfg.c **** 			{0x08u, 0xC5u},
 841:Generated_Source\PSoC4/cyfitter_cfg.c **** 			{0x0Au, 0x3Au},
 842:Generated_Source\PSoC4/cyfitter_cfg.c **** 			{0x0Eu, 0x01u},
 843:Generated_Source\PSoC4/cyfitter_cfg.c **** 			{0x0Fu, 0x02u},
 844:Generated_Source\PSoC4/cyfitter_cfg.c **** 			{0x11u, 0x02u},
 845:Generated_Source\PSoC4/cyfitter_cfg.c **** 			{0x18u, 0x0Eu},
 846:Generated_Source\PSoC4/cyfitter_cfg.c **** 			{0x1Au, 0xF0u},
 847:Generated_Source\PSoC4/cyfitter_cfg.c **** 			{0x24u, 0xFEu},
 848:Generated_Source\PSoC4/cyfitter_cfg.c **** 			{0x26u, 0x01u},
 849:Generated_Source\PSoC4/cyfitter_cfg.c **** 			{0x28u, 0x7Fu},
 850:Generated_Source\PSoC4/cyfitter_cfg.c **** 			{0x2Fu, 0x03u},
 851:Generated_Source\PSoC4/cyfitter_cfg.c **** 			{0x33u, 0x02u},
 852:Generated_Source\PSoC4/cyfitter_cfg.c **** 			{0x36u, 0xFFu},
 853:Generated_Source\PSoC4/cyfitter_cfg.c **** 			{0x37u, 0x01u},
 854:Generated_Source\PSoC4/cyfitter_cfg.c **** 			{0x3Eu, 0x40u},
 855:Generated_Source\PSoC4/cyfitter_cfg.c **** 			{0x3Fu, 0x04u},
 856:Generated_Source\PSoC4/cyfitter_cfg.c **** 			{0x40u, 0x23u},
 857:Generated_Source\PSoC4/cyfitter_cfg.c **** 			{0x41u, 0x06u},
 858:Generated_Source\PSoC4/cyfitter_cfg.c **** 			{0x49u, 0xFFu},
 859:Generated_Source\PSoC4/cyfitter_cfg.c **** 			{0x4Au, 0xFFu},
 860:Generated_Source\PSoC4/cyfitter_cfg.c **** 			{0x4Bu, 0xFFu},
 861:Generated_Source\PSoC4/cyfitter_cfg.c **** 			{0x4Du, 0xA0u},
 862:Generated_Source\PSoC4/cyfitter_cfg.c **** 			{0x4Fu, 0x01u},
 863:Generated_Source\PSoC4/cyfitter_cfg.c **** 			{0x50u, 0x18u},
 864:Generated_Source\PSoC4/cyfitter_cfg.c **** 			{0x52u, 0x80u},
 865:Generated_Source\PSoC4/cyfitter_cfg.c **** 			{0x58u, 0x04u},
 866:Generated_Source\PSoC4/cyfitter_cfg.c **** 			{0x59u, 0x04u},
 867:Generated_Source\PSoC4/cyfitter_cfg.c **** 			{0x5Au, 0x04u},
 868:Generated_Source\PSoC4/cyfitter_cfg.c **** 			{0x5Bu, 0x04u},
 869:Generated_Source\PSoC4/cyfitter_cfg.c **** 			{0x5Cu, 0x10u},
 870:Generated_Source\PSoC4/cyfitter_cfg.c **** 			{0x5Du, 0x11u},
 871:Generated_Source\PSoC4/cyfitter_cfg.c **** 			{0x5Fu, 0x01u},
 872:Generated_Source\PSoC4/cyfitter_cfg.c **** 			{0x60u, 0x40u},
 873:Generated_Source\PSoC4/cyfitter_cfg.c **** 			{0x62u, 0x80u},
 874:Generated_Source\PSoC4/cyfitter_cfg.c **** 			{0x64u, 0x40u},
 875:Generated_Source\PSoC4/cyfitter_cfg.c **** 			{0x65u, 0x40u},
 876:Generated_Source\PSoC4/cyfitter_cfg.c **** 			{0x66u, 0x80u},
 877:Generated_Source\PSoC4/cyfitter_cfg.c **** 			{0x68u, 0x40u},
 878:Generated_Source\PSoC4/cyfitter_cfg.c **** 			{0x6Au, 0x80u},
 879:Generated_Source\PSoC4/cyfitter_cfg.c **** 			{0x6Cu, 0x40u},
 880:Generated_Source\PSoC4/cyfitter_cfg.c **** 			{0x6Du, 0x20u},
ARM GAS  C:\Users\austc\AppData\Local\Temp\ccPHGH8e.s 			page 24


 881:Generated_Source\PSoC4/cyfitter_cfg.c **** 			{0x6Eu, 0x80u},
 882:Generated_Source\PSoC4/cyfitter_cfg.c **** 			{0x80u, 0x10u},
 883:Generated_Source\PSoC4/cyfitter_cfg.c **** 			{0x82u, 0x01u},
 884:Generated_Source\PSoC4/cyfitter_cfg.c **** 			{0x85u, 0x21u},
 885:Generated_Source\PSoC4/cyfitter_cfg.c **** 			{0x86u, 0x1Cu},
 886:Generated_Source\PSoC4/cyfitter_cfg.c **** 			{0x88u, 0x01u},
 887:Generated_Source\PSoC4/cyfitter_cfg.c **** 			{0x8Au, 0x10u},
 888:Generated_Source\PSoC4/cyfitter_cfg.c **** 			{0x8Eu, 0x20u},
 889:Generated_Source\PSoC4/cyfitter_cfg.c **** 			{0x92u, 0x02u},
 890:Generated_Source\PSoC4/cyfitter_cfg.c **** 			{0x94u, 0x05u},
 891:Generated_Source\PSoC4/cyfitter_cfg.c **** 			{0x95u, 0x07u},
 892:Generated_Source\PSoC4/cyfitter_cfg.c **** 			{0x96u, 0x08u},
 893:Generated_Source\PSoC4/cyfitter_cfg.c **** 			{0x98u, 0x1Du},
 894:Generated_Source\PSoC4/cyfitter_cfg.c **** 			{0x99u, 0x0Cu},
 895:Generated_Source\PSoC4/cyfitter_cfg.c **** 			{0x9Du, 0x21u},
 896:Generated_Source\PSoC4/cyfitter_cfg.c **** 			{0x9Fu, 0x10u},
 897:Generated_Source\PSoC4/cyfitter_cfg.c **** 			{0xA4u, 0x05u},
 898:Generated_Source\PSoC4/cyfitter_cfg.c **** 			{0xA5u, 0x0Au},
 899:Generated_Source\PSoC4/cyfitter_cfg.c **** 			{0xA6u, 0x08u},
 900:Generated_Source\PSoC4/cyfitter_cfg.c **** 			{0xA8u, 0x1Cu},
 901:Generated_Source\PSoC4/cyfitter_cfg.c **** 			{0xA9u, 0x0Cu},
 902:Generated_Source\PSoC4/cyfitter_cfg.c **** 			{0xB0u, 0x03u},
 903:Generated_Source\PSoC4/cyfitter_cfg.c **** 			{0xB1u, 0x10u},
 904:Generated_Source\PSoC4/cyfitter_cfg.c **** 			{0xB3u, 0x0Eu},
 905:Generated_Source\PSoC4/cyfitter_cfg.c **** 			{0xB4u, 0x3Cu},
 906:Generated_Source\PSoC4/cyfitter_cfg.c **** 			{0xB5u, 0x01u},
 907:Generated_Source\PSoC4/cyfitter_cfg.c **** 			{0xB7u, 0x20u},
 908:Generated_Source\PSoC4/cyfitter_cfg.c **** 			{0xB9u, 0xA8u},
 909:Generated_Source\PSoC4/cyfitter_cfg.c **** 			{0xBFu, 0x10u},
 910:Generated_Source\PSoC4/cyfitter_cfg.c **** 			{0xC0u, 0x36u},
 911:Generated_Source\PSoC4/cyfitter_cfg.c **** 			{0xC1u, 0x02u},
 912:Generated_Source\PSoC4/cyfitter_cfg.c **** 			{0xC5u, 0x42u},
 913:Generated_Source\PSoC4/cyfitter_cfg.c **** 			{0xC6u, 0xC3u},
 914:Generated_Source\PSoC4/cyfitter_cfg.c **** 			{0xC7u, 0x0Eu},
 915:Generated_Source\PSoC4/cyfitter_cfg.c **** 			{0xC8u, 0x1Fu},
 916:Generated_Source\PSoC4/cyfitter_cfg.c **** 			{0xC9u, 0xFFu},
 917:Generated_Source\PSoC4/cyfitter_cfg.c **** 			{0xCAu, 0xFFu},
 918:Generated_Source\PSoC4/cyfitter_cfg.c **** 			{0xCBu, 0xFFu},
 919:Generated_Source\PSoC4/cyfitter_cfg.c **** 			{0xCDu, 0xAFu},
 920:Generated_Source\PSoC4/cyfitter_cfg.c **** 			{0xCEu, 0x07u},
 921:Generated_Source\PSoC4/cyfitter_cfg.c **** 			{0xCFu, 0x01u},
 922:Generated_Source\PSoC4/cyfitter_cfg.c **** 			{0xD0u, 0x18u},
 923:Generated_Source\PSoC4/cyfitter_cfg.c **** 			{0xD4u, 0x01u},
 924:Generated_Source\PSoC4/cyfitter_cfg.c **** 			{0xD6u, 0x04u},
 925:Generated_Source\PSoC4/cyfitter_cfg.c **** 			{0xD8u, 0x04u},
 926:Generated_Source\PSoC4/cyfitter_cfg.c **** 			{0xD9u, 0x04u},
 927:Generated_Source\PSoC4/cyfitter_cfg.c **** 			{0xDAu, 0x04u},
 928:Generated_Source\PSoC4/cyfitter_cfg.c **** 			{0xDBu, 0x04u},
 929:Generated_Source\PSoC4/cyfitter_cfg.c **** 			{0xDCu, 0x11u},
 930:Generated_Source\PSoC4/cyfitter_cfg.c **** 			{0xDDu, 0x31u},
 931:Generated_Source\PSoC4/cyfitter_cfg.c **** 			{0xDFu, 0x01u},
 932:Generated_Source\PSoC4/cyfitter_cfg.c **** 			{0xE0u, 0x40u},
 933:Generated_Source\PSoC4/cyfitter_cfg.c **** 			{0xE2u, 0x80u},
 934:Generated_Source\PSoC4/cyfitter_cfg.c **** 			{0xE4u, 0x40u},
 935:Generated_Source\PSoC4/cyfitter_cfg.c **** 			{0xE5u, 0x40u},
 936:Generated_Source\PSoC4/cyfitter_cfg.c **** 			{0xE6u, 0x80u},
 937:Generated_Source\PSoC4/cyfitter_cfg.c **** 			{0xE8u, 0x40u},
ARM GAS  C:\Users\austc\AppData\Local\Temp\ccPHGH8e.s 			page 25


 938:Generated_Source\PSoC4/cyfitter_cfg.c **** 			{0xEAu, 0x80u},
 939:Generated_Source\PSoC4/cyfitter_cfg.c **** 			{0xECu, 0x40u},
 940:Generated_Source\PSoC4/cyfitter_cfg.c **** 			{0xEDu, 0x20u},
 941:Generated_Source\PSoC4/cyfitter_cfg.c **** 			{0xEEu, 0x80u},
 942:Generated_Source\PSoC4/cyfitter_cfg.c **** 			{0x00u, 0x04u},
 943:Generated_Source\PSoC4/cyfitter_cfg.c **** 			{0x01u, 0x02u},
 944:Generated_Source\PSoC4/cyfitter_cfg.c **** 			{0x02u, 0x02u},
 945:Generated_Source\PSoC4/cyfitter_cfg.c **** 			{0x03u, 0x08u},
 946:Generated_Source\PSoC4/cyfitter_cfg.c **** 			{0x04u, 0x80u},
 947:Generated_Source\PSoC4/cyfitter_cfg.c **** 			{0x05u, 0x16u},
 948:Generated_Source\PSoC4/cyfitter_cfg.c **** 			{0x08u, 0x20u},
 949:Generated_Source\PSoC4/cyfitter_cfg.c **** 			{0x0Au, 0x20u},
 950:Generated_Source\PSoC4/cyfitter_cfg.c **** 			{0x0Bu, 0x80u},
 951:Generated_Source\PSoC4/cyfitter_cfg.c **** 			{0x0Cu, 0x10u},
 952:Generated_Source\PSoC4/cyfitter_cfg.c **** 			{0x0Eu, 0x04u},
 953:Generated_Source\PSoC4/cyfitter_cfg.c **** 			{0x10u, 0x14u},
 954:Generated_Source\PSoC4/cyfitter_cfg.c **** 			{0x14u, 0x24u},
 955:Generated_Source\PSoC4/cyfitter_cfg.c **** 			{0x15u, 0x08u},
 956:Generated_Source\PSoC4/cyfitter_cfg.c **** 			{0x18u, 0x84u},
 957:Generated_Source\PSoC4/cyfitter_cfg.c **** 			{0x1Bu, 0x12u},
 958:Generated_Source\PSoC4/cyfitter_cfg.c **** 			{0x1Fu, 0x40u},
 959:Generated_Source\PSoC4/cyfitter_cfg.c **** 			{0x20u, 0x08u},
 960:Generated_Source\PSoC4/cyfitter_cfg.c **** 			{0x21u, 0x01u},
 961:Generated_Source\PSoC4/cyfitter_cfg.c **** 			{0x22u, 0x84u},
 962:Generated_Source\PSoC4/cyfitter_cfg.c **** 			{0x23u, 0x08u},
 963:Generated_Source\PSoC4/cyfitter_cfg.c **** 			{0x25u, 0x08u},
 964:Generated_Source\PSoC4/cyfitter_cfg.c **** 			{0x27u, 0x22u},
 965:Generated_Source\PSoC4/cyfitter_cfg.c **** 			{0x28u, 0x20u},
 966:Generated_Source\PSoC4/cyfitter_cfg.c **** 			{0x2Bu, 0x08u},
 967:Generated_Source\PSoC4/cyfitter_cfg.c **** 			{0x2Fu, 0x02u},
 968:Generated_Source\PSoC4/cyfitter_cfg.c **** 			{0x30u, 0x84u},
 969:Generated_Source\PSoC4/cyfitter_cfg.c **** 			{0x31u, 0x10u},
 970:Generated_Source\PSoC4/cyfitter_cfg.c **** 			{0x32u, 0x04u},
 971:Generated_Source\PSoC4/cyfitter_cfg.c **** 			{0x37u, 0x02u},
 972:Generated_Source\PSoC4/cyfitter_cfg.c **** 			{0x3Bu, 0x04u},
 973:Generated_Source\PSoC4/cyfitter_cfg.c **** 			{0x3Eu, 0x80u},
 974:Generated_Source\PSoC4/cyfitter_cfg.c **** 			{0x40u, 0x04u},
 975:Generated_Source\PSoC4/cyfitter_cfg.c **** 			{0x41u, 0x08u},
 976:Generated_Source\PSoC4/cyfitter_cfg.c **** 			{0x47u, 0x28u},
 977:Generated_Source\PSoC4/cyfitter_cfg.c **** 			{0x48u, 0x44u},
 978:Generated_Source\PSoC4/cyfitter_cfg.c **** 			{0x4Bu, 0x04u},
 979:Generated_Source\PSoC4/cyfitter_cfg.c **** 			{0x4Fu, 0x20u},
 980:Generated_Source\PSoC4/cyfitter_cfg.c **** 			{0x50u, 0x80u},
 981:Generated_Source\PSoC4/cyfitter_cfg.c **** 			{0x52u, 0x24u},
 982:Generated_Source\PSoC4/cyfitter_cfg.c **** 			{0x59u, 0x09u},
 983:Generated_Source\PSoC4/cyfitter_cfg.c **** 			{0x5Au, 0x80u},
 984:Generated_Source\PSoC4/cyfitter_cfg.c **** 			{0x60u, 0x80u},
 985:Generated_Source\PSoC4/cyfitter_cfg.c **** 			{0x76u, 0x80u},
 986:Generated_Source\PSoC4/cyfitter_cfg.c **** 			{0x80u, 0x80u},
 987:Generated_Source\PSoC4/cyfitter_cfg.c **** 			{0x91u, 0x08u},
 988:Generated_Source\PSoC4/cyfitter_cfg.c **** 			{0x92u, 0xA4u},
 989:Generated_Source\PSoC4/cyfitter_cfg.c **** 			{0x95u, 0x02u},
 990:Generated_Source\PSoC4/cyfitter_cfg.c **** 			{0x96u, 0x08u},
 991:Generated_Source\PSoC4/cyfitter_cfg.c **** 			{0x97u, 0x04u},
 992:Generated_Source\PSoC4/cyfitter_cfg.c **** 			{0x99u, 0x1Fu},
 993:Generated_Source\PSoC4/cyfitter_cfg.c **** 			{0x9Cu, 0x04u},
 994:Generated_Source\PSoC4/cyfitter_cfg.c **** 			{0x9Eu, 0x04u},
ARM GAS  C:\Users\austc\AppData\Local\Temp\ccPHGH8e.s 			page 26


 995:Generated_Source\PSoC4/cyfitter_cfg.c **** 			{0xA2u, 0x02u},
 996:Generated_Source\PSoC4/cyfitter_cfg.c **** 			{0xA3u, 0x08u},
 997:Generated_Source\PSoC4/cyfitter_cfg.c **** 			{0xA4u, 0xC0u},
 998:Generated_Source\PSoC4/cyfitter_cfg.c **** 			{0xA6u, 0xA0u},
 999:Generated_Source\PSoC4/cyfitter_cfg.c **** 			{0xA7u, 0x10u},
1000:Generated_Source\PSoC4/cyfitter_cfg.c **** 			{0xAFu, 0x14u},
1001:Generated_Source\PSoC4/cyfitter_cfg.c **** 			{0xC0u, 0xFFu},
1002:Generated_Source\PSoC4/cyfitter_cfg.c **** 			{0xC2u, 0x4Eu},
1003:Generated_Source\PSoC4/cyfitter_cfg.c **** 			{0xC4u, 0x66u},
1004:Generated_Source\PSoC4/cyfitter_cfg.c **** 			{0xCAu, 0x16u},
1005:Generated_Source\PSoC4/cyfitter_cfg.c **** 			{0xCCu, 0x8Eu},
1006:Generated_Source\PSoC4/cyfitter_cfg.c **** 			{0xCEu, 0x12u},
1007:Generated_Source\PSoC4/cyfitter_cfg.c **** 			{0xD0u, 0x66u},
1008:Generated_Source\PSoC4/cyfitter_cfg.c **** 			{0xD2u, 0x24u},
1009:Generated_Source\PSoC4/cyfitter_cfg.c **** 			{0xD6u, 0x0Bu},
1010:Generated_Source\PSoC4/cyfitter_cfg.c **** 			{0xD8u, 0x01u},
1011:Generated_Source\PSoC4/cyfitter_cfg.c **** 			{0x03u, 0x08u},
1012:Generated_Source\PSoC4/cyfitter_cfg.c **** 			{0x05u, 0x10u},
1013:Generated_Source\PSoC4/cyfitter_cfg.c **** 			{0x6Bu, 0x60u},
1014:Generated_Source\PSoC4/cyfitter_cfg.c **** 			{0x6Cu, 0x20u},
1015:Generated_Source\PSoC4/cyfitter_cfg.c **** 			{0x6Eu, 0x02u},
1016:Generated_Source\PSoC4/cyfitter_cfg.c **** 			{0x87u, 0x20u},
1017:Generated_Source\PSoC4/cyfitter_cfg.c **** 			{0x8Fu, 0x40u},
1018:Generated_Source\PSoC4/cyfitter_cfg.c **** 			{0xC0u, 0xC0u},
1019:Generated_Source\PSoC4/cyfitter_cfg.c **** 			{0xDAu, 0xC0u},
1020:Generated_Source\PSoC4/cyfitter_cfg.c **** 			{0xDCu, 0x60u},
1021:Generated_Source\PSoC4/cyfitter_cfg.c **** 			{0xE2u, 0x40u},
1022:Generated_Source\PSoC4/cyfitter_cfg.c **** 			{0x63u, 0x40u},
1023:Generated_Source\PSoC4/cyfitter_cfg.c **** 			{0x80u, 0x20u},
1024:Generated_Source\PSoC4/cyfitter_cfg.c **** 			{0x93u, 0x40u},
1025:Generated_Source\PSoC4/cyfitter_cfg.c **** 			{0xA4u, 0x20u},
1026:Generated_Source\PSoC4/cyfitter_cfg.c **** 			{0xA6u, 0x01u},
1027:Generated_Source\PSoC4/cyfitter_cfg.c **** 			{0xA9u, 0x10u},
1028:Generated_Source\PSoC4/cyfitter_cfg.c **** 			{0xABu, 0x08u},
1029:Generated_Source\PSoC4/cyfitter_cfg.c **** 			{0xAFu, 0x40u},
1030:Generated_Source\PSoC4/cyfitter_cfg.c **** 			{0xD8u, 0x40u},
1031:Generated_Source\PSoC4/cyfitter_cfg.c **** 			{0xE2u, 0x80u},
1032:Generated_Source\PSoC4/cyfitter_cfg.c **** 			{0xECu, 0xA0u},
1033:Generated_Source\PSoC4/cyfitter_cfg.c **** 			{0xEEu, 0x40u},
1034:Generated_Source\PSoC4/cyfitter_cfg.c **** 			{0x0Au, 0x08u},
1035:Generated_Source\PSoC4/cyfitter_cfg.c **** 			{0x0Fu, 0x40u},
1036:Generated_Source\PSoC4/cyfitter_cfg.c **** 			{0xA6u, 0x01u},
1037:Generated_Source\PSoC4/cyfitter_cfg.c **** 			{0xC2u, 0x60u},
1038:Generated_Source\PSoC4/cyfitter_cfg.c **** 			{0x82u, 0x01u},
1039:Generated_Source\PSoC4/cyfitter_cfg.c **** 			{0xA6u, 0x01u},
1040:Generated_Source\PSoC4/cyfitter_cfg.c **** 			{0xAEu, 0x04u},
1041:Generated_Source\PSoC4/cyfitter_cfg.c **** 			{0xAFu, 0x40u},
1042:Generated_Source\PSoC4/cyfitter_cfg.c **** 			{0xE6u, 0x80u},
1043:Generated_Source\PSoC4/cyfitter_cfg.c **** 			{0xECu, 0x50u},
1044:Generated_Source\PSoC4/cyfitter_cfg.c **** 			{0x00u, 0x40u},
1045:Generated_Source\PSoC4/cyfitter_cfg.c **** 			{0x01u, 0x04u},
1046:Generated_Source\PSoC4/cyfitter_cfg.c **** 			{0x05u, 0x20u},
1047:Generated_Source\PSoC4/cyfitter_cfg.c **** 			{0x07u, 0x40u},
1048:Generated_Source\PSoC4/cyfitter_cfg.c **** 			{0x80u, 0x40u},
1049:Generated_Source\PSoC4/cyfitter_cfg.c **** 			{0x89u, 0x20u},
1050:Generated_Source\PSoC4/cyfitter_cfg.c **** 			{0xC0u, 0x0Fu},
1051:Generated_Source\PSoC4/cyfitter_cfg.c **** 			{0xE2u, 0x04u},
ARM GAS  C:\Users\austc\AppData\Local\Temp\ccPHGH8e.s 			page 27


1052:Generated_Source\PSoC4/cyfitter_cfg.c **** 			{0xB1u, 0x04u},
1053:Generated_Source\PSoC4/cyfitter_cfg.c **** 			{0xB7u, 0x40u},
1054:Generated_Source\PSoC4/cyfitter_cfg.c **** 			{0xEAu, 0x0Cu},
1055:Generated_Source\PSoC4/cyfitter_cfg.c **** 			{0x10u, 0x0Eu},
1056:Generated_Source\PSoC4/cyfitter_cfg.c **** 			{0x11u, 0x01u},
1057:Generated_Source\PSoC4/cyfitter_cfg.c **** 			{0x12u, 0x0Au},
1058:Generated_Source\PSoC4/cyfitter_cfg.c **** 			{0x13u, 0x01u},
1059:Generated_Source\PSoC4/cyfitter_cfg.c **** 		};
1060:Generated_Source\PSoC4/cyfitter_cfg.c **** 
1061:Generated_Source\PSoC4/cyfitter_cfg.c **** 
1062:Generated_Source\PSoC4/cyfitter_cfg.c **** 
1063:Generated_Source\PSoC4/cyfitter_cfg.c **** 		CYPACKED typedef struct {
1064:Generated_Source\PSoC4/cyfitter_cfg.c **** 			void CYFAR *address;
1065:Generated_Source\PSoC4/cyfitter_cfg.c **** 			uint16 size;
1066:Generated_Source\PSoC4/cyfitter_cfg.c **** 		} CYPACKED_ATTR cfg_memset_t;
1067:Generated_Source\PSoC4/cyfitter_cfg.c **** 
1068:Generated_Source\PSoC4/cyfitter_cfg.c **** 		static const cfg_memset_t CYCODE cfg_memset_list[] = {
1069:Generated_Source\PSoC4/cyfitter_cfg.c **** 			/* address, size */
1070:Generated_Source\PSoC4/cyfitter_cfg.c **** 			{(void CYFAR *)(CYDEV_UDB_P0_U0_BASE), 2048u},
1071:Generated_Source\PSoC4/cyfitter_cfg.c **** 			{(void CYFAR *)(CYDEV_UDB_DSI0_BASE), 2048u},
1072:Generated_Source\PSoC4/cyfitter_cfg.c **** 		};
1073:Generated_Source\PSoC4/cyfitter_cfg.c **** 
1074:Generated_Source\PSoC4/cyfitter_cfg.c **** 		uint8 CYDATA i;
1075:Generated_Source\PSoC4/cyfitter_cfg.c **** 
1076:Generated_Source\PSoC4/cyfitter_cfg.c **** 		/* Zero out critical memory blocks before beginning configuration */
1077:Generated_Source\PSoC4/cyfitter_cfg.c **** 		for (i = 0u; i < (sizeof(cfg_memset_list)/sizeof(cfg_memset_list[0])); i++)
 418              		.loc 1 1077 0
 419 0122 0024     		movs	r4, #0
 420 0124 0FE0     		b	.L19
 421              	.LVL25:
 422              	.L20:
 423              	.LBB4:
1078:Generated_Source\PSoC4/cyfitter_cfg.c **** 		{
1079:Generated_Source\PSoC4/cyfitter_cfg.c **** 			const cfg_memset_t CYCODE * CYDATA ms = &cfg_memset_list[i];
1080:Generated_Source\PSoC4/cyfitter_cfg.c **** 			CYMEMZERO(ms->address, (size_t)(uint32)(ms->size));
 424              		.loc 1 1080 0 discriminator 3
 425 0126 4848     		ldr	r0, .L21+4
 426 0128 6200     		lsls	r2, r4, #1
 427 012a 1319     		adds	r3, r2, r4
 428 012c 5900     		lsls	r1, r3, #1
 429 012e 0B00     		movs	r3, r1
 430 0130 4118     		adds	r1, r0, r1
 431 0132 8988     		ldrh	r1, [r1, #4]
 432 0134 1A5A     		ldrh	r2, [r3, r0]
 433 0136 C318     		adds	r3, r0, r3
 434 0138 5888     		ldrh	r0, [r3, #2]
 435 013a 0004     		lsls	r0, r0, #16
 436 013c 1043     		orrs	r0, r2
 437 013e FFF7FEFF 		bl	CYMEMZERO
 438              	.LVL26:
 439              	.LBE4:
1077:Generated_Source\PSoC4/cyfitter_cfg.c **** 		{
 440              		.loc 1 1077 0 discriminator 3
 441 0142 0134     		adds	r4, r4, #1
 442              	.LVL27:
 443 0144 E4B2     		uxtb	r4, r4
 444              	.LVL28:
ARM GAS  C:\Users\austc\AppData\Local\Temp\ccPHGH8e.s 			page 28


 445              	.L19:
1077:Generated_Source\PSoC4/cyfitter_cfg.c **** 		{
 446              		.loc 1 1077 0 is_stmt 0 discriminator 1
 447 0146 012C     		cmp	r4, #1
 448 0148 EDD9     		bls	.L20
1081:Generated_Source\PSoC4/cyfitter_cfg.c **** 		}
1082:Generated_Source\PSoC4/cyfitter_cfg.c **** 
1083:Generated_Source\PSoC4/cyfitter_cfg.c **** 		cfg_write_bytes32(cy_cfg_addr_table, cy_cfg_data_table);
 449              		.loc 1 1083 0 is_stmt 1
 450 014a 3F49     		ldr	r1, .L21+4
 451 014c 0C31     		adds	r1, r1, #12
 452 014e 3F48     		ldr	r0, .L21+8
 453 0150 6430     		adds	r0, r0, #100
 454 0152 FFF7FEFF 		bl	cfg_write_bytes32
 455              	.LVL29:
1084:Generated_Source\PSoC4/cyfitter_cfg.c **** 
1085:Generated_Source\PSoC4/cyfitter_cfg.c **** 		/* Perform normal device configuration. Order is not critical for these items. */
1086:Generated_Source\PSoC4/cyfitter_cfg.c **** 		CY_SET_REG16((void *)(CYREG_UDB_BCTL0_DRV), 0x0E00u);
 456              		.loc 1 1086 0
 457 0156 E022     		movs	r2, #224
 458 0158 1201     		lsls	r2, r2, #4
 459 015a 3D4B     		ldr	r3, .L21+12
 460 015c 1A80     		strh	r2, [r3]
1087:Generated_Source\PSoC4/cyfitter_cfg.c **** 		CY_SET_REG8((void *)(CYREG_UDB_BCTL0_DRV + 0x2u), 0x01u);
 461              		.loc 1 1087 0
 462 015e 0121     		movs	r1, #1
 463 0160 3C4B     		ldr	r3, .L21+16
 464 0162 1970     		strb	r1, [r3]
1088:Generated_Source\PSoC4/cyfitter_cfg.c **** 
1089:Generated_Source\PSoC4/cyfitter_cfg.c **** 		/* HSIOM Starting address: CYDEV_HSIOM_BASE */
1090:Generated_Source\PSoC4/cyfitter_cfg.c **** 		CY_SET_REG32((void *)(CYDEV_HSIOM_BASE), 0x080000AAu);
 465              		.loc 1 1090 0
 466 0164 3C4A     		ldr	r2, .L21+20
 467 0166 3D4B     		ldr	r3, .L21+24
 468 0168 1A60     		str	r2, [r3]
1091:Generated_Source\PSoC4/cyfitter_cfg.c **** 		CY_SET_REG32((void *)(CYREG_HSIOM_PORT_SEL1), 0x03000000u);
 469              		.loc 1 1091 0
 470 016a C022     		movs	r2, #192
 471 016c 9204     		lsls	r2, r2, #18
 472 016e 3C4B     		ldr	r3, .L21+28
 473 0170 1A60     		str	r2, [r3]
1092:Generated_Source\PSoC4/cyfitter_cfg.c **** 		CY_SET_REG32((void *)(CYREG_HSIOM_PORT_SEL3), 0x0000EE00u);
 474              		.loc 1 1092 0
 475 0172 EE22     		movs	r2, #238
 476 0174 1202     		lsls	r2, r2, #8
 477 0176 3B4B     		ldr	r3, .L21+32
 478 0178 1A60     		str	r2, [r3]
1093:Generated_Source\PSoC4/cyfitter_cfg.c **** 		CY_SET_REG32((void *)(CYREG_HSIOM_PORT_SEL6), 0x00000099u);
 479              		.loc 1 1093 0
 480 017a 9922     		movs	r2, #153
 481 017c 3A4B     		ldr	r3, .L21+36
 482 017e 1A60     		str	r2, [r3]
1094:Generated_Source\PSoC4/cyfitter_cfg.c **** 		CY_SET_REG32((void *)(CYREG_HSIOM_PORT_SEL7), 0x00000008u);
 483              		.loc 1 1094 0
 484 0180 913A     		subs	r2, r2, #145
 485 0182 3A4B     		ldr	r3, .L21+40
 486 0184 1A60     		str	r2, [r3]
ARM GAS  C:\Users\austc\AppData\Local\Temp\ccPHGH8e.s 			page 29


1095:Generated_Source\PSoC4/cyfitter_cfg.c **** 
1096:Generated_Source\PSoC4/cyfitter_cfg.c **** 		/* UDB_PA_0 Starting address: CYDEV_UDB_PA0_BASE */
1097:Generated_Source\PSoC4/cyfitter_cfg.c **** 		CY_SET_REG32((void *)(CYDEV_UDB_PA0_BASE), 0x00990000u);
 487              		.loc 1 1097 0
 488 0186 9923     		movs	r3, #153
 489 0188 1B04     		lsls	r3, r3, #16
 490 018a 394A     		ldr	r2, .L21+44
 491 018c 1360     		str	r3, [r2]
1098:Generated_Source\PSoC4/cyfitter_cfg.c **** 
1099:Generated_Source\PSoC4/cyfitter_cfg.c **** 		/* UDB_PA_1 Starting address: CYDEV_UDB_PA1_BASE */
1100:Generated_Source\PSoC4/cyfitter_cfg.c **** 		CY_SET_REG32((void *)(CYDEV_UDB_PA1_BASE), 0x00990000u);
 492              		.loc 1 1100 0
 493 018e 394A     		ldr	r2, .L21+48
 494 0190 1360     		str	r3, [r2]
1101:Generated_Source\PSoC4/cyfitter_cfg.c **** 		CY_SET_REG32((void *)(CYREG_UDB_PA1_CFG8), 0x20000000u);
 495              		.loc 1 1101 0
 496 0192 8020     		movs	r0, #128
 497 0194 8005     		lsls	r0, r0, #22
 498 0196 384A     		ldr	r2, .L21+52
 499 0198 1060     		str	r0, [r2]
1102:Generated_Source\PSoC4/cyfitter_cfg.c **** 
1103:Generated_Source\PSoC4/cyfitter_cfg.c **** 		/* UDB_PA_2 Starting address: CYDEV_UDB_PA2_BASE */
1104:Generated_Source\PSoC4/cyfitter_cfg.c **** 		CY_SET_REG32((void *)(CYDEV_UDB_PA2_BASE), 0x00990000u);
 500              		.loc 1 1104 0
 501 019a 384A     		ldr	r2, .L21+56
 502 019c 1360     		str	r3, [r2]
1105:Generated_Source\PSoC4/cyfitter_cfg.c **** 
1106:Generated_Source\PSoC4/cyfitter_cfg.c **** 		/* UDB_PA_4 Starting address: CYDEV_UDB_PA4_BASE */
1107:Generated_Source\PSoC4/cyfitter_cfg.c **** 		CY_SET_REG32((void *)(CYDEV_UDB_PA4_BASE), 0x00990000u);
 503              		.loc 1 1107 0
 504 019e 384A     		ldr	r2, .L21+60
 505 01a0 1360     		str	r3, [r2]
1108:Generated_Source\PSoC4/cyfitter_cfg.c **** 
1109:Generated_Source\PSoC4/cyfitter_cfg.c **** 		/* UDB_PA_5 Starting address: CYDEV_UDB_PA5_BASE */
1110:Generated_Source\PSoC4/cyfitter_cfg.c **** 		CY_SET_REG32((void *)(CYDEV_UDB_PA5_BASE), 0x00990000u);
 506              		.loc 1 1110 0
 507 01a2 384A     		ldr	r2, .L21+64
 508 01a4 1360     		str	r3, [r2]
1111:Generated_Source\PSoC4/cyfitter_cfg.c **** 
1112:Generated_Source\PSoC4/cyfitter_cfg.c **** 		/* UDB_PA_7 Starting address: CYDEV_UDB_PA7_BASE */
1113:Generated_Source\PSoC4/cyfitter_cfg.c **** 		CY_SET_REG32((void *)(CYDEV_UDB_PA7_BASE), 0x00990000u);
 509              		.loc 1 1113 0
 510 01a6 384A     		ldr	r2, .L21+68
 511 01a8 1360     		str	r3, [r2]
1114:Generated_Source\PSoC4/cyfitter_cfg.c **** 
1115:Generated_Source\PSoC4/cyfitter_cfg.c **** 		/* UDB_P2_U0_CFG24 Starting address: CYDEV_UDB_P2_U0_CFG24 */
1116:Generated_Source\PSoC4/cyfitter_cfg.c **** 		CY_SET_REG32((void *)(CYREG_UDB_P2_U0_CFG24), 0x84040404u);
 512              		.loc 1 1116 0
 513 01aa 384A     		ldr	r2, .L21+72
 514 01ac 384B     		ldr	r3, .L21+76
 515 01ae 1A60     		str	r2, [r3]
1117:Generated_Source\PSoC4/cyfitter_cfg.c **** 
1118:Generated_Source\PSoC4/cyfitter_cfg.c **** 		/* INT_SELECT Starting address: CYDEV_CPUSS_INT_SEL */
1119:Generated_Source\PSoC4/cyfitter_cfg.c **** 		CY_SET_REG32((void *)(CYREG_CPUSS_INT_SEL), 0x0000000Fu);
 516              		.loc 1 1119 0
 517 01b0 0F23     		movs	r3, #15
 518 01b2 384A     		ldr	r2, .L21+80
ARM GAS  C:\Users\austc\AppData\Local\Temp\ccPHGH8e.s 			page 30


 519 01b4 1360     		str	r3, [r2]
1120:Generated_Source\PSoC4/cyfitter_cfg.c **** 
1121:Generated_Source\PSoC4/cyfitter_cfg.c **** 		/* INT_CONFIG Starting address: CYDEV_UDB_INT_CFG */
1122:Generated_Source\PSoC4/cyfitter_cfg.c **** 		CY_SET_REG32((void *)(CYREG_UDB_INT_CFG), 0x0000000Fu);
 520              		.loc 1 1122 0
 521 01b6 384A     		ldr	r2, .L21+84
 522 01b8 1360     		str	r3, [r2]
1123:Generated_Source\PSoC4/cyfitter_cfg.c **** 
1124:Generated_Source\PSoC4/cyfitter_cfg.c **** 		/* Enable UDB array and digital routing */
1125:Generated_Source\PSoC4/cyfitter_cfg.c **** 		CY_SET_XTND_REG8((void *)CYREG_UDB_UDB_WAIT_CFG, (uint8)((CY_GET_XTND_REG8((void *)CYREG_UDB_UDB_
 523              		.loc 1 1125 0
 524 01ba 3848     		ldr	r0, .L21+88
 525 01bc 0378     		ldrb	r3, [r0]
 526 01be 3C22     		movs	r2, #60
 527 01c0 9343     		bics	r3, r2
 528 01c2 1422     		movs	r2, #20
 529 01c4 1343     		orrs	r3, r2
 530 01c6 DBB2     		uxtb	r3, r3
 531 01c8 0370     		strb	r3, [r0]
1126:Generated_Source\PSoC4/cyfitter_cfg.c **** 		CY_SET_XTND_REG8((void *)CYREG_UDB_UDB_BANK_CTL, (uint8)(CY_GET_XTND_REG8((void *)CYREG_UDB_UDB_B
 532              		.loc 1 1126 0
 533 01ca 354A     		ldr	r2, .L21+92
 534 01cc 1078     		ldrb	r0, [r2]
 535 01ce 1623     		movs	r3, #22
 536 01d0 0343     		orrs	r3, r0
 537 01d2 DBB2     		uxtb	r3, r3
 538 01d4 1370     		strb	r3, [r2]
 539              	.LBE3:
1127:Generated_Source\PSoC4/cyfitter_cfg.c **** 	}
1128:Generated_Source\PSoC4/cyfitter_cfg.c **** 
1129:Generated_Source\PSoC4/cyfitter_cfg.c **** 	/* Perform second pass device configuration. These items must be configured in specific order afte
1130:Generated_Source\PSoC4/cyfitter_cfg.c **** 	/* IOPINS0_0 Starting address: CYDEV_GPIO_PRT0_BASE */
1131:Generated_Source\PSoC4/cyfitter_cfg.c **** 	CY_SET_REG32((void *)(CYDEV_GPIO_PRT0_BASE), 0x00000002u);
 540              		.loc 1 1131 0
 541 01d6 0223     		movs	r3, #2
 542 01d8 324A     		ldr	r2, .L21+96
 543 01da 1360     		str	r3, [r2]
1132:Generated_Source\PSoC4/cyfitter_cfg.c **** 	CY_SET_REG32((void *)(CYREG_GPIO_PRT0_PC), 0x00040031u);
 544              		.loc 1 1132 0
 545 01dc 3248     		ldr	r0, .L21+100
 546 01de 334A     		ldr	r2, .L21+104
 547 01e0 1060     		str	r0, [r2]
1133:Generated_Source\PSoC4/cyfitter_cfg.c **** 
1134:Generated_Source\PSoC4/cyfitter_cfg.c **** 	/* IOPINS0_1 Starting address: CYDEV_GPIO_PRT1_BASE */
1135:Generated_Source\PSoC4/cyfitter_cfg.c **** 	CY_SET_REG32((void *)(CYDEV_GPIO_PRT1_BASE), 0x00000040u);
 548              		.loc 1 1135 0
 549 01e2 4020     		movs	r0, #64
 550 01e4 324A     		ldr	r2, .L21+108
 551 01e6 1060     		str	r0, [r2]
1136:Generated_Source\PSoC4/cyfitter_cfg.c **** 	CY_SET_REG32((void *)(CYREG_GPIO_PRT1_PC), 0x00180000u);
 552              		.loc 1 1136 0
 553 01e8 C020     		movs	r0, #192
 554 01ea 4003     		lsls	r0, r0, #13
 555 01ec 314A     		ldr	r2, .L21+112
 556 01ee 1060     		str	r0, [r2]
1137:Generated_Source\PSoC4/cyfitter_cfg.c **** 	CY_SET_REG32((void *)(CYREG_GPIO_PRT1_PC2), 0x00000080u);
 557              		.loc 1 1137 0
ARM GAS  C:\Users\austc\AppData\Local\Temp\ccPHGH8e.s 			page 31


 558 01f0 8020     		movs	r0, #128
 559 01f2 314A     		ldr	r2, .L21+116
 560 01f4 1060     		str	r0, [r2]
1138:Generated_Source\PSoC4/cyfitter_cfg.c **** 
1139:Generated_Source\PSoC4/cyfitter_cfg.c **** 	/* IOPINS0_2 Starting address: CYDEV_GPIO_PRT2_BASE */
1140:Generated_Source\PSoC4/cyfitter_cfg.c **** 	CY_SET_REG32((void *)(CYDEV_GPIO_PRT2_BASE), 0x0000006Bu);
 561              		.loc 1 1140 0
 562 01f6 1538     		subs	r0, r0, #21
 563 01f8 304A     		ldr	r2, .L21+120
 564 01fa 1060     		str	r0, [r2]
1141:Generated_Source\PSoC4/cyfitter_cfg.c **** 	CY_SET_REG32((void *)(CYREG_GPIO_PRT2_PC), 0x00096DB0u);
 565              		.loc 1 1141 0
 566 01fc 3048     		ldr	r0, .L21+124
 567 01fe 314A     		ldr	r2, .L21+128
 568 0200 1060     		str	r0, [r2]
1142:Generated_Source\PSoC4/cyfitter_cfg.c **** 	CY_SET_REG32((void *)(CYREG_GPIO_PRT2_PC2), 0x00000001u);
 569              		.loc 1 1142 0
 570 0202 314A     		ldr	r2, .L21+132
 571 0204 1160     		str	r1, [r2]
1143:Generated_Source\PSoC4/cyfitter_cfg.c **** 
1144:Generated_Source\PSoC4/cyfitter_cfg.c **** 	/* IOPINS0_3 Starting address: CYDEV_GPIO_PRT3_BASE */
1145:Generated_Source\PSoC4/cyfitter_cfg.c **** 	CY_SET_REG32((void *)(CYREG_GPIO_PRT3_PC), 0x00000D80u);
 572              		.loc 1 1145 0
 573 0206 D820     		movs	r0, #216
 574 0208 0001     		lsls	r0, r0, #4
 575 020a 304A     		ldr	r2, .L21+136
 576 020c 1060     		str	r0, [r2]
1146:Generated_Source\PSoC4/cyfitter_cfg.c **** 
1147:Generated_Source\PSoC4/cyfitter_cfg.c **** 	/* IOPINS0_4 Starting address: CYDEV_GPIO_PRT4_BASE */
1148:Generated_Source\PSoC4/cyfitter_cfg.c **** 	CY_SET_REG32((void *)(CYDEV_GPIO_PRT4_BASE), 0x0000004Fu);
 577              		.loc 1 1148 0
 578 020e 4F20     		movs	r0, #79
 579 0210 2F4A     		ldr	r2, .L21+140
 580 0212 1060     		str	r0, [r2]
1149:Generated_Source\PSoC4/cyfitter_cfg.c **** 	CY_SET_REG32((void *)(CYREG_GPIO_PRT4_PC), 0x00080492u);
 581              		.loc 1 1149 0
 582 0214 2F48     		ldr	r0, .L21+144
 583 0216 304A     		ldr	r2, .L21+148
 584 0218 1060     		str	r0, [r2]
1150:Generated_Source\PSoC4/cyfitter_cfg.c **** 
1151:Generated_Source\PSoC4/cyfitter_cfg.c **** 	/* IOPINS0_5 Starting address: CYDEV_GPIO_PRT5_BASE */
1152:Generated_Source\PSoC4/cyfitter_cfg.c **** 	CY_SET_REG32((void *)(CYREG_GPIO_PRT5_PC), 0x00000240u);
 585              		.loc 1 1152 0
 586 021a 9020     		movs	r0, #144
 587 021c 8000     		lsls	r0, r0, #2
 588 021e 2F4A     		ldr	r2, .L21+152
 589 0220 1060     		str	r0, [r2]
1153:Generated_Source\PSoC4/cyfitter_cfg.c **** 
1154:Generated_Source\PSoC4/cyfitter_cfg.c **** 	/* IOPINS0_6 Starting address: CYDEV_GPIO_PRT6_BASE */
1155:Generated_Source\PSoC4/cyfitter_cfg.c **** 	CY_SET_REG32((void *)(CYDEV_GPIO_PRT6_BASE), 0x00000002u);
 590              		.loc 1 1155 0
 591 0222 2F4A     		ldr	r2, .L21+156
 592 0224 1360     		str	r3, [r2]
1156:Generated_Source\PSoC4/cyfitter_cfg.c **** 	CY_SET_REG32((void *)(CYREG_GPIO_PRT6_PC), 0x00000031u);
 593              		.loc 1 1156 0
 594 0226 3120     		movs	r0, #49
 595 0228 2E4A     		ldr	r2, .L21+160
ARM GAS  C:\Users\austc\AppData\Local\Temp\ccPHGH8e.s 			page 32


 596 022a 1060     		str	r0, [r2]
1157:Generated_Source\PSoC4/cyfitter_cfg.c **** 	CY_SET_REG32((void *)(CYREG_GPIO_PRT6_PC2), 0x00000002u);
 597              		.loc 1 1157 0
 598 022c 2E4A     		ldr	r2, .L21+164
 599 022e 1360     		str	r3, [r2]
1158:Generated_Source\PSoC4/cyfitter_cfg.c **** 
1159:Generated_Source\PSoC4/cyfitter_cfg.c **** 	/* IOPINS0_7 Starting address: CYDEV_GPIO_PRT7_BASE */
1160:Generated_Source\PSoC4/cyfitter_cfg.c **** 	CY_SET_REG32((void *)(CYDEV_GPIO_PRT7_BASE), 0x00000001u);
 600              		.loc 1 1160 0
 601 0230 2E4B     		ldr	r3, .L21+168
 602 0232 1960     		str	r1, [r3]
1161:Generated_Source\PSoC4/cyfitter_cfg.c **** 	CY_SET_REG32((void *)(CYREG_GPIO_PRT7_PC), 0x00000036u);
 603              		.loc 1 1161 0
 604 0234 3622     		movs	r2, #54
 605 0236 2E4B     		ldr	r3, .L21+172
 606 0238 1A60     		str	r2, [r3]
1162:Generated_Source\PSoC4/cyfitter_cfg.c **** 
1163:Generated_Source\PSoC4/cyfitter_cfg.c **** 
1164:Generated_Source\PSoC4/cyfitter_cfg.c **** 	/* Setup clocks based on selections from Clock DWR */
1165:Generated_Source\PSoC4/cyfitter_cfg.c **** 	ClockSetup();
 607              		.loc 1 1165 0
 608 023a FFF7E1FE 		bl	ClockSetup
 609              	.LVL30:
1166:Generated_Source\PSoC4/cyfitter_cfg.c **** 
1167:Generated_Source\PSoC4/cyfitter_cfg.c **** 	/* Perform basic analog initialization to defaults */
1168:Generated_Source\PSoC4/cyfitter_cfg.c **** 	AnalogSetDefault();
 610              		.loc 1 1168 0
 611 023e FFF7FEFF 		bl	AnalogSetDefault
 612              	.LVL31:
1169:Generated_Source\PSoC4/cyfitter_cfg.c **** 
1170:Generated_Source\PSoC4/cyfitter_cfg.c **** }
 613              		.loc 1 1170 0
 614              		@ sp needed
 615              	.LVL32:
 616 0242 10BD     		pop	{r4, pc}
 617              	.L22:
 618              		.align	2
 619              	.L21:
 620 0244 1C700F40 		.word	1074753564
 621 0248 00000000 		.word	.LANCHOR0
 622 024c 00050000 		.word	.LANCHOR1
 623 0250 00600F40 		.word	1074749440
 624 0254 02600F40 		.word	1074749442
 625 0258 AA000008 		.word	134217898
 626 025c 00000240 		.word	1073872896
 627 0260 00010240 		.word	1073873152
 628 0264 00030240 		.word	1073873664
 629 0268 00060240 		.word	1073874432
 630 026c 00070240 		.word	1073874688
 631 0270 00500F40 		.word	1074745344
 632 0274 10500F40 		.word	1074745360
 633 0278 18500F40 		.word	1074745368
 634 027c 20500F40 		.word	1074745376
 635 0280 40500F40 		.word	1074745408
 636 0284 50500F40 		.word	1074745424
 637 0288 70500F40 		.word	1074745456
 638 028c 04040484 		.word	-2080111612
ARM GAS  C:\Users\austc\AppData\Local\Temp\ccPHGH8e.s 			page 33


 639 0290 58340F40 		.word	1074738264
 640 0294 20001040 		.word	1074790432
 641 0298 00800F40 		.word	1074757632
 642 029c 01700F40 		.word	1074753537
 643 02a0 00700F40 		.word	1074753536
 644 02a4 00000440 		.word	1074003968
 645 02a8 31000400 		.word	262193
 646 02ac 08000440 		.word	1074003976
 647 02b0 00010440 		.word	1074004224
 648 02b4 08010440 		.word	1074004232
 649 02b8 18010440 		.word	1074004248
 650 02bc 00020440 		.word	1074004480
 651 02c0 B06D0900 		.word	617904
 652 02c4 08020440 		.word	1074004488
 653 02c8 18020440 		.word	1074004504
 654 02cc 08030440 		.word	1074004744
 655 02d0 00040440 		.word	1074004992
 656 02d4 92040800 		.word	525458
 657 02d8 08040440 		.word	1074005000
 658 02dc 08050440 		.word	1074005256
 659 02e0 00060440 		.word	1074005504
 660 02e4 08060440 		.word	1074005512
 661 02e8 18060440 		.word	1074005528
 662 02ec 00070440 		.word	1074005760
 663 02f0 08070440 		.word	1074005768
 664              		.cfi_endproc
 665              	.LFE41:
 666              		.size	cyfitter_cfg, .-cyfitter_cfg
 667              		.section	.rodata
 668              		.align	2
 669              		.set	.LANCHOR0,. + 0
 670              		.set	.LANCHOR1,. + 1280
 671              		.type	cfg_memset_list.6755, %object
 672              		.size	cfg_memset_list.6755, 12
 673              	cfg_memset_list.6755:
 674 0000 00300F40 		.word	1074737152
 675 0004 0008     		.short	2048
 676 0006 00400F40 		.4byte	1074741248
 677 000a 0008     		.short	2048
 678              		.type	cy_cfg_data_table.6750, %object
 679              		.size	cy_cfg_data_table.6750, 1366
 680              	cy_cfg_data_table.6750:
 681 000c 05       		.byte	5
 682 000d 18       		.byte	24
 683 000e 15       		.byte	21
 684 000f 18       		.byte	24
 685 0010 25       		.byte	37
 686 0011 14       		.byte	20
 687 0012 35       		.byte	53
 688 0013 0C       		.byte	12
 689 0014 80       		.byte	-128
 690 0015 0F       		.byte	15
 691 0016 81       		.byte	-127
 692 0017 03       		.byte	3
 693 0018 84       		.byte	-124
 694 0019 6F       		.byte	111
 695 001a 87       		.byte	-121
ARM GAS  C:\Users\austc\AppData\Local\Temp\ccPHGH8e.s 			page 34


 696 001b 0D       		.byte	13
 697 001c 01       		.byte	1
 698 001d 01       		.byte	1
 699 001e 05       		.byte	5
 700 001f 01       		.byte	1
 701 0020 06       		.byte	6
 702 0021 01       		.byte	1
 703 0022 09       		.byte	9
 704 0023 01       		.byte	1
 705 0024 0A       		.byte	10
 706 0025 02       		.byte	2
 707 0026 11       		.byte	17
 708 0027 01       		.byte	1
 709 0028 17       		.byte	23
 710 0029 02       		.byte	2
 711 002a 1F       		.byte	31
 712 002b 01       		.byte	1
 713 002c 2F       		.byte	47
 714 002d 02       		.byte	2
 715 002e 30       		.byte	48
 716 002f 01       		.byte	1
 717 0030 31       		.byte	49
 718 0031 01       		.byte	1
 719 0032 34       		.byte	52
 720 0033 02       		.byte	2
 721 0034 37       		.byte	55
 722 0035 02       		.byte	2
 723 0036 3F       		.byte	63
 724 0037 41       		.byte	65
 725 0038 54       		.byte	84
 726 0039 0F       		.byte	15
 727 003a 58       		.byte	88
 728 003b 04       		.byte	4
 729 003c 59       		.byte	89
 730 003d 04       		.byte	4
 731 003e 5B       		.byte	91
 732 003f 04       		.byte	4
 733 0040 5C       		.byte	92
 734 0041 01       		.byte	1
 735 0042 5D       		.byte	93
 736 0043 10       		.byte	16
 737 0044 5F       		.byte	95
 738 0045 01       		.byte	1
 739 0046 82       		.byte	-126
 740 0047 09       		.byte	9
 741 0048 86       		.byte	-122
 742 0049 09       		.byte	9
 743 004a 88       		.byte	-120
 744 004b A4       		.byte	-92
 745 004c 8A       		.byte	-118
 746 004d 53       		.byte	83
 747 004e 8C       		.byte	-116
 748 004f 0C       		.byte	12
 749 0050 9A       		.byte	-102
 750 0051 89       		.byte	-119
 751 0052 9C       		.byte	-100
 752 0053 6D       		.byte	109
ARM GAS  C:\Users\austc\AppData\Local\Temp\ccPHGH8e.s 			page 35


 753 0054 9E       		.byte	-98
 754 0055 12       		.byte	18
 755 0056 A2       		.byte	-94
 756 0057 49       		.byte	73
 757 0058 A4       		.byte	-92
 758 0059 02       		.byte	2
 759 005a A5       		.byte	-91
 760 005b 01       		.byte	1
 761 005c A6       		.byte	-90
 762 005d 10       		.byte	16
 763 005e A9       		.byte	-87
 764 005f 02       		.byte	2
 765 0060 AE       		.byte	-82
 766 0061 0C       		.byte	12
 767 0062 B1       		.byte	-79
 768 0063 02       		.byte	2
 769 0064 B2       		.byte	-78
 770 0065 38       		.byte	56
 771 0066 B4       		.byte	-76
 772 0067 C0       		.byte	-64
 773 0068 B5       		.byte	-75
 774 0069 01       		.byte	1
 775 006a B6       		.byte	-74
 776 006b 07       		.byte	7
 777 006c B8       		.byte	-72
 778 006d 08       		.byte	8
 779 006e BA       		.byte	-70
 780 006f 20       		.byte	32
 781 0070 C0       		.byte	-64
 782 0071 32       		.byte	50
 783 0072 C5       		.byte	-59
 784 0073 C0       		.byte	-64
 785 0074 C6       		.byte	-58
 786 0075 E0       		.byte	-32
 787 0076 C7       		.byte	-57
 788 0077 0B       		.byte	11
 789 0078 C8       		.byte	-56
 790 0079 1A       		.byte	26
 791 007a C9       		.byte	-55
 792 007b FF       		.byte	-1
 793 007c CA       		.byte	-54
 794 007d FF       		.byte	-1
 795 007e CB       		.byte	-53
 796 007f FF       		.byte	-1
 797 0080 D6       		.byte	-42
 798 0081 04       		.byte	4
 799 0082 D8       		.byte	-40
 800 0083 04       		.byte	4
 801 0084 D9       		.byte	-39
 802 0085 04       		.byte	4
 803 0086 DA       		.byte	-38
 804 0087 04       		.byte	4
 805 0088 DB       		.byte	-37
 806 0089 04       		.byte	4
 807 008a DC       		.byte	-36
 808 008b 29       		.byte	41
 809 008c DD       		.byte	-35
ARM GAS  C:\Users\austc\AppData\Local\Temp\ccPHGH8e.s 			page 36


 810 008d 09       		.byte	9
 811 008e DF       		.byte	-33
 812 008f 01       		.byte	1
 813 0090 E2       		.byte	-30
 814 0091 C0       		.byte	-64
 815 0092 E4       		.byte	-28
 816 0093 40       		.byte	64
 817 0094 E5       		.byte	-27
 818 0095 01       		.byte	1
 819 0096 01       		.byte	1
 820 0097 28       		.byte	40
 821 0098 04       		.byte	4
 822 0099 94       		.byte	-108
 823 009a 05       		.byte	5
 824 009b 01       		.byte	1
 825 009c 0E       		.byte	14
 826 009d 0A       		.byte	10
 827 009e 15       		.byte	21
 828 009f 40       		.byte	64
 829 00a0 16       		.byte	22
 830 00a1 40       		.byte	64
 831 00a2 17       		.byte	23
 832 00a3 08       		.byte	8
 833 00a4 19       		.byte	25
 834 00a5 02       		.byte	2
 835 00a6 1A       		.byte	26
 836 00a7 04       		.byte	4
 837 00a8 1C       		.byte	28
 838 00a9 10       		.byte	16
 839 00aa 1E       		.byte	30
 840 00ab 0A       		.byte	10
 841 00ac 1F       		.byte	31
 842 00ad 40       		.byte	64
 843 00ae 21       		.byte	33
 844 00af 01       		.byte	1
 845 00b0 22       		.byte	34
 846 00b1 40       		.byte	64
 847 00b2 24       		.byte	36
 848 00b3 40       		.byte	64
 849 00b4 26       		.byte	38
 850 00b5 10       		.byte	16
 851 00b6 2A       		.byte	42
 852 00b7 80       		.byte	-128
 853 00b8 2F       		.byte	47
 854 00b9 14       		.byte	20
 855 00ba 30       		.byte	48
 856 00bb 0A       		.byte	10
 857 00bc 31       		.byte	49
 858 00bd 80       		.byte	-128
 859 00be 39       		.byte	57
 860 00bf 15       		.byte	21
 861 00c0 45       		.byte	69
 862 00c1 08       		.byte	8
 863 00c2 47       		.byte	71
 864 00c3 10       		.byte	16
 865 00c4 4C       		.byte	76
 866 00c5 40       		.byte	64
ARM GAS  C:\Users\austc\AppData\Local\Temp\ccPHGH8e.s 			page 37


 867 00c6 4F       		.byte	79
 868 00c7 02       		.byte	2
 869 00c8 57       		.byte	87
 870 00c9 14       		.byte	20
 871 00ca 59       		.byte	89
 872 00cb 80       		.byte	-128
 873 00cc 5A       		.byte	90
 874 00cd 29       		.byte	41
 875 00ce 5C       		.byte	92
 876 00cf 40       		.byte	64
 877 00d0 5E       		.byte	94
 878 00d1 20       		.byte	32
 879 00d2 64       		.byte	100
 880 00d3 80       		.byte	-128
 881 00d4 68       		.byte	104
 882 00d5 02       		.byte	2
 883 00d6 69       		.byte	105
 884 00d7 15       		.byte	21
 885 00d8 6D       		.byte	109
 886 00d9 40       		.byte	64
 887 00da 6F       		.byte	111
 888 00db 81       		.byte	-127
 889 00dc 76       		.byte	118
 890 00dd 02       		.byte	2
 891 00de 77       		.byte	119
 892 00df 08       		.byte	8
 893 00e0 85       		.byte	-123
 894 00e1 40       		.byte	64
 895 00e2 8C       		.byte	-116
 896 00e3 80       		.byte	-128
 897 00e4 C0       		.byte	-64
 898 00e5 F6       		.byte	-10
 899 00e6 C2       		.byte	-62
 900 00e7 C0       		.byte	-64
 901 00e8 C4       		.byte	-60
 902 00e9 B0       		.byte	-80
 903 00ea CA       		.byte	-54
 904 00eb 68       		.byte	104
 905 00ec CC       		.byte	-52
 906 00ed 0B       		.byte	11
 907 00ee CE       		.byte	-50
 908 00ef 07       		.byte	7
 909 00f0 D0       		.byte	-48
 910 00f1 60       		.byte	96
 911 00f2 D6       		.byte	-42
 912 00f3 3F       		.byte	63
 913 00f4 D8       		.byte	-40
 914 00f5 80       		.byte	-128
 915 00f6 E2       		.byte	-30
 916 00f7 10       		.byte	16
 917 00f8 00       		.byte	0
 918 00f9 01       		.byte	1
 919 00fa 02       		.byte	2
 920 00fb 80       		.byte	-128
 921 00fc 03       		.byte	3
 922 00fd 02       		.byte	2
 923 00fe 04       		.byte	4
ARM GAS  C:\Users\austc\AppData\Local\Temp\ccPHGH8e.s 			page 38


 924 00ff 02       		.byte	2
 925 0100 06       		.byte	6
 926 0101 60       		.byte	96
 927 0102 08       		.byte	8
 928 0103 A0       		.byte	-96
 929 0104 0A       		.byte	10
 930 0105 5F       		.byte	95
 931 0106 13       		.byte	19
 932 0107 03       		.byte	3
 933 0108 16       		.byte	22
 934 0109 08       		.byte	8
 935 010a 18       		.byte	24
 936 010b 04       		.byte	4
 937 010c 1A       		.byte	26
 938 010d 50       		.byte	80
 939 010e 1C       		.byte	28
 940 010f 57       		.byte	87
 941 0110 1E       		.byte	30
 942 0111 08       		.byte	8
 943 0112 1F       		.byte	31
 944 0113 02       		.byte	2
 945 0114 22       		.byte	34
 946 0115 57       		.byte	87
 947 0116 23       		.byte	35
 948 0117 01       		.byte	1
 949 0118 2F       		.byte	47
 950 0119 01       		.byte	1
 951 011a 30       		.byte	48
 952 011b C0       		.byte	-64
 953 011c 32       		.byte	50
 954 011d 0F       		.byte	15
 955 011e 33       		.byte	51
 956 011f 01       		.byte	1
 957 0120 34       		.byte	52
 958 0121 30       		.byte	48
 959 0122 37       		.byte	55
 960 0123 02       		.byte	2
 961 0124 3A       		.byte	58
 962 0125 22       		.byte	34
 963 0126 3F       		.byte	63
 964 0127 44       		.byte	68
 965 0128 40       		.byte	64
 966 0129 56       		.byte	86
 967 012a 49       		.byte	73
 968 012b FF       		.byte	-1
 969 012c 4A       		.byte	74
 970 012d FF       		.byte	-1
 971 012e 4B       		.byte	75
 972 012f FF       		.byte	-1
 973 0130 4F       		.byte	79
 974 0131 01       		.byte	1
 975 0132 50       		.byte	80
 976 0133 18       		.byte	24
 977 0134 58       		.byte	88
 978 0135 04       		.byte	4
 979 0136 59       		.byte	89
 980 0137 04       		.byte	4
ARM GAS  C:\Users\austc\AppData\Local\Temp\ccPHGH8e.s 			page 39


 981 0138 5A       		.byte	90
 982 0139 04       		.byte	4
 983 013a 5B       		.byte	91
 984 013b 04       		.byte	4
 985 013c 5C       		.byte	92
 986 013d 09       		.byte	9
 987 013e 5D       		.byte	93
 988 013f 03       		.byte	3
 989 0140 5F       		.byte	95
 990 0141 01       		.byte	1
 991 0142 60       		.byte	96
 992 0143 40       		.byte	64
 993 0144 62       		.byte	98
 994 0145 40       		.byte	64
 995 0146 64       		.byte	100
 996 0147 40       		.byte	64
 997 0148 65       		.byte	101
 998 0149 40       		.byte	64
 999 014a 66       		.byte	102
 1000 014b 80       		.byte	-128
 1001 014c 68       		.byte	104
 1002 014d 80       		.byte	-128
 1003 014e 6A       		.byte	106
 1004 014f 80       		.byte	-128
 1005 0150 6C       		.byte	108
 1006 0151 80       		.byte	-128
 1007 0152 6E       		.byte	110
 1008 0153 80       		.byte	-128
 1009 0154 81       		.byte	-127
 1010 0155 02       		.byte	2
 1011 0156 85       		.byte	-123
 1012 0157 3C       		.byte	60
 1013 0158 89       		.byte	-119
 1014 0159 0C       		.byte	12
 1015 015a 8B       		.byte	-117
 1016 015b 30       		.byte	48
 1017 015c 8E       		.byte	-114
 1018 015d 01       		.byte	1
 1019 015e 8F       		.byte	-113
 1020 015f 01       		.byte	1
 1021 0160 95       		.byte	-107
 1022 0161 1C       		.byte	28
 1023 0162 98       		.byte	-104
 1024 0163 04       		.byte	4
 1025 0164 99       		.byte	-103
 1026 0165 28       		.byte	40
 1027 0166 9A       		.byte	-102
 1028 0167 02       		.byte	2
 1029 0168 9B       		.byte	-101
 1030 0169 14       		.byte	20
 1031 016a 9F       		.byte	-97
 1032 016b 02       		.byte	2
 1033 016c A1       		.byte	-95
 1034 016d 14       		.byte	20
 1035 016e A2       		.byte	-94
 1036 016f 06       		.byte	6
 1037 0170 A3       		.byte	-93
ARM GAS  C:\Users\austc\AppData\Local\Temp\ccPHGH8e.s 			page 40


 1038 0171 28       		.byte	40
 1039 0172 A9       		.byte	-87
 1040 0173 30       		.byte	48
 1041 0174 AB       		.byte	-85
 1042 0175 0C       		.byte	12
 1043 0176 AC       		.byte	-84
 1044 0177 07       		.byte	7
 1045 0178 B0       		.byte	-80
 1046 0179 01       		.byte	1
 1047 017a B1       		.byte	-79
 1048 017b 01       		.byte	1
 1049 017c B2       		.byte	-78
 1050 017d 04       		.byte	4
 1051 017e B3       		.byte	-77
 1052 017f 3C       		.byte	60
 1053 0180 B5       		.byte	-75
 1054 0181 02       		.byte	2
 1055 0182 B6       		.byte	-74
 1056 0183 02       		.byte	2
 1057 0184 BE       		.byte	-66
 1058 0185 45       		.byte	69
 1059 0186 BF       		.byte	-65
 1060 0187 10       		.byte	16
 1061 0188 C0       		.byte	-64
 1062 0189 56       		.byte	86
 1063 018a C9       		.byte	-55
 1064 018b FF       		.byte	-1
 1065 018c CA       		.byte	-54
 1066 018d FF       		.byte	-1
 1067 018e CB       		.byte	-53
 1068 018f FF       		.byte	-1
 1069 0190 CD       		.byte	-51
 1070 0191 83       		.byte	-125
 1071 0192 CE       		.byte	-50
 1072 0193 03       		.byte	3
 1073 0194 CF       		.byte	-49
 1074 0195 01       		.byte	1
 1075 0196 D0       		.byte	-48
 1076 0197 18       		.byte	24
 1077 0198 D2       		.byte	-46
 1078 0199 80       		.byte	-128
 1079 019a D8       		.byte	-40
 1080 019b 04       		.byte	4
 1081 019c D9       		.byte	-39
 1082 019d 04       		.byte	4
 1083 019e DA       		.byte	-38
 1084 019f 04       		.byte	4
 1085 01a0 DB       		.byte	-37
 1086 01a1 04       		.byte	4
 1087 01a2 DC       		.byte	-36
 1088 01a3 10       		.byte	16
 1089 01a4 DD       		.byte	-35
 1090 01a5 33       		.byte	51
 1091 01a6 DF       		.byte	-33
 1092 01a7 01       		.byte	1
 1093 01a8 E0       		.byte	-32
 1094 01a9 40       		.byte	64
ARM GAS  C:\Users\austc\AppData\Local\Temp\ccPHGH8e.s 			page 41


 1095 01aa E2       		.byte	-30
 1096 01ab 40       		.byte	64
 1097 01ac E4       		.byte	-28
 1098 01ad 40       		.byte	64
 1099 01ae E5       		.byte	-27
 1100 01af 40       		.byte	64
 1101 01b0 E6       		.byte	-26
 1102 01b1 80       		.byte	-128
 1103 01b2 E8       		.byte	-24
 1104 01b3 80       		.byte	-128
 1105 01b4 EA       		.byte	-22
 1106 01b5 80       		.byte	-128
 1107 01b6 EC       		.byte	-20
 1108 01b7 80       		.byte	-128
 1109 01b8 EE       		.byte	-18
 1110 01b9 80       		.byte	-128
 1111 01ba 00       		.byte	0
 1112 01bb C0       		.byte	-64
 1113 01bc 04       		.byte	4
 1114 01bd 14       		.byte	20
 1115 01be 05       		.byte	5
 1116 01bf 01       		.byte	1
 1117 01c0 06       		.byte	6
 1118 01c1 01       		.byte	1
 1119 01c2 07       		.byte	7
 1120 01c3 01       		.byte	1
 1121 01c4 08       		.byte	8
 1122 01c5 20       		.byte	32
 1123 01c6 0D       		.byte	13
 1124 01c7 08       		.byte	8
 1125 01c8 0E       		.byte	14
 1126 01c9 0A       		.byte	10
 1127 01ca 12       		.byte	18
 1128 01cb 82       		.byte	-126
 1129 01cc 16       		.byte	22
 1130 01cd 40       		.byte	64
 1131 01ce 19       		.byte	25
 1132 01cf 80       		.byte	-128
 1133 01d0 1A       		.byte	26
 1134 01d1 60       		.byte	96
 1135 01d2 1C       		.byte	28
 1136 01d3 04       		.byte	4
 1137 01d4 1D       		.byte	29
 1138 01d5 09       		.byte	9
 1139 01d6 21       		.byte	33
 1140 01d7 04       		.byte	4
 1141 01d8 22       		.byte	34
 1142 01d9 02       		.byte	2
 1143 01da 23       		.byte	35
 1144 01db 08       		.byte	8
 1145 01dc 25       		.byte	37
 1146 01dd 40       		.byte	64
 1147 01de 27       		.byte	39
 1148 01df 20       		.byte	32
 1149 01e0 29       		.byte	41
 1150 01e1 02       		.byte	2
 1151 01e2 2B       		.byte	43
ARM GAS  C:\Users\austc\AppData\Local\Temp\ccPHGH8e.s 			page 42


 1152 01e3 08       		.byte	8
 1153 01e4 2D       		.byte	45
 1154 01e5 40       		.byte	64
 1155 01e6 2F       		.byte	47
 1156 01e7 80       		.byte	-128
 1157 01e8 30       		.byte	48
 1158 01e9 A0       		.byte	-96
 1159 01ea 32       		.byte	50
 1160 01eb 04       		.byte	4
 1161 01ec 37       		.byte	55
 1162 01ed 41       		.byte	65
 1163 01ee 38       		.byte	56
 1164 01ef 40       		.byte	64
 1165 01f0 39       		.byte	57
 1166 01f1 2A       		.byte	42
 1167 01f2 3E       		.byte	62
 1168 01f3 02       		.byte	2
 1169 01f4 48       		.byte	72
 1170 01f5 08       		.byte	8
 1171 01f6 4B       		.byte	75
 1172 01f7 40       		.byte	64
 1173 01f8 4C       		.byte	76
 1174 01f9 08       		.byte	8
 1175 01fa 4F       		.byte	79
 1176 01fb 40       		.byte	64
 1177 01fc 58       		.byte	88
 1178 01fd 82       		.byte	-126
 1179 01fe 59       		.byte	89
 1180 01ff 28       		.byte	40
 1181 0200 5D       		.byte	93
 1182 0201 40       		.byte	64
 1183 0202 5E       		.byte	94
 1184 0203 20       		.byte	32
 1185 0204 65       		.byte	101
 1186 0205 04       		.byte	4
 1187 0206 66       		.byte	102
 1188 0207 01       		.byte	1
 1189 0208 72       		.byte	114
 1190 0209 80       		.byte	-128
 1191 020a 73       		.byte	115
 1192 020b 40       		.byte	64
 1193 020c 79       		.byte	121
 1194 020d 40       		.byte	64
 1195 020e 7A       		.byte	122
 1196 020f 10       		.byte	16
 1197 0210 7B       		.byte	123
 1198 0211 11       		.byte	17
 1199 0212 81       		.byte	-127
 1200 0213 08       		.byte	8
 1201 0214 83       		.byte	-125
 1202 0215 20       		.byte	32
 1203 0216 85       		.byte	-123
 1204 0217 04       		.byte	4
 1205 0218 86       		.byte	-122
 1206 0219 01       		.byte	1
 1207 021a 88       		.byte	-120
 1208 021b 02       		.byte	2
ARM GAS  C:\Users\austc\AppData\Local\Temp\ccPHGH8e.s 			page 43


 1209 021c 90       		.byte	-112
 1210 021d 10       		.byte	16
 1211 021e 92       		.byte	-110
 1212 021f 84       		.byte	-124
 1213 0220 93       		.byte	-109
 1214 0221 80       		.byte	-128
 1215 0222 94       		.byte	-108
 1216 0223 04       		.byte	4
 1217 0224 96       		.byte	-106
 1218 0225 29       		.byte	41
 1219 0226 97       		.byte	-105
 1220 0227 28       		.byte	40
 1221 0228 99       		.byte	-103
 1222 0229 02       		.byte	2
 1223 022a 9A       		.byte	-102
 1224 022b 02       		.byte	2
 1225 022c 9B       		.byte	-101
 1226 022d 01       		.byte	1
 1227 022e 9D       		.byte	-99
 1228 022f 81       		.byte	-127
 1229 0230 9E       		.byte	-98
 1230 0231 C0       		.byte	-64
 1231 0232 9F       		.byte	-97
 1232 0233 10       		.byte	16
 1233 0234 A2       		.byte	-94
 1234 0235 05       		.byte	5
 1235 0236 A3       		.byte	-93
 1236 0237 95       		.byte	-107
 1237 0238 A4       		.byte	-92
 1238 0239 08       		.byte	8
 1239 023a A5       		.byte	-91
 1240 023b C8       		.byte	-56
 1241 023c A9       		.byte	-87
 1242 023d 28       		.byte	40
 1243 023e AD       		.byte	-83
 1244 023f 01       		.byte	1
 1245 0240 C0       		.byte	-64
 1246 0241 71       		.byte	113
 1247 0242 C2       		.byte	-62
 1248 0243 E2       		.byte	-30
 1249 0244 C4       		.byte	-60
 1250 0245 19       		.byte	25
 1251 0246 CA       		.byte	-54
 1252 0247 95       		.byte	-107
 1253 0248 CC       		.byte	-52
 1254 0249 9E       		.byte	-98
 1255 024a CE       		.byte	-50
 1256 024b 8F       		.byte	-113
 1257 024c D2       		.byte	-46
 1258 024d 3C       		.byte	60
 1259 024e D6       		.byte	-42
 1260 024f 3F       		.byte	63
 1261 0250 D8       		.byte	-40
 1262 0251 C0       		.byte	-64
 1263 0252 E6       		.byte	-26
 1264 0253 04       		.byte	4
 1265 0254 04       		.byte	4
ARM GAS  C:\Users\austc\AppData\Local\Temp\ccPHGH8e.s 			page 44


 1266 0255 01       		.byte	1
 1267 0256 05       		.byte	5
 1268 0257 FD       		.byte	-3
 1269 0258 07       		.byte	7
 1270 0259 02       		.byte	2
 1271 025a 09       		.byte	9
 1272 025b 94       		.byte	-108
 1273 025c 0B       		.byte	11
 1274 025d 60       		.byte	96
 1275 025e 15       		.byte	21
 1276 025f 73       		.byte	115
 1277 0260 19       		.byte	25
 1278 0261 9E       		.byte	-98
 1279 0262 1B       		.byte	27
 1280 0263 60       		.byte	96
 1281 0264 21       		.byte	33
 1282 0265 30       		.byte	48
 1283 0266 23       		.byte	35
 1284 0267 C9       		.byte	-55
 1285 0268 26       		.byte	38
 1286 0269 03       		.byte	3
 1287 026a 27       		.byte	39
 1288 026b 0F       		.byte	15
 1289 026c 29       		.byte	41
 1290 026d CF       		.byte	-49
 1291 026e 2B       		.byte	43
 1292 026f 30       		.byte	48
 1293 0270 31       		.byte	49
 1294 0271 FF       		.byte	-1
 1295 0272 34       		.byte	52
 1296 0273 02       		.byte	2
 1297 0274 36       		.byte	54
 1298 0275 01       		.byte	1
 1299 0276 3E       		.byte	62
 1300 0277 40       		.byte	64
 1301 0278 3F       		.byte	63
 1302 0279 01       		.byte	1
 1303 027a 40       		.byte	64
 1304 027b 56       		.byte	86
 1305 027c 45       		.byte	69
 1306 027d EC       		.byte	-20
 1307 027e 47       		.byte	71
 1308 027f 02       		.byte	2
 1309 0280 48       		.byte	72
 1310 0281 13       		.byte	19
 1311 0282 49       		.byte	73
 1312 0283 FF       		.byte	-1
 1313 0284 4A       		.byte	74
 1314 0285 FF       		.byte	-1
 1315 0286 4B       		.byte	75
 1316 0287 FF       		.byte	-1
 1317 0288 4D       		.byte	77
 1318 0289 83       		.byte	-125
 1319 028a 4E       		.byte	78
 1320 028b 03       		.byte	3
 1321 028c 4F       		.byte	79
 1322 028d 01       		.byte	1
ARM GAS  C:\Users\austc\AppData\Local\Temp\ccPHGH8e.s 			page 45


 1323 028e 50       		.byte	80
 1324 028f 18       		.byte	24
 1325 0290 54       		.byte	84
 1326 0291 0F       		.byte	15
 1327 0292 58       		.byte	88
 1328 0293 04       		.byte	4
 1329 0294 59       		.byte	89
 1330 0295 04       		.byte	4
 1331 0296 5A       		.byte	90
 1332 0297 04       		.byte	4
 1333 0298 5B       		.byte	91
 1334 0299 04       		.byte	4
 1335 029a 5C       		.byte	92
 1336 029b 01       		.byte	1
 1337 029c 5D       		.byte	93
 1338 029d 13       		.byte	19
 1339 029e 5F       		.byte	95
 1340 029f 05       		.byte	5
 1341 02a0 60       		.byte	96
 1342 02a1 40       		.byte	64
 1343 02a2 62       		.byte	98
 1344 02a3 40       		.byte	64
 1345 02a4 64       		.byte	100
 1346 02a5 40       		.byte	64
 1347 02a6 65       		.byte	101
 1348 02a7 40       		.byte	64
 1349 02a8 66       		.byte	102
 1350 02a9 80       		.byte	-128
 1351 02aa 68       		.byte	104
 1352 02ab 80       		.byte	-128
 1353 02ac 6A       		.byte	106
 1354 02ad 80       		.byte	-128
 1355 02ae 6C       		.byte	108
 1356 02af 80       		.byte	-128
 1357 02b0 6E       		.byte	110
 1358 02b1 80       		.byte	-128
 1359 02b2 80       		.byte	-128
 1360 02b3 80       		.byte	-128
 1361 02b4 81       		.byte	-127
 1362 02b5 20       		.byte	32
 1363 02b6 82       		.byte	-126
 1364 02b7 1F       		.byte	31
 1365 02b8 84       		.byte	-124
 1366 02b9 CC       		.byte	-52
 1367 02ba 85       		.byte	-123
 1368 02bb 01       		.byte	1
 1369 02bc 86       		.byte	-122
 1370 02bd 21       		.byte	33
 1371 02be 87       		.byte	-121
 1372 02bf 02       		.byte	2
 1373 02c0 88       		.byte	-120
 1374 02c1 CC       		.byte	-52
 1375 02c2 89       		.byte	-119
 1376 02c3 04       		.byte	4
 1377 02c4 8A       		.byte	-118
 1378 02c5 12       		.byte	18
 1379 02c6 8B       		.byte	-117
ARM GAS  C:\Users\austc\AppData\Local\Temp\ccPHGH8e.s 			page 46


 1380 02c7 D3       		.byte	-45
 1381 02c8 93       		.byte	-109
 1382 02c9 20       		.byte	32
 1383 02ca 94       		.byte	-108
 1384 02cb 77       		.byte	119
 1385 02cc 95       		.byte	-107
 1386 02cd 80       		.byte	-128
 1387 02ce 98       		.byte	-104
 1388 02cf 08       		.byte	8
 1389 02d0 9A       		.byte	-102
 1390 02d1 F1       		.byte	-15
 1391 02d2 9B       		.byte	-101
 1392 02d3 08       		.byte	8
 1393 02d4 A1       		.byte	-95
 1394 02d5 63       		.byte	99
 1395 02d6 A3       		.byte	-93
 1396 02d7 1C       		.byte	28
 1397 02d8 A4       		.byte	-92
 1398 02d9 BB       		.byte	-69
 1399 02da A5       		.byte	-91
 1400 02db 01       		.byte	1
 1401 02dc A6       		.byte	-90
 1402 02dd 44       		.byte	68
 1403 02de AD       		.byte	-83
 1404 02df 02       		.byte	2
 1405 02e0 B1       		.byte	-79
 1406 02e1 10       		.byte	16
 1407 02e2 B2       		.byte	-78
 1408 02e3 F0       		.byte	-16
 1409 02e4 B3       		.byte	-77
 1410 02e5 0C       		.byte	12
 1411 02e6 B4       		.byte	-76
 1412 02e7 0F       		.byte	15
 1413 02e8 B5       		.byte	-75
 1414 02e9 E0       		.byte	-32
 1415 02ea B7       		.byte	-73
 1416 02eb 07       		.byte	7
 1417 02ec B9       		.byte	-71
 1418 02ed 20       		.byte	32
 1419 02ee C0       		.byte	-64
 1420 02ef 35       		.byte	53
 1421 02f0 C6       		.byte	-58
 1422 02f1 12       		.byte	18
 1423 02f2 C7       		.byte	-57
 1424 02f3 50       		.byte	80
 1425 02f4 C8       		.byte	-56
 1426 02f5 2C       		.byte	44
 1427 02f6 C9       		.byte	-55
 1428 02f7 FF       		.byte	-1
 1429 02f8 CA       		.byte	-54
 1430 02f9 FF       		.byte	-1
 1431 02fa CB       		.byte	-53
 1432 02fb FF       		.byte	-1
 1433 02fc CD       		.byte	-51
 1434 02fd A0       		.byte	-96
 1435 02fe D8       		.byte	-40
 1436 02ff 04       		.byte	4
ARM GAS  C:\Users\austc\AppData\Local\Temp\ccPHGH8e.s 			page 47


 1437 0300 D9       		.byte	-39
 1438 0301 04       		.byte	4
 1439 0302 DA       		.byte	-38
 1440 0303 04       		.byte	4
 1441 0304 DC       		.byte	-36
 1442 0305 91       		.byte	-111
 1443 0306 DD       		.byte	-35
 1444 0307 09       		.byte	9
 1445 0308 DF       		.byte	-33
 1446 0309 01       		.byte	1
 1447 030a E0       		.byte	-32
 1448 030b 40       		.byte	64
 1449 030c E1       		.byte	-31
 1450 030d 40       		.byte	64
 1451 030e E2       		.byte	-30
 1452 030f C0       		.byte	-64
 1453 0310 E4       		.byte	-28
 1454 0311 C0       		.byte	-64
 1455 0312 E6       		.byte	-26
 1456 0313 C0       		.byte	-64
 1457 0314 00       		.byte	0
 1458 0315 04       		.byte	4
 1459 0316 05       		.byte	5
 1460 0317 16       		.byte	22
 1461 0318 0C       		.byte	12
 1462 0319 04       		.byte	4
 1463 031a 0E       		.byte	14
 1464 031b 04       		.byte	4
 1465 031c 10       		.byte	16
 1466 031d 10       		.byte	16
 1467 031e 13       		.byte	19
 1468 031f 04       		.byte	4
 1469 0320 15       		.byte	21
 1470 0321 08       		.byte	8
 1471 0322 18       		.byte	24
 1472 0323 04       		.byte	4
 1473 0324 1A       		.byte	26
 1474 0325 02       		.byte	2
 1475 0326 1D       		.byte	29
 1476 0327 14       		.byte	20
 1477 0328 1F       		.byte	31
 1478 0329 08       		.byte	8
 1479 032a 22       		.byte	34
 1480 032b 02       		.byte	2
 1481 032c 25       		.byte	37
 1482 032d 80       		.byte	-128
 1483 032e 27       		.byte	39
 1484 032f 54       		.byte	84
 1485 0330 28       		.byte	40
 1486 0331 20       		.byte	32
 1487 0332 29       		.byte	41
 1488 0333 02       		.byte	2
 1489 0334 2B       		.byte	43
 1490 0335 18       		.byte	24
 1491 0336 2F       		.byte	47
 1492 0337 62       		.byte	98
 1493 0338 30       		.byte	48
ARM GAS  C:\Users\austc\AppData\Local\Temp\ccPHGH8e.s 			page 48


 1494 0339 20       		.byte	32
 1495 033a 31       		.byte	49
 1496 033b 10       		.byte	16
 1497 033c 32       		.byte	50
 1498 033d 14       		.byte	20
 1499 033e 37       		.byte	55
 1500 033f 15       		.byte	21
 1501 0340 39       		.byte	57
 1502 0341 28       		.byte	40
 1503 0342 3C       		.byte	60
 1504 0343 10       		.byte	16
 1505 0344 3F       		.byte	63
 1506 0345 0A       		.byte	10
 1507 0346 41       		.byte	65
 1508 0347 10       		.byte	16
 1509 0348 42       		.byte	66
 1510 0349 04       		.byte	4
 1511 034a 47       		.byte	71
 1512 034b 04       		.byte	4
 1513 034c 48       		.byte	72
 1514 034d 08       		.byte	8
 1515 034e 49       		.byte	73
 1516 034f 09       		.byte	9
 1517 0350 4B       		.byte	75
 1518 0351 40       		.byte	64
 1519 0352 4F       		.byte	79
 1520 0353 80       		.byte	-128
 1521 0354 50       		.byte	80
 1522 0355 08       		.byte	8
 1523 0356 56       		.byte	86
 1524 0357 40       		.byte	64
 1525 0358 57       		.byte	87
 1526 0359 62       		.byte	98
 1527 035a 58       		.byte	88
 1528 035b 10       		.byte	16
 1529 035c 5A       		.byte	90
 1530 035d 42       		.byte	66
 1531 035e 5B       		.byte	91
 1532 035f 08       		.byte	8
 1533 0360 62       		.byte	98
 1534 0361 24       		.byte	36
 1535 0362 78       		.byte	120
 1536 0363 04       		.byte	4
 1537 0364 90       		.byte	-112
 1538 0365 10       		.byte	16
 1539 0366 91       		.byte	-111
 1540 0367 08       		.byte	8
 1541 0368 92       		.byte	-110
 1542 0369 C4       		.byte	-60
 1543 036a 93       		.byte	-109
 1544 036b C0       		.byte	-64
 1545 036c 95       		.byte	-107
 1546 036d 22       		.byte	34
 1547 036e 96       		.byte	-106
 1548 036f 08       		.byte	8
 1549 0370 97       		.byte	-105
 1550 0371 28       		.byte	40
ARM GAS  C:\Users\austc\AppData\Local\Temp\ccPHGH8e.s 			page 49


 1551 0372 99       		.byte	-103
 1552 0373 02       		.byte	2
 1553 0374 9B       		.byte	-101
 1554 0375 09       		.byte	9
 1555 0376 9C       		.byte	-100
 1556 0377 20       		.byte	32
 1557 0378 9E       		.byte	-98
 1558 0379 40       		.byte	64
 1559 037a 9F       		.byte	-97
 1560 037b 50       		.byte	80
 1561 037c A3       		.byte	-93
 1562 037d 05       		.byte	5
 1563 037e A4       		.byte	-92
 1564 037f E8       		.byte	-24
 1565 0380 A5       		.byte	-91
 1566 0381 80       		.byte	-128
 1567 0382 A6       		.byte	-90
 1568 0383 80       		.byte	-128
 1569 0384 A7       		.byte	-89
 1570 0385 08       		.byte	8
 1571 0386 A9       		.byte	-87
 1572 0387 04       		.byte	4
 1573 0388 AB       		.byte	-85
 1574 0389 40       		.byte	64
 1575 038a B0       		.byte	-80
 1576 038b 80       		.byte	-128
 1577 038c B5       		.byte	-75
 1578 038d 20       		.byte	32
 1579 038e C0       		.byte	-64
 1580 038f 74       		.byte	116
 1581 0390 C2       		.byte	-62
 1582 0391 60       		.byte	96
 1583 0392 C4       		.byte	-60
 1584 0393 24       		.byte	36
 1585 0394 CA       		.byte	-54
 1586 0395 D7       		.byte	-41
 1587 0396 CC       		.byte	-52
 1588 0397 E6       		.byte	-26
 1589 0398 CE       		.byte	-50
 1590 0399 E6       		.byte	-26
 1591 039a D0       		.byte	-48
 1592 039b 40       		.byte	64
 1593 039c D2       		.byte	-46
 1594 039d 1C       		.byte	28
 1595 039e D6       		.byte	-42
 1596 039f 0F       		.byte	15
 1597 03a0 D8       		.byte	-40
 1598 03a1 06       		.byte	6
 1599 03a2 DE       		.byte	-34
 1600 03a3 02       		.byte	2
 1601 03a4 00       		.byte	0
 1602 03a5 96       		.byte	-106
 1603 03a6 02       		.byte	2
 1604 03a7 68       		.byte	104
 1605 03a8 04       		.byte	4
 1606 03a9 A3       		.byte	-93
 1607 03aa 06       		.byte	6
ARM GAS  C:\Users\austc\AppData\Local\Temp\ccPHGH8e.s 			page 50


 1608 03ab 5C       		.byte	92
 1609 03ac 08       		.byte	8
 1610 03ad C5       		.byte	-59
 1611 03ae 0A       		.byte	10
 1612 03af 3A       		.byte	58
 1613 03b0 0E       		.byte	14
 1614 03b1 01       		.byte	1
 1615 03b2 0F       		.byte	15
 1616 03b3 02       		.byte	2
 1617 03b4 11       		.byte	17
 1618 03b5 02       		.byte	2
 1619 03b6 18       		.byte	24
 1620 03b7 0E       		.byte	14
 1621 03b8 1A       		.byte	26
 1622 03b9 F0       		.byte	-16
 1623 03ba 24       		.byte	36
 1624 03bb FE       		.byte	-2
 1625 03bc 26       		.byte	38
 1626 03bd 01       		.byte	1
 1627 03be 28       		.byte	40
 1628 03bf 7F       		.byte	127
 1629 03c0 2F       		.byte	47
 1630 03c1 03       		.byte	3
 1631 03c2 33       		.byte	51
 1632 03c3 02       		.byte	2
 1633 03c4 36       		.byte	54
 1634 03c5 FF       		.byte	-1
 1635 03c6 37       		.byte	55
 1636 03c7 01       		.byte	1
 1637 03c8 3E       		.byte	62
 1638 03c9 40       		.byte	64
 1639 03ca 3F       		.byte	63
 1640 03cb 04       		.byte	4
 1641 03cc 40       		.byte	64
 1642 03cd 23       		.byte	35
 1643 03ce 41       		.byte	65
 1644 03cf 06       		.byte	6
 1645 03d0 49       		.byte	73
 1646 03d1 FF       		.byte	-1
 1647 03d2 4A       		.byte	74
 1648 03d3 FF       		.byte	-1
 1649 03d4 4B       		.byte	75
 1650 03d5 FF       		.byte	-1
 1651 03d6 4D       		.byte	77
 1652 03d7 A0       		.byte	-96
 1653 03d8 4F       		.byte	79
 1654 03d9 01       		.byte	1
 1655 03da 50       		.byte	80
 1656 03db 18       		.byte	24
 1657 03dc 52       		.byte	82
 1658 03dd 80       		.byte	-128
 1659 03de 58       		.byte	88
 1660 03df 04       		.byte	4
 1661 03e0 59       		.byte	89
 1662 03e1 04       		.byte	4
 1663 03e2 5A       		.byte	90
 1664 03e3 04       		.byte	4
ARM GAS  C:\Users\austc\AppData\Local\Temp\ccPHGH8e.s 			page 51


 1665 03e4 5B       		.byte	91
 1666 03e5 04       		.byte	4
 1667 03e6 5C       		.byte	92
 1668 03e7 10       		.byte	16
 1669 03e8 5D       		.byte	93
 1670 03e9 11       		.byte	17
 1671 03ea 5F       		.byte	95
 1672 03eb 01       		.byte	1
 1673 03ec 60       		.byte	96
 1674 03ed 40       		.byte	64
 1675 03ee 62       		.byte	98
 1676 03ef 80       		.byte	-128
 1677 03f0 64       		.byte	100
 1678 03f1 40       		.byte	64
 1679 03f2 65       		.byte	101
 1680 03f3 40       		.byte	64
 1681 03f4 66       		.byte	102
 1682 03f5 80       		.byte	-128
 1683 03f6 68       		.byte	104
 1684 03f7 40       		.byte	64
 1685 03f8 6A       		.byte	106
 1686 03f9 80       		.byte	-128
 1687 03fa 6C       		.byte	108
 1688 03fb 40       		.byte	64
 1689 03fc 6D       		.byte	109
 1690 03fd 20       		.byte	32
 1691 03fe 6E       		.byte	110
 1692 03ff 80       		.byte	-128
 1693 0400 80       		.byte	-128
 1694 0401 10       		.byte	16
 1695 0402 82       		.byte	-126
 1696 0403 01       		.byte	1
 1697 0404 85       		.byte	-123
 1698 0405 21       		.byte	33
 1699 0406 86       		.byte	-122
 1700 0407 1C       		.byte	28
 1701 0408 88       		.byte	-120
 1702 0409 01       		.byte	1
 1703 040a 8A       		.byte	-118
 1704 040b 10       		.byte	16
 1705 040c 8E       		.byte	-114
 1706 040d 20       		.byte	32
 1707 040e 92       		.byte	-110
 1708 040f 02       		.byte	2
 1709 0410 94       		.byte	-108
 1710 0411 05       		.byte	5
 1711 0412 95       		.byte	-107
 1712 0413 07       		.byte	7
 1713 0414 96       		.byte	-106
 1714 0415 08       		.byte	8
 1715 0416 98       		.byte	-104
 1716 0417 1D       		.byte	29
 1717 0418 99       		.byte	-103
 1718 0419 0C       		.byte	12
 1719 041a 9D       		.byte	-99
 1720 041b 21       		.byte	33
 1721 041c 9F       		.byte	-97
ARM GAS  C:\Users\austc\AppData\Local\Temp\ccPHGH8e.s 			page 52


 1722 041d 10       		.byte	16
 1723 041e A4       		.byte	-92
 1724 041f 05       		.byte	5
 1725 0420 A5       		.byte	-91
 1726 0421 0A       		.byte	10
 1727 0422 A6       		.byte	-90
 1728 0423 08       		.byte	8
 1729 0424 A8       		.byte	-88
 1730 0425 1C       		.byte	28
 1731 0426 A9       		.byte	-87
 1732 0427 0C       		.byte	12
 1733 0428 B0       		.byte	-80
 1734 0429 03       		.byte	3
 1735 042a B1       		.byte	-79
 1736 042b 10       		.byte	16
 1737 042c B3       		.byte	-77
 1738 042d 0E       		.byte	14
 1739 042e B4       		.byte	-76
 1740 042f 3C       		.byte	60
 1741 0430 B5       		.byte	-75
 1742 0431 01       		.byte	1
 1743 0432 B7       		.byte	-73
 1744 0433 20       		.byte	32
 1745 0434 B9       		.byte	-71
 1746 0435 A8       		.byte	-88
 1747 0436 BF       		.byte	-65
 1748 0437 10       		.byte	16
 1749 0438 C0       		.byte	-64
 1750 0439 36       		.byte	54
 1751 043a C1       		.byte	-63
 1752 043b 02       		.byte	2
 1753 043c C5       		.byte	-59
 1754 043d 42       		.byte	66
 1755 043e C6       		.byte	-58
 1756 043f C3       		.byte	-61
 1757 0440 C7       		.byte	-57
 1758 0441 0E       		.byte	14
 1759 0442 C8       		.byte	-56
 1760 0443 1F       		.byte	31
 1761 0444 C9       		.byte	-55
 1762 0445 FF       		.byte	-1
 1763 0446 CA       		.byte	-54
 1764 0447 FF       		.byte	-1
 1765 0448 CB       		.byte	-53
 1766 0449 FF       		.byte	-1
 1767 044a CD       		.byte	-51
 1768 044b AF       		.byte	-81
 1769 044c CE       		.byte	-50
 1770 044d 07       		.byte	7
 1771 044e CF       		.byte	-49
 1772 044f 01       		.byte	1
 1773 0450 D0       		.byte	-48
 1774 0451 18       		.byte	24
 1775 0452 D4       		.byte	-44
 1776 0453 01       		.byte	1
 1777 0454 D6       		.byte	-42
 1778 0455 04       		.byte	4
ARM GAS  C:\Users\austc\AppData\Local\Temp\ccPHGH8e.s 			page 53


 1779 0456 D8       		.byte	-40
 1780 0457 04       		.byte	4
 1781 0458 D9       		.byte	-39
 1782 0459 04       		.byte	4
 1783 045a DA       		.byte	-38
 1784 045b 04       		.byte	4
 1785 045c DB       		.byte	-37
 1786 045d 04       		.byte	4
 1787 045e DC       		.byte	-36
 1788 045f 11       		.byte	17
 1789 0460 DD       		.byte	-35
 1790 0461 31       		.byte	49
 1791 0462 DF       		.byte	-33
 1792 0463 01       		.byte	1
 1793 0464 E0       		.byte	-32
 1794 0465 40       		.byte	64
 1795 0466 E2       		.byte	-30
 1796 0467 80       		.byte	-128
 1797 0468 E4       		.byte	-28
 1798 0469 40       		.byte	64
 1799 046a E5       		.byte	-27
 1800 046b 40       		.byte	64
 1801 046c E6       		.byte	-26
 1802 046d 80       		.byte	-128
 1803 046e E8       		.byte	-24
 1804 046f 40       		.byte	64
 1805 0470 EA       		.byte	-22
 1806 0471 80       		.byte	-128
 1807 0472 EC       		.byte	-20
 1808 0473 40       		.byte	64
 1809 0474 ED       		.byte	-19
 1810 0475 20       		.byte	32
 1811 0476 EE       		.byte	-18
 1812 0477 80       		.byte	-128
 1813 0478 00       		.byte	0
 1814 0479 04       		.byte	4
 1815 047a 01       		.byte	1
 1816 047b 02       		.byte	2
 1817 047c 02       		.byte	2
 1818 047d 02       		.byte	2
 1819 047e 03       		.byte	3
 1820 047f 08       		.byte	8
 1821 0480 04       		.byte	4
 1822 0481 80       		.byte	-128
 1823 0482 05       		.byte	5
 1824 0483 16       		.byte	22
 1825 0484 08       		.byte	8
 1826 0485 20       		.byte	32
 1827 0486 0A       		.byte	10
 1828 0487 20       		.byte	32
 1829 0488 0B       		.byte	11
 1830 0489 80       		.byte	-128
 1831 048a 0C       		.byte	12
 1832 048b 10       		.byte	16
 1833 048c 0E       		.byte	14
 1834 048d 04       		.byte	4
 1835 048e 10       		.byte	16
ARM GAS  C:\Users\austc\AppData\Local\Temp\ccPHGH8e.s 			page 54


 1836 048f 14       		.byte	20
 1837 0490 14       		.byte	20
 1838 0491 24       		.byte	36
 1839 0492 15       		.byte	21
 1840 0493 08       		.byte	8
 1841 0494 18       		.byte	24
 1842 0495 84       		.byte	-124
 1843 0496 1B       		.byte	27
 1844 0497 12       		.byte	18
 1845 0498 1F       		.byte	31
 1846 0499 40       		.byte	64
 1847 049a 20       		.byte	32
 1848 049b 08       		.byte	8
 1849 049c 21       		.byte	33
 1850 049d 01       		.byte	1
 1851 049e 22       		.byte	34
 1852 049f 84       		.byte	-124
 1853 04a0 23       		.byte	35
 1854 04a1 08       		.byte	8
 1855 04a2 25       		.byte	37
 1856 04a3 08       		.byte	8
 1857 04a4 27       		.byte	39
 1858 04a5 22       		.byte	34
 1859 04a6 28       		.byte	40
 1860 04a7 20       		.byte	32
 1861 04a8 2B       		.byte	43
 1862 04a9 08       		.byte	8
 1863 04aa 2F       		.byte	47
 1864 04ab 02       		.byte	2
 1865 04ac 30       		.byte	48
 1866 04ad 84       		.byte	-124
 1867 04ae 31       		.byte	49
 1868 04af 10       		.byte	16
 1869 04b0 32       		.byte	50
 1870 04b1 04       		.byte	4
 1871 04b2 37       		.byte	55
 1872 04b3 02       		.byte	2
 1873 04b4 3B       		.byte	59
 1874 04b5 04       		.byte	4
 1875 04b6 3E       		.byte	62
 1876 04b7 80       		.byte	-128
 1877 04b8 40       		.byte	64
 1878 04b9 04       		.byte	4
 1879 04ba 41       		.byte	65
 1880 04bb 08       		.byte	8
 1881 04bc 47       		.byte	71
 1882 04bd 28       		.byte	40
 1883 04be 48       		.byte	72
 1884 04bf 44       		.byte	68
 1885 04c0 4B       		.byte	75
 1886 04c1 04       		.byte	4
 1887 04c2 4F       		.byte	79
 1888 04c3 20       		.byte	32
 1889 04c4 50       		.byte	80
 1890 04c5 80       		.byte	-128
 1891 04c6 52       		.byte	82
 1892 04c7 24       		.byte	36
ARM GAS  C:\Users\austc\AppData\Local\Temp\ccPHGH8e.s 			page 55


 1893 04c8 59       		.byte	89
 1894 04c9 09       		.byte	9
 1895 04ca 5A       		.byte	90
 1896 04cb 80       		.byte	-128
 1897 04cc 60       		.byte	96
 1898 04cd 80       		.byte	-128
 1899 04ce 76       		.byte	118
 1900 04cf 80       		.byte	-128
 1901 04d0 80       		.byte	-128
 1902 04d1 80       		.byte	-128
 1903 04d2 91       		.byte	-111
 1904 04d3 08       		.byte	8
 1905 04d4 92       		.byte	-110
 1906 04d5 A4       		.byte	-92
 1907 04d6 95       		.byte	-107
 1908 04d7 02       		.byte	2
 1909 04d8 96       		.byte	-106
 1910 04d9 08       		.byte	8
 1911 04da 97       		.byte	-105
 1912 04db 04       		.byte	4
 1913 04dc 99       		.byte	-103
 1914 04dd 1F       		.byte	31
 1915 04de 9C       		.byte	-100
 1916 04df 04       		.byte	4
 1917 04e0 9E       		.byte	-98
 1918 04e1 04       		.byte	4
 1919 04e2 A2       		.byte	-94
 1920 04e3 02       		.byte	2
 1921 04e4 A3       		.byte	-93
 1922 04e5 08       		.byte	8
 1923 04e6 A4       		.byte	-92
 1924 04e7 C0       		.byte	-64
 1925 04e8 A6       		.byte	-90
 1926 04e9 A0       		.byte	-96
 1927 04ea A7       		.byte	-89
 1928 04eb 10       		.byte	16
 1929 04ec AF       		.byte	-81
 1930 04ed 14       		.byte	20
 1931 04ee C0       		.byte	-64
 1932 04ef FF       		.byte	-1
 1933 04f0 C2       		.byte	-62
 1934 04f1 4E       		.byte	78
 1935 04f2 C4       		.byte	-60
 1936 04f3 66       		.byte	102
 1937 04f4 CA       		.byte	-54
 1938 04f5 16       		.byte	22
 1939 04f6 CC       		.byte	-52
 1940 04f7 8E       		.byte	-114
 1941 04f8 CE       		.byte	-50
 1942 04f9 12       		.byte	18
 1943 04fa D0       		.byte	-48
 1944 04fb 66       		.byte	102
 1945 04fc D2       		.byte	-46
 1946 04fd 24       		.byte	36
 1947 04fe D6       		.byte	-42
 1948 04ff 0B       		.byte	11
 1949 0500 D8       		.byte	-40
ARM GAS  C:\Users\austc\AppData\Local\Temp\ccPHGH8e.s 			page 56


 1950 0501 01       		.byte	1
 1951 0502 03       		.byte	3
 1952 0503 08       		.byte	8
 1953 0504 05       		.byte	5
 1954 0505 10       		.byte	16
 1955 0506 6B       		.byte	107
 1956 0507 60       		.byte	96
 1957 0508 6C       		.byte	108
 1958 0509 20       		.byte	32
 1959 050a 6E       		.byte	110
 1960 050b 02       		.byte	2
 1961 050c 87       		.byte	-121
 1962 050d 20       		.byte	32
 1963 050e 8F       		.byte	-113
 1964 050f 40       		.byte	64
 1965 0510 C0       		.byte	-64
 1966 0511 C0       		.byte	-64
 1967 0512 DA       		.byte	-38
 1968 0513 C0       		.byte	-64
 1969 0514 DC       		.byte	-36
 1970 0515 60       		.byte	96
 1971 0516 E2       		.byte	-30
 1972 0517 40       		.byte	64
 1973 0518 63       		.byte	99
 1974 0519 40       		.byte	64
 1975 051a 80       		.byte	-128
 1976 051b 20       		.byte	32
 1977 051c 93       		.byte	-109
 1978 051d 40       		.byte	64
 1979 051e A4       		.byte	-92
 1980 051f 20       		.byte	32
 1981 0520 A6       		.byte	-90
 1982 0521 01       		.byte	1
 1983 0522 A9       		.byte	-87
 1984 0523 10       		.byte	16
 1985 0524 AB       		.byte	-85
 1986 0525 08       		.byte	8
 1987 0526 AF       		.byte	-81
 1988 0527 40       		.byte	64
 1989 0528 D8       		.byte	-40
 1990 0529 40       		.byte	64
 1991 052a E2       		.byte	-30
 1992 052b 80       		.byte	-128
 1993 052c EC       		.byte	-20
 1994 052d A0       		.byte	-96
 1995 052e EE       		.byte	-18
 1996 052f 40       		.byte	64
 1997 0530 0A       		.byte	10
 1998 0531 08       		.byte	8
 1999 0532 0F       		.byte	15
 2000 0533 40       		.byte	64
 2001 0534 A6       		.byte	-90
 2002 0535 01       		.byte	1
 2003 0536 C2       		.byte	-62
 2004 0537 60       		.byte	96
 2005 0538 82       		.byte	-126
 2006 0539 01       		.byte	1
ARM GAS  C:\Users\austc\AppData\Local\Temp\ccPHGH8e.s 			page 57


 2007 053a A6       		.byte	-90
 2008 053b 01       		.byte	1
 2009 053c AE       		.byte	-82
 2010 053d 04       		.byte	4
 2011 053e AF       		.byte	-81
 2012 053f 40       		.byte	64
 2013 0540 E6       		.byte	-26
 2014 0541 80       		.byte	-128
 2015 0542 EC       		.byte	-20
 2016 0543 50       		.byte	80
 2017 0544 00       		.byte	0
 2018 0545 40       		.byte	64
 2019 0546 01       		.byte	1
 2020 0547 04       		.byte	4
 2021 0548 05       		.byte	5
 2022 0549 20       		.byte	32
 2023 054a 07       		.byte	7
 2024 054b 40       		.byte	64
 2025 054c 80       		.byte	-128
 2026 054d 40       		.byte	64
 2027 054e 89       		.byte	-119
 2028 054f 20       		.byte	32
 2029 0550 C0       		.byte	-64
 2030 0551 0F       		.byte	15
 2031 0552 E2       		.byte	-30
 2032 0553 04       		.byte	4
 2033 0554 B1       		.byte	-79
 2034 0555 04       		.byte	4
 2035 0556 B7       		.byte	-73
 2036 0557 40       		.byte	64
 2037 0558 EA       		.byte	-22
 2038 0559 0C       		.byte	12
 2039 055a 10       		.byte	16
 2040 055b 0E       		.byte	14
 2041 055c 11       		.byte	17
 2042 055d 01       		.byte	1
 2043 055e 12       		.byte	18
 2044 055f 0A       		.byte	10
 2045 0560 13       		.byte	19
 2046 0561 01       		.byte	1
 2047 0562 0000     		.space	2
 2048              		.type	cy_cfg_addr_table.6749, %object
 2049              		.size	cy_cfg_addr_table.6749, 64
 2050              	cy_cfg_addr_table.6749:
 2051 0564 08000F40 		.word	1074724872
 2052 0568 3D300F40 		.word	1074737213
 2053 056c 31310F40 		.word	1074737457
 2054 0570 61320F40 		.word	1074737761
 2055 0574 4D330F40 		.word	1074737997
 2056 0578 60340F40 		.word	1074738272
 2057 057c 48350F40 		.word	1074738504
 2058 0580 6A360F40 		.word	1074738794
 2059 0584 45370F40 		.word	1074739013
 2060 0588 0B400F40 		.word	1074741259
 2061 058c 0C410F40 		.word	1074741516
 2062 0590 04420F40 		.word	1074741764
 2063 0594 06430F40 		.word	1074742022
ARM GAS  C:\Users\austc\AppData\Local\Temp\ccPHGH8e.s 			page 58


 2064 0598 08450F40 		.word	1074742536
 2065 059c 03460F40 		.word	1074742787
 2066 05a0 04600F40 		.word	1074749444
 2067              		.text
 2068              	.Letext0:
 2069              		.file 2 "c:\\program files (x86)\\cypress\\psoc creator\\4.2\\psoc creator\\import\\gnu\\arm\\5.4.
 2070              		.file 3 "Generated_Source\\PSoC4\\cytypes.h"
 2071              		.file 4 "Generated_Source\\PSoC4\\CyLib.h"