ARM GAS  C:\Users\Austcha\AppData\Local\Temp\cczBqnel.s 			page 1


   1              		.syntax unified
   2              		.cpu cortex-m0
   3              		.fpu softvfp
   4              		.eabi_attribute 20, 1
   5              		.eabi_attribute 21, 1
   6              		.eabi_attribute 23, 3
   7              		.eabi_attribute 24, 1
   8              		.eabi_attribute 25, 1
   9              		.eabi_attribute 26, 1
  10              		.eabi_attribute 30, 1
  11              		.eabi_attribute 34, 0
  12              		.eabi_attribute 18, 4
  13              		.thumb
  14              		.syntax unified
  15              		.file	"LED_Array.c"
  16              		.text
  17              	.Ltext0:
  18              		.cfi_sections	.debug_frame
  19              		.section	.text.initalize_LEDs,"ax",%progbits
  20              		.align	2
  21              		.global	initalize_LEDs
  22              		.code	16
  23              		.thumb_func
  24              		.type	initalize_LEDs, %function
  25              	initalize_LEDs:
  26              	.LFB35:
  27              		.file 1 "LED_Array.c"
   1:LED_Array.c   **** /* ========================================
   2:LED_Array.c   ****  *
   3:LED_Array.c   ****  * Copyright YOUR COMPANY, THE YEAR
   4:LED_Array.c   ****  * All Rights Reserved
   5:LED_Array.c   ****  * UNPUBLISHED, LICENSED SOFTWARE.
   6:LED_Array.c   ****  *
   7:LED_Array.c   ****  * CONFIDENTIAL AND PROPRIETARY INFORMATION
   8:LED_Array.c   ****  * WHICH IS THE PROPERTY OF your company.
   9:LED_Array.c   ****  *
  10:LED_Array.c   ****  * ========================================
  11:LED_Array.c   **** */
  12:LED_Array.c   **** #include "LED_Array.h"
  13:LED_Array.c   **** #include "project.h"
  14:LED_Array.c   **** 
  15:LED_Array.c   **** extern const uint32 StripLights_CLUT[ ];
  16:LED_Array.c   **** 
  17:LED_Array.c   **** void colorShift(uint32_t color1, uint32_t color2,
  18:LED_Array.c   ****                 uint32_t transition, uint32_t increment) 
  19:LED_Array.c   ****     {
  20:LED_Array.c   ****         int16_t g1 = (uint8)(color1 & 0x000000FF);  // Write Green
  21:LED_Array.c   ****         int16_t r1 = (uint8)((color1 >> 8) & 0x000000FF);  // Write Red
  22:LED_Array.c   ****         int16_t b1 = (uint8)((color1 >> 16) & 0x000000FF);  // Write Blue
  23:LED_Array.c   ****         
  24:LED_Array.c   ****         int16_t g2 = (uint8)(color2 & 0x000000FF);  // Write Green
  25:LED_Array.c   ****         int16_t r2 = (uint8)((color2 >> 8) & 0x000000FF);  // Write Red
  26:LED_Array.c   ****         int16_t b2 = (uint8)((color2 >> 16) & 0x000000FF);  // Write Blue
  27:LED_Array.c   ****         
  28:LED_Array.c   ****         
  29:LED_Array.c   ****         double r_inc = r2 - r1;
  30:LED_Array.c   ****         double g_inc = g2 - g1;
ARM GAS  C:\Users\Austcha\AppData\Local\Temp\cczBqnel.s 			page 2


  31:LED_Array.c   ****         double b_inc = b2 - b1;
  32:LED_Array.c   ****         
  33:LED_Array.c   ****         r_inc /= increment;
  34:LED_Array.c   ****         g_inc /= increment;
  35:LED_Array.c   ****         b_inc /= increment;
  36:LED_Array.c   ****         
  37:LED_Array.c   ****         uint8_t r = r_inc*transition + r1;
  38:LED_Array.c   ****         uint8_t g = g_inc*transition + g1;
  39:LED_Array.c   ****         uint8_t b = b_inc*transition + b1;
  40:LED_Array.c   ****         
  41:LED_Array.c   ****         set_all_LED_Colors(get_color_packet(r,g,b));
  42:LED_Array.c   ****         
  43:LED_Array.c   ****     }
  44:LED_Array.c   **** 
  45:LED_Array.c   **** void initalize_LEDs(uint8_t brightness) {
  28              		.loc 1 45 0
  29              		.cfi_startproc
  30              		@ args = 0, pretend = 0, frame = 0
  31              		@ frame_needed = 0, uses_anonymous_args = 0
  32              	.LVL0:
  33 0000 10B5     		push	{r4, lr}
  34              		.cfi_def_cfa_offset 8
  35              		.cfi_offset 4, -8
  36              		.cfi_offset 14, -4
  37 0002 0400     		movs	r4, r0
  46:LED_Array.c   ****     // Initialize StripLights   
  47:LED_Array.c   ****     StripLights_Start();  
  38              		.loc 1 47 0
  39 0004 FFF7FEFF 		bl	StripLights_Start
  40              	.LVL1:
  48:LED_Array.c   ****     
  49:LED_Array.c   **** 	if(brightness > 4) brightness = 4;
  41              		.loc 1 49 0
  42 0008 042C     		cmp	r4, #4
  43 000a 00D9     		bls	.L2
  44 000c 0424     		movs	r4, #4
  45              	.L2:
  46              	.LVL2:
  50:LED_Array.c   **** 	// Set dim level 0 = full power, 4 = lowest power
  51:LED_Array.c   ****     StripLights_Dim(brightness); 
  47              		.loc 1 51 0
  48 000e 2000     		movs	r0, r4
  49 0010 FFF7FEFF 		bl	StripLights_Dim
  50              	.LVL3:
  52:LED_Array.c   **** 	
  53:LED_Array.c   **** 	// Clear all memory to orange
  54:LED_Array.c   **** 	StripLights_MemClear(StripLights_ORANGE);
  51              		.loc 1 54 0
  52 0014 034B     		ldr	r3, .L4
  53 0016 186D     		ldr	r0, [r3, #80]
  54 0018 FFF7FEFF 		bl	StripLights_MemClear
  55              	.LVL4:
  55:LED_Array.c   ****     StripLights_Trigger(1);    
  56              		.loc 1 55 0
  57 001c 0120     		movs	r0, #1
  58 001e FFF7FEFF 		bl	StripLights_Trigger
  59              	.LVL5:
ARM GAS  C:\Users\Austcha\AppData\Local\Temp\cczBqnel.s 			page 3


  56:LED_Array.c   **** }
  60              		.loc 1 56 0
  61              		@ sp needed
  62              	.LVL6:
  63 0022 10BD     		pop	{r4, pc}
  64              	.L5:
  65              		.align	2
  66              	.L4:
  67 0024 00000000 		.word	StripLights_CLUT
  68              		.cfi_endproc
  69              	.LFE35:
  70              		.size	initalize_LEDs, .-initalize_LEDs
  71              		.section	.text.set_all_LED_Colors,"ax",%progbits
  72              		.align	2
  73              		.global	set_all_LED_Colors
  74              		.code	16
  75              		.thumb_func
  76              		.type	set_all_LED_Colors, %function
  77              	set_all_LED_Colors:
  78              	.LFB36:
  57:LED_Array.c   **** 
  58:LED_Array.c   **** void set_all_LED_Colors(uint32_t color) {
  79              		.loc 1 58 0
  80              		.cfi_startproc
  81              		@ args = 0, pretend = 0, frame = 0
  82              		@ frame_needed = 0, uses_anonymous_args = 0
  83              	.LVL7:
  84 0000 70B5     		push	{r4, r5, r6, lr}
  85              		.cfi_def_cfa_offset 16
  86              		.cfi_offset 4, -16
  87              		.cfi_offset 5, -12
  88              		.cfi_offset 6, -8
  89              		.cfi_offset 14, -4
  90 0002 0500     		movs	r5, r0
  59:LED_Array.c   ****     if(StripLights_Ready()) {
  91              		.loc 1 59 0
  92 0004 FFF7FEFF 		bl	StripLights_Ready
  93              	.LVL8:
  94 0008 0028     		cmp	r0, #0
  95 000a 08D1     		bne	.L10
  96 000c 0DE0     		b	.L6
  97              	.LVL9:
  98              	.L9:
  99              	.LBB2:
  60:LED_Array.c   ****         for(uint8_t ledPosition = 0; ledPosition <= StripLights_TOTAL_LEDS; ledPosition++){
  61:LED_Array.c   ****            // if(color >= StripLights_COLOR_WHEEL_SIZE) color = 0;
  62:LED_Array.c   ****             StripLights_Pixel(ledPosition, 0, color);
 100              		.loc 1 62 0 discriminator 3
 101 000e 2A00     		movs	r2, r5
 102 0010 0021     		movs	r1, #0
 103 0012 2000     		movs	r0, r4
 104 0014 FFF7FEFF 		bl	StripLights_Pixel
 105              	.LVL10:
  60:LED_Array.c   ****         for(uint8_t ledPosition = 0; ledPosition <= StripLights_TOTAL_LEDS; ledPosition++){
 106              		.loc 1 60 0 discriminator 3
 107 0018 0134     		adds	r4, r4, #1
 108              	.LVL11:
ARM GAS  C:\Users\Austcha\AppData\Local\Temp\cczBqnel.s 			page 4


 109 001a E4B2     		uxtb	r4, r4
 110              	.LVL12:
 111 001c 00E0     		b	.L7
 112              	.LVL13:
 113              	.L10:
 114              	.LBE2:
 115 001e 0024     		movs	r4, #0
 116              	.L7:
 117              	.LVL14:
 118              	.LBB3:
  60:LED_Array.c   ****         for(uint8_t ledPosition = 0; ledPosition <= StripLights_TOTAL_LEDS; ledPosition++){
 119              		.loc 1 60 0 is_stmt 0 discriminator 1
 120 0020 032C     		cmp	r4, #3
 121 0022 F4D9     		bls	.L9
 122              	.LBE3:
  63:LED_Array.c   ****         }
  64:LED_Array.c   ****         StripLights_Trigger(1);
 123              		.loc 1 64 0 is_stmt 1
 124 0024 0120     		movs	r0, #1
 125 0026 FFF7FEFF 		bl	StripLights_Trigger
 126              	.LVL15:
 127              	.L6:
  65:LED_Array.c   ****     }
  66:LED_Array.c   **** }
 128              		.loc 1 66 0
 129              		@ sp needed
 130              	.LVL16:
 131 002a 70BD     		pop	{r4, r5, r6, pc}
 132              		.cfi_endproc
 133              	.LFE36:
 134              		.size	set_all_LED_Colors, .-set_all_LED_Colors
 135              		.section	.text.get_color_packet,"ax",%progbits
 136              		.align	2
 137              		.global	get_color_packet
 138              		.code	16
 139              		.thumb_func
 140              		.type	get_color_packet, %function
 141              	get_color_packet:
 142              	.LFB37:
  67:LED_Array.c   **** 
  68:LED_Array.c   **** //0 - 255 for each rgb value
  69:LED_Array.c   **** //returns what the striplight library expects for "color"
  70:LED_Array.c   **** uint32_t get_color_packet(uint8_t r, uint8_t g, uint8_t b) {
 143              		.loc 1 70 0
 144              		.cfi_startproc
 145              		@ args = 0, pretend = 0, frame = 0
 146              		@ frame_needed = 0, uses_anonymous_args = 0
 147              		@ link register save eliminated.
 148              	.LVL17:
  71:LED_Array.c   ****     return (b << 16 | r << 8 | g);
 149              		.loc 1 71 0
 150 0000 1204     		lsls	r2, r2, #16
 151              	.LVL18:
 152 0002 0302     		lsls	r3, r0, #8
 153 0004 1A43     		orrs	r2, r3
 154 0006 1000     		movs	r0, r2
 155              	.LVL19:
ARM GAS  C:\Users\Austcha\AppData\Local\Temp\cczBqnel.s 			page 5


 156 0008 0843     		orrs	r0, r1
  72:LED_Array.c   **** }
 157              		.loc 1 72 0
 158              		@ sp needed
 159 000a 7047     		bx	lr
 160              		.cfi_endproc
 161              	.LFE37:
 162              		.size	get_color_packet, .-get_color_packet
 163              		.global	__aeabi_i2d
 164              		.global	__aeabi_ui2d
 165              		.global	__aeabi_ddiv
 166              		.global	__aeabi_dmul
 167              		.global	__aeabi_dadd
 168              		.global	__aeabi_d2uiz
 169              		.section	.text.colorShift,"ax",%progbits
 170              		.align	2
 171              		.global	colorShift
 172              		.code	16
 173              		.thumb_func
 174              		.type	colorShift, %function
 175              	colorShift:
 176              	.LFB34:
  19:LED_Array.c   ****         int16_t g1 = (uint8)(color1 & 0x000000FF);  // Write Green
 177              		.loc 1 19 0
 178              		.cfi_startproc
 179              		@ args = 0, pretend = 0, frame = 48
 180              		@ frame_needed = 0, uses_anonymous_args = 0
 181              	.LVL20:
 182 0000 F0B5     		push	{r4, r5, r6, r7, lr}
 183              		.cfi_def_cfa_offset 20
 184              		.cfi_offset 4, -20
 185              		.cfi_offset 5, -16
 186              		.cfi_offset 6, -12
 187              		.cfi_offset 7, -8
 188              		.cfi_offset 14, -4
 189 0002 5746     		mov	r7, r10
 190 0004 4E46     		mov	r6, r9
 191 0006 4546     		mov	r5, r8
 192 0008 E0B4     		push	{r5, r6, r7}
 193              		.cfi_def_cfa_offset 32
 194              		.cfi_offset 8, -32
 195              		.cfi_offset 9, -28
 196              		.cfi_offset 10, -24
 197 000a 8CB0     		sub	sp, sp, #48
 198              		.cfi_def_cfa_offset 80
 199 000c 0700     		movs	r7, r0
 200 000e 0C00     		movs	r4, r1
 201 0010 0292     		str	r2, [sp, #8]
 202 0012 0493     		str	r3, [sp, #16]
  20:LED_Array.c   ****         int16_t r1 = (uint8)((color1 >> 8) & 0x000000FF);  // Write Red
 203              		.loc 1 20 0
 204 0014 C3B2     		uxtb	r3, r0
 205              	.LVL21:
 206 0016 19B2     		sxth	r1, r3
 207              	.LVL22:
 208 0018 8846     		mov	r8, r1
 209              	.LVL23:
ARM GAS  C:\Users\Austcha\AppData\Local\Temp\cczBqnel.s 			page 6


  21:LED_Array.c   ****         int16_t b1 = (uint8)((color1 >> 16) & 0x000000FF);  // Write Blue
 210              		.loc 1 21 0
 211 001a 020A     		lsrs	r2, r0, #8
 212              	.LVL24:
 213 001c D3B2     		uxtb	r3, r2
 214 001e 19B2     		sxth	r1, r3
 215 0020 8946     		mov	r9, r1
 216              	.LVL25:
  22:LED_Array.c   ****         
 217              		.loc 1 22 0
 218 0022 060C     		lsrs	r6, r0, #16
 219 0024 F3B2     		uxtb	r3, r6
 220 0026 19B2     		sxth	r1, r3
 221 0028 0191     		str	r1, [sp, #4]
 222              	.LVL26:
  25:LED_Array.c   ****         int16_t b2 = (uint8)((color2 >> 16) & 0x000000FF);  // Write Blue
 223              		.loc 1 25 0
 224 002a 200A     		lsrs	r0, r4, #8
 225              	.LVL27:
  26:LED_Array.c   ****         
 226              		.loc 1 26 0
 227 002c 250C     		lsrs	r5, r4, #16
 228 002e AA46     		mov	r10, r5
 229              	.LVL28:
  29:LED_Array.c   ****         double g_inc = g2 - g1;
 230              		.loc 1 29 0
 231 0030 FF25     		movs	r5, #255
 232 0032 0300     		movs	r3, r0
 233 0034 2B40     		ands	r3, r5
 234 0036 2A40     		ands	r2, r5
 235 0038 981A     		subs	r0, r3, r2
 236              	.LVL29:
 237 003a FFF7FEFF 		bl	__aeabi_i2d
 238              	.LVL30:
 239 003e 0690     		str	r0, [sp, #24]
 240 0040 0791     		str	r1, [sp, #28]
 241              	.LVL31:
  30:LED_Array.c   ****         double b_inc = b2 - b1;
 242              		.loc 1 30 0
 243 0042 2C40     		ands	r4, r5
 244              	.LVL32:
 245 0044 2F40     		ands	r7, r5
 246              	.LVL33:
 247 0046 E01B     		subs	r0, r4, r7
 248              	.LVL34:
 249 0048 FFF7FEFF 		bl	__aeabi_i2d
 250              	.LVL35:
 251 004c 0890     		str	r0, [sp, #32]
 252 004e 0991     		str	r1, [sp, #36]
 253              	.LVL36:
  31:LED_Array.c   ****         
 254              		.loc 1 31 0
 255 0050 5346     		mov	r3, r10
 256 0052 2B40     		ands	r3, r5
 257 0054 3540     		ands	r5, r6
 258 0056 581B     		subs	r0, r3, r5
 259              	.LVL37:
ARM GAS  C:\Users\Austcha\AppData\Local\Temp\cczBqnel.s 			page 7


 260 0058 FFF7FEFF 		bl	__aeabi_i2d
 261              	.LVL38:
 262 005c 0A90     		str	r0, [sp, #40]
 263 005e 0B91     		str	r1, [sp, #44]
 264              	.LVL39:
  33:LED_Array.c   ****         g_inc /= increment;
 265              		.loc 1 33 0
 266 0060 0498     		ldr	r0, [sp, #16]
 267              	.LVL40:
 268 0062 FFF7FEFF 		bl	__aeabi_ui2d
 269              	.LVL41:
 270 0066 0600     		movs	r6, r0
 271 0068 0F00     		movs	r7, r1
 272 006a 0200     		movs	r2, r0
 273 006c 0B00     		movs	r3, r1
 274 006e 0698     		ldr	r0, [sp, #24]
 275 0070 0799     		ldr	r1, [sp, #28]
 276 0072 FFF7FEFF 		bl	__aeabi_ddiv
 277              	.LVL42:
 278 0076 0400     		movs	r4, r0
 279 0078 0D00     		movs	r5, r1
 280              	.LVL43:
  34:LED_Array.c   ****         b_inc /= increment;
 281              		.loc 1 34 0
 282 007a 3200     		movs	r2, r6
 283 007c 3B00     		movs	r3, r7
 284 007e 0898     		ldr	r0, [sp, #32]
 285 0080 0999     		ldr	r1, [sp, #36]
 286 0082 FFF7FEFF 		bl	__aeabi_ddiv
 287              	.LVL44:
 288 0086 0490     		str	r0, [sp, #16]
 289 0088 0591     		str	r1, [sp, #20]
 290              	.LVL45:
  35:LED_Array.c   ****         
 291              		.loc 1 35 0
 292 008a 3200     		movs	r2, r6
 293 008c 3B00     		movs	r3, r7
 294 008e 0A98     		ldr	r0, [sp, #40]
 295 0090 0B99     		ldr	r1, [sp, #44]
 296              	.LVL46:
 297 0092 FFF7FEFF 		bl	__aeabi_ddiv
 298              	.LVL47:
 299 0096 0690     		str	r0, [sp, #24]
 300 0098 0791     		str	r1, [sp, #28]
 301              	.LVL48:
  37:LED_Array.c   ****         uint8_t g = g_inc*transition + g1;
 302              		.loc 1 37 0
 303 009a 0298     		ldr	r0, [sp, #8]
 304              	.LVL49:
 305 009c FFF7FEFF 		bl	__aeabi_ui2d
 306              	.LVL50:
 307 00a0 0600     		movs	r6, r0
 308 00a2 0F00     		movs	r7, r1
 309 00a4 0200     		movs	r2, r0
 310 00a6 0B00     		movs	r3, r1
 311 00a8 2000     		movs	r0, r4
 312 00aa 2900     		movs	r1, r5
ARM GAS  C:\Users\Austcha\AppData\Local\Temp\cczBqnel.s 			page 8


 313 00ac FFF7FEFF 		bl	__aeabi_dmul
 314              	.LVL51:
 315 00b0 0400     		movs	r4, r0
 316              	.LVL52:
 317 00b2 0D00     		movs	r5, r1
 318 00b4 4846     		mov	r0, r9
 319 00b6 FFF7FEFF 		bl	__aeabi_i2d
 320              	.LVL53:
 321 00ba 2200     		movs	r2, r4
 322 00bc 2B00     		movs	r3, r5
 323 00be FFF7FEFF 		bl	__aeabi_dadd
 324              	.LVL54:
 325 00c2 FFF7FEFF 		bl	__aeabi_d2uiz
 326              	.LVL55:
 327 00c6 C4B2     		uxtb	r4, r0
 328              	.LVL56:
  38:LED_Array.c   ****         uint8_t b = b_inc*transition + b1;
 329              		.loc 1 38 0
 330 00c8 3200     		movs	r2, r6
 331 00ca 3B00     		movs	r3, r7
 332 00cc 0498     		ldr	r0, [sp, #16]
 333 00ce 0599     		ldr	r1, [sp, #20]
 334 00d0 FFF7FEFF 		bl	__aeabi_dmul
 335              	.LVL57:
 336 00d4 0290     		str	r0, [sp, #8]
 337 00d6 0391     		str	r1, [sp, #12]
 338              	.LVL58:
 339 00d8 4046     		mov	r0, r8
 340 00da FFF7FEFF 		bl	__aeabi_i2d
 341              	.LVL59:
 342 00de 029A     		ldr	r2, [sp, #8]
 343 00e0 039B     		ldr	r3, [sp, #12]
 344 00e2 FFF7FEFF 		bl	__aeabi_dadd
 345              	.LVL60:
 346 00e6 FFF7FEFF 		bl	__aeabi_d2uiz
 347              	.LVL61:
 348 00ea C5B2     		uxtb	r5, r0
 349              	.LVL62:
  39:LED_Array.c   ****         
 350              		.loc 1 39 0
 351 00ec 3200     		movs	r2, r6
 352 00ee 3B00     		movs	r3, r7
 353 00f0 0698     		ldr	r0, [sp, #24]
 354 00f2 0799     		ldr	r1, [sp, #28]
 355 00f4 FFF7FEFF 		bl	__aeabi_dmul
 356              	.LVL63:
 357 00f8 0600     		movs	r6, r0
 358 00fa 0F00     		movs	r7, r1
 359 00fc 0198     		ldr	r0, [sp, #4]
 360 00fe FFF7FEFF 		bl	__aeabi_i2d
 361              	.LVL64:
 362 0102 3200     		movs	r2, r6
 363 0104 3B00     		movs	r3, r7
 364 0106 FFF7FEFF 		bl	__aeabi_dadd
 365              	.LVL65:
 366 010a FFF7FEFF 		bl	__aeabi_d2uiz
 367              	.LVL66:
ARM GAS  C:\Users\Austcha\AppData\Local\Temp\cczBqnel.s 			page 9


 368 010e C2B2     		uxtb	r2, r0
 369              	.LVL67:
  41:LED_Array.c   ****         
 370              		.loc 1 41 0
 371 0110 2900     		movs	r1, r5
 372 0112 2000     		movs	r0, r4
 373 0114 FFF7FEFF 		bl	get_color_packet
 374              	.LVL68:
 375 0118 FFF7FEFF 		bl	set_all_LED_Colors
 376              	.LVL69:
  43:LED_Array.c   **** 
 377              		.loc 1 43 0
 378 011c 0CB0     		add	sp, sp, #48
 379              		@ sp needed
 380              	.LVL70:
 381              	.LVL71:
 382              	.LVL72:
 383              	.LVL73:
 384              	.LVL74:
 385 011e 1CBC     		pop	{r2, r3, r4}
 386 0120 9046     		mov	r8, r2
 387 0122 9946     		mov	r9, r3
 388 0124 A246     		mov	r10, r4
 389 0126 F0BD     		pop	{r4, r5, r6, r7, pc}
 390              		.cfi_endproc
 391              	.LFE34:
 392              		.size	colorShift, .-colorShift
 393              		.text
 394              	.Letext0:
 395              		.file 2 "c:\\program files (x86)\\cypress\\psoc creator\\4.3\\psoc creator\\import\\gnu\\arm\\5.4.
 396              		.file 3 "c:\\program files (x86)\\cypress\\psoc creator\\4.3\\psoc creator\\import\\gnu\\arm\\5.4.
 397              		.file 4 "Generated_Source\\PSoC4/cytypes.h"
 398              		.file 5 "Generated_Source\\PSoC4/StripLights.h"