ARM GAS  C:\Users\austc\AppData\Local\Temp\ccDZNzbh.s 			page 1


   1              		.syntax unified
   2              		.cpu cortex-m0
   3              		.fpu softvfp
   4              		.eabi_attribute 20, 1
   5              		.eabi_attribute 21, 1
   6              		.eabi_attribute 23, 3
   7              		.eabi_attribute 24, 1
   8              		.eabi_attribute 25, 1
   9              		.eabi_attribute 26, 1
  10              		.eabi_attribute 30, 1
  11              		.eabi_attribute 34, 0
  12              		.eabi_attribute 18, 4
  13              		.thumb
  14              		.syntax unified
  15              		.file	"main.c"
  16              		.text
  17              	.Ltext0:
  18              		.cfi_sections	.debug_frame
  19              		.section	.text.Period_Reset_Handler,"ax",%progbits
  20              		.align	2
  21              		.global	Period_Reset_Handler
  22              		.code	16
  23              		.thumb_func
  24              		.type	Period_Reset_Handler, %function
  25              	Period_Reset_Handler:
  26              	.LFB35:
  27              		.file 1 "main.c"
   1:main.c        **** /* ========================================
   2:main.c        ****  *
   3:main.c        ****  * Copyright YOUR COMPANY, THE YEAR
   4:main.c        ****  * All Rights Reserved
   5:main.c        ****  * UNPUBLISHED, LICENSED SOFTWARE.
   6:main.c        ****  *
   7:main.c        ****  * CONFIDENTIAL AND PROPRIETARY INFORMATION
   8:main.c        ****  * WHICH IS THE PROPERTY OF your company.
   9:main.c        ****  *
  10:main.c        ****  * ========================================
  11:main.c        **** */
  12:main.c        **** #include <project.h>
  13:main.c        **** #include "cyapicallbacks.h"
  14:main.c        **** #include <stdio.h>
  15:main.c        **** #include <stdint.h>
  16:main.c        **** #include "../CANLib/CANLibrary.h"
  17:main.c        **** #include "MotorDrive.h"
  18:main.c        **** 
  19:main.c        **** //LED
  20:main.c        **** uint8 time_LED = 0;
  21:main.c        **** 
  22:main.c        **** //Uart variables
  23:main.c        **** char8 txData[TX_DATA_SIZE];
  24:main.c        **** 
  25:main.c        **** //drive varaible
  26:main.c        **** uint8 invalidate = 0;
  27:main.c        **** 
  28:main.c        **** //drive mode
  29:main.c        **** volatile uint8 mode = 2;
  30:main.c        **** 
ARM GAS  C:\Users\austc\AppData\Local\Temp\ccDZNzbh.s 			page 2


  31:main.c        **** //Status and Data Structs
  32:main.c        **** volatile uint8 drive = 0;
  33:main.c        **** 
  34:main.c        **** int test;
  35:main.c        **** 
  36:main.c        **** 
  37:main.c        **** CY_ISR(Period_Reset_Handler) {
  28              		.loc 1 37 0
  29              		.cfi_startproc
  30              		@ args = 0, pretend = 0, frame = 0
  31              		@ frame_needed = 0, uses_anonymous_args = 0
  32 0000 10B5     		push	{r4, lr}
  33              		.cfi_def_cfa_offset 8
  34              		.cfi_offset 4, -8
  35              		.cfi_offset 14, -4
  38:main.c        ****     int timer = Timer_1_ReadStatusRegister();
  36              		.loc 1 38 0
  37 0002 FFF7FEFF 		bl	Timer_1_ReadStatusRegister
  38              	.LVL0:
  39:main.c        ****    /* if(uart_debug) {
  40:main.c        ****         sprintf(txData,"Period interupt triggerd %x\r\n", timer);
  41:main.c        ****         //UART_UartPutString(txData);
  42:main.c        ****     }*/
  43:main.c        ****     invalidate++;
  39              		.loc 1 43 0
  40 0006 084A     		ldr	r2, .L3
  41 0008 1378     		ldrb	r3, [r2]
  42 000a 0133     		adds	r3, r3, #1
  43 000c DBB2     		uxtb	r3, r3
  44 000e 1370     		strb	r3, [r2]
  44:main.c        ****     time_LED++;
  45              		.loc 1 44 0
  46 0010 5178     		ldrb	r1, [r2, #1]
  47 0012 0131     		adds	r1, r1, #1
  48 0014 5170     		strb	r1, [r2, #1]
  45:main.c        ****     if(invalidate >= 20){
  49              		.loc 1 45 0
  50 0016 132B     		cmp	r3, #19
  51 0018 04D9     		bls	.L1
  46:main.c        ****         set_PWM(0, 0, 0);   
  52              		.loc 1 46 0
  53 001a 0022     		movs	r2, #0
  54 001c 0021     		movs	r1, #0
  55 001e 0020     		movs	r0, #0
  56 0020 FFF7FEFF 		bl	set_PWM
  57              	.LVL1:
  58              	.L1:
  47:main.c        ****         //Can_rx_pwm.done = 1;
  48:main.c        ****     }
  49:main.c        **** }
  59              		.loc 1 49 0
  60              		@ sp needed
  61 0024 10BD     		pop	{r4, pc}
  62              	.L4:
  63 0026 C046     		.align	2
  64              	.L3:
  65 0028 00000000 		.word	.LANCHOR0
ARM GAS  C:\Users\austc\AppData\Local\Temp\ccDZNzbh.s 			page 3


  66              		.cfi_endproc
  67              	.LFE35:
  68              		.size	Period_Reset_Handler, .-Period_Reset_Handler
  69              		.section	.text.Pin_Limit_Handler,"ax",%progbits
  70              		.align	2
  71              		.global	Pin_Limit_Handler
  72              		.code	16
  73              		.thumb_func
  74              		.type	Pin_Limit_Handler, %function
  75              	Pin_Limit_Handler:
  76              	.LFB36:
  50:main.c        ****   
  51:main.c        **** CY_ISR(Pin_Limit_Handler){
  77              		.loc 1 51 0
  78              		.cfi_startproc
  79              		@ args = 0, pretend = 0, frame = 0
  80              		@ frame_needed = 0, uses_anonymous_args = 0
  81 0000 10B5     		push	{r4, lr}
  82              		.cfi_def_cfa_offset 8
  83              		.cfi_offset 4, -8
  84              		.cfi_offset 14, -4
  52:main.c        ****    /* if(uart_debug) {
  53:main.c        ****         sprintf(txData,"Limit interupt triggerd\r\n");
  54:main.c        ****         UART_UartPutString(txData);
  55:main.c        ****     }*/
  56:main.c        ****     set_PWM(0, 0, 0);
  85              		.loc 1 56 0
  86 0002 0022     		movs	r2, #0
  87 0004 0021     		movs	r1, #0
  88 0006 0020     		movs	r0, #0
  89 0008 FFF7FEFF 		bl	set_PWM
  90              	.LVL2:
  57:main.c        ****     QuadDec_SetCounter(0);
  91              		.loc 1 57 0
  92 000c 0020     		movs	r0, #0
  93 000e FFF7FEFF 		bl	QuadDec_SetCounter
  94              	.LVL3:
  58:main.c        **** }
  95              		.loc 1 58 0
  96              		@ sp needed
  97 0012 10BD     		pop	{r4, pc}
  98              		.cfi_endproc
  99              	.LFE36:
 100              		.size	Pin_Limit_Handler, .-Pin_Limit_Handler
 101              		.section	.text.Initialize,"ax",%progbits
 102              		.align	2
 103              		.global	Initialize
 104              		.code	16
 105              		.thumb_func
 106              		.type	Initialize, %function
 107              	Initialize:
 108              	.LFB38:
  59:main.c        **** 
  60:main.c        **** int main(void)
  61:main.c        **** { 
  62:main.c        ****     UART_Start();
  63:main.c        ****     Initialize();
ARM GAS  C:\Users\austc\AppData\Local\Temp\ccDZNzbh.s 			page 4


  64:main.c        ****     CANPacket my6Pack;
  65:main.c        ****     for(;;)
  66:main.c        ****     {
  67:main.c        ****         if(!PollAndReceiveCANPacket(&my6Pack)) {
  68:main.c        ****             for(int i = 0; i < 8; i++ ) {
  69:main.c        ****                 sprintf(txData,"Byte%d %x   ", i+1, my6Pack.data[i]);
  70:main.c        ****                 UART_UartPutString(txData);
  71:main.c        ****             }
  72:main.c        ****                 sprintf(txData,"\r\n");
  73:main.c        ****                 UART_UartPutString(txData);
  74:main.c        ****             //CyDelay(100);
  75:main.c        ****         }
  76:main.c        ****     }
  77:main.c        **** }
  78:main.c        ****  
  79:main.c        **** 
  80:main.c        **** 
  81:main.c        **** void Initialize(void) {
 109              		.loc 1 81 0
 110              		.cfi_startproc
 111              		@ args = 0, pretend = 0, frame = 0
 112              		@ frame_needed = 0, uses_anonymous_args = 0
 113 0000 10B5     		push	{r4, lr}
 114              		.cfi_def_cfa_offset 8
 115              		.cfi_offset 4, -8
 116              		.cfi_offset 14, -4
  82:main.c        ****     sprintf(txData, "Dip Addr: %x \r\n", Can_addr_Read());
 117              		.loc 1 82 0
 118 0002 FFF7FEFF 		bl	Can_addr_Read
 119              	.LVL4:
 120 0006 0200     		movs	r2, r0
 121 0008 0D4C     		ldr	r4, .L7
 122 000a 0E49     		ldr	r1, .L7+4
 123 000c 2000     		movs	r0, r4
 124 000e FFF7FEFF 		bl	sprintf
 125              	.LVL5:
  83:main.c        ****     UART_UartPutString(txData);
 126              		.loc 1 83 0
 127 0012 2000     		movs	r0, r4
 128 0014 FFF7FEFF 		bl	UART_UartPutString
 129              	.LVL6:
  84:main.c        ****     
  85:main.c        ****     InitCAN(0x4, Can_addr_Read());
 130              		.loc 1 85 0
 131 0018 FFF7FEFF 		bl	Can_addr_Read
 132              	.LVL7:
 133 001c 0100     		movs	r1, r0
 134 001e 0420     		movs	r0, #4
 135 0020 FFF7FEFF 		bl	InitCAN
 136              	.LVL8:
  86:main.c        ****     Timer_1_Start();
 137              		.loc 1 86 0
 138 0024 FFF7FEFF 		bl	Timer_1_Start
 139              	.LVL9:
  87:main.c        ****     QuadDec_Start();
 140              		.loc 1 87 0
 141 0028 FFF7FEFF 		bl	QuadDec_Start
ARM GAS  C:\Users\austc\AppData\Local\Temp\ccDZNzbh.s 			page 5


 142              	.LVL10:
  88:main.c        ****     CAN_GlobalIntEnable();
 143              		.loc 1 88 0
 144 002c FFF7FEFF 		bl	CAN_GlobalIntEnable
 145              	.LVL11:
  89:main.c        ****     CyGlobalIntEnable; /* Enable global interrupts. */
 146              		.loc 1 89 0
 147              		.syntax divided
 148              	@ 89 "main.c" 1
 149 0030 62B6     		CPSIE   i
 150              	@ 0 "" 2
  90:main.c        ****     isr_Limit_1_StartEx(Pin_Limit_Handler);
 151              		.loc 1 90 0
 152              		.thumb
 153              		.syntax unified
 154 0032 0548     		ldr	r0, .L7+8
 155 0034 FFF7FEFF 		bl	isr_Limit_1_StartEx
 156              	.LVL12:
  91:main.c        ****     isr_period_StartEx(Period_Reset_Handler);
 157              		.loc 1 91 0
 158 0038 0448     		ldr	r0, .L7+12
 159 003a FFF7FEFF 		bl	isr_period_StartEx
 160              	.LVL13:
  92:main.c        **** }
 161              		.loc 1 92 0
 162              		@ sp needed
 163 003e 10BD     		pop	{r4, pc}
 164              	.L8:
 165              		.align	2
 166              	.L7:
 167 0040 00000000 		.word	txData
 168 0044 00000000 		.word	.LC1
 169 0048 00000000 		.word	Pin_Limit_Handler
 170 004c 00000000 		.word	Period_Reset_Handler
 171              		.cfi_endproc
 172              	.LFE38:
 173              		.size	Initialize, .-Initialize
 174              		.section	.text.main,"ax",%progbits
 175              		.align	2
 176              		.global	main
 177              		.code	16
 178              		.thumb_func
 179              		.type	main, %function
 180              	main:
 181              	.LFB37:
  61:main.c        ****     UART_Start();
 182              		.loc 1 61 0
 183              		.cfi_startproc
 184              		@ args = 0, pretend = 0, frame = 16
 185              		@ frame_needed = 0, uses_anonymous_args = 0
 186 0000 30B5     		push	{r4, r5, lr}
 187              		.cfi_def_cfa_offset 12
 188              		.cfi_offset 4, -12
 189              		.cfi_offset 5, -8
 190              		.cfi_offset 14, -4
 191 0002 85B0     		sub	sp, sp, #20
 192              		.cfi_def_cfa_offset 32
ARM GAS  C:\Users\austc\AppData\Local\Temp\ccDZNzbh.s 			page 6


  62:main.c        ****     Initialize();
 193              		.loc 1 62 0
 194 0004 FFF7FEFF 		bl	UART_Start
 195              	.LVL14:
  63:main.c        ****     CANPacket my6Pack;
 196              		.loc 1 63 0
 197 0008 FFF7FEFF 		bl	Initialize
 198              	.LVL15:
 199              	.L11:
  67:main.c        ****             for(int i = 0; i < 8; i++ ) {
 200              		.loc 1 67 0
 201 000c 01A8     		add	r0, sp, #4
 202 000e FFF7FEFF 		bl	PollAndReceiveCANPacket
 203              	.LVL16:
 204 0012 0028     		cmp	r0, #0
 205 0014 FAD1     		bne	.L11
 206 0016 0FE0     		b	.L14
 207              	.LVL17:
 208              	.L12:
 209              	.LBB2:
  69:main.c        ****                 UART_UartPutString(txData);
 210              		.loc 1 69 0 discriminator 3
 211 0018 5C1C     		adds	r4, r3, #1
 212 001a 01AA     		add	r2, sp, #4
 213 001c 9446     		mov	ip, r2
 214 001e 6344     		add	r3, r3, ip
 215              	.LVL18:
 216 0020 DB78     		ldrb	r3, [r3, #3]
 217 0022 0C4D     		ldr	r5, .L15
 218 0024 2200     		movs	r2, r4
 219 0026 0C49     		ldr	r1, .L15+4
 220 0028 2800     		movs	r0, r5
 221 002a FFF7FEFF 		bl	sprintf
 222              	.LVL19:
  70:main.c        ****             }
 223              		.loc 1 70 0 discriminator 3
 224 002e 2800     		movs	r0, r5
 225 0030 FFF7FEFF 		bl	UART_UartPutString
 226              	.LVL20:
  68:main.c        ****                 sprintf(txData,"Byte%d %x   ", i+1, my6Pack.data[i]);
 227              		.loc 1 68 0 discriminator 3
 228 0034 2300     		movs	r3, r4
 229 0036 00E0     		b	.L10
 230              	.LVL21:
 231              	.L14:
 232              	.LBE2:
 233 0038 0023     		movs	r3, #0
 234              	.L10:
 235              	.LVL22:
 236              	.LBB3:
  68:main.c        ****                 sprintf(txData,"Byte%d %x   ", i+1, my6Pack.data[i]);
 237              		.loc 1 68 0 is_stmt 0 discriminator 1
 238 003a 072B     		cmp	r3, #7
 239 003c ECDD     		ble	.L12
 240              	.LBE3:
  72:main.c        ****                 UART_UartPutString(txData);
 241              		.loc 1 72 0 is_stmt 1
ARM GAS  C:\Users\austc\AppData\Local\Temp\ccDZNzbh.s 			page 7


 242 003e 054C     		ldr	r4, .L15
 243 0040 0322     		movs	r2, #3
 244 0042 0649     		ldr	r1, .L15+8
 245 0044 2000     		movs	r0, r4
 246 0046 FFF7FEFF 		bl	memcpy
 247              	.LVL23:
  73:main.c        ****             //CyDelay(100);
 248              		.loc 1 73 0
 249 004a 2000     		movs	r0, r4
 250 004c FFF7FEFF 		bl	UART_UartPutString
 251              	.LVL24:
 252 0050 DCE7     		b	.L11
 253              	.L16:
 254 0052 C046     		.align	2
 255              	.L15:
 256 0054 00000000 		.word	txData
 257 0058 10000000 		.word	.LC6
 258 005c 20000000 		.word	.LC9
 259              		.cfi_endproc
 260              	.LFE37:
 261              		.size	main, .-main
 262              		.comm	test,4,4
 263              		.global	drive
 264              		.global	mode
 265              		.global	invalidate
 266              		.comm	txData,100,4
 267              		.global	time_LED
 268              		.data
 269              		.type	mode, %object
 270              		.size	mode, 1
 271              	mode:
 272 0000 02       		.byte	2
 273              		.section	.rodata.str1.4,"aMS",%progbits,1
 274              		.align	2
 275              	.LC1:
 276 0000 44697020 		.ascii	"Dip Addr: %x \015\012\000"
 276      41646472 
 276      3A202578 
 276      200D0A00 
 277              	.LC6:
 278 0010 42797465 		.ascii	"Byte%d %x   \000"
 278      25642025 
 278      78202020 
 278      00
 279 001d 000000   		.space	3
 280              	.LC9:
 281 0020 0D0A00   		.ascii	"\015\012\000"
 282              		.bss
 283              		.set	.LANCHOR0,. + 0
 284              		.type	invalidate, %object
 285              		.size	invalidate, 1
 286              	invalidate:
 287 0000 00       		.space	1
 288              		.type	time_LED, %object
 289              		.size	time_LED, 1
 290              	time_LED:
 291 0001 00       		.space	1
ARM GAS  C:\Users\austc\AppData\Local\Temp\ccDZNzbh.s 			page 8


 292              		.type	drive, %object
 293              		.size	drive, 1
 294              	drive:
 295 0002 00       		.space	1
 296              		.text
 297              	.Letext0:
 298              		.file 2 "c:\\program files (x86)\\cypress\\psoc creator\\4.2\\psoc creator\\import\\gnu\\arm\\5.4.
 299              		.file 3 "c:\\program files (x86)\\cypress\\psoc creator\\4.2\\psoc creator\\import\\gnu\\arm\\5.4.
 300              		.file 4 "Generated_Source\\PSoC4/cytypes.h"
 301              		.file 5 "../CANLib/CANPacket.h"
 302              		.file 6 "Generated_Source\\PSoC4/Timer_1.h"
 303              		.file 7 "MotorDrive.h"
 304              		.file 8 "Generated_Source\\PSoC4/QuadDec.h"
 305              		.file 9 "Generated_Source\\PSoC4/Can_addr.h"
 306              		.file 10 "c:\\program files (x86)\\cypress\\psoc creator\\4.2\\psoc creator\\import\\gnu\\arm\\5.4
 307              		.file 11 "Generated_Source\\PSoC4/UART_SPI_UART.h"
 308              		.file 12 "../CANLib/Port.h"
 309              		.file 13 "Generated_Source\\PSoC4/CAN.h"
 310              		.file 14 "Generated_Source\\PSoC4/isr_Limit_1.h"
 311              		.file 15 "Generated_Source\\PSoC4/isr_period.h"
 312              		.file 16 "Generated_Source\\PSoC4/UART.h"