ARM GAS  C:\Users\Austcha\AppData\Local\Temp\ccD9Srrr.s 			page 1


   1              		.syntax unified
   2              		.cpu cortex-m0
   3              		.fpu softvfp
   4              		.eabi_attribute 20, 1
   5              		.eabi_attribute 21, 1
   6              		.eabi_attribute 23, 3
   7              		.eabi_attribute 24, 1
   8              		.eabi_attribute 25, 1
   9              		.eabi_attribute 26, 1
  10              		.eabi_attribute 30, 1
  11              		.eabi_attribute 34, 0
  12              		.eabi_attribute 18, 4
  13              		.thumb
  14              		.syntax unified
  15              		.file	"MotorDrive.c"
  16              		.text
  17              	.Ltext0:
  18              		.cfi_sections	.debug_frame
  19              		.section	.text.set_PWM,"ax",%progbits
  20              		.align	2
  21              		.global	set_PWM
  22              		.code	16
  23              		.thumb_func
  24              		.type	set_PWM, %function
  25              	set_PWM:
  26              	.LFB35:
  27              		.file 1 "MotorDrive.c"
   1:MotorDrive.c  **** /* ========================================
   2:MotorDrive.c  ****  *
   3:MotorDrive.c  ****  * Copyright YOUR COMPANY, THE YEAR
   4:MotorDrive.c  ****  * All Rights Reserved
   5:MotorDrive.c  ****  * UNPUBLISHED, LICENSED SOFTWARE.
   6:MotorDrive.c  ****  *
   7:MotorDrive.c  ****  * CONFIDENTIAL AND PROPRIETARY INFORMATION
   8:MotorDrive.c  ****  * WHICH IS THE PROPERTY OF your company.
   9:MotorDrive.c  ****  *
  10:MotorDrive.c  ****  * ========================================
  11:MotorDrive.c  **** */
  12:MotorDrive.c  **** #include <project.h>
  13:MotorDrive.c  **** #include "cyapicallbacks.h"
  14:MotorDrive.c  **** #include <stdio.h>
  15:MotorDrive.c  **** #include "MotorDrive.h"
  16:MotorDrive.c  **** 
  17:MotorDrive.c  **** extern uint8 invalidate;
  18:MotorDrive.c  **** extern char8 txData[TX_DATA_SIZE];
  19:MotorDrive.c  **** 
  20:MotorDrive.c  **** //uint8 limitSW = Status_Reg_Switches_Read();
  21:MotorDrive.c  **** 
  22:MotorDrive.c  **** // takes between -255 and 255
  23:MotorDrive.c  **** void set_PWM(int32_t compare, uint8_t disable_limit, uint8 limitSW) {
  28              		.loc 1 23 0
  29              		.cfi_startproc
  30              		@ args = 0, pretend = 0, frame = 0
  31              		@ frame_needed = 0, uses_anonymous_args = 0
  32              	.LVL0:
  33 0000 F8B5     		push	{r3, r4, r5, r6, r7, lr}
  34              		.cfi_def_cfa_offset 24
ARM GAS  C:\Users\Austcha\AppData\Local\Temp\ccD9Srrr.s 			page 2


  35              		.cfi_offset 3, -24
  36              		.cfi_offset 4, -20
  37              		.cfi_offset 5, -16
  38              		.cfi_offset 6, -12
  39              		.cfi_offset 7, -8
  40              		.cfi_offset 14, -4
  41 0002 0400     		movs	r4, r0
  42 0004 0E00     		movs	r6, r1
  43 0006 1700     		movs	r7, r2
  24:MotorDrive.c  **** 
  25:MotorDrive.c  ****     sprintf(txData, "PWM:%d disable_limit: %d\r\n",compare,disable_limit);
  44              		.loc 1 25 0
  45 0008 174D     		ldr	r5, .L7
  46 000a 0B00     		movs	r3, r1
  47 000c 0200     		movs	r2, r0
  48              	.LVL1:
  49 000e 1749     		ldr	r1, .L7+4
  50              	.LVL2:
  51 0010 2800     		movs	r0, r5
  52              	.LVL3:
  53 0012 FFF7FEFF 		bl	sprintf
  54              	.LVL4:
  26:MotorDrive.c  ****     UART_UartPutString(txData); 
  55              		.loc 1 26 0
  56 0016 2800     		movs	r0, r5
  57 0018 FFF7FEFF 		bl	UART_UartPutString
  58              	.LVL5:
  27:MotorDrive.c  **** 
  28:MotorDrive.c  ****     invalidate = 0;
  59              		.loc 1 28 0
  60 001c 0022     		movs	r2, #0
  61 001e 144B     		ldr	r3, .L7+8
  62 0020 1A70     		strb	r2, [r3]
  29:MotorDrive.c  ****     if (compare < -65535 || compare > 65535) { return; }
  63              		.loc 1 29 0
  64 0022 144B     		ldr	r3, .L7+12
  65 0024 E218     		adds	r2, r4, r3
  66 0026 144B     		ldr	r3, .L7+16
  67 0028 9A42     		cmp	r2, r3
  68 002a 1CD8     		bhi	.L1
  30:MotorDrive.c  ****     if (compare < 0 && (!(limitSW & 0b01) || disable_limit) ) {
  69              		.loc 1 30 0
  70 002c 002C     		cmp	r4, #0
  71 002e 0ADA     		bge	.L3
  72              		.loc 1 30 0 is_stmt 0 discriminator 1
  73 0030 FB07     		lsls	r3, r7, #31
  74 0032 01D5     		bpl	.L4
  75              		.loc 1 30 0 discriminator 2
  76 0034 002E     		cmp	r6, #0
  77 0036 06D0     		beq	.L3
  78              	.L4:
  31:MotorDrive.c  ****         Pin_Direction_Write(0);
  79              		.loc 1 31 0 is_stmt 1
  80 0038 0020     		movs	r0, #0
  81 003a FFF7FEFF 		bl	Pin_Direction_Write
  82              	.LVL6:
  32:MotorDrive.c  ****         PWM_Motor_WriteCompare(-compare);
ARM GAS  C:\Users\Austcha\AppData\Local\Temp\ccD9Srrr.s 			page 3


  83              		.loc 1 32 0
  84 003e 6042     		rsbs	r0, r4, #0
  85 0040 FFF7FEFF 		bl	PWM_Motor_WriteCompare
  86              	.LVL7:
  87 0044 0FE0     		b	.L1
  88              	.L3:
  33:MotorDrive.c  ****     } else if (compare > 0 && (!(limitSW & 0b10) || disable_limit) ){
  89              		.loc 1 33 0
  90 0046 002C     		cmp	r4, #0
  91 0048 0ADD     		ble	.L5
  92              		.loc 1 33 0 is_stmt 0 discriminator 1
  93 004a BB07     		lsls	r3, r7, #30
  94 004c 01D5     		bpl	.L6
  95              		.loc 1 33 0 discriminator 2
  96 004e 002E     		cmp	r6, #0
  97 0050 06D0     		beq	.L5
  98              	.L6:
  34:MotorDrive.c  ****         Pin_Direction_Write(1);
  99              		.loc 1 34 0 is_stmt 1
 100 0052 0120     		movs	r0, #1
 101 0054 FFF7FEFF 		bl	Pin_Direction_Write
 102              	.LVL8:
  35:MotorDrive.c  ****         PWM_Motor_WriteCompare(compare);
 103              		.loc 1 35 0
 104 0058 2000     		movs	r0, r4
 105 005a FFF7FEFF 		bl	PWM_Motor_WriteCompare
 106              	.LVL9:
 107 005e 02E0     		b	.L1
 108              	.L5:
  36:MotorDrive.c  ****     } else {
  37:MotorDrive.c  ****         PWM_Motor_WriteCompare(0);
 109              		.loc 1 37 0
 110 0060 0020     		movs	r0, #0
 111 0062 FFF7FEFF 		bl	PWM_Motor_WriteCompare
 112              	.LVL10:
 113              	.L1:
  38:MotorDrive.c  ****     }
  39:MotorDrive.c  **** }
 114              		.loc 1 39 0
 115              		@ sp needed
 116              	.LVL11:
 117 0066 F8BD     		pop	{r3, r4, r5, r6, r7, pc}
 118              	.L8:
 119              		.align	2
 120              	.L7:
 121 0068 00000000 		.word	txData
 122 006c 00000000 		.word	.LC0
 123 0070 00000000 		.word	invalidate
 124 0074 FFFF0000 		.word	65535
 125 0078 FEFF0100 		.word	131070
 126              		.cfi_endproc
 127              	.LFE35:
 128              		.size	set_PWM, .-set_PWM
 129              		.section	.rodata.str1.4,"aMS",%progbits,1
 130              		.align	2
 131              	.LC0:
 132 0000 50574D3A 		.ascii	"PWM:%d disable_limit: %d\015\012\000"
ARM GAS  C:\Users\Austcha\AppData\Local\Temp\ccD9Srrr.s 			page 4


 132      25642064 
 132      69736162 
 132      6C655F6C 
 132      696D6974 
 133              		.text
 134              	.Letext0:
 135              		.file 2 "c:\\program files (x86)\\cypress\\psoc creator\\4.3\\psoc creator\\import\\gnu\\arm\\5.4.
 136              		.file 3 "c:\\program files (x86)\\cypress\\psoc creator\\4.3\\psoc creator\\import\\gnu\\arm\\5.4.
 137              		.file 4 "Generated_Source\\PSoC4/cytypes.h"
 138              		.file 5 "c:\\program files (x86)\\cypress\\psoc creator\\4.3\\psoc creator\\import\\gnu\\arm\\5.4.
 139              		.file 6 "Generated_Source\\PSoC4/UART_SPI_UART.h"
 140              		.file 7 "Generated_Source\\PSoC4/Pin_Direction.h"
 141              		.file 8 "Generated_Source\\PSoC4/PWM_Motor.h"