ARM GAS  C:\Users\austc\AppData\Local\Temp\ccBMY9tB.s 			page 1


   1              		.syntax unified
   2              		.cpu cortex-m0
   3              		.fpu softvfp
   4              		.eabi_attribute 20, 1
   5              		.eabi_attribute 21, 1
   6              		.eabi_attribute 23, 3
   7              		.eabi_attribute 24, 1
   8              		.eabi_attribute 25, 1
   9              		.eabi_attribute 26, 1
  10              		.eabi_attribute 30, 1
  11              		.eabi_attribute 34, 0
  12              		.eabi_attribute 18, 4
  13              		.thumb
  14              		.syntax unified
  15              		.file	"PortPSOC_CY8C4248AZI_L485.c"
  16              		.text
  17              	.Ltext0:
  18              		.cfi_sections	.debug_frame
  19              		.section	.text.CAN_FLAG_ISR,"ax",%progbits
  20              		.align	2
  21              		.global	CAN_FLAG_ISR
  22              		.code	16
  23              		.thumb_func
  24              		.type	CAN_FLAG_ISR, %function
  25              	CAN_FLAG_ISR:
  26              	.LFB34:
  27              		.file 1 "..\\CANLib\\PortFiles\\PortPSOC_CY8C4248AZI_L485.c"
   1:..\CANLib\PortFiles/PortPSOC_CY8C4248AZI_L485.c **** /*
   2:..\CANLib\PortFiles/PortPSOC_CY8C4248AZI_L485.c ****  * Documentation: https://huskyroboticsteam.slite.com/app/channels/iU0BryG7M9/collections/aXvWTcIR6
   3:..\CANLib\PortFiles/PortPSOC_CY8C4248AZI_L485.c ****  * 
   4:..\CANLib\PortFiles/PortPSOC_CY8C4248AZI_L485.c ****  * Port specific notes:
   5:..\CANLib\PortFiles/PortPSOC_CY8C4248AZI_L485.c ****  * Design must include a CAN block called CAN (not CAN0 or variation)
   6:..\CANLib\PortFiles/PortPSOC_CY8C4248AZI_L485.c ****  * Must auto generate code within PSoC IDE to use APIs
   7:..\CANLib\PortFiles/PortPSOC_CY8C4248AZI_L485.c ****  */
   8:..\CANLib\PortFiles/PortPSOC_CY8C4248AZI_L485.c **** #define ID_BITS_NORMAL_PRIO (0x80000000u)
   9:..\CANLib\PortFiles/PortPSOC_CY8C4248AZI_L485.c **** #define ID_BITS_HIGH_PRIO   0x00000000u
  10:..\CANLib\PortFiles/PortPSOC_CY8C4248AZI_L485.c **** #if CHIP_TYPE == CHIP_TYPE_PSOC_CY8C4248AZI_L485//Replace this with the chip you are porting
  11:..\CANLib\PortFiles/PortPSOC_CY8C4248AZI_L485.c **** 
  12:..\CANLib\PortFiles/PortPSOC_CY8C4248AZI_L485.c **** #include "../Port.h"
  13:..\CANLib\PortFiles/PortPSOC_CY8C4248AZI_L485.c **** //#include "/home/dylan-wsl/Documents/HRT/Motor-Unit-Firmware-A-2019-2020/Generated_Source/PSoC4/CA
  14:..\CANLib\PortFiles/PortPSOC_CY8C4248AZI_L485.c **** //Use include below for code, above is just for development
  15:..\CANLib\PortFiles/PortPSOC_CY8C4248AZI_L485.c **** #include "../../Motor_Board_Rev3.cydsn/Generated_Source/PSoC4/CAN.h"
  16:..\CANLib\PortFiles/PortPSOC_CY8C4248AZI_L485.c **** 
  17:..\CANLib\PortFiles/PortPSOC_CY8C4248AZI_L485.c **** //Flag internal to this port, 0xFF if no message waiting, doubles as mailbox number
  18:..\CANLib\PortFiles/PortPSOC_CY8C4248AZI_L485.c **** volatile uint8_t messagePresentFlag = 0xFF;
  19:..\CANLib\PortFiles/PortPSOC_CY8C4248AZI_L485.c **** CANPacket lastestMessage;//internal to this port
  20:..\CANLib\PortFiles/PortPSOC_CY8C4248AZI_L485.c **** 
  21:..\CANLib\PortFiles/PortPSOC_CY8C4248AZI_L485.c **** CY_ISR(CAN_FLAG_ISR)
  22:..\CANLib\PortFiles/PortPSOC_CY8C4248AZI_L485.c **** {
  28              		.loc 1 22 0
  29              		.cfi_startproc
  30              		@ args = 0, pretend = 0, frame = 0
  31              		@ frame_needed = 0, uses_anonymous_args = 0
  32 0000 10B5     		push	{r4, lr}
  33              		.cfi_def_cfa_offset 8
  34              		.cfi_offset 4, -8
  35              		.cfi_offset 14, -4
ARM GAS  C:\Users\austc\AppData\Local\Temp\ccBMY9tB.s 			page 2


  23:..\CANLib\PortFiles/PortPSOC_CY8C4248AZI_L485.c ****     if(!(~messagePresentFlag)) //Skip handling interrupt if message has not been handled by loop
  36              		.loc 1 23 0
  37 0002 314B     		ldr	r3, .L5
  38 0004 1B78     		ldrb	r3, [r3]
  39 0006 DBB2     		uxtb	r3, r3
  40 0008 0133     		adds	r3, r3, #1
  41 000a 5CD1     		bne	.L1
  24:..\CANLib\PortFiles/PortPSOC_CY8C4248AZI_L485.c ****     //TODO: will it immediately retrigger the ISR without giving the loop anytime to run?
  25:..\CANLib\PortFiles/PortPSOC_CY8C4248AZI_L485.c ****     {
  26:..\CANLib\PortFiles/PortPSOC_CY8C4248AZI_L485.c ****      /* Clear Receive Message Register flag */
  27:..\CANLib\PortFiles/PortPSOC_CY8C4248AZI_L485.c ****     CAN_INT_SR_REG = CAN_RX_MESSAGE_MASK;
  42              		.loc 1 27 0
  43 000c 8022     		movs	r2, #128
  44 000e 5201     		lsls	r2, r2, #5
  45 0010 2E4B     		ldr	r3, .L5+4
  46 0012 1A60     		str	r2, [r3]
  28:..\CANLib\PortFiles/PortPSOC_CY8C4248AZI_L485.c **** 
  29:..\CANLib\PortFiles/PortPSOC_CY8C4248AZI_L485.c ****     messagePresentFlag = Can_addr_Read();
  47              		.loc 1 29 0
  48 0014 FFF7FEFF 		bl	Can_addr_Read
  49              	.LVL0:
  50 0018 2B4B     		ldr	r3, .L5
  51 001a 1870     		strb	r0, [r3]
  30:..\CANLib\PortFiles/PortPSOC_CY8C4248AZI_L485.c ****     lastestMessage.id = CAN_GET_RX_ID(messagePresentFlag);
  52              		.loc 1 30 0
  53 001c 1B78     		ldrb	r3, [r3]
  54 001e 5B01     		lsls	r3, r3, #5
  55 0020 2B4A     		ldr	r2, .L5+8
  56 0022 9446     		mov	ip, r2
  57 0024 6344     		add	r3, r3, ip
  58 0026 1B68     		ldr	r3, [r3]
  59 0028 DB02     		lsls	r3, r3, #11
  60 002a 06D4     		bmi	.L3
  61              		.loc 1 30 0 is_stmt 0 discriminator 1
  62 002c 264B     		ldr	r3, .L5
  63 002e 1B78     		ldrb	r3, [r3]
  64 0030 5B01     		lsls	r3, r3, #5
  65 0032 6344     		add	r3, r3, ip
  66 0034 5A68     		ldr	r2, [r3, #4]
  67 0036 520D     		lsrs	r2, r2, #21
  68 0038 08E0     		b	.L4
  69              	.L3:
  70              		.loc 1 30 0 discriminator 2
  71 003a 234B     		ldr	r3, .L5
  72 003c 1B78     		ldrb	r3, [r3]
  73 003e 5B01     		lsls	r3, r3, #5
  74 0040 234A     		ldr	r2, .L5+8
  75 0042 9446     		mov	ip, r2
  76 0044 6344     		add	r3, r3, ip
  77 0046 5A68     		ldr	r2, [r3, #4]
  78 0048 D208     		lsrs	r2, r2, #3
  79 004a 92B2     		uxth	r2, r2
  80              	.L4:
  81              		.loc 1 30 0 discriminator 4
  82 004c 214B     		ldr	r3, .L5+12
  83 004e 1A80     		strh	r2, [r3]
  31:..\CANLib\PortFiles/PortPSOC_CY8C4248AZI_L485.c ****     lastestMessage.dlc = CAN_GET_DLC(messagePresentFlag);
ARM GAS  C:\Users\austc\AppData\Local\Temp\ccBMY9tB.s 			page 3


  84              		.loc 1 31 0 is_stmt 1 discriminator 4
  85 0050 1D4A     		ldr	r2, .L5
  86 0052 1178     		ldrb	r1, [r2]
  87 0054 4901     		lsls	r1, r1, #5
  88 0056 1E48     		ldr	r0, .L5+8
  89 0058 8446     		mov	ip, r0
  90 005a 6144     		add	r1, r1, ip
  91 005c 0968     		ldr	r1, [r1]
  92 005e 090C     		lsrs	r1, r1, #16
  93 0060 0F20     		movs	r0, #15
  94 0062 0140     		ands	r1, r0
  95 0064 9970     		strb	r1, [r3, #2]
  32:..\CANLib\PortFiles/PortPSOC_CY8C4248AZI_L485.c ****     lastestMessage.data[0] = CAN_RX_DATA_BYTE1(messagePresentFlag);
  96              		.loc 1 32 0 discriminator 4
  97 0066 1178     		ldrb	r1, [r2]
  98 0068 4901     		lsls	r1, r1, #5
  99 006a 6144     		add	r1, r1, ip
 100 006c 8968     		ldr	r1, [r1, #8]
 101 006e 090E     		lsrs	r1, r1, #24
 102 0070 D970     		strb	r1, [r3, #3]
  33:..\CANLib\PortFiles/PortPSOC_CY8C4248AZI_L485.c ****     lastestMessage.data[0] = CAN_RX_DATA_BYTE2(messagePresentFlag);
 103              		.loc 1 33 0 discriminator 4
 104 0072 1178     		ldrb	r1, [r2]
 105 0074 4901     		lsls	r1, r1, #5
 106 0076 6144     		add	r1, r1, ip
 107 0078 8968     		ldr	r1, [r1, #8]
 108 007a 090C     		lsrs	r1, r1, #16
 109 007c D970     		strb	r1, [r3, #3]
  34:..\CANLib\PortFiles/PortPSOC_CY8C4248AZI_L485.c ****     lastestMessage.data[0] = CAN_RX_DATA_BYTE3(messagePresentFlag);
 110              		.loc 1 34 0 discriminator 4
 111 007e 1178     		ldrb	r1, [r2]
 112 0080 4901     		lsls	r1, r1, #5
 113 0082 6144     		add	r1, r1, ip
 114 0084 8968     		ldr	r1, [r1, #8]
 115 0086 090A     		lsrs	r1, r1, #8
 116 0088 D970     		strb	r1, [r3, #3]
  35:..\CANLib\PortFiles/PortPSOC_CY8C4248AZI_L485.c ****     lastestMessage.data[0] = CAN_RX_DATA_BYTE4(messagePresentFlag);
 117              		.loc 1 35 0 discriminator 4
 118 008a 1178     		ldrb	r1, [r2]
 119 008c 4901     		lsls	r1, r1, #5
 120 008e 6144     		add	r1, r1, ip
 121 0090 8968     		ldr	r1, [r1, #8]
 122 0092 D970     		strb	r1, [r3, #3]
  36:..\CANLib\PortFiles/PortPSOC_CY8C4248AZI_L485.c ****     lastestMessage.data[0] = CAN_RX_DATA_BYTE5(messagePresentFlag);
 123              		.loc 1 36 0 discriminator 4
 124 0094 1178     		ldrb	r1, [r2]
 125 0096 4901     		lsls	r1, r1, #5
 126 0098 0F48     		ldr	r0, .L5+16
 127 009a 8446     		mov	ip, r0
 128 009c 6144     		add	r1, r1, ip
 129 009e 0968     		ldr	r1, [r1]
 130 00a0 090E     		lsrs	r1, r1, #24
 131 00a2 D970     		strb	r1, [r3, #3]
  37:..\CANLib\PortFiles/PortPSOC_CY8C4248AZI_L485.c ****     lastestMessage.data[0] = CAN_RX_DATA_BYTE6(messagePresentFlag);
 132              		.loc 1 37 0 discriminator 4
 133 00a4 1178     		ldrb	r1, [r2]
 134 00a6 4901     		lsls	r1, r1, #5
ARM GAS  C:\Users\austc\AppData\Local\Temp\ccBMY9tB.s 			page 4


 135 00a8 6144     		add	r1, r1, ip
 136 00aa 0968     		ldr	r1, [r1]
 137 00ac 090C     		lsrs	r1, r1, #16
 138 00ae D970     		strb	r1, [r3, #3]
  38:..\CANLib\PortFiles/PortPSOC_CY8C4248AZI_L485.c ****     lastestMessage.data[0] = CAN_RX_DATA_BYTE7(messagePresentFlag);
 139              		.loc 1 38 0 discriminator 4
 140 00b0 1178     		ldrb	r1, [r2]
 141 00b2 4901     		lsls	r1, r1, #5
 142 00b4 6144     		add	r1, r1, ip
 143 00b6 0968     		ldr	r1, [r1]
 144 00b8 090A     		lsrs	r1, r1, #8
 145 00ba D970     		strb	r1, [r3, #3]
  39:..\CANLib\PortFiles/PortPSOC_CY8C4248AZI_L485.c ****     lastestMessage.data[0] = CAN_RX_DATA_BYTE8(messagePresentFlag);
 146              		.loc 1 39 0 discriminator 4
 147 00bc 1278     		ldrb	r2, [r2]
 148 00be 5201     		lsls	r2, r2, #5
 149 00c0 6244     		add	r2, r2, ip
 150 00c2 1268     		ldr	r2, [r2]
 151 00c4 DA70     		strb	r2, [r3, #3]
 152              	.L1:
  40:..\CANLib\PortFiles/PortPSOC_CY8C4248AZI_L485.c ****     }
  41:..\CANLib\PortFiles/PortPSOC_CY8C4248AZI_L485.c **** }
 153              		.loc 1 41 0
 154              		@ sp needed
 155 00c6 10BD     		pop	{r4, pc}
 156              	.L6:
 157              		.align	2
 158              	.L5:
 159 00c8 00000000 		.word	.LANCHOR0
 160 00cc 00002F40 		.word	1076822016
 161 00d0 A0002F40 		.word	1076822176
 162 00d4 00000000 		.word	lastestMessage
 163 00d8 AC002F40 		.word	1076822188
 164              		.cfi_endproc
 165              	.LFE34:
 166              		.size	CAN_FLAG_ISR, .-CAN_FLAG_ISR
 167              		.section	.text.InitCAN,"ax",%progbits
 168              		.align	2
 169              		.global	InitCAN
 170              		.code	16
 171              		.thumb_func
 172              		.type	InitCAN, %function
 173              	InitCAN:
 174              	.LFB35:
  42:..\CANLib\PortFiles/PortPSOC_CY8C4248AZI_L485.c **** 
  43:..\CANLib\PortFiles/PortPSOC_CY8C4248AZI_L485.c **** int deviceAddress;
  44:..\CANLib\PortFiles/PortPSOC_CY8C4248AZI_L485.c **** int deviceGroup;
  45:..\CANLib\PortFiles/PortPSOC_CY8C4248AZI_L485.c **** void InitCAN(int deviceGroupInput, int deviceAddressInput)
  46:..\CANLib\PortFiles/PortPSOC_CY8C4248AZI_L485.c **** {
 175              		.loc 1 46 0
 176              		.cfi_startproc
 177              		@ args = 0, pretend = 0, frame = 256
 178              		@ frame_needed = 0, uses_anonymous_args = 0
 179              	.LVL1:
 180 0000 F0B5     		push	{r4, r5, r6, r7, lr}
 181              		.cfi_def_cfa_offset 20
 182              		.cfi_offset 4, -20
ARM GAS  C:\Users\austc\AppData\Local\Temp\ccBMY9tB.s 			page 5


 183              		.cfi_offset 5, -16
 184              		.cfi_offset 6, -12
 185              		.cfi_offset 7, -8
 186              		.cfi_offset 14, -4
 187 0002 C1B0     		sub	sp, sp, #260
 188              		.cfi_def_cfa_offset 280
 189 0004 0600     		movs	r6, r0
 190 0006 0C00     		movs	r4, r1
  47:..\CANLib\PortFiles/PortPSOC_CY8C4248AZI_L485.c ****     CAN_Start();
 191              		.loc 1 47 0
 192 0008 FFF7FEFF 		bl	CAN_Start
 193              	.LVL2:
  48:..\CANLib\PortFiles/PortPSOC_CY8C4248AZI_L485.c ****     //TODO: I'm sure there's a better way of doing this part
  49:..\CANLib\PortFiles/PortPSOC_CY8C4248AZI_L485.c ****     deviceGroup = deviceGroupInput;
 194              		.loc 1 49 0
 195 000c 574B     		ldr	r3, .L16
 196 000e 1E60     		str	r6, [r3]
  50:..\CANLib\PortFiles/PortPSOC_CY8C4248AZI_L485.c ****     deviceAddress = deviceAddressInput;
 197              		.loc 1 50 0
 198 0010 574B     		ldr	r3, .L16+4
 199 0012 1C60     		str	r4, [r3]
  51:..\CANLib\PortFiles/PortPSOC_CY8C4248AZI_L485.c **** 
  52:..\CANLib\PortFiles/PortPSOC_CY8C4248AZI_L485.c ****     /* Initial values of CAN RX and TX registers 
  53:..\CANLib\PortFiles/PortPSOC_CY8C4248AZI_L485.c ****     Copy and pasted from PSoC autogened code, so not sure what all the 
  54:..\CANLib\PortFiles/PortPSOC_CY8C4248AZI_L485.c ****     values in rxcmd mean.  0x48u for linked registers (queues up), may experiment later with this.
  55:..\CANLib\PortFiles/PortPSOC_CY8C4248AZI_L485.c ****     Link to TRM description on slite*/
  56:..\CANLib\PortFiles/PortPSOC_CY8C4248AZI_L485.c **** 
  57:..\CANLib\PortFiles/PortPSOC_CY8C4248AZI_L485.c ****     const CAN_RX_CFG CYCODE CAN_RXConfigStruct[] =
 200              		.loc 1 57 0
 201 0014 0023     		movs	r3, #0
 202 0016 6A46     		mov	r2, sp
 203 0018 1370     		strb	r3, [r2]
 204 001a 2821     		movs	r1, #40
 205 001c 0191     		str	r1, [sp, #4]
 206 001e 554A     		ldr	r2, .L16+8
 207 0020 0292     		str	r2, [sp, #8]
 208 0022 8025     		movs	r5, #128
 209 0024 2D06     		lsls	r5, r5, #24
 210 0026 0395     		str	r5, [sp, #12]
 211 0028 0120     		movs	r0, #1
 212 002a 6F46     		mov	r7, sp
 213 002c 3874     		strb	r0, [r7, #16]
 214 002e 0591     		str	r1, [sp, #20]
 215 0030 0692     		str	r2, [sp, #24]
  58:..\CANLib\PortFiles/PortPSOC_CY8C4248AZI_L485.c ****     {
  59:..\CANLib\PortFiles/PortPSOC_CY8C4248AZI_L485.c ****         { 0u, 0x28u, 0x1FFFF9u, ID_BITS_NORMAL_PRIO },//Broadcast message
  60:..\CANLib\PortFiles/PortPSOC_CY8C4248AZI_L485.c ****         { 1u, 0x28u, 0x1FFFF9u, ID_BITS_NORMAL_PRIO | (deviceGroup << 26)},//Group broadcast
 216              		.loc 1 60 0
 217 0032 B006     		lsls	r0, r6, #26
 218 0034 8446     		mov	ip, r0
 219 0036 2E00     		movs	r6, r5
 220              	.LVL3:
 221 0038 0643     		orrs	r6, r0
  57:..\CANLib\PortFiles/PortPSOC_CY8C4248AZI_L485.c ****     {
 222              		.loc 1 57 0
 223 003a 0796     		str	r6, [sp, #28]
 224 003c 0227     		movs	r7, #2
ARM GAS  C:\Users\austc\AppData\Local\Temp\ccBMY9tB.s 			page 6


 225 003e 2026     		movs	r6, #32
 226 0040 6846     		mov	r0, sp
 227 0042 8755     		strb	r7, [r0, r6]
 228 0044 0991     		str	r1, [sp, #36]
 229 0046 0A92     		str	r2, [sp, #40]
  61:..\CANLib\PortFiles/PortPSOC_CY8C4248AZI_L485.c ****         { 2u, 0x28u, 0x1FFFF9u, ID_BITS_NORMAL_PRIO | (deviceGroup << 26) | (deviceAddress << 22) }
 230              		.loc 1 61 0
 231 0048 A405     		lsls	r4, r4, #22
 232              	.LVL4:
 233 004a 6046     		mov	r0, ip
 234 004c 0443     		orrs	r4, r0
 235 004e 2543     		orrs	r5, r4
  57:..\CANLib\PortFiles/PortPSOC_CY8C4248AZI_L485.c ****     {
 236              		.loc 1 57 0
 237 0050 0B95     		str	r5, [sp, #44]
 238 0052 1D3E     		subs	r6, r6, #29
 239 0054 3025     		movs	r5, #48
 240 0056 6846     		mov	r0, sp
 241 0058 4655     		strb	r6, [r0, r5]
 242 005a 0D91     		str	r1, [sp, #52]
 243 005c 0E92     		str	r2, [sp, #56]
 244 005e 0F93     		str	r3, [sp, #60]
 245 0060 0136     		adds	r6, r6, #1
 246 0062 1035     		adds	r5, r5, #16
 247 0064 4655     		strb	r6, [r0, r5]
 248 0066 1191     		str	r1, [sp, #68]
 249 0068 1292     		str	r2, [sp, #72]
 250 006a 6046     		mov	r0, ip
 251 006c 1390     		str	r0, [sp, #76]
 252 006e 3B3D     		subs	r5, r5, #59
 253 0070 5020     		movs	r0, #80
 254 0072 6E46     		mov	r6, sp
 255 0074 3554     		strb	r5, [r6, r0]
 256 0076 1591     		str	r1, [sp, #84]
 257 0078 1692     		str	r2, [sp, #88]
 258 007a 1794     		str	r4, [sp, #92]
 259 007c 2239     		subs	r1, r1, #34
 260 007e 6022     		movs	r2, #96
 261 0080 B154     		strb	r1, [r6, r2]
 262 0082 1993     		str	r3, [sp, #100]
 263 0084 1A93     		str	r3, [sp, #104]
 264 0086 1B93     		str	r3, [sp, #108]
 265 0088 0131     		adds	r1, r1, #1
 266 008a 1032     		adds	r2, r2, #16
 267 008c B154     		strb	r1, [r6, r2]
 268 008e 1D93     		str	r3, [sp, #116]
 269 0090 1E93     		str	r3, [sp, #120]
 270 0092 1F93     		str	r3, [sp, #124]
 271 0094 0131     		adds	r1, r1, #1
 272 0096 1032     		adds	r2, r2, #16
 273 0098 B154     		strb	r1, [r6, r2]
 274 009a 0432     		adds	r2, r2, #4
 275 009c B350     		str	r3, [r6, r2]
 276 009e 0432     		adds	r2, r2, #4
 277 00a0 B350     		str	r3, [r6, r2]
 278 00a2 0432     		adds	r2, r2, #4
 279 00a4 B350     		str	r3, [r6, r2]
ARM GAS  C:\Users\austc\AppData\Local\Temp\ccBMY9tB.s 			page 7


 280 00a6 0921     		movs	r1, #9
 281 00a8 0432     		adds	r2, r2, #4
 282 00aa B154     		strb	r1, [r6, r2]
 283 00ac 0432     		adds	r2, r2, #4
 284 00ae B350     		str	r3, [r6, r2]
 285 00b0 0432     		adds	r2, r2, #4
 286 00b2 B350     		str	r3, [r6, r2]
 287 00b4 0432     		adds	r2, r2, #4
 288 00b6 B350     		str	r3, [r6, r2]
 289 00b8 0A21     		movs	r1, #10
 290 00ba 0432     		adds	r2, r2, #4
 291 00bc B154     		strb	r1, [r6, r2]
 292 00be 0432     		adds	r2, r2, #4
 293 00c0 B350     		str	r3, [r6, r2]
 294 00c2 0432     		adds	r2, r2, #4
 295 00c4 B350     		str	r3, [r6, r2]
 296 00c6 0432     		adds	r2, r2, #4
 297 00c8 B350     		str	r3, [r6, r2]
 298 00ca 0B21     		movs	r1, #11
 299 00cc 0432     		adds	r2, r2, #4
 300 00ce B154     		strb	r1, [r6, r2]
 301 00d0 0432     		adds	r2, r2, #4
 302 00d2 B350     		str	r3, [r6, r2]
 303 00d4 0432     		adds	r2, r2, #4
 304 00d6 B350     		str	r3, [r6, r2]
 305 00d8 0432     		adds	r2, r2, #4
 306 00da B350     		str	r3, [r6, r2]
 307 00dc 0C21     		movs	r1, #12
 308 00de 0432     		adds	r2, r2, #4
 309 00e0 B154     		strb	r1, [r6, r2]
 310 00e2 0432     		adds	r2, r2, #4
 311 00e4 B350     		str	r3, [r6, r2]
 312 00e6 0432     		adds	r2, r2, #4
 313 00e8 B350     		str	r3, [r6, r2]
 314 00ea 0432     		adds	r2, r2, #4
 315 00ec B350     		str	r3, [r6, r2]
 316 00ee 0D21     		movs	r1, #13
 317 00f0 0432     		adds	r2, r2, #4
 318 00f2 B154     		strb	r1, [r6, r2]
 319 00f4 0432     		adds	r2, r2, #4
 320 00f6 B350     		str	r3, [r6, r2]
 321 00f8 0432     		adds	r2, r2, #4
 322 00fa B350     		str	r3, [r6, r2]
 323 00fc 0432     		adds	r2, r2, #4
 324 00fe B350     		str	r3, [r6, r2]
 325 0100 0E21     		movs	r1, #14
 326 0102 0432     		adds	r2, r2, #4
 327 0104 B154     		strb	r1, [r6, r2]
 328 0106 0432     		adds	r2, r2, #4
 329 0108 B350     		str	r3, [r6, r2]
 330 010a 0432     		adds	r2, r2, #4
 331 010c B350     		str	r3, [r6, r2]
 332 010e 0432     		adds	r2, r2, #4
 333 0110 B350     		str	r3, [r6, r2]
 334 0112 0F21     		movs	r1, #15
 335 0114 0432     		adds	r2, r2, #4
 336 0116 B154     		strb	r1, [r6, r2]
ARM GAS  C:\Users\austc\AppData\Local\Temp\ccBMY9tB.s 			page 8


 337 0118 0432     		adds	r2, r2, #4
 338 011a B350     		str	r3, [r6, r2]
 339 011c 0432     		adds	r2, r2, #4
 340 011e B350     		str	r3, [r6, r2]
 341 0120 0432     		adds	r2, r2, #4
 342 0122 B350     		str	r3, [r6, r2]
 343              	.LVL5:
  62:..\CANLib\PortFiles/PortPSOC_CY8C4248AZI_L485.c ****         { 3u, 0x28u, 0x1FFFF9u, ID_BITS_HIGH_PRIO },
  63:..\CANLib\PortFiles/PortPSOC_CY8C4248AZI_L485.c ****         { 4u, 0x28u, 0x1FFFF9u, ID_BITS_HIGH_PRIO | (deviceGroup << 26)},
  64:..\CANLib\PortFiles/PortPSOC_CY8C4248AZI_L485.c ****         { 5u, 0x28u, 0x1FFFF9u, ID_BITS_HIGH_PRIO | (deviceGroup << 26) | (deviceAddress << 22) },
  65:..\CANLib\PortFiles/PortPSOC_CY8C4248AZI_L485.c ****         { 6u, 0x0u, 0x0u, 0x0u },
  66:..\CANLib\PortFiles/PortPSOC_CY8C4248AZI_L485.c ****         { 7u, 0x0u, 0x0u, 0x0u },
  67:..\CANLib\PortFiles/PortPSOC_CY8C4248AZI_L485.c ****         { 8u, 0x0u, 0x0u, 0x0u },
  68:..\CANLib\PortFiles/PortPSOC_CY8C4248AZI_L485.c ****         { 9u, 0x0u, 0x0u, 0x0u },
  69:..\CANLib\PortFiles/PortPSOC_CY8C4248AZI_L485.c ****         { 10u, 0x0u, 0x0u, 0x0u },
  70:..\CANLib\PortFiles/PortPSOC_CY8C4248AZI_L485.c ****         { 11u, 0x0u, 0x0u, 0x0u },
  71:..\CANLib\PortFiles/PortPSOC_CY8C4248AZI_L485.c ****         { 12u, 0x0u, 0x0u, 0x0u },
  72:..\CANLib\PortFiles/PortPSOC_CY8C4248AZI_L485.c ****         { 13u, 0x0u, 0x0u, 0x0u },
  73:..\CANLib\PortFiles/PortPSOC_CY8C4248AZI_L485.c ****         { 14u, 0x0u, 0x0u, 0x0u },
  74:..\CANLib\PortFiles/PortPSOC_CY8C4248AZI_L485.c ****         { 15u, 0x0u, 0x0u, 0x0u },
  75:..\CANLib\PortFiles/PortPSOC_CY8C4248AZI_L485.c ****     };
  76:..\CANLib\PortFiles/PortPSOC_CY8C4248AZI_L485.c ****     // Implement hardware initialization of CAN
  77:..\CANLib\PortFiles/PortPSOC_CY8C4248AZI_L485.c ****     // Including receive filter    /* Initialize TX mailboxes */
  78:..\CANLib\PortFiles/PortPSOC_CY8C4248AZI_L485.c ****     
  79:..\CANLib\PortFiles/PortPSOC_CY8C4248AZI_L485.c ****     /* More copy and pasted autogen code*/
  80:..\CANLib\PortFiles/PortPSOC_CY8C4248AZI_L485.c **** 
  81:..\CANLib\PortFiles/PortPSOC_CY8C4248AZI_L485.c ****         static const CAN_TX_CFG CYCODE CAN_TXConfigStruct[] =
  82:..\CANLib\PortFiles/PortPSOC_CY8C4248AZI_L485.c ****     {
  83:..\CANLib\PortFiles/PortPSOC_CY8C4248AZI_L485.c ****         { 0u, 0x880008u, 0x0u },
  84:..\CANLib\PortFiles/PortPSOC_CY8C4248AZI_L485.c ****         { 1u, 0x880008u, 0x0u },
  85:..\CANLib\PortFiles/PortPSOC_CY8C4248AZI_L485.c ****         { 2u, 0x880008u, 0x0u },
  86:..\CANLib\PortFiles/PortPSOC_CY8C4248AZI_L485.c ****         { 3u, 0x880008u, 0x0u },
  87:..\CANLib\PortFiles/PortPSOC_CY8C4248AZI_L485.c ****         { 4u, 0x880008u, 0x0u },
  88:..\CANLib\PortFiles/PortPSOC_CY8C4248AZI_L485.c ****         { 5u, 0x880008u, 0x0u },
  89:..\CANLib\PortFiles/PortPSOC_CY8C4248AZI_L485.c ****         { 6u, 0x880008u, 0x0u },
  90:..\CANLib\PortFiles/PortPSOC_CY8C4248AZI_L485.c ****         { 7u, 0x880008u, 0x0u }
  91:..\CANLib\PortFiles/PortPSOC_CY8C4248AZI_L485.c ****     };
  92:..\CANLib\PortFiles/PortPSOC_CY8C4248AZI_L485.c **** 
  93:..\CANLib\PortFiles/PortPSOC_CY8C4248AZI_L485.c ****     uint8 result = CYRET_SUCCESS;
  94:..\CANLib\PortFiles/PortPSOC_CY8C4248AZI_L485.c ****     uint8 i;
  95:..\CANLib\PortFiles/PortPSOC_CY8C4248AZI_L485.c **** 
  96:..\CANLib\PortFiles/PortPSOC_CY8C4248AZI_L485.c **** 
  97:..\CANLib\PortFiles/PortPSOC_CY8C4248AZI_L485.c ****     for (i = 0u; i < CAN_NUMBER_OF_TX_MAILBOXES; i++)
 344              		.loc 1 97 0
 345 0124 0024     		movs	r4, #0
 346 0126 0AE0     		b	.L8
 347              	.LVL6:
 348              	.L10:
  98:..\CANLib\PortFiles/PortPSOC_CY8C4248AZI_L485.c ****     {
  99:..\CANLib\PortFiles/PortPSOC_CY8C4248AZI_L485.c ****         if (CAN_TxBufConfig((const CAN_TX_CFG *)
 349              		.loc 1 99 0
 350 0128 6300     		lsls	r3, r4, #1
 351 012a 1B19     		adds	r3, r3, r4
 352 012c 9800     		lsls	r0, r3, #2
 353 012e 124B     		ldr	r3, .L16+12
 354 0130 1818     		adds	r0, r3, r0
 355 0132 FFF7FEFF 		bl	CAN_TxBufConfig
ARM GAS  C:\Users\austc\AppData\Local\Temp\ccBMY9tB.s 			page 9


 356              	.LVL7:
 357 0136 0028     		cmp	r0, #0
 358 0138 05D1     		bne	.L14
  97:..\CANLib\PortFiles/PortPSOC_CY8C4248AZI_L485.c ****     {
 359              		.loc 1 97 0 discriminator 2
 360 013a 0134     		adds	r4, r4, #1
 361              	.LVL8:
 362 013c E4B2     		uxtb	r4, r4
 363              	.LVL9:
 364              	.L8:
  97:..\CANLib\PortFiles/PortPSOC_CY8C4248AZI_L485.c ****     {
 365              		.loc 1 97 0 is_stmt 0 discriminator 1
 366 013e 072C     		cmp	r4, #7
 367 0140 F2D9     		bls	.L10
  93:..\CANLib\PortFiles/PortPSOC_CY8C4248AZI_L485.c ****     uint8 i;
 368              		.loc 1 93 0 is_stmt 1
 369 0142 0023     		movs	r3, #0
 370 0144 00E0     		b	.L9
 371              	.L14:
 100:..\CANLib\PortFiles/PortPSOC_CY8C4248AZI_L485.c ****             (&CAN_TXConfigStruct[i])) != CYRET_SUCCESS)
 101:..\CANLib\PortFiles/PortPSOC_CY8C4248AZI_L485.c ****         {
 102:..\CANLib\PortFiles/PortPSOC_CY8C4248AZI_L485.c ****             result = CAN_FAIL;
 372              		.loc 1 102 0
 373 0146 0123     		movs	r3, #1
 374              	.L9:
 375              	.LVL10:
 103:..\CANLib\PortFiles/PortPSOC_CY8C4248AZI_L485.c ****             break;
 104:..\CANLib\PortFiles/PortPSOC_CY8C4248AZI_L485.c ****         }
 105:..\CANLib\PortFiles/PortPSOC_CY8C4248AZI_L485.c ****     }
 106:..\CANLib\PortFiles/PortPSOC_CY8C4248AZI_L485.c **** 
 107:..\CANLib\PortFiles/PortPSOC_CY8C4248AZI_L485.c ****     if (result == CYRET_SUCCESS)
 376              		.loc 1 107 0
 377 0148 002B     		cmp	r3, #0
 378 014a 09D0     		beq	.L15
 379 014c 0BE0     		b	.L7
 380              	.LVL11:
 381              	.L13:
 108:..\CANLib\PortFiles/PortPSOC_CY8C4248AZI_L485.c ****     {
 109:..\CANLib\PortFiles/PortPSOC_CY8C4248AZI_L485.c ****         /* Initialize RX mailboxes */
 110:..\CANLib\PortFiles/PortPSOC_CY8C4248AZI_L485.c ****         for (i = 0u; i < CAN_NUMBER_OF_RX_MAILBOXES; i++)
 111:..\CANLib\PortFiles/PortPSOC_CY8C4248AZI_L485.c ****         {
 112:..\CANLib\PortFiles/PortPSOC_CY8C4248AZI_L485.c ****             if (CAN_RxBufConfig((const CAN_RX_CFG *)
 382              		.loc 1 112 0
 383 014e 2001     		lsls	r0, r4, #4
 384 0150 6844     		add	r0, r0, sp
 385 0152 FFF7FEFF 		bl	CAN_RxBufConfig
 386              	.LVL12:
 387 0156 0028     		cmp	r0, #0
 388 0158 05D1     		bne	.L7
 110:..\CANLib\PortFiles/PortPSOC_CY8C4248AZI_L485.c ****         {
 389              		.loc 1 110 0 discriminator 2
 390 015a 0134     		adds	r4, r4, #1
 391              	.LVL13:
 392 015c E4B2     		uxtb	r4, r4
 393              	.LVL14:
 394 015e 00E0     		b	.L11
 395              	.LVL15:
ARM GAS  C:\Users\austc\AppData\Local\Temp\ccBMY9tB.s 			page 10


 396              	.L15:
 397 0160 0024     		movs	r4, #0
 398              	.LVL16:
 399              	.L11:
 110:..\CANLib\PortFiles/PortPSOC_CY8C4248AZI_L485.c ****         {
 400              		.loc 1 110 0 is_stmt 0 discriminator 1
 401 0162 0F2C     		cmp	r4, #15
 402 0164 F3D9     		bls	.L13
 403              	.L7:
 113:..\CANLib\PortFiles/PortPSOC_CY8C4248AZI_L485.c ****                 (&CAN_RXConfigStruct[i])) != CYRET_SUCCESS)
 114:..\CANLib\PortFiles/PortPSOC_CY8C4248AZI_L485.c ****             {
 115:..\CANLib\PortFiles/PortPSOC_CY8C4248AZI_L485.c ****                 result = CAN_FAIL;
 116:..\CANLib\PortFiles/PortPSOC_CY8C4248AZI_L485.c ****                 break;
 117:..\CANLib\PortFiles/PortPSOC_CY8C4248AZI_L485.c ****             }
 118:..\CANLib\PortFiles/PortPSOC_CY8C4248AZI_L485.c ****         }
 119:..\CANLib\PortFiles/PortPSOC_CY8C4248AZI_L485.c ****     }
 120:..\CANLib\PortFiles/PortPSOC_CY8C4248AZI_L485.c **** 
 121:..\CANLib\PortFiles/PortPSOC_CY8C4248AZI_L485.c ****     CY_ISR_PROTO(CAN_FLAG_ISR);
 122:..\CANLib\PortFiles/PortPSOC_CY8C4248AZI_L485.c **** }
 404              		.loc 1 122 0 is_stmt 1
 405 0166 41B0     		add	sp, sp, #260
 406              		@ sp needed
 407              	.LVL17:
 408 0168 F0BD     		pop	{r4, r5, r6, r7, pc}
 409              	.L17:
 410 016a C046     		.align	2
 411              	.L16:
 412 016c 00000000 		.word	deviceGroup
 413 0170 00000000 		.word	deviceAddress
 414 0174 F9FF1F00 		.word	2097145
 415 0178 00000000 		.word	.LANCHOR1
 416              		.cfi_endproc
 417              	.LFE35:
 418              		.size	InitCAN, .-InitCAN
 419              		.section	.text.SendCANPacket,"ax",%progbits
 420              		.align	2
 421              		.global	SendCANPacket
 422              		.code	16
 423              		.thumb_func
 424              		.type	SendCANPacket, %function
 425              	SendCANPacket:
 426              	.LFB36:
 123:..\CANLib\PortFiles/PortPSOC_CY8C4248AZI_L485.c **** int SendCANPacket(CANPacket *packetToSend)
 124:..\CANLib\PortFiles/PortPSOC_CY8C4248AZI_L485.c **** {
 427              		.loc 1 124 0
 428              		.cfi_startproc
 429              		@ args = 0, pretend = 0, frame = 24
 430              		@ frame_needed = 0, uses_anonymous_args = 0
 431              	.LVL18:
 432 0000 10B5     		push	{r4, lr}
 433              		.cfi_def_cfa_offset 8
 434              		.cfi_offset 4, -8
 435              		.cfi_offset 14, -4
 436 0002 86B0     		sub	sp, sp, #24
 437              		.cfi_def_cfa_offset 32
 125:..\CANLib\PortFiles/PortPSOC_CY8C4248AZI_L485.c ****     CAN_TX_MSG PSoCMessage;
 126:..\CANLib\PortFiles/PortPSOC_CY8C4248AZI_L485.c ****     CAN_DATA_BYTES_MSG PSoCData;
ARM GAS  C:\Users\austc\AppData\Local\Temp\ccBMY9tB.s 			page 11


 127:..\CANLib\PortFiles/PortPSOC_CY8C4248AZI_L485.c ****     PSoCMessage.id = packetToSend->id;
 438              		.loc 1 127 0
 439 0004 0388     		ldrh	r3, [r0]
 440 0006 02AC     		add	r4, sp, #8
 441 0008 0293     		str	r3, [sp, #8]
 128:..\CANLib\PortFiles/PortPSOC_CY8C4248AZI_L485.c ****     PSoCMessage.rtr = 0x0;
 442              		.loc 1 128 0
 443 000a 0023     		movs	r3, #0
 444 000c 2371     		strb	r3, [r4, #4]
 129:..\CANLib\PortFiles/PortPSOC_CY8C4248AZI_L485.c ****     PSoCMessage.ide = 0x0;//Not extended
 445              		.loc 1 129 0
 446 000e 6371     		strb	r3, [r4, #5]
 130:..\CANLib\PortFiles/PortPSOC_CY8C4248AZI_L485.c ****     PSoCMessage.dlc = packetToSend->dlc;
 447              		.loc 1 130 0
 448 0010 8278     		ldrb	r2, [r0, #2]
 449 0012 A271     		strb	r2, [r4, #6]
 131:..\CANLib\PortFiles/PortPSOC_CY8C4248AZI_L485.c ****     PSoCMessage.irq = 0x0;
 450              		.loc 1 131 0
 451 0014 E371     		strb	r3, [r4, #7]
 132:..\CANLib\PortFiles/PortPSOC_CY8C4248AZI_L485.c ****     PSoCMessage.msg = &PSoCData;
 452              		.loc 1 132 0
 453 0016 6B46     		mov	r3, sp
 454 0018 0593     		str	r3, [sp, #20]
 133:..\CANLib\PortFiles/PortPSOC_CY8C4248AZI_L485.c ****    // PSoCData.byte = packetToSend->data;
 134:..\CANLib\PortFiles/PortPSOC_CY8C4248AZI_L485.c ****     memcpy(PSoCData.byte, packetToSend->data,8);
 455              		.loc 1 134 0
 456 001a C11C     		adds	r1, r0, #3
 457 001c 0822     		movs	r2, #8
 458 001e 6846     		mov	r0, sp
 459              	.LVL19:
 460 0020 FFF7FEFF 		bl	memcpy
 461              	.LVL20:
 135:..\CANLib\PortFiles/PortPSOC_CY8C4248AZI_L485.c ****     CAN_SendMsg(&PSoCMessage);
 462              		.loc 1 135 0
 463 0024 2000     		movs	r0, r4
 464 0026 FFF7FEFF 		bl	CAN_SendMsg
 465              	.LVL21:
 136:..\CANLib\PortFiles/PortPSOC_CY8C4248AZI_L485.c ****     return(0);
 137:..\CANLib\PortFiles/PortPSOC_CY8C4248AZI_L485.c ****     //Implement sending/ queing to send packet
 138:..\CANLib\PortFiles/PortPSOC_CY8C4248AZI_L485.c **** }
 466              		.loc 1 138 0
 467 002a 0020     		movs	r0, #0
 468 002c 06B0     		add	sp, sp, #24
 469              		@ sp needed
 470 002e 10BD     		pop	{r4, pc}
 471              		.cfi_endproc
 472              	.LFE36:
 473              		.size	SendCANPacket, .-SendCANPacket
 474              		.section	.text.PollAndReceiveCANPacket,"ax",%progbits
 475              		.align	2
 476              		.global	PollAndReceiveCANPacket
 477              		.code	16
 478              		.thumb_func
 479              		.type	PollAndReceiveCANPacket, %function
 480              	PollAndReceiveCANPacket:
 481              	.LFB37:
 139:..\CANLib\PortFiles/PortPSOC_CY8C4248AZI_L485.c **** int PollAndReceiveCANPacket(CANPacket *receivedPacket)
ARM GAS  C:\Users\austc\AppData\Local\Temp\ccBMY9tB.s 			page 12


 140:..\CANLib\PortFiles/PortPSOC_CY8C4248AZI_L485.c **** {
 482              		.loc 1 140 0
 483              		.cfi_startproc
 484              		@ args = 0, pretend = 0, frame = 0
 485              		@ frame_needed = 0, uses_anonymous_args = 0
 486              	.LVL22:
 487 0000 10B5     		push	{r4, lr}
 488              		.cfi_def_cfa_offset 8
 489              		.cfi_offset 4, -8
 490              		.cfi_offset 14, -4
 141:..\CANLib\PortFiles/PortPSOC_CY8C4248AZI_L485.c ****     if(!receivedPacket) {return 0x03;}//NULL pointer error
 491              		.loc 1 141 0
 492 0002 0028     		cmp	r0, #0
 493 0004 0DD0     		beq	.L21
 142:..\CANLib\PortFiles/PortPSOC_CY8C4248AZI_L485.c ****     if(~messagePresentFlag)
 494              		.loc 1 142 0
 495 0006 094B     		ldr	r3, .L23
 496 0008 1B78     		ldrb	r3, [r3]
 497 000a DBB2     		uxtb	r3, r3
 498 000c 0133     		adds	r3, r3, #1
 499 000e 0AD0     		beq	.L22
 143:..\CANLib\PortFiles/PortPSOC_CY8C4248AZI_L485.c ****     {
 144:..\CANLib\PortFiles/PortPSOC_CY8C4248AZI_L485.c ****         *(receivedPacket) = lastestMessage;
 500              		.loc 1 144 0
 501 0010 0C22     		movs	r2, #12
 502 0012 0749     		ldr	r1, .L23+4
 503 0014 FFF7FEFF 		bl	memcpy
 504              	.LVL23:
 145:..\CANLib\PortFiles/PortPSOC_CY8C4248AZI_L485.c ****         messagePresentFlag = 0xFF; //No message present
 505              		.loc 1 145 0
 506 0018 FF22     		movs	r2, #255
 507 001a 044B     		ldr	r3, .L23
 508 001c 1A70     		strb	r2, [r3]
 146:..\CANLib\PortFiles/PortPSOC_CY8C4248AZI_L485.c ****         return ERROR_NONE;
 509              		.loc 1 146 0
 510 001e 0020     		movs	r0, #0
 511 0020 02E0     		b	.L20
 512              	.LVL24:
 513              	.L21:
 141:..\CANLib\PortFiles/PortPSOC_CY8C4248AZI_L485.c ****     if(~messagePresentFlag)
 514              		.loc 1 141 0
 515 0022 0320     		movs	r0, #3
 516              	.LVL25:
 517 0024 00E0     		b	.L20
 518              	.LVL26:
 519              	.L22:
 147:..\CANLib\PortFiles/PortPSOC_CY8C4248AZI_L485.c ****     }
 148:..\CANLib\PortFiles/PortPSOC_CY8C4248AZI_L485.c ****     return 0x02; //No message received error
 520              		.loc 1 148 0
 521 0026 0220     		movs	r0, #2
 522              	.LVL27:
 523              	.L20:
 149:..\CANLib\PortFiles/PortPSOC_CY8C4248AZI_L485.c **** }
 524              		.loc 1 149 0
 525              		@ sp needed
 526 0028 10BD     		pop	{r4, pc}
 527              	.L24:
ARM GAS  C:\Users\austc\AppData\Local\Temp\ccBMY9tB.s 			page 13


 528 002a C046     		.align	2
 529              	.L23:
 530 002c 00000000 		.word	.LANCHOR0
 531 0030 00000000 		.word	lastestMessage
 532              		.cfi_endproc
 533              	.LFE37:
 534              		.size	PollAndReceiveCANPacket, .-PollAndReceiveCANPacket
 535              		.section	.text.getLocalDeviceSerial,"ax",%progbits
 536              		.align	2
 537              		.global	getLocalDeviceSerial
 538              		.code	16
 539              		.thumb_func
 540              		.type	getLocalDeviceSerial, %function
 541              	getLocalDeviceSerial:
 542              	.LFB38:
 150:..\CANLib\PortFiles/PortPSOC_CY8C4248AZI_L485.c **** 
 151:..\CANLib\PortFiles/PortPSOC_CY8C4248AZI_L485.c **** uint8_t getLocalDeviceSerial()
 152:..\CANLib\PortFiles/PortPSOC_CY8C4248AZI_L485.c **** {
 543              		.loc 1 152 0
 544              		.cfi_startproc
 545              		@ args = 0, pretend = 0, frame = 0
 546              		@ frame_needed = 0, uses_anonymous_args = 0
 547              		@ link register save eliminated.
 153:..\CANLib\PortFiles/PortPSOC_CY8C4248AZI_L485.c ****     //Reading DIP switches? Hard coded?
 154:..\CANLib\PortFiles/PortPSOC_CY8C4248AZI_L485.c ****     //This might be board specific, rather than chip specific.
 155:..\CANLib\PortFiles/PortPSOC_CY8C4248AZI_L485.c ****     return deviceAddress; // example value (also used for testing)
 548              		.loc 1 155 0
 549 0000 014B     		ldr	r3, .L26
 550 0002 1878     		ldrb	r0, [r3]
 156:..\CANLib\PortFiles/PortPSOC_CY8C4248AZI_L485.c **** }
 551              		.loc 1 156 0
 552              		@ sp needed
 553 0004 7047     		bx	lr
 554              	.L27:
 555 0006 C046     		.align	2
 556              	.L26:
 557 0008 00000000 		.word	deviceAddress
 558              		.cfi_endproc
 559              	.LFE38:
 560              		.size	getLocalDeviceSerial, .-getLocalDeviceSerial
 561              		.section	.text.getLocalDeviceGroup,"ax",%progbits
 562              		.align	2
 563              		.global	getLocalDeviceGroup
 564              		.code	16
 565              		.thumb_func
 566              		.type	getLocalDeviceGroup, %function
 567              	getLocalDeviceGroup:
 568              	.LFB39:
 157:..\CANLib\PortFiles/PortPSOC_CY8C4248AZI_L485.c **** uint8_t getLocalDeviceGroup()
 158:..\CANLib\PortFiles/PortPSOC_CY8C4248AZI_L485.c **** {
 569              		.loc 1 158 0
 570              		.cfi_startproc
 571              		@ args = 0, pretend = 0, frame = 0
 572              		@ frame_needed = 0, uses_anonymous_args = 0
 573              		@ link register save eliminated.
 159:..\CANLib\PortFiles/PortPSOC_CY8C4248AZI_L485.c ****     //Definitely board specific.
 160:..\CANLib\PortFiles/PortPSOC_CY8C4248AZI_L485.c ****     return deviceGroup; // example value (also used for testing)
ARM GAS  C:\Users\austc\AppData\Local\Temp\ccBMY9tB.s 			page 14


 574              		.loc 1 160 0
 575 0000 014B     		ldr	r3, .L29
 576 0002 1878     		ldrb	r0, [r3]
 161:..\CANLib\PortFiles/PortPSOC_CY8C4248AZI_L485.c **** }
 577              		.loc 1 161 0
 578              		@ sp needed
 579 0004 7047     		bx	lr
 580              	.L30:
 581 0006 C046     		.align	2
 582              	.L29:
 583 0008 00000000 		.word	deviceGroup
 584              		.cfi_endproc
 585              	.LFE39:
 586              		.size	getLocalDeviceGroup, .-getLocalDeviceGroup
 587              		.section	.text.getChipType,"ax",%progbits
 588              		.align	2
 589              		.global	getChipType
 590              		.code	16
 591              		.thumb_func
 592              		.type	getChipType, %function
 593              	getChipType:
 594              	.LFB40:
 162:..\CANLib\PortFiles/PortPSOC_CY8C4248AZI_L485.c **** 
 163:..\CANLib\PortFiles/PortPSOC_CY8C4248AZI_L485.c **** uint8_t getChipType()
 164:..\CANLib\PortFiles/PortPSOC_CY8C4248AZI_L485.c **** {
 595              		.loc 1 164 0
 596              		.cfi_startproc
 597              		@ args = 0, pretend = 0, frame = 0
 598              		@ frame_needed = 0, uses_anonymous_args = 0
 599              		@ link register save eliminated.
 165:..\CANLib\PortFiles/PortPSOC_CY8C4248AZI_L485.c ****     return CHIP_TYPE; 
 166:..\CANLib\PortFiles/PortPSOC_CY8C4248AZI_L485.c ****     //Should be same for all ports, just not sure where to put it.
 167:..\CANLib\PortFiles/PortPSOC_CY8C4248AZI_L485.c **** }
 600              		.loc 1 167 0
 601 0000 0220     		movs	r0, #2
 602              		@ sp needed
 603 0002 7047     		bx	lr
 604              		.cfi_endproc
 605              	.LFE40:
 606              		.size	getChipType, .-getChipType
 607              		.comm	deviceGroup,4,4
 608              		.comm	deviceAddress,4,4
 609              		.comm	lastestMessage,12,4
 610              		.global	messagePresentFlag
 611              		.section	.rodata
 612              		.align	2
 613              		.set	.LANCHOR1,. + 0
 614              		.type	CAN_TXConfigStruct.6780, %object
 615              		.size	CAN_TXConfigStruct.6780, 96
 616              	CAN_TXConfigStruct.6780:
 617 0000 00       		.byte	0
 618 0001 000000   		.space	3
 619 0004 08008800 		.word	8912904
 620 0008 00000000 		.word	0
 621 000c 01       		.byte	1
 622 000d 000000   		.space	3
 623 0010 08008800 		.word	8912904
ARM GAS  C:\Users\austc\AppData\Local\Temp\ccBMY9tB.s 			page 15


 624 0014 00000000 		.word	0
 625 0018 02       		.byte	2
 626 0019 000000   		.space	3
 627 001c 08008800 		.word	8912904
 628 0020 00000000 		.word	0
 629 0024 03       		.byte	3
 630 0025 000000   		.space	3
 631 0028 08008800 		.word	8912904
 632 002c 00000000 		.word	0
 633 0030 04       		.byte	4
 634 0031 000000   		.space	3
 635 0034 08008800 		.word	8912904
 636 0038 00000000 		.word	0
 637 003c 05       		.byte	5
 638 003d 000000   		.space	3
 639 0040 08008800 		.word	8912904
 640 0044 00000000 		.word	0
 641 0048 06       		.byte	6
 642 0049 000000   		.space	3
 643 004c 08008800 		.word	8912904
 644 0050 00000000 		.word	0
 645 0054 07       		.byte	7
 646 0055 000000   		.space	3
 647 0058 08008800 		.word	8912904
 648 005c 00000000 		.word	0
 649              		.data
 650              		.set	.LANCHOR0,. + 0
 651              		.type	messagePresentFlag, %object
 652              		.size	messagePresentFlag, 1
 653              	messagePresentFlag:
 654 0000 FF       		.byte	-1
 655              		.text
 656              	.Letext0:
 657              		.file 2 "c:\\program files (x86)\\cypress\\psoc creator\\4.2\\psoc creator\\import\\gnu\\arm\\5.4.
 658              		.file 3 "c:\\program files (x86)\\cypress\\psoc creator\\4.2\\psoc creator\\import\\gnu\\arm\\5.4.
 659              		.file 4 "..\\CANLib\\PortFiles\\../CANPacket.h"
 660              		.file 5 "..\\CANLib\\PortFiles\\../../Motor_Board_Rev3.cydsn/Generated_Source/PSoC4/cytypes.h"
 661              		.file 6 "..\\CANLib\\PortFiles\\../../Motor_Board_Rev3.cydsn/Generated_Source/PSoC4/CAN.h"
 662              		.file 7 "Generated_Source\\PSoC4/Can_addr.h"