ARM GAS  C:\Users\austc\AppData\Local\Temp\cceqIoAJ.s 			page 1


   1              		.syntax unified
   2              		.cpu cortex-m0
   3              		.fpu softvfp
   4              		.eabi_attribute 20, 1
   5              		.eabi_attribute 21, 1
   6              		.eabi_attribute 23, 3
   7              		.eabi_attribute 24, 1
   8              		.eabi_attribute 25, 1
   9              		.eabi_attribute 26, 1
  10              		.eabi_attribute 30, 1
  11              		.eabi_attribute 34, 0
  12              		.eabi_attribute 18, 4
  13              		.thumb
  14              		.syntax unified
  15              		.file	"StripLights_StringSel_PM.c"
  16              		.text
  17              	.Ltext0:
  18              		.cfi_sections	.debug_frame
  19              		.section	.text.StripLights_StringSel_SaveConfig,"ax",%progbits
  20              		.align	2
  21              		.global	StripLights_StringSel_SaveConfig
  22              		.code	16
  23              		.thumb_func
  24              		.type	StripLights_StringSel_SaveConfig, %function
  25              	StripLights_StringSel_SaveConfig:
  26              	.LFB0:
  27              		.file 1 "Generated_Source\\PSoC4\\StripLights_StringSel_PM.c"
   1:Generated_Source\PSoC4/StripLights_StringSel_PM.c **** /*******************************************************************************
   2:Generated_Source\PSoC4/StripLights_StringSel_PM.c **** * File Name: StripLights_StringSel_PM.c
   3:Generated_Source\PSoC4/StripLights_StringSel_PM.c **** * Version 1.80
   4:Generated_Source\PSoC4/StripLights_StringSel_PM.c **** *
   5:Generated_Source\PSoC4/StripLights_StringSel_PM.c **** * Description:
   6:Generated_Source\PSoC4/StripLights_StringSel_PM.c **** *  This file contains the setup, control, and status commands to support 
   7:Generated_Source\PSoC4/StripLights_StringSel_PM.c **** *  the component operation in the low power mode. 
   8:Generated_Source\PSoC4/StripLights_StringSel_PM.c **** *
   9:Generated_Source\PSoC4/StripLights_StringSel_PM.c **** * Note:
  10:Generated_Source\PSoC4/StripLights_StringSel_PM.c **** *
  11:Generated_Source\PSoC4/StripLights_StringSel_PM.c **** ********************************************************************************
  12:Generated_Source\PSoC4/StripLights_StringSel_PM.c **** * Copyright 2015, Cypress Semiconductor Corporation.  All rights reserved.
  13:Generated_Source\PSoC4/StripLights_StringSel_PM.c **** * You may use this file only in accordance with the license, terms, conditions, 
  14:Generated_Source\PSoC4/StripLights_StringSel_PM.c **** * disclaimers, and limitations in the end user license agreement accompanying 
  15:Generated_Source\PSoC4/StripLights_StringSel_PM.c **** * the software package with which this file was provided.
  16:Generated_Source\PSoC4/StripLights_StringSel_PM.c **** *******************************************************************************/
  17:Generated_Source\PSoC4/StripLights_StringSel_PM.c **** 
  18:Generated_Source\PSoC4/StripLights_StringSel_PM.c **** #include "StripLights_StringSel.h"
  19:Generated_Source\PSoC4/StripLights_StringSel_PM.c **** 
  20:Generated_Source\PSoC4/StripLights_StringSel_PM.c **** /* Check for removal by optimization */
  21:Generated_Source\PSoC4/StripLights_StringSel_PM.c **** #if !defined(StripLights_StringSel_Sync_ctrl_reg__REMOVED)
  22:Generated_Source\PSoC4/StripLights_StringSel_PM.c **** 
  23:Generated_Source\PSoC4/StripLights_StringSel_PM.c **** static StripLights_StringSel_BACKUP_STRUCT  StripLights_StringSel_backup = {0u};
  24:Generated_Source\PSoC4/StripLights_StringSel_PM.c **** 
  25:Generated_Source\PSoC4/StripLights_StringSel_PM.c ****     
  26:Generated_Source\PSoC4/StripLights_StringSel_PM.c **** /*******************************************************************************
  27:Generated_Source\PSoC4/StripLights_StringSel_PM.c **** * Function Name: StripLights_StringSel_SaveConfig
  28:Generated_Source\PSoC4/StripLights_StringSel_PM.c **** ********************************************************************************
  29:Generated_Source\PSoC4/StripLights_StringSel_PM.c **** *
  30:Generated_Source\PSoC4/StripLights_StringSel_PM.c **** * Summary:
ARM GAS  C:\Users\austc\AppData\Local\Temp\cceqIoAJ.s 			page 2


  31:Generated_Source\PSoC4/StripLights_StringSel_PM.c **** *  Saves the control register value.
  32:Generated_Source\PSoC4/StripLights_StringSel_PM.c **** *
  33:Generated_Source\PSoC4/StripLights_StringSel_PM.c **** * Parameters:
  34:Generated_Source\PSoC4/StripLights_StringSel_PM.c **** *  None
  35:Generated_Source\PSoC4/StripLights_StringSel_PM.c **** *
  36:Generated_Source\PSoC4/StripLights_StringSel_PM.c **** * Return:
  37:Generated_Source\PSoC4/StripLights_StringSel_PM.c **** *  None
  38:Generated_Source\PSoC4/StripLights_StringSel_PM.c **** *
  39:Generated_Source\PSoC4/StripLights_StringSel_PM.c **** *******************************************************************************/
  40:Generated_Source\PSoC4/StripLights_StringSel_PM.c **** void StripLights_StringSel_SaveConfig(void) 
  41:Generated_Source\PSoC4/StripLights_StringSel_PM.c **** {
  28              		.loc 1 41 0
  29              		.cfi_startproc
  30              		@ args = 0, pretend = 0, frame = 0
  31              		@ frame_needed = 0, uses_anonymous_args = 0
  32              		@ link register save eliminated.
  42:Generated_Source\PSoC4/StripLights_StringSel_PM.c ****     StripLights_StringSel_backup.controlState = StripLights_StringSel_Control;
  33              		.loc 1 42 0
  34 0000 024B     		ldr	r3, .L2
  35 0002 1A78     		ldrb	r2, [r3]
  36 0004 024B     		ldr	r3, .L2+4
  37 0006 1A70     		strb	r2, [r3]
  43:Generated_Source\PSoC4/StripLights_StringSel_PM.c **** }
  38              		.loc 1 43 0
  39              		@ sp needed
  40 0008 7047     		bx	lr
  41              	.L3:
  42 000a C046     		.align	2
  43              	.L2:
  44 000c 70000F40 		.word	1074724976
  45 0010 00000000 		.word	.LANCHOR0
  46              		.cfi_endproc
  47              	.LFE0:
  48              		.size	StripLights_StringSel_SaveConfig, .-StripLights_StringSel_SaveConfig
  49              		.section	.text.StripLights_StringSel_RestoreConfig,"ax",%progbits
  50              		.align	2
  51              		.global	StripLights_StringSel_RestoreConfig
  52              		.code	16
  53              		.thumb_func
  54              		.type	StripLights_StringSel_RestoreConfig, %function
  55              	StripLights_StringSel_RestoreConfig:
  56              	.LFB1:
  44:Generated_Source\PSoC4/StripLights_StringSel_PM.c **** 
  45:Generated_Source\PSoC4/StripLights_StringSel_PM.c **** 
  46:Generated_Source\PSoC4/StripLights_StringSel_PM.c **** /*******************************************************************************
  47:Generated_Source\PSoC4/StripLights_StringSel_PM.c **** * Function Name: StripLights_StringSel_RestoreConfig
  48:Generated_Source\PSoC4/StripLights_StringSel_PM.c **** ********************************************************************************
  49:Generated_Source\PSoC4/StripLights_StringSel_PM.c **** *
  50:Generated_Source\PSoC4/StripLights_StringSel_PM.c **** * Summary:
  51:Generated_Source\PSoC4/StripLights_StringSel_PM.c **** *  Restores the control register value.
  52:Generated_Source\PSoC4/StripLights_StringSel_PM.c **** *
  53:Generated_Source\PSoC4/StripLights_StringSel_PM.c **** * Parameters:
  54:Generated_Source\PSoC4/StripLights_StringSel_PM.c **** *  None
  55:Generated_Source\PSoC4/StripLights_StringSel_PM.c **** *
  56:Generated_Source\PSoC4/StripLights_StringSel_PM.c **** * Return:
  57:Generated_Source\PSoC4/StripLights_StringSel_PM.c **** *  None
  58:Generated_Source\PSoC4/StripLights_StringSel_PM.c **** *
ARM GAS  C:\Users\austc\AppData\Local\Temp\cceqIoAJ.s 			page 3


  59:Generated_Source\PSoC4/StripLights_StringSel_PM.c **** *
  60:Generated_Source\PSoC4/StripLights_StringSel_PM.c **** *******************************************************************************/
  61:Generated_Source\PSoC4/StripLights_StringSel_PM.c **** void StripLights_StringSel_RestoreConfig(void) 
  62:Generated_Source\PSoC4/StripLights_StringSel_PM.c **** {
  57              		.loc 1 62 0
  58              		.cfi_startproc
  59              		@ args = 0, pretend = 0, frame = 0
  60              		@ frame_needed = 0, uses_anonymous_args = 0
  61              		@ link register save eliminated.
  63:Generated_Source\PSoC4/StripLights_StringSel_PM.c ****      StripLights_StringSel_Control = StripLights_StringSel_backup.controlState;
  62              		.loc 1 63 0
  63 0000 024B     		ldr	r3, .L5
  64 0002 1A78     		ldrb	r2, [r3]
  65 0004 024B     		ldr	r3, .L5+4
  66 0006 1A70     		strb	r2, [r3]
  64:Generated_Source\PSoC4/StripLights_StringSel_PM.c **** }
  67              		.loc 1 64 0
  68              		@ sp needed
  69 0008 7047     		bx	lr
  70              	.L6:
  71 000a C046     		.align	2
  72              	.L5:
  73 000c 00000000 		.word	.LANCHOR0
  74 0010 70000F40 		.word	1074724976
  75              		.cfi_endproc
  76              	.LFE1:
  77              		.size	StripLights_StringSel_RestoreConfig, .-StripLights_StringSel_RestoreConfig
  78              		.section	.text.StripLights_StringSel_Sleep,"ax",%progbits
  79              		.align	2
  80              		.global	StripLights_StringSel_Sleep
  81              		.code	16
  82              		.thumb_func
  83              		.type	StripLights_StringSel_Sleep, %function
  84              	StripLights_StringSel_Sleep:
  85              	.LFB2:
  65:Generated_Source\PSoC4/StripLights_StringSel_PM.c **** 
  66:Generated_Source\PSoC4/StripLights_StringSel_PM.c **** 
  67:Generated_Source\PSoC4/StripLights_StringSel_PM.c **** /*******************************************************************************
  68:Generated_Source\PSoC4/StripLights_StringSel_PM.c **** * Function Name: StripLights_StringSel_Sleep
  69:Generated_Source\PSoC4/StripLights_StringSel_PM.c **** ********************************************************************************
  70:Generated_Source\PSoC4/StripLights_StringSel_PM.c **** *
  71:Generated_Source\PSoC4/StripLights_StringSel_PM.c **** * Summary:
  72:Generated_Source\PSoC4/StripLights_StringSel_PM.c **** *  Prepares the component for entering the low power mode.
  73:Generated_Source\PSoC4/StripLights_StringSel_PM.c **** *
  74:Generated_Source\PSoC4/StripLights_StringSel_PM.c **** * Parameters:
  75:Generated_Source\PSoC4/StripLights_StringSel_PM.c **** *  None
  76:Generated_Source\PSoC4/StripLights_StringSel_PM.c **** *
  77:Generated_Source\PSoC4/StripLights_StringSel_PM.c **** * Return:
  78:Generated_Source\PSoC4/StripLights_StringSel_PM.c **** *  None
  79:Generated_Source\PSoC4/StripLights_StringSel_PM.c **** *
  80:Generated_Source\PSoC4/StripLights_StringSel_PM.c **** *******************************************************************************/
  81:Generated_Source\PSoC4/StripLights_StringSel_PM.c **** void StripLights_StringSel_Sleep(void) 
  82:Generated_Source\PSoC4/StripLights_StringSel_PM.c **** {
  86              		.loc 1 82 0
  87              		.cfi_startproc
  88              		@ args = 0, pretend = 0, frame = 0
  89              		@ frame_needed = 0, uses_anonymous_args = 0
ARM GAS  C:\Users\austc\AppData\Local\Temp\cceqIoAJ.s 			page 4


  90 0000 10B5     		push	{r4, lr}
  91              		.cfi_def_cfa_offset 8
  92              		.cfi_offset 4, -8
  93              		.cfi_offset 14, -4
  83:Generated_Source\PSoC4/StripLights_StringSel_PM.c ****     StripLights_StringSel_SaveConfig();
  94              		.loc 1 83 0
  95 0002 FFF7FEFF 		bl	StripLights_StringSel_SaveConfig
  96              	.LVL0:
  84:Generated_Source\PSoC4/StripLights_StringSel_PM.c **** }
  97              		.loc 1 84 0
  98              		@ sp needed
  99 0006 10BD     		pop	{r4, pc}
 100              		.cfi_endproc
 101              	.LFE2:
 102              		.size	StripLights_StringSel_Sleep, .-StripLights_StringSel_Sleep
 103              		.section	.text.StripLights_StringSel_Wakeup,"ax",%progbits
 104              		.align	2
 105              		.global	StripLights_StringSel_Wakeup
 106              		.code	16
 107              		.thumb_func
 108              		.type	StripLights_StringSel_Wakeup, %function
 109              	StripLights_StringSel_Wakeup:
 110              	.LFB3:
  85:Generated_Source\PSoC4/StripLights_StringSel_PM.c **** 
  86:Generated_Source\PSoC4/StripLights_StringSel_PM.c **** 
  87:Generated_Source\PSoC4/StripLights_StringSel_PM.c **** /*******************************************************************************
  88:Generated_Source\PSoC4/StripLights_StringSel_PM.c **** * Function Name: StripLights_StringSel_Wakeup
  89:Generated_Source\PSoC4/StripLights_StringSel_PM.c **** ********************************************************************************
  90:Generated_Source\PSoC4/StripLights_StringSel_PM.c **** *
  91:Generated_Source\PSoC4/StripLights_StringSel_PM.c **** * Summary:
  92:Generated_Source\PSoC4/StripLights_StringSel_PM.c **** *  Restores the component after waking up from the low power mode.
  93:Generated_Source\PSoC4/StripLights_StringSel_PM.c **** *
  94:Generated_Source\PSoC4/StripLights_StringSel_PM.c **** * Parameters:
  95:Generated_Source\PSoC4/StripLights_StringSel_PM.c **** *  None
  96:Generated_Source\PSoC4/StripLights_StringSel_PM.c **** *
  97:Generated_Source\PSoC4/StripLights_StringSel_PM.c **** * Return:
  98:Generated_Source\PSoC4/StripLights_StringSel_PM.c **** *  None
  99:Generated_Source\PSoC4/StripLights_StringSel_PM.c **** *
 100:Generated_Source\PSoC4/StripLights_StringSel_PM.c **** *******************************************************************************/
 101:Generated_Source\PSoC4/StripLights_StringSel_PM.c **** void StripLights_StringSel_Wakeup(void)  
 102:Generated_Source\PSoC4/StripLights_StringSel_PM.c **** {
 111              		.loc 1 102 0
 112              		.cfi_startproc
 113              		@ args = 0, pretend = 0, frame = 0
 114              		@ frame_needed = 0, uses_anonymous_args = 0
 115 0000 10B5     		push	{r4, lr}
 116              		.cfi_def_cfa_offset 8
 117              		.cfi_offset 4, -8
 118              		.cfi_offset 14, -4
 103:Generated_Source\PSoC4/StripLights_StringSel_PM.c ****     StripLights_StringSel_RestoreConfig();
 119              		.loc 1 103 0
 120 0002 FFF7FEFF 		bl	StripLights_StringSel_RestoreConfig
 121              	.LVL1:
 104:Generated_Source\PSoC4/StripLights_StringSel_PM.c **** }
 122              		.loc 1 104 0
 123              		@ sp needed
 124 0006 10BD     		pop	{r4, pc}
ARM GAS  C:\Users\austc\AppData\Local\Temp\cceqIoAJ.s 			page 5


 125              		.cfi_endproc
 126              	.LFE3:
 127              		.size	StripLights_StringSel_Wakeup, .-StripLights_StringSel_Wakeup
 128              		.bss
 129              		.align	2
 130              		.set	.LANCHOR0,. + 0
 131              		.type	StripLights_StringSel_backup, %object
 132              		.size	StripLights_StringSel_backup, 1
 133              	StripLights_StringSel_backup:
 134 0000 00       		.space	1
 135              		.text
 136              	.Letext0:
 137              		.file 2 "Generated_Source\\PSoC4\\cytypes.h"
 138              		.file 3 "Generated_Source\\PSoC4\\StripLights_StringSel.h"