ARM GAS  C:\Users\austc\AppData\Local\Temp\ccAwGtxE.s 			page 1


   1              		.syntax unified
   2              		.cpu cortex-m0
   3              		.fpu softvfp
   4              		.eabi_attribute 20, 1
   5              		.eabi_attribute 21, 1
   6              		.eabi_attribute 23, 3
   7              		.eabi_attribute 24, 1
   8              		.eabi_attribute 25, 1
   9              		.eabi_attribute 26, 1
  10              		.eabi_attribute 30, 1
  11              		.eabi_attribute 34, 0
  12              		.eabi_attribute 18, 4
  13              		.thumb
  14              		.syntax unified
  15              		.file	"main.c"
  16              		.text
  17              	.Ltext0:
  18              		.cfi_sections	.debug_frame
  19              		.section	.text.Period_Reset_Handler,"ax",%progbits
  20              		.align	2
  21              		.global	Period_Reset_Handler
  22              		.code	16
  23              		.thumb_func
  24              		.type	Period_Reset_Handler, %function
  25              	Period_Reset_Handler:
  26              	.LFB35:
  27              		.file 1 "main.c"
   1:main.c        **** /* ========================================
   2:main.c        ****  *
   3:main.c        ****  * Copyright YOUR COMPANY, THE YEAR
   4:main.c        ****  * All Rights Reserved
   5:main.c        ****  * UNPUBLISHED, LICENSED SOFTWARE.
   6:main.c        ****  *
   7:main.c        ****  * CONFIDENTIAL AND PROPRIETARY INFORMATION
   8:main.c        ****  * WHICH IS THE PROPERTY OF your company.
   9:main.c        ****  *
  10:main.c        ****  * ========================================
  11:main.c        **** */
  12:main.c        **** #include <project.h>
  13:main.c        **** #include "cyapicallbacks.h"
  14:main.c        **** #include <stdio.h>
  15:main.c        **** 
  16:main.c        **** #define REV2
  17:main.c        **** #define LED_ON   (0u)
  18:main.c        **** #define LED_OFF  (1u)
  19:main.c        **** 
  20:main.c        **** //LED
  21:main.c        **** uint8 time_LED = 0;
  22:main.c        **** 
  23:main.c        **** //CAN variables
  24:main.c        **** uint32 message_id = 0;
  25:main.c        **** #define MESSAGE_IDE             (0u)    /* Standard message */
  26:main.c        **** #define MESSAGE_IRQ             (0u)    /* No transmit IRQ */
  27:main.c        **** #define MESSAGE_RTR             (0u)    /* No RTR */
  28:main.c        **** uint16 CAN_RX_MAILBOX_1_SHIFT  = 0b1;
  29:main.c        **** uint32 CAN_RX_MAILBOX_0_SHIFT  = 0b10000000;
  30:main.c        **** uint16 CAN_RX_MAILBOX_1 = 0u;
ARM GAS  C:\Users\austc\AppData\Local\Temp\ccAwGtxE.s 			page 2


  31:main.c        **** uint16 CAN_RX_MAILBOX_0 = 7u;
  32:main.c        **** int CAN_TIMEOUT;
  33:main.c        **** 
  34:main.c        **** CY_ISR_PROTO(ISR_CAN);
  35:main.c        **** 
  36:main.c        **** //Uart variables
  37:main.c        **** volatile uint8 uart_debug = 2;
  38:main.c        **** #define PWM_PERIOD = 255;
  39:main.c        **** 
  40:main.c        **** 
  41:main.c        **** //drive varaible
  42:main.c        **** int GEAR_RATIO;
  43:main.c        **** int pwm_compare;
  44:main.c        **** uint8 invalidate = 0;
  45:main.c        **** 
  46:main.c        **** //PID varaibles
  47:main.c        **** int8 flipEncoder = 1;
  48:main.c        **** int16 final_angle = 0;
  49:main.c        **** int i = 0;
  50:main.c        **** int lastp = 0;
  51:main.c        **** int kp;
  52:main.c        **** int ki;
  53:main.c        **** int kd;
  54:main.c        **** double ratio;
  55:main.c        **** uint8 complete = 0;
  56:main.c        **** uint8 maxV = 0;
  57:main.c        **** 
  58:main.c        **** //drive mode
  59:main.c        **** uint8 mode = 2;
  60:main.c        **** 
  61:main.c        **** //flags
  62:main.c        **** uint8 send_data = 1;
  63:main.c        **** uint8 model_req = 0;
  64:main.c        **** uint8 disable_limit = 0;
  65:main.c        **** 
  66:main.c        **** //Status and Data Structs
  67:main.c        **** struct Can_data Can_rx_pwm, Can_rx_angle;
  68:main.c        **** struct Error stall;
  69:main.c        **** struct Error command_failed;
  70:main.c        **** struct Error invalid_arg;
  71:main.c        **** 
  72:main.c        **** 
  73:main.c        **** int mailbox = 0x000;
  74:main.c        **** uint8 emergency = 0;
  75:main.c        **** char8 txData[TX_DATA_SIZE];
  76:main.c        **** /* Global variables used to store configuration and data for BASIC CAN mailbox */
  77:main.c        **** CAN_DATA_BYTES_MSG data;
  78:main.c        **** CAN_TX_MSG message;
  79:main.c        **** 
  80:main.c        **** volatile uint8 drive = 0;
  81:main.c        **** 
  82:main.c        **** 
  83:main.c        **** CY_ISR(Period_Reset_Handler) {
  28              		.loc 1 83 0
  29              		.cfi_startproc
  30              		@ args = 0, pretend = 0, frame = 0
  31              		@ frame_needed = 0, uses_anonymous_args = 0
ARM GAS  C:\Users\austc\AppData\Local\Temp\ccAwGtxE.s 			page 3


  32 0000 10B5     		push	{r4, lr}
  33              		.cfi_def_cfa_offset 8
  34              		.cfi_offset 4, -8
  35              		.cfi_offset 14, -4
  84:main.c        ****     int timer = Timer_1_ReadStatusRegister();
  36              		.loc 1 84 0
  37 0002 FFF7FEFF 		bl	Timer_1_ReadStatusRegister
  38              	.LVL0:
  85:main.c        ****     if(uart_debug) {
  39              		.loc 1 85 0
  40 0006 124B     		ldr	r3, .L5
  41 0008 1B78     		ldrb	r3, [r3]
  42 000a 002B     		cmp	r3, #0
  43 000c 04D0     		beq	.L2
  86:main.c        ****         sprintf(txData,"Period interupt triggerd %x\r\n", timer);
  44              		.loc 1 86 0
  45 000e 0200     		movs	r2, r0
  46 0010 1049     		ldr	r1, .L5+4
  47 0012 1148     		ldr	r0, .L5+8
  48              	.LVL1:
  49 0014 FFF7FEFF 		bl	sprintf
  50              	.LVL2:
  51              	.L2:
  87:main.c        ****         //UART_UartPutString(txData);
  88:main.c        ****     }
  89:main.c        ****     send_data = 1;
  52              		.loc 1 89 0
  53 0018 0122     		movs	r2, #1
  54 001a 0D4B     		ldr	r3, .L5
  55 001c 5A70     		strb	r2, [r3, #1]
  90:main.c        ****     invalidate++;
  56              		.loc 1 90 0
  57 001e 0F4A     		ldr	r2, .L5+12
  58 0020 1378     		ldrb	r3, [r2]
  59 0022 0133     		adds	r3, r3, #1
  60 0024 DBB2     		uxtb	r3, r3
  61 0026 1370     		strb	r3, [r2]
  91:main.c        ****     time_LED++;
  62              		.loc 1 91 0
  63 0028 5178     		ldrb	r1, [r2, #1]
  64 002a 0131     		adds	r1, r1, #1
  65 002c 5170     		strb	r1, [r2, #1]
  92:main.c        ****     if(invalidate >= 20){
  66              		.loc 1 92 0
  67 002e 132B     		cmp	r3, #19
  68 0030 05D9     		bls	.L3
  69              	.LBB2:
  93:main.c        ****         set_PWM(0);   
  70              		.loc 1 93 0
  71 0032 0020     		movs	r0, #0
  72 0034 FFF7FEFF 		bl	set_PWM
  73              	.LVL3:
  94:main.c        ****         Can_rx_pwm.done = 1;
  74              		.loc 1 94 0
  75 0038 0122     		movs	r2, #1
  76 003a 094B     		ldr	r3, .L5+16
  77 003c 5A71     		strb	r2, [r3, #5]
ARM GAS  C:\Users\austc\AppData\Local\Temp\ccAwGtxE.s 			page 4


  78              	.L3:
  79              	.LBE2:
  95:main.c        ****     }
  96:main.c        ****     
  97:main.c        ****     #ifdef REV2
  98:main.c        ****         if(time_LED >= 5){
  80              		.loc 1 98 0
  81 003e 074B     		ldr	r3, .L5+12
  82 0040 5B78     		ldrb	r3, [r3, #1]
  83 0042 042B     		cmp	r3, #4
  84 0044 02D9     		bls	.L1
  99:main.c        ****             Test_LED_Write(LED_OFF);
  85              		.loc 1 99 0
  86 0046 0120     		movs	r0, #1
  87 0048 FFF7FEFF 		bl	Test_LED_Write
  88              	.LVL4:
  89              	.L1:
 100:main.c        ****             
 101:main.c        ****             
 102:main.c        ****         }
 103:main.c        ****     #endif
 104:main.c        **** }
  90              		.loc 1 104 0
  91              		@ sp needed
  92 004c 10BD     		pop	{r4, pc}
  93              	.L6:
  94 004e C046     		.align	2
  95              	.L5:
  96 0050 00000000 		.word	.LANCHOR0
  97 0054 00000000 		.word	.LC1
  98 0058 00000000 		.word	txData
  99 005c 00000000 		.word	.LANCHOR1
 100 0060 00000000 		.word	Can_rx_pwm
 101              		.cfi_endproc
 102              	.LFE35:
 103              		.size	Period_Reset_Handler, .-Period_Reset_Handler
 104              		.section	.text.Pin_Limit_Handler,"ax",%progbits
 105              		.align	2
 106              		.global	Pin_Limit_Handler
 107              		.code	16
 108              		.thumb_func
 109              		.type	Pin_Limit_Handler, %function
 110              	Pin_Limit_Handler:
 111              	.LFB36:
 105:main.c        ****   
 106:main.c        **** CY_ISR(Pin_Limit_Handler){
 112              		.loc 1 106 0
 113              		.cfi_startproc
 114              		@ args = 0, pretend = 0, frame = 0
 115              		@ frame_needed = 0, uses_anonymous_args = 0
 116 0000 10B5     		push	{r4, lr}
 117              		.cfi_def_cfa_offset 8
 118              		.cfi_offset 4, -8
 119              		.cfi_offset 14, -4
 107:main.c        ****     if(uart_debug) {
 120              		.loc 1 107 0
 121 0002 0A4B     		ldr	r3, .L9
ARM GAS  C:\Users\austc\AppData\Local\Temp\ccAwGtxE.s 			page 5


 122 0004 1B78     		ldrb	r3, [r3]
 123 0006 002B     		cmp	r3, #0
 124 0008 08D0     		beq	.L8
 108:main.c        ****         sprintf(txData,"Limit interupt triggerd\r\n");
 125              		.loc 1 108 0
 126 000a 094C     		ldr	r4, .L9+4
 127 000c 1A22     		movs	r2, #26
 128 000e 0949     		ldr	r1, .L9+8
 129 0010 2000     		movs	r0, r4
 130 0012 FFF7FEFF 		bl	memcpy
 131              	.LVL5:
 109:main.c        ****         UART_UartPutString(txData);
 132              		.loc 1 109 0
 133 0016 2000     		movs	r0, r4
 134 0018 FFF7FEFF 		bl	UART_UartPutString
 135              	.LVL6:
 136              	.L8:
 110:main.c        ****     }
 111:main.c        ****     set_PWM(pwm_compare);
 137              		.loc 1 111 0
 138 001c 064B     		ldr	r3, .L9+12
 139 001e 1868     		ldr	r0, [r3]
 140 0020 FFF7FEFF 		bl	set_PWM
 141              	.LVL7:
 112:main.c        ****     QuadDec_SetCounter(0);
 142              		.loc 1 112 0
 143 0024 0020     		movs	r0, #0
 144 0026 FFF7FEFF 		bl	QuadDec_SetCounter
 145              	.LVL8:
 113:main.c        **** }
 146              		.loc 1 113 0
 147              		@ sp needed
 148 002a 10BD     		pop	{r4, pc}
 149              	.L10:
 150              		.align	2
 151              	.L9:
 152 002c 00000000 		.word	.LANCHOR0
 153 0030 00000000 		.word	txData
 154 0034 20000000 		.word	.LC8
 155 0038 00000000 		.word	pwm_compare
 156              		.cfi_endproc
 157              	.LFE36:
 158              		.size	Pin_Limit_Handler, .-Pin_Limit_Handler
 159              		.section	.text.ISR_CAN,"ax",%progbits
 160              		.align	2
 161              		.global	ISR_CAN
 162              		.code	16
 163              		.thumb_func
 164              		.type	ISR_CAN, %function
 165              	ISR_CAN:
 166              	.LFB46:
 114:main.c        **** 
 115:main.c        **** int main(void)
 116:main.c        **** { 
 117:main.c        ****     #ifdef REV2
 118:main.c        ****         Test_LED_Write(LED_ON);
 119:main.c        ****         Error_Write(LED_ON);
ARM GAS  C:\Users\austc\AppData\Local\Temp\ccAwGtxE.s 			page 6


 120:main.c        ****     #endif
 121:main.c        ****     stall.code = 0x01;
 122:main.c        ****     stall.done = 1;
 123:main.c        ****     command_failed.code = 0x02;
 124:main.c        ****     command_failed.done = 1;
 125:main.c        ****     invalid_arg.code = 0x03;
 126:main.c        ****     invalid_arg.done = 1;
 127:main.c        ****     uint8 error;
 128:main.c        ****         /* BASIC CAN mailbox configuration */
 129:main.c        ****     message.dlc = 5u;
 130:main.c        ****     message.ide = MESSAGE_IDE;
 131:main.c        ****     message.irq = MESSAGE_IRQ;
 132:main.c        ****     message.msg = &data;
 133:main.c        ****     message.rtr = MESSAGE_RTR;
 134:main.c        ****     
 135:main.c        ****     #ifdef REV2
 136:main.c        ****         Test_LED_Write(0);
 137:main.c        ****         Error_Write(0);
 138:main.c        ****     #endif
 139:main.c        **** 
 140:main.c        ****     initialize();
 141:main.c        ****     initialize_can_addr();
 142:main.c        ****     int up = 0;
 143:main.c        ****     int test = 0;
 144:main.c        ****     pwm_compare = 0;
 145:main.c        ****     set_PWM(0);
 146:main.c        ****     
 147:main.c        ****     #ifdef REV2
 148:main.c        ****         Test_LED_Write(LED_OFF);
 149:main.c        ****         Error_Write(LED_OFF);
 150:main.c        ****     #endif
 151:main.c        ****     
 152:main.c        ****     for(;;)
 153:main.c        ****     {
 154:main.c        ****         if(!emergency) {
 155:main.c        **** 
 156:main.c        ****             //Tests if there are still drive packets that still need to be done
 157:main.c        ****             //drive = !Can_rx_pwm.done | !Can_rx_angle.done;
 158:main.c        ****             
 159:main.c        ****             //Handles Can drive recieve packets
 160:main.c        ****             //if (drive)
 161:main.c        ****             //{           
 162:main.c        ****                 //Mode 0 packets
 163:main.c        ****                 if(!Can_rx_pwm.done) {
 164:main.c        ****                     if(mode == 0) {
 165:main.c        ****                         if(uart_debug) {
 166:main.c        ****                             sprintf(txData, "B1: %d, B2: %d done %x\r\n",Can_rx_pwm.b1, Can_rx_pwm.
 167:main.c        ****                             UART_UartPutString(txData);
 168:main.c        ****                         }
 169:main.c        ****                         Can_rx_pwm.done = 1;
 170:main.c        ****                         if(Can_rx_pwm.b2 & 0b01) {
 171:main.c        ****                             set_PWM((int)Can_rx_pwm.b1);
 172:main.c        ****                         }
 173:main.c        ****                         else {
 174:main.c        ****                             set_PWM(-(int)Can_rx_pwm.b1);
 175:main.c        ****                         }
 176:main.c        ****                     } else {
ARM GAS  C:\Users\austc\AppData\Local\Temp\ccAwGtxE.s 			page 7


 177:main.c        ****                         command_failed.done = 0;
 178:main.c        ****                         command_failed.param = 0x02;
 179:main.c        ****                         if(uart_debug) {
 180:main.c        ****                             sprintf(txData, "Mode is not set to 0, mode is %d\r\n",mode);
 181:main.c        ****                             UART_UartPutString(txData);
 182:main.c        ****                         }
 183:main.c        ****                     }
 184:main.c        ****                 }
 185:main.c        ****                 
 186:main.c        ****                 // Mode 1 packets
 187:main.c        ****                // if(!Can_rx_angle.done){
 188:main.c        ****                     if(mode == 1){
 189:main.c        ****                         if(uart_debug) {
 190:main.c        ****                             sprintf(txData, "B1: %d, B3: %d done %x\r\n",Can_rx_angle.b1, Can_rx_an
 191:main.c        ****                             UART_UartPutString(txData);
 192:main.c        ****                         }
 193:main.c        ****                         //Can_rx_angle.done = 1;
 194:main.c        ****                         complete = 0;
 195:main.c        ****                         maxV = Can_rx_angle.b3;
 196:main.c        ****                         i = 0;
 197:main.c        ****                         
 198:main.c        ****                        // final_angle = final_angle | (int16)Can_rx_angle.b2 << 8;
 199:main.c        ****                        // final_angle = final_angle | (int16)Can_rx_angle.b1;
 200:main.c        ****                         final_angle = ((uint16_t)Can_rx_angle.b2) << 8 | Can_rx_angle.b1;
 201:main.c        ****                         set_Position(final_angle);
 202:main.c        ****                     }
 203:main.c        ****                     else if(!Can_rx_pwm.done) {
 204:main.c        ****                         command_failed.done = 0;
 205:main.c        ****                         command_failed.param = 0x04;
 206:main.c        ****                         if(uart_debug) {
 207:main.c        ****                             sprintf(txData, "Mode is not set to 1, mode is %d\r\n", mode);
 208:main.c        ****                             UART_UartPutString(txData);
 209:main.c        ****                         }
 210:main.c        ****                     }
 211:main.c        ****                 //}
 212:main.c        ****                 
 213:main.c        ****                 if(mode != 1 && mode != 0) {
 214:main.c        ****                     Can_rx_angle.done = 1;
 215:main.c        ****                     Can_rx_pwm.done = 1;
 216:main.c        ****                 }
 217:main.c        ****             //}
 218:main.c        ****             
 219:main.c        ****             //Tests if there are any errors
 220:main.c        ****           //  error = !stall.done | !invalid_arg.done | !command_failed.done; 
 221:main.c        ****             
 222:main.c        ****             //sends errors over CAN
 223:main.c        ****             /*if(error){
 224:main.c        ****                 if(!stall.done) {
 225:main.c        ****                     CAN_Send_Error(stall.code, stall.param);
 226:main.c        ****                     stall.done = 1;
 227:main.c        ****                 }
 228:main.c        ****                 if(!invalid_arg.done) {
 229:main.c        ****                     CAN_Send_Error(invalid_arg.code, invalid_arg.param);
 230:main.c        ****                     invalid_arg.done = 1;
 231:main.c        ****                 }
 232:main.c        ****                 if(!command_failed.done) {
 233:main.c        ****                     CAN_Send_Error(command_failed.code, command_failed.param);
ARM GAS  C:\Users\austc\AppData\Local\Temp\ccAwGtxE.s 			page 8


 234:main.c        ****                     command_failed.done = 1;
 235:main.c        ****                 }
 236:main.c        ****             }*/
 237:main.c        ****             
 238:main.c        ****             //Sends periodic data
 239:main.c        ****             if(send_data) {
 240:main.c        ****                 if(uart_debug) {
 241:main.c        ****                     sprintf(txData,"\nSending Data... \r\n");
 242:main.c        ****                    // UART_UartPutString(txData);
 243:main.c        ****                 }
 244:main.c        ****                 CAN_Send_Encoder(); 
 245:main.c        ****                 send_data = 0;
 246:main.c        ****             }
 247:main.c        ****             
 248:main.c        ****             //Sends model
 249:main.c        ****             if(model_req) {
 250:main.c        ****                 CAN_Send_Model();
 251:main.c        ****                 model_req = 0;
 252:main.c        ****             }
 253:main.c        ****             //PWM test code
 254:main.c        ****             /*CyDelay(100);
 255:main.c        ****             if(up){
 256:main.c        ****                 test += 10;
 257:main.c        ****             } else {
 258:main.c        ****                 test -= 10;   
 259:main.c        ****             }
 260:main.c        ****             if(test > 255) {
 261:main.c        ****                 up = 0;   
 262:main.c        ****             } else if (test < -255) {
 263:main.c        ****                 up = 1;
 264:main.c        ****             }
 265:main.c        ****             set_PWM(test);
 266:main.c        ****             */
 267:main.c        **** 
 268:main.c        ****         }
 269:main.c        ****     }
 270:main.c        **** }
 271:main.c        **** 
 272:main.c        **** void emergency_halt(void) {
 273:main.c        ****     PWM_Motor_Stop();
 274:main.c        ****     emergency = 1;
 275:main.c        ****     // stops all motors;
 276:main.c        ****     // waits for restart CAN signal.
 277:main.c        **** }
 278:main.c        **** 
 279:main.c        **** void initialize(void) {
 280:main.c        ****     
 281:main.c        ****     int can_start = CAN_Start();
 282:main.c        ****     Status_Reg_Switches_InterruptEnable();
 283:main.c        ****     Timer_1_Start();
 284:main.c        ****    // ADC_SAR_Seq_1_Start();
 285:main.c        ****     //ADC_SAR_Seq_1_StartConvert();
 286:main.c        ****     QuadDec_Start();
 287:main.c        ****     PWM_Motor_Start();  
 288:main.c        ****     
 289:main.c        ****     CAN_GlobalIntEnable();
 290:main.c        ****     CyIntSetVector(CAN_ISR_NUMBER, ISR_CAN);
ARM GAS  C:\Users\austc\AppData\Local\Temp\ccAwGtxE.s 			page 9


 291:main.c        ****     CyGlobalIntEnable; /* Enable global interrupts. */
 292:main.c        ****     isr_Limit_1_StartEx(Pin_Limit_Handler);
 293:main.c        ****     isr_period_StartEx(Period_Reset_Handler);
 294:main.c        ****     
 295:main.c        ****     if(uart_debug) {
 296:main.c        ****         UART_Start();
 297:main.c        ****         sprintf(txData, "CAN_Start():  %u\r\n",can_start);
 298:main.c        ****         UART_UartPutString(txData); 
 299:main.c        ****     }
 300:main.c        **** }
 301:main.c        **** 
 302:main.c        **** //Recieve:
 303:main.c        **** //1 00010 10000 0x450 BBB to base rotation
 304:main.c        **** //1 00010 10001 0x451 
 305:main.c        **** //1 00010 10010 0x452
 306:main.c        **** //1 00010 10011 0x453
 307:main.c        **** //1 00010 10100 0x454
 308:main.c        **** //1 00010 10101 0x455
 309:main.c        **** //1 00010 10110 0x456
 310:main.c        **** //Send:
 311:main.c        **** //1 10000 00010 0x602 base rotation to BBB 
 312:main.c        **** //1 10001 00010 0x622 shoulder to BBB
 313:main.c        **** //1 10010 00010 0x642 elbow ""
 314:main.c        **** //1 10011 00010 0x662 forearm rotation ""
 315:main.c        **** //1 10100 00010 0x682 diff wrist 1 ""
 316:main.c        **** //1 10101 00010 0x6A2 diff wrist 2 ""
 317:main.c        **** //1 10110 00010 0x6C2 hand ""
 318:main.c        **** void initialize_can_addr(void) {
 319:main.c        ****     uint8 setting = Can_addr_Read();
 320:main.c        ****     uint8 shift = 0;
 321:main.c        ****     switch(Can_addr_Read()) {
 322:main.c        ****         case 0b000: //Base rotation
 323:main.c        ****             message_id = 0b10000;
 324:main.c        ****             shift = 0;
 325:main.c        ****             ratio = 1;
 326:main.c        ****             break;
 327:main.c        ****         case 0b001: // shoulder
 328:main.c        ****             message_id = 0b10001;
 329:main.c        ****             shift = 1;
 330:main.c        ****             ratio = 14.45;
 331:main.c        ****             #ifdef REV2
 332:main.c        ****                 flipEncoder = 1;
 333:main.c        ****             #endif
 334:main.c        ****             kp = 50;
 335:main.c        ****             ki = 12;
 336:main.c        ****             kd = 10;
 337:main.c        ****             break;
 338:main.c        ****         case 0b010: // elbow
 339:main.c        ****             message_id = 0b10010;
 340:main.c        ****             shift = 2;
 341:main.c        ****             ratio = 2.8;
 342:main.c        ****             break;
 343:main.c        ****         case 0b011: // forearm rotation
 344:main.c        ****             message_id = 0b10011;
 345:main.c        ****             disable_limit = 1;
 346:main.c        ****             shift = 3;
 347:main.c        ****             ratio = 1;
ARM GAS  C:\Users\austc\AppData\Local\Temp\ccAwGtxE.s 			page 10


 348:main.c        **** 
 349:main.c        ****             break;
 350:main.c        ****         case 0b100: // diff wrist 1
 351:main.c        ****             message_id = 0b10100;
 352:main.c        ****             disable_limit = 1;
 353:main.c        ****             shift = 4;
 354:main.c        ****             ratio = 1.3888;
 355:main.c        ****             kp = 20;
 356:main.c        ****             ki = 30;
 357:main.c        ****             kd = 10;
 358:main.c        ****             flipEncoder = -1;
 359:main.c        ****             break;
 360:main.c        ****         case 0b101: // diff wrist 2
 361:main.c        ****             message_id = 0b10101;
 362:main.c        ****             disable_limit = 1;
 363:main.c        ****             flipEncoder = -1;
 364:main.c        ****             shift = 5;
 365:main.c        ****             ratio = 1.3888;
 366:main.c        ****             kp = 50;
 367:main.c        ****             ki = 40;
 368:main.c        ****             kd = 10;
 369:main.c        ****             break;
 370:main.c        ****         case 0b110: // hand
 371:main.c        ****             message_id = 0b10110;
 372:main.c        ****             shift = 6;
 373:main.c        ****             ratio = 1;
 374:main.c        ****             break;
 375:main.c        ****     }
 376:main.c        ****     
 377:main.c        ****     CAN_RX_MAILBOX_0_SHIFT = CAN_RX_MAILBOX_0_SHIFT << shift;
 378:main.c        ****     CAN_RX_MAILBOX_1_SHIFT = CAN_RX_MAILBOX_1_SHIFT << shift;
 379:main.c        ****     CAN_RX_MAILBOX_0 += shift;
 380:main.c        ****     CAN_RX_MAILBOX_1 += shift;
 381:main.c        ****     set_CAN_ID(0b1);
 382:main.c        ****     
 383:main.c        ****     if(uart_debug) {
 384:main.c        ****         sprintf(txData, "CAN dip setting:  %x Message ID: %ld\r\n",setting, message_id);
 385:main.c        ****         UART_UartPutString(txData); 
 386:main.c        ****         sprintf(txData, "Can shift: %d   P0Mailbox: %d P1Mailbox %d\r\n",shift, CAN_RX_MAILBOX_0, C
 387:main.c        ****         UART_UartPutString(txData); 
 388:main.c        ****         sprintf(txData, "disable_limit: %d\r\n",disable_limit);
 389:main.c        ****         UART_UartPutString(txData); 
 390:main.c        ****     }
 391:main.c        **** }
 392:main.c        **** 
 393:main.c        **** void set_CAN_ID(uint32 priority) {
 394:main.c        ****     message.id = (priority << 10) | (message_id << 5) | 0b00010;
 395:main.c        **** }
 396:main.c        **** 
 397:main.c        **** 
 398:main.c        **** void CAN_Send_Encoder(void){
 399:main.c        ****     int16 ticks = QuadDec_GetCounter();
 400:main.c        ****     int16 angle = (((double)ticks)/ratio)*10;
 401:main.c        ****     data.byte[0u] = 0x14u;
 402:main.c        ****     data.byte[1u] = LO8(angle);
 403:main.c        ****     data.byte[2u] = HI8(angle);
 404:main.c        ****     data.byte[3u] = 0;
ARM GAS  C:\Users\austc\AppData\Local\Temp\ccAwGtxE.s 			page 11


 405:main.c        ****     data.byte[4u] = 0;
 406:main.c        ****     CAN_SendMsg(&message);
 407:main.c        ****     if(uart_debug == 2) {
 408:main.c        ****         sprintf(txData, "CAN_Send_Encoder: byte[0u] %x byte[1u] %x byte[2u] %x QuadDec Count %d\r\n
 409:main.c        ****             data.byte[0u],data.byte[1u],data.byte[2u],
 410:main.c        ****             QuadDec_GetCounter());
 411:main.c        ****         UART_UartPutString(txData);    
 412:main.c        ****     }
 413:main.c        **** }
 414:main.c        **** 
 415:main.c        **** void CAN_Send_Telemetry(void) {
 416:main.c        ****     data.byte[0u] = 0x18u;
 417:main.c        ****     data.byte[1u] = 0;
 418:main.c        ****     data.byte[2u] = 0;
 419:main.c        ****     data.byte[3u] = 0;
 420:main.c        ****     data.byte[4u] = 0;
 421:main.c        ****     CAN_SendMsg(&message);
 422:main.c        ****     if(uart_debug == 2) {
 423:main.c        ****         sprintf(txData, "Telemerty: byte[0u] %x byte[1u] %x\r\n",(uint8)data.byte[0u],(uint8)data.b
 424:main.c        ****         UART_UartPutString(txData); 
 425:main.c        ****     }
 426:main.c        **** }
 427:main.c        **** 
 428:main.c        **** void CAN_Send_Model(void) {
 429:main.c        ****     data.byte[0u] = 0x12u;
 430:main.c        ****     data.byte[1u] = 0x00u;
 431:main.c        ****     data.byte[2u] = 0;
 432:main.c        ****     data.byte[3u] = 0;
 433:main.c        ****     data.byte[4u] = 0;
 434:main.c        ****     CAN_SendMsg(&message);
 435:main.c        ****     if(uart_debug == 2) {
 436:main.c        ****         sprintf(txData, "Model: byte[0u] %x byte[1u] %x\r\n",data.byte[0u],data.byte[1u]);
 437:main.c        ****         UART_UartPutString(txData); 
 438:main.c        ****     }
 439:main.c        **** }
 440:main.c        **** 
 441:main.c        **** void CAN_Send_Error(uint8 code, uint8 param) {
 442:main.c        ****     data.byte[0u] = 0xffu;
 443:main.c        ****     data.byte[1u] = code;
 444:main.c        ****     data.byte[2u] = param;
 445:main.c        ****     data.byte[3u] = 0;
 446:main.c        ****     data.byte[4u] = 0;
 447:main.c        ****     CAN_SendMsg(&message);
 448:main.c        ****     if(uart_debug == 2) {
 449:main.c        ****         sprintf(txData, "Error: byte[0u] %x byte[1u] %x byte[2u] %x\r\n",data.byte[0u],data.byte[1u
 450:main.c        ****         UART_UartPutString(txData); 
 451:main.c        ****     }
 452:main.c        **** }
 453:main.c        **** 
 454:main.c        **** CY_ISR(ISR_CAN)
 455:main.c        **** {
 167              		.loc 1 455 0
 168              		.cfi_startproc
 169              		@ args = 0, pretend = 0, frame = 0
 170              		@ frame_needed = 0, uses_anonymous_args = 0
 171 0000 10B5     		push	{r4, lr}
 172              		.cfi_def_cfa_offset 8
ARM GAS  C:\Users\austc\AppData\Local\Temp\ccAwGtxE.s 			page 12


 173              		.cfi_offset 4, -8
 174              		.cfi_offset 14, -4
 456:main.c        ****     /* Clear Receive Message flag */
 457:main.c        ****     CAN_INT_SR_REG = CAN_RX_MESSAGE_MASK;
 175              		.loc 1 457 0
 176 0002 8022     		movs	r2, #128
 177 0004 5201     		lsls	r2, r2, #5
 178 0006 8B4B     		ldr	r3, .L33
 179 0008 1A60     		str	r2, [r3]
 458:main.c        ****     if(uart_debug) {
 180              		.loc 1 458 0
 181 000a 8B4B     		ldr	r3, .L33+4
 182 000c 1B78     		ldrb	r3, [r3]
 183 000e 002B     		cmp	r3, #0
 184 0010 02D0     		beq	.L12
 459:main.c        ****         UART_UartPutString("\n Can rx triggered\n");   
 185              		.loc 1 459 0
 186 0012 8A48     		ldr	r0, .L33+8
 187 0014 FFF7FEFF 		bl	UART_UartPutString
 188              	.LVL9:
 189              	.L12:
 460:main.c        ****     }
 461:main.c        ****     /* Switch status message received */
 462:main.c        ****     if ((CAN_BUF_SR_REG & CAN_RX_MAILBOX_0_SHIFT) != 0u)
 190              		.loc 1 462 0
 191 0018 894B     		ldr	r3, .L33+12
 192 001a 1B68     		ldr	r3, [r3]
 193 001c 864A     		ldr	r2, .L33+4
 194 001e 5268     		ldr	r2, [r2, #4]
 195 0020 1A42     		tst	r2, r3
 196 0022 00D1     		bne	.LCB146
 197 0024 7FE0     		b	.L13	@long jump
 198              	.LCB146:
 463:main.c        ****     {   
 464:main.c        ****         if(uart_debug){
 199              		.loc 1 464 0
 200 0026 844B     		ldr	r3, .L33+4
 201 0028 1B78     		ldrb	r3, [r3]
 202 002a 002B     		cmp	r3, #0
 203 002c 02D0     		beq	.L14
 465:main.c        ****             UART_UartPutString("P0 recieved\n");    
 204              		.loc 1 465 0
 205 002e 8548     		ldr	r0, .L33+16
 206 0030 FFF7FEFF 		bl	UART_UartPutString
 207              	.LVL10:
 208              	.L14:
 466:main.c        ****         }
 467:main.c        ****         #ifdef REV2
 468:main.c        ****         time_LED = 0;
 209              		.loc 1 468 0
 210 0034 0022     		movs	r2, #0
 211 0036 844B     		ldr	r3, .L33+20
 212 0038 5A70     		strb	r2, [r3, #1]
 469:main.c        ****         Test_LED_Write(LED_ON);
 213              		.loc 1 469 0
 214 003a 0020     		movs	r0, #0
 215 003c FFF7FEFF 		bl	Test_LED_Write
ARM GAS  C:\Users\austc\AppData\Local\Temp\ccAwGtxE.s 			page 13


 216              	.LVL11:
 470:main.c        ****         #endif
 471:main.c        ****         set_data(CAN_RX_MAILBOX_0);
 217              		.loc 1 471 0
 218 0040 7D4B     		ldr	r3, .L33+4
 219 0042 1B89     		ldrh	r3, [r3, #8]
 220              	.LVL12:
 221              	.LBB7:
 222              	.LBB8:
 472:main.c        ****         /* Acknowledges receipt of new message */
 473:main.c        ****         CAN_RX_ACK_MESSAGE(CAN_RX_MAILBOX_0);
 474:main.c        ****     }
 475:main.c        **** 
 476:main.c        ****     if ((CAN_BUF_SR_REG & CAN_RX_MAILBOX_1_SHIFT) != 0u)
 477:main.c        ****     {
 478:main.c        ****         if(uart_debug){
 479:main.c        ****             UART_UartPutString("P1 recieved\n\n");    
 480:main.c        ****         }
 481:main.c        ****         #ifdef REV2
 482:main.c        ****         time_LED = 0;
 483:main.c        ****         Test_LED_Write(LED_ON);
 484:main.c        ****         #endif
 485:main.c        ****         set_data(CAN_RX_MAILBOX_1);
 486:main.c        ****         /* Acknowledges receipt of new message */
 487:main.c        ****         CAN_RX_ACK_MESSAGE(CAN_RX_MAILBOX_1);
 488:main.c        ****     }
 489:main.c        ****     
 490:main.c        **** }
 491:main.c        **** 
 492:main.c        **** inline void set_data(uint16 addr){
 493:main.c        ****         //set mode
 494:main.c        ****         if(CAN_RX_DATA_BYTE1(addr) == 0x00) {
 223              		.loc 1 494 0
 224 0044 5B01     		lsls	r3, r3, #5
 225              	.LVL13:
 226 0046 814A     		ldr	r2, .L33+24
 227 0048 9446     		mov	ip, r2
 228 004a 6344     		add	r3, r3, ip
 229 004c 9A68     		ldr	r2, [r3, #8]
 230 004e 120E     		lsrs	r2, r2, #24
 231 0050 23D1     		bne	.L15
 495:main.c        ****             if(CAN_RX_DATA_BYTE2(addr) == 1 || CAN_RX_DATA_BYTE2(addr) == 0) {
 232              		.loc 1 495 0
 233 0052 9A68     		ldr	r2, [r3, #8]
 234 0054 120C     		lsrs	r2, r2, #16
 235 0056 FF21     		movs	r1, #255
 236 0058 0A40     		ands	r2, r1
 237 005a 012A     		cmp	r2, #1
 238 005c 03D0     		beq	.L16
 239 005e 9A68     		ldr	r2, [r3, #8]
 240 0060 120C     		lsrs	r2, r2, #16
 241 0062 1142     		tst	r1, r2
 242 0064 11D1     		bne	.L17
 243              	.L16:
 496:main.c        ****                 mode = CAN_RX_DATA_BYTE2(addr);
 244              		.loc 1 496 0
 245 0066 9B68     		ldr	r3, [r3, #8]
ARM GAS  C:\Users\austc\AppData\Local\Temp\ccAwGtxE.s 			page 14


 246 0068 1B0C     		lsrs	r3, r3, #16
 247 006a DBB2     		uxtb	r3, r3
 248 006c 724A     		ldr	r2, .L33+4
 249 006e 9372     		strb	r3, [r2, #10]
 497:main.c        ****                 if(mode == 1){
 250              		.loc 1 497 0
 251 0070 012B     		cmp	r3, #1
 252 0072 0ED1     		bne	.L18
 498:main.c        ****                     final_angle = QuadDec_GetCounter() * flipEncoder;
 253              		.loc 1 498 0
 254 0074 FFF7FEFF 		bl	QuadDec_GetCounter
 255              	.LVL14:
 256 0078 734A     		ldr	r2, .L33+20
 257 007a 6F4B     		ldr	r3, .L33+4
 258 007c DB7A     		ldrb	r3, [r3, #11]
 259 007e 5BB2     		sxtb	r3, r3
 260 0080 5843     		muls	r0, r3
 261 0082 5080     		strh	r0, [r2, #2]
 499:main.c        ****                     i = 0;
 262              		.loc 1 499 0
 263 0084 0023     		movs	r3, #0
 264 0086 5360     		str	r3, [r2, #4]
 265 0088 03E0     		b	.L18
 266              	.LVL15:
 267              	.L17:
 500:main.c        ****                 }
 501:main.c        ****             }
 502:main.c        ****             else {
 503:main.c        ****                 invalid_arg.param = 0x00;
 268              		.loc 1 503 0
 269 008a 714B     		ldr	r3, .L33+28
 270 008c 0022     		movs	r2, #0
 271 008e 5A70     		strb	r2, [r3, #1]
 504:main.c        ****                 invalid_arg.done = 0;
 272              		.loc 1 504 0
 273 0090 9A70     		strb	r2, [r3, #2]
 274              	.LVL16:
 275              	.L18:
 505:main.c        ****             }
 506:main.c        ****             complete = 1;
 276              		.loc 1 506 0
 277 0092 0122     		movs	r2, #1
 278 0094 6C4B     		ldr	r3, .L33+20
 279 0096 1A72     		strb	r2, [r3, #8]
 280 0098 3BE0     		b	.L19
 281              	.LVL17:
 282              	.L15:
 507:main.c        ****         } 
 508:main.c        ****         //pwm
 509:main.c        ****         else if(CAN_RX_DATA_BYTE1(addr) == 0x02) {
 283              		.loc 1 509 0
 284 009a 9A68     		ldr	r2, [r3, #8]
 285 009c 120E     		lsrs	r2, r2, #24
 286 009e 022A     		cmp	r2, #2
 287 00a0 0ED1     		bne	.L20
 510:main.c        ****             Can_rx_pwm.b1 = CAN_RX_DATA_BYTE2(addr);
 288              		.loc 1 510 0
ARM GAS  C:\Users\austc\AppData\Local\Temp\ccAwGtxE.s 			page 15


 289 00a2 9968     		ldr	r1, [r3, #8]
 290 00a4 090C     		lsrs	r1, r1, #16
 291 00a6 6B4A     		ldr	r2, .L33+32
 292 00a8 5170     		strb	r1, [r2, #1]
 511:main.c        ****             Can_rx_pwm.b2 = CAN_RX_DATA_BYTE3(addr);
 293              		.loc 1 511 0
 294 00aa 9968     		ldr	r1, [r3, #8]
 295 00ac 090A     		lsrs	r1, r1, #8
 296 00ae 9170     		strb	r1, [r2, #2]
 512:main.c        ****             Can_rx_pwm.b3 = CAN_RX_DATA_BYTE4(addr);
 297              		.loc 1 512 0
 298 00b0 9968     		ldr	r1, [r3, #8]
 299 00b2 D170     		strb	r1, [r2, #3]
 513:main.c        ****             Can_rx_pwm.b4 = CAN_RX_DATA_BYTE5(addr);
 300              		.loc 1 513 0
 301 00b4 DB68     		ldr	r3, [r3, #12]
 302 00b6 1B0E     		lsrs	r3, r3, #24
 303 00b8 1371     		strb	r3, [r2, #4]
 514:main.c        ****             Can_rx_pwm.done = 0;
 304              		.loc 1 514 0
 305 00ba 0023     		movs	r3, #0
 306 00bc 5371     		strb	r3, [r2, #5]
 307 00be 28E0     		b	.L19
 308              	.L20:
 515:main.c        ****         } 
 516:main.c        ****         //angle
 517:main.c        ****         else if(CAN_RX_DATA_BYTE1(addr) == 0x04) {
 309              		.loc 1 517 0
 310 00c0 9A68     		ldr	r2, [r3, #8]
 311 00c2 120E     		lsrs	r2, r2, #24
 312 00c4 042A     		cmp	r2, #4
 313 00c6 1DD1     		bne	.L21
 518:main.c        ****             Can_rx_angle.b1 = CAN_RX_DATA_BYTE2(addr);
 314              		.loc 1 518 0
 315 00c8 9A68     		ldr	r2, [r3, #8]
 316 00ca 120C     		lsrs	r2, r2, #16
 317 00cc D0B2     		uxtb	r0, r2
 318 00ce 624C     		ldr	r4, .L33+36
 319 00d0 6070     		strb	r0, [r4, #1]
 519:main.c        ****             Can_rx_angle.b2 = CAN_RX_DATA_BYTE3(addr);
 320              		.loc 1 519 0
 321 00d2 9968     		ldr	r1, [r3, #8]
 322 00d4 090A     		lsrs	r1, r1, #8
 323 00d6 CAB2     		uxtb	r2, r1
 324 00d8 A270     		strb	r2, [r4, #2]
 520:main.c        ****             Can_rx_angle.b3 = CAN_RX_DATA_BYTE4(addr);
 325              		.loc 1 520 0
 326 00da 9968     		ldr	r1, [r3, #8]
 327 00dc E170     		strb	r1, [r4, #3]
 521:main.c        ****             Can_rx_angle.b4 = CAN_RX_DATA_BYTE5(addr);
 328              		.loc 1 521 0
 329 00de DB68     		ldr	r3, [r3, #12]
 330 00e0 1B0E     		lsrs	r3, r3, #24
 331 00e2 2371     		strb	r3, [r4, #4]
 522:main.c        ****             Can_rx_angle.done = 0;
 332              		.loc 1 522 0
 333 00e4 0023     		movs	r3, #0
ARM GAS  C:\Users\austc\AppData\Local\Temp\ccAwGtxE.s 			page 16


 334 00e6 6371     		strb	r3, [r4, #5]
 523:main.c        ****             if((((uint16_t)Can_rx_angle.b2) << 8 | Can_rx_angle.b1) != final_angle){
 335              		.loc 1 523 0
 336 00e8 1202     		lsls	r2, r2, #8
 337 00ea 0243     		orrs	r2, r0
 338 00ec 564B     		ldr	r3, .L33+20
 339 00ee 0221     		movs	r1, #2
 340 00f0 5B5E     		ldrsh	r3, [r3, r1]
 341 00f2 9A42     		cmp	r2, r3
 342 00f4 02D0     		beq	.L22
 524:main.c        ****                  i=0;
 343              		.loc 1 524 0
 344 00f6 0022     		movs	r2, #0
 345 00f8 534B     		ldr	r3, .L33+20
 346 00fa 5A60     		str	r2, [r3, #4]
 347              	.L22:
 525:main.c        ****             }
 526:main.c        ****             complete = 1;
 348              		.loc 1 526 0
 349 00fc 0122     		movs	r2, #1
 350 00fe 524B     		ldr	r3, .L33+20
 351 0100 1A72     		strb	r2, [r3, #8]
 352 0102 06E0     		b	.L19
 353              	.L21:
 527:main.c        ****         } 
 528:main.c        ****         //model requst
 529:main.c        ****         else if (CAN_RX_DATA_BYTE1(addr) == 0x10){
 354              		.loc 1 529 0
 355 0104 9B68     		ldr	r3, [r3, #8]
 356 0106 1B0E     		lsrs	r3, r3, #24
 357 0108 102B     		cmp	r3, #16
 358 010a 02D1     		bne	.L19
 530:main.c        ****             model_req = 1;
 359              		.loc 1 530 0
 360 010c 0122     		movs	r2, #1
 361 010e 4E4B     		ldr	r3, .L33+20
 362 0110 5A72     		strb	r2, [r3, #9]
 363              	.LVL18:
 364              	.L19:
 365              	.LBE8:
 366              	.LBE7:
 473:main.c        ****     }
 367              		.loc 1 473 0
 368 0112 494B     		ldr	r3, .L33+4
 369 0114 1B89     		ldrh	r3, [r3, #8]
 370 0116 5B01     		lsls	r3, r3, #5
 371 0118 4C4A     		ldr	r2, .L33+24
 372 011a 9446     		mov	ip, r2
 373 011c 6344     		add	r3, r3, ip
 374 011e 1968     		ldr	r1, [r3]
 375 0120 0122     		movs	r2, #1
 376 0122 0A43     		orrs	r2, r1
 377 0124 1A60     		str	r2, [r3]
 378              	.L13:
 476:main.c        ****     {
 379              		.loc 1 476 0
 380 0126 464B     		ldr	r3, .L33+12
ARM GAS  C:\Users\austc\AppData\Local\Temp\ccAwGtxE.s 			page 17


 381 0128 1A68     		ldr	r2, [r3]
 382 012a 434B     		ldr	r3, .L33+4
 383 012c 9B89     		ldrh	r3, [r3, #12]
 384 012e 1A42     		tst	r2, r3
 385 0130 00D1     		bne	.LCB324
 386 0132 7EE0     		b	.L11	@long jump
 387              	.LCB324:
 478:main.c        ****             UART_UartPutString("P1 recieved\n\n");    
 388              		.loc 1 478 0
 389 0134 404B     		ldr	r3, .L33+4
 390 0136 1B78     		ldrb	r3, [r3]
 391 0138 002B     		cmp	r3, #0
 392 013a 02D0     		beq	.L24
 479:main.c        ****         }
 393              		.loc 1 479 0
 394 013c 4748     		ldr	r0, .L33+40
 395 013e FFF7FEFF 		bl	UART_UartPutString
 396              	.LVL19:
 397              	.L24:
 482:main.c        ****         Test_LED_Write(LED_ON);
 398              		.loc 1 482 0
 399 0142 414C     		ldr	r4, .L33+20
 400 0144 0023     		movs	r3, #0
 401 0146 6370     		strb	r3, [r4, #1]
 483:main.c        ****         #endif
 402              		.loc 1 483 0
 403 0148 0020     		movs	r0, #0
 404 014a FFF7FEFF 		bl	Test_LED_Write
 405              	.LVL20:
 485:main.c        ****         /* Acknowledges receipt of new message */
 406              		.loc 1 485 0
 407 014e 6389     		ldrh	r3, [r4, #10]
 408              	.LVL21:
 409              	.LBB9:
 410              	.LBB10:
 494:main.c        ****             if(CAN_RX_DATA_BYTE2(addr) == 1 || CAN_RX_DATA_BYTE2(addr) == 0) {
 411              		.loc 1 494 0
 412 0150 5B01     		lsls	r3, r3, #5
 413              	.LVL22:
 414 0152 3E4A     		ldr	r2, .L33+24
 415 0154 9446     		mov	ip, r2
 416 0156 6344     		add	r3, r3, ip
 417 0158 9A68     		ldr	r2, [r3, #8]
 418 015a 120E     		lsrs	r2, r2, #24
 419 015c 23D1     		bne	.L25
 495:main.c        ****                 mode = CAN_RX_DATA_BYTE2(addr);
 420              		.loc 1 495 0
 421 015e 9A68     		ldr	r2, [r3, #8]
 422 0160 120C     		lsrs	r2, r2, #16
 423 0162 FF21     		movs	r1, #255
 424 0164 0A40     		ands	r2, r1
 425 0166 012A     		cmp	r2, #1
 426 0168 03D0     		beq	.L26
 427 016a 9A68     		ldr	r2, [r3, #8]
 428 016c 120C     		lsrs	r2, r2, #16
 429 016e 1142     		tst	r1, r2
 430 0170 11D1     		bne	.L27
ARM GAS  C:\Users\austc\AppData\Local\Temp\ccAwGtxE.s 			page 18


 431              	.L26:
 496:main.c        ****                 if(mode == 1){
 432              		.loc 1 496 0
 433 0172 9B68     		ldr	r3, [r3, #8]
 434 0174 1B0C     		lsrs	r3, r3, #16
 435 0176 DBB2     		uxtb	r3, r3
 436 0178 2F4A     		ldr	r2, .L33+4
 437 017a 9372     		strb	r3, [r2, #10]
 497:main.c        ****                     final_angle = QuadDec_GetCounter() * flipEncoder;
 438              		.loc 1 497 0
 439 017c 012B     		cmp	r3, #1
 440 017e 0ED1     		bne	.L28
 498:main.c        ****                     i = 0;
 441              		.loc 1 498 0
 442 0180 FFF7FEFF 		bl	QuadDec_GetCounter
 443              	.LVL23:
 444 0184 304A     		ldr	r2, .L33+20
 445 0186 2C4B     		ldr	r3, .L33+4
 446 0188 DB7A     		ldrb	r3, [r3, #11]
 447 018a 5BB2     		sxtb	r3, r3
 448 018c 5843     		muls	r0, r3
 449 018e 5080     		strh	r0, [r2, #2]
 499:main.c        ****                 }
 450              		.loc 1 499 0
 451 0190 0023     		movs	r3, #0
 452 0192 5360     		str	r3, [r2, #4]
 453 0194 03E0     		b	.L28
 454              	.LVL24:
 455              	.L27:
 503:main.c        ****                 invalid_arg.done = 0;
 456              		.loc 1 503 0
 457 0196 2E4B     		ldr	r3, .L33+28
 458 0198 0022     		movs	r2, #0
 459 019a 5A70     		strb	r2, [r3, #1]
 504:main.c        ****             }
 460              		.loc 1 504 0
 461 019c 9A70     		strb	r2, [r3, #2]
 462              	.LVL25:
 463              	.L28:
 506:main.c        ****         } 
 464              		.loc 1 506 0
 465 019e 0122     		movs	r2, #1
 466 01a0 294B     		ldr	r3, .L33+20
 467 01a2 1A72     		strb	r2, [r3, #8]
 468 01a4 3BE0     		b	.L29
 469              	.LVL26:
 470              	.L25:
 509:main.c        ****             Can_rx_pwm.b1 = CAN_RX_DATA_BYTE2(addr);
 471              		.loc 1 509 0
 472 01a6 9A68     		ldr	r2, [r3, #8]
 473 01a8 120E     		lsrs	r2, r2, #24
 474 01aa 022A     		cmp	r2, #2
 475 01ac 0ED1     		bne	.L30
 510:main.c        ****             Can_rx_pwm.b2 = CAN_RX_DATA_BYTE3(addr);
 476              		.loc 1 510 0
 477 01ae 9968     		ldr	r1, [r3, #8]
 478 01b0 090C     		lsrs	r1, r1, #16
ARM GAS  C:\Users\austc\AppData\Local\Temp\ccAwGtxE.s 			page 19


 479 01b2 284A     		ldr	r2, .L33+32
 480 01b4 5170     		strb	r1, [r2, #1]
 511:main.c        ****             Can_rx_pwm.b3 = CAN_RX_DATA_BYTE4(addr);
 481              		.loc 1 511 0
 482 01b6 9968     		ldr	r1, [r3, #8]
 483 01b8 090A     		lsrs	r1, r1, #8
 484 01ba 9170     		strb	r1, [r2, #2]
 512:main.c        ****             Can_rx_pwm.b4 = CAN_RX_DATA_BYTE5(addr);
 485              		.loc 1 512 0
 486 01bc 9968     		ldr	r1, [r3, #8]
 487 01be D170     		strb	r1, [r2, #3]
 513:main.c        ****             Can_rx_pwm.done = 0;
 488              		.loc 1 513 0
 489 01c0 DB68     		ldr	r3, [r3, #12]
 490 01c2 1B0E     		lsrs	r3, r3, #24
 491 01c4 1371     		strb	r3, [r2, #4]
 514:main.c        ****         } 
 492              		.loc 1 514 0
 493 01c6 0023     		movs	r3, #0
 494 01c8 5371     		strb	r3, [r2, #5]
 495 01ca 28E0     		b	.L29
 496              	.L30:
 517:main.c        ****             Can_rx_angle.b1 = CAN_RX_DATA_BYTE2(addr);
 497              		.loc 1 517 0
 498 01cc 9A68     		ldr	r2, [r3, #8]
 499 01ce 120E     		lsrs	r2, r2, #24
 500 01d0 042A     		cmp	r2, #4
 501 01d2 1DD1     		bne	.L31
 518:main.c        ****             Can_rx_angle.b2 = CAN_RX_DATA_BYTE3(addr);
 502              		.loc 1 518 0
 503 01d4 9A68     		ldr	r2, [r3, #8]
 504 01d6 120C     		lsrs	r2, r2, #16
 505 01d8 D0B2     		uxtb	r0, r2
 506 01da 1F4C     		ldr	r4, .L33+36
 507 01dc 6070     		strb	r0, [r4, #1]
 519:main.c        ****             Can_rx_angle.b3 = CAN_RX_DATA_BYTE4(addr);
 508              		.loc 1 519 0
 509 01de 9968     		ldr	r1, [r3, #8]
 510 01e0 090A     		lsrs	r1, r1, #8
 511 01e2 CAB2     		uxtb	r2, r1
 512 01e4 A270     		strb	r2, [r4, #2]
 520:main.c        ****             Can_rx_angle.b4 = CAN_RX_DATA_BYTE5(addr);
 513              		.loc 1 520 0
 514 01e6 9968     		ldr	r1, [r3, #8]
 515 01e8 E170     		strb	r1, [r4, #3]
 521:main.c        ****             Can_rx_angle.done = 0;
 516              		.loc 1 521 0
 517 01ea DB68     		ldr	r3, [r3, #12]
 518 01ec 1B0E     		lsrs	r3, r3, #24
 519 01ee 2371     		strb	r3, [r4, #4]
 522:main.c        ****             if((((uint16_t)Can_rx_angle.b2) << 8 | Can_rx_angle.b1) != final_angle){
 520              		.loc 1 522 0
 521 01f0 0023     		movs	r3, #0
 522 01f2 6371     		strb	r3, [r4, #5]
 523:main.c        ****                  i=0;
 523              		.loc 1 523 0
 524 01f4 1202     		lsls	r2, r2, #8
ARM GAS  C:\Users\austc\AppData\Local\Temp\ccAwGtxE.s 			page 20


 525 01f6 0243     		orrs	r2, r0
 526 01f8 134B     		ldr	r3, .L33+20
 527 01fa 0221     		movs	r1, #2
 528 01fc 5B5E     		ldrsh	r3, [r3, r1]
 529 01fe 9A42     		cmp	r2, r3
 530 0200 02D0     		beq	.L32
 524:main.c        ****             }
 531              		.loc 1 524 0
 532 0202 0022     		movs	r2, #0
 533 0204 104B     		ldr	r3, .L33+20
 534 0206 5A60     		str	r2, [r3, #4]
 535              	.L32:
 526:main.c        ****         } 
 536              		.loc 1 526 0
 537 0208 0122     		movs	r2, #1
 538 020a 0F4B     		ldr	r3, .L33+20
 539 020c 1A72     		strb	r2, [r3, #8]
 540 020e 06E0     		b	.L29
 541              	.L31:
 529:main.c        ****             model_req = 1;
 542              		.loc 1 529 0
 543 0210 9B68     		ldr	r3, [r3, #8]
 544 0212 1B0E     		lsrs	r3, r3, #24
 545 0214 102B     		cmp	r3, #16
 546 0216 02D1     		bne	.L29
 547              		.loc 1 530 0
 548 0218 0122     		movs	r2, #1
 549 021a 0B4B     		ldr	r3, .L33+20
 550 021c 5A72     		strb	r2, [r3, #9]
 551              	.LVL27:
 552              	.L29:
 553              	.LBE10:
 554              	.LBE9:
 487:main.c        ****     }
 555              		.loc 1 487 0
 556 021e 0A4B     		ldr	r3, .L33+20
 557 0220 5B89     		ldrh	r3, [r3, #10]
 558 0222 5B01     		lsls	r3, r3, #5
 559 0224 094A     		ldr	r2, .L33+24
 560 0226 9446     		mov	ip, r2
 561 0228 6344     		add	r3, r3, ip
 562 022a 1968     		ldr	r1, [r3]
 563 022c 0122     		movs	r2, #1
 564 022e 0A43     		orrs	r2, r1
 565 0230 1A60     		str	r2, [r3]
 566              	.L11:
 490:main.c        **** 
 567              		.loc 1 490 0
 568              		@ sp needed
 569 0232 10BD     		pop	{r4, pc}
 570              	.L34:
 571              		.align	2
 572              	.L33:
 573 0234 00002F40 		.word	1076822016
 574 0238 00000000 		.word	.LANCHOR0
 575 023c 3C000000 		.word	.LC12
 576 0240 08002F40 		.word	1076822024
ARM GAS  C:\Users\austc\AppData\Local\Temp\ccAwGtxE.s 			page 21


 577 0244 50000000 		.word	.LC14
 578 0248 00000000 		.word	.LANCHOR1
 579 024c A0002F40 		.word	1076822176
 580 0250 00000000 		.word	invalid_arg
 581 0254 00000000 		.word	Can_rx_pwm
 582 0258 00000000 		.word	Can_rx_angle
 583 025c 60000000 		.word	.LC20
 584              		.cfi_endproc
 585              	.LFE46:
 586              		.size	ISR_CAN, .-ISR_CAN
 587              		.section	.text.emergency_halt,"ax",%progbits
 588              		.align	2
 589              		.global	emergency_halt
 590              		.code	16
 591              		.thumb_func
 592              		.type	emergency_halt, %function
 593              	emergency_halt:
 594              	.LFB38:
 272:main.c        ****     PWM_Motor_Stop();
 595              		.loc 1 272 0
 596              		.cfi_startproc
 597              		@ args = 0, pretend = 0, frame = 0
 598              		@ frame_needed = 0, uses_anonymous_args = 0
 599 0000 10B5     		push	{r4, lr}
 600              		.cfi_def_cfa_offset 8
 601              		.cfi_offset 4, -8
 602              		.cfi_offset 14, -4
 273:main.c        ****     emergency = 1;
 603              		.loc 1 273 0
 604 0002 FFF7FEFF 		bl	PWM_Motor_Stop
 605              	.LVL28:
 274:main.c        ****     // stops all motors;
 606              		.loc 1 274 0
 607 0006 0122     		movs	r2, #1
 608 0008 014B     		ldr	r3, .L36
 609 000a 1A73     		strb	r2, [r3, #12]
 277:main.c        **** 
 610              		.loc 1 277 0
 611              		@ sp needed
 612 000c 10BD     		pop	{r4, pc}
 613              	.L37:
 614 000e C046     		.align	2
 615              	.L36:
 616 0010 00000000 		.word	.LANCHOR1
 617              		.cfi_endproc
 618              	.LFE38:
 619              		.size	emergency_halt, .-emergency_halt
 620              		.section	.text.initialize,"ax",%progbits
 621              		.align	2
 622              		.global	initialize
 623              		.code	16
 624              		.thumb_func
 625              		.type	initialize, %function
 626              	initialize:
 627              	.LFB39:
 279:main.c        ****     
 628              		.loc 1 279 0
ARM GAS  C:\Users\austc\AppData\Local\Temp\ccAwGtxE.s 			page 22


 629              		.cfi_startproc
 630              		@ args = 0, pretend = 0, frame = 0
 631              		@ frame_needed = 0, uses_anonymous_args = 0
 632 0000 70B5     		push	{r4, r5, r6, lr}
 633              		.cfi_def_cfa_offset 16
 634              		.cfi_offset 4, -16
 635              		.cfi_offset 5, -12
 636              		.cfi_offset 6, -8
 637              		.cfi_offset 14, -4
 281:main.c        ****     Status_Reg_Switches_InterruptEnable();
 638              		.loc 1 281 0
 639 0002 FFF7FEFF 		bl	CAN_Start
 640              	.LVL29:
 641 0006 0400     		movs	r4, r0
 642              	.LVL30:
 282:main.c        ****     Timer_1_Start();
 643              		.loc 1 282 0
 644 0008 FFF7FEFF 		bl	Status_Reg_Switches_InterruptEnable
 645              	.LVL31:
 283:main.c        ****    // ADC_SAR_Seq_1_Start();
 646              		.loc 1 283 0
 647 000c FFF7FEFF 		bl	Timer_1_Start
 648              	.LVL32:
 286:main.c        ****     PWM_Motor_Start();  
 649              		.loc 1 286 0
 650 0010 FFF7FEFF 		bl	QuadDec_Start
 651              	.LVL33:
 287:main.c        ****     
 652              		.loc 1 287 0
 653 0014 FFF7FEFF 		bl	PWM_Motor_Start
 654              	.LVL34:
 289:main.c        ****     CyIntSetVector(CAN_ISR_NUMBER, ISR_CAN);
 655              		.loc 1 289 0
 656 0018 FFF7FEFF 		bl	CAN_GlobalIntEnable
 657              	.LVL35:
 290:main.c        ****     CyGlobalIntEnable; /* Enable global interrupts. */
 658              		.loc 1 290 0
 659 001c 0D49     		ldr	r1, .L40
 660 001e 1D20     		movs	r0, #29
 661 0020 FFF7FEFF 		bl	CyIntSetVector
 662              	.LVL36:
 291:main.c        ****     isr_Limit_1_StartEx(Pin_Limit_Handler);
 663              		.loc 1 291 0
 664              		.syntax divided
 665              	@ 291 "main.c" 1
 666 0024 62B6     		CPSIE   i
 667              	@ 0 "" 2
 292:main.c        ****     isr_period_StartEx(Period_Reset_Handler);
 668              		.loc 1 292 0
 669              		.thumb
 670              		.syntax unified
 671 0026 0C48     		ldr	r0, .L40+4
 672 0028 FFF7FEFF 		bl	isr_Limit_1_StartEx
 673              	.LVL37:
 293:main.c        ****     
 674              		.loc 1 293 0
 675 002c 0B48     		ldr	r0, .L40+8
ARM GAS  C:\Users\austc\AppData\Local\Temp\ccAwGtxE.s 			page 23


 676 002e FFF7FEFF 		bl	isr_period_StartEx
 677              	.LVL38:
 295:main.c        ****         UART_Start();
 678              		.loc 1 295 0
 679 0032 0B4B     		ldr	r3, .L40+12
 680 0034 1B78     		ldrb	r3, [r3]
 681 0036 002B     		cmp	r3, #0
 682 0038 0AD0     		beq	.L38
 296:main.c        ****         sprintf(txData, "CAN_Start():  %u\r\n",can_start);
 683              		.loc 1 296 0
 684 003a FFF7FEFF 		bl	UART_Start
 685              	.LVL39:
 297:main.c        ****         UART_UartPutString(txData); 
 686              		.loc 1 297 0
 687 003e 094D     		ldr	r5, .L40+16
 688 0040 2200     		movs	r2, r4
 689 0042 0949     		ldr	r1, .L40+20
 690 0044 2800     		movs	r0, r5
 691 0046 FFF7FEFF 		bl	sprintf
 692              	.LVL40:
 298:main.c        ****     }
 693              		.loc 1 298 0
 694 004a 2800     		movs	r0, r5
 695 004c FFF7FEFF 		bl	UART_UartPutString
 696              	.LVL41:
 697              	.L38:
 300:main.c        **** 
 698              		.loc 1 300 0
 699              		@ sp needed
 700              	.LVL42:
 701 0050 70BD     		pop	{r4, r5, r6, pc}
 702              	.L41:
 703 0052 C046     		.align	2
 704              	.L40:
 705 0054 00000000 		.word	ISR_CAN
 706 0058 00000000 		.word	Pin_Limit_Handler
 707 005c 00000000 		.word	Period_Reset_Handler
 708 0060 00000000 		.word	.LANCHOR0
 709 0064 00000000 		.word	txData
 710 0068 70000000 		.word	.LC27
 711              		.cfi_endproc
 712              	.LFE39:
 713              		.size	initialize, .-initialize
 714              		.section	.text.set_CAN_ID,"ax",%progbits
 715              		.align	2
 716              		.global	set_CAN_ID
 717              		.code	16
 718              		.thumb_func
 719              		.type	set_CAN_ID, %function
 720              	set_CAN_ID:
 721              	.LFB41:
 393:main.c        ****     message.id = (priority << 10) | (message_id << 5) | 0b00010;
 722              		.loc 1 393 0
 723              		.cfi_startproc
 724              		@ args = 0, pretend = 0, frame = 0
 725              		@ frame_needed = 0, uses_anonymous_args = 0
 726              		@ link register save eliminated.
ARM GAS  C:\Users\austc\AppData\Local\Temp\ccAwGtxE.s 			page 24


 727              	.LVL43:
 394:main.c        **** }
 728              		.loc 1 394 0
 729 0000 8002     		lsls	r0, r0, #10
 730              	.LVL44:
 731 0002 044B     		ldr	r3, .L43
 732 0004 1B69     		ldr	r3, [r3, #16]
 733 0006 5B01     		lsls	r3, r3, #5
 734 0008 1843     		orrs	r0, r3
 735 000a 0223     		movs	r3, #2
 736 000c 1843     		orrs	r0, r3
 737 000e 024B     		ldr	r3, .L43+4
 738 0010 1860     		str	r0, [r3]
 395:main.c        **** 
 739              		.loc 1 395 0
 740              		@ sp needed
 741 0012 7047     		bx	lr
 742              	.L44:
 743              		.align	2
 744              	.L43:
 745 0014 00000000 		.word	.LANCHOR1
 746 0018 00000000 		.word	message
 747              		.cfi_endproc
 748              	.LFE41:
 749              		.size	set_CAN_ID, .-set_CAN_ID
 750              		.section	.text.initialize_can_addr,"ax",%progbits
 751              		.align	2
 752              		.global	initialize_can_addr
 753              		.code	16
 754              		.thumb_func
 755              		.type	initialize_can_addr, %function
 756              	initialize_can_addr:
 757              	.LFB40:
 318:main.c        ****     uint8 setting = Can_addr_Read();
 758              		.loc 1 318 0
 759              		.cfi_startproc
 760              		@ args = 0, pretend = 0, frame = 0
 761              		@ frame_needed = 0, uses_anonymous_args = 0
 762 0000 F0B5     		push	{r4, r5, r6, r7, lr}
 763              		.cfi_def_cfa_offset 20
 764              		.cfi_offset 4, -20
 765              		.cfi_offset 5, -16
 766              		.cfi_offset 6, -12
 767              		.cfi_offset 7, -8
 768              		.cfi_offset 14, -4
 769 0002 83B0     		sub	sp, sp, #12
 770              		.cfi_def_cfa_offset 32
 319:main.c        ****     uint8 shift = 0;
 771              		.loc 1 319 0
 772 0004 FFF7FEFF 		bl	Can_addr_Read
 773              	.LVL45:
 774 0008 0500     		movs	r5, r0
 775              	.LVL46:
 321:main.c        ****         case 0b000: //Base rotation
 776              		.loc 1 321 0
 777 000a FFF7FEFF 		bl	Can_addr_Read
 778              	.LVL47:
ARM GAS  C:\Users\austc\AppData\Local\Temp\ccAwGtxE.s 			page 25


 779 000e 0628     		cmp	r0, #6
 780 0010 72D8     		bhi	.L56
 781 0012 8000     		lsls	r0, r0, #2
 782 0014 544B     		ldr	r3, .L57
 783 0016 1B58     		ldr	r3, [r3, r0]
 784 0018 9F46     		mov	pc, r3
 785              		.section	.rodata
 786              		.align	2
 787              	.L48:
 788 0000 1A000000 		.word	.L47
 789 0004 2E000000 		.word	.L49
 790 0008 5A000000 		.word	.L50
 791 000c 6E000000 		.word	.L51
 792 0010 86000000 		.word	.L52
 793 0014 B4000000 		.word	.L53
 794 0018 E4000000 		.word	.L54
 795              		.section	.text.initialize_can_addr
 796              	.L47:
 323:main.c        ****             shift = 0;
 797              		.loc 1 323 0
 798 001a 1022     		movs	r2, #16
 799 001c 534B     		ldr	r3, .L57+4
 800 001e 1A61     		str	r2, [r3, #16]
 325:main.c        ****             break;
 801              		.loc 1 325 0
 802 0020 0020     		movs	r0, #0
 803 0022 5349     		ldr	r1, .L57+8
 804 0024 534B     		ldr	r3, .L57+12
 805 0026 1860     		str	r0, [r3]
 806 0028 5960     		str	r1, [r3, #4]
 324:main.c        ****             ratio = 1;
 807              		.loc 1 324 0
 808 002a 0026     		movs	r6, #0
 326:main.c        ****         case 0b001: // shoulder
 809              		.loc 1 326 0
 810 002c 65E0     		b	.L46
 811              	.L49:
 328:main.c        ****             shift = 1;
 812              		.loc 1 328 0
 813 002e 1122     		movs	r2, #17
 814 0030 4E4B     		ldr	r3, .L57+4
 815 0032 1A61     		str	r2, [r3, #16]
 816              	.LVL48:
 330:main.c        ****             #ifdef REV2
 817              		.loc 1 330 0
 818 0034 5048     		ldr	r0, .L57+16
 819 0036 5149     		ldr	r1, .L57+20
 820 0038 4E4B     		ldr	r3, .L57+12
 821 003a 1860     		str	r0, [r3]
 822 003c 5960     		str	r1, [r3, #4]
 332:main.c        ****             #endif
 823              		.loc 1 332 0
 824 003e 103A     		subs	r2, r2, #16
 825 0040 4F4B     		ldr	r3, .L57+24
 826 0042 DA72     		strb	r2, [r3, #11]
 334:main.c        ****             ki = 12;
 827              		.loc 1 334 0
ARM GAS  C:\Users\austc\AppData\Local\Temp\ccAwGtxE.s 			page 26


 828 0044 3132     		adds	r2, r2, #49
 829 0046 4F4B     		ldr	r3, .L57+28
 830 0048 1A60     		str	r2, [r3]
 335:main.c        ****             kd = 10;
 831              		.loc 1 335 0
 832 004a 263A     		subs	r2, r2, #38
 833 004c 4E4B     		ldr	r3, .L57+32
 834 004e 1A60     		str	r2, [r3]
 336:main.c        ****             break;
 835              		.loc 1 336 0
 836 0050 023A     		subs	r2, r2, #2
 837 0052 4E4B     		ldr	r3, .L57+36
 838 0054 1A60     		str	r2, [r3]
 329:main.c        ****             ratio = 14.45;
 839              		.loc 1 329 0
 840 0056 0126     		movs	r6, #1
 337:main.c        ****         case 0b010: // elbow
 841              		.loc 1 337 0
 842 0058 4FE0     		b	.L46
 843              	.LVL49:
 844              	.L50:
 339:main.c        ****             shift = 2;
 845              		.loc 1 339 0
 846 005a 1222     		movs	r2, #18
 847 005c 434B     		ldr	r3, .L57+4
 848 005e 1A61     		str	r2, [r3, #16]
 849              	.LVL50:
 341:main.c        ****             break;
 850              		.loc 1 341 0
 851 0060 4548     		ldr	r0, .L57+16
 852 0062 4B49     		ldr	r1, .L57+40
 853 0064 434B     		ldr	r3, .L57+12
 854 0066 1860     		str	r0, [r3]
 855 0068 5960     		str	r1, [r3, #4]
 340:main.c        ****             ratio = 2.8;
 856              		.loc 1 340 0
 857 006a 0226     		movs	r6, #2
 342:main.c        ****         case 0b011: // forearm rotation
 858              		.loc 1 342 0
 859 006c 45E0     		b	.L46
 860              	.LVL51:
 861              	.L51:
 344:main.c        ****             disable_limit = 1;
 862              		.loc 1 344 0
 863 006e 3F4B     		ldr	r3, .L57+4
 864 0070 1322     		movs	r2, #19
 865 0072 1A61     		str	r2, [r3, #16]
 345:main.c        ****             shift = 3;
 866              		.loc 1 345 0
 867 0074 123A     		subs	r2, r2, #18
 868 0076 1A75     		strb	r2, [r3, #20]
 869              	.LVL52:
 347:main.c        **** 
 870              		.loc 1 347 0
 871 0078 0020     		movs	r0, #0
 872 007a 3D49     		ldr	r1, .L57+8
 873 007c 3D4B     		ldr	r3, .L57+12
ARM GAS  C:\Users\austc\AppData\Local\Temp\ccAwGtxE.s 			page 27


 874 007e 1860     		str	r0, [r3]
 875 0080 5960     		str	r1, [r3, #4]
 346:main.c        ****             ratio = 1;
 876              		.loc 1 346 0
 877 0082 0326     		movs	r6, #3
 349:main.c        ****         case 0b100: // diff wrist 1
 878              		.loc 1 349 0
 879 0084 39E0     		b	.L46
 880              	.LVL53:
 881              	.L52:
 351:main.c        ****             disable_limit = 1;
 882              		.loc 1 351 0
 883 0086 394A     		ldr	r2, .L57+4
 884 0088 1423     		movs	r3, #20
 885 008a 1361     		str	r3, [r2, #16]
 352:main.c        ****             shift = 4;
 886              		.loc 1 352 0
 887 008c 0121     		movs	r1, #1
 888 008e 1175     		strb	r1, [r2, #20]
 889              	.LVL54:
 354:main.c        ****             kp = 20;
 890              		.loc 1 354 0
 891 0090 4048     		ldr	r0, .L57+44
 892 0092 4149     		ldr	r1, .L57+48
 893 0094 374A     		ldr	r2, .L57+12
 894 0096 1060     		str	r0, [r2]
 895 0098 5160     		str	r1, [r2, #4]
 355:main.c        ****             ki = 30;
 896              		.loc 1 355 0
 897 009a 3A4A     		ldr	r2, .L57+28
 898 009c 1360     		str	r3, [r2]
 356:main.c        ****             kd = 10;
 899              		.loc 1 356 0
 900 009e 1E22     		movs	r2, #30
 901 00a0 394B     		ldr	r3, .L57+32
 902 00a2 1A60     		str	r2, [r3]
 357:main.c        ****             flipEncoder = -1;
 903              		.loc 1 357 0
 904 00a4 143A     		subs	r2, r2, #20
 905 00a6 394B     		ldr	r3, .L57+36
 906 00a8 1A60     		str	r2, [r3]
 358:main.c        ****             break;
 907              		.loc 1 358 0
 908 00aa F532     		adds	r2, r2, #245
 909 00ac 344B     		ldr	r3, .L57+24
 910 00ae DA72     		strb	r2, [r3, #11]
 353:main.c        ****             ratio = 1.3888;
 911              		.loc 1 353 0
 912 00b0 0426     		movs	r6, #4
 359:main.c        ****         case 0b101: // diff wrist 2
 913              		.loc 1 359 0
 914 00b2 22E0     		b	.L46
 915              	.LVL55:
 916              	.L53:
 361:main.c        ****             disable_limit = 1;
 917              		.loc 1 361 0
 918 00b4 2D4B     		ldr	r3, .L57+4
ARM GAS  C:\Users\austc\AppData\Local\Temp\ccAwGtxE.s 			page 28


 919 00b6 1522     		movs	r2, #21
 920 00b8 1A61     		str	r2, [r3, #16]
 362:main.c        ****             flipEncoder = -1;
 921              		.loc 1 362 0
 922 00ba 143A     		subs	r2, r2, #20
 923 00bc 1A75     		strb	r2, [r3, #20]
 363:main.c        ****             shift = 5;
 924              		.loc 1 363 0
 925 00be FE32     		adds	r2, r2, #254
 926 00c0 2F4B     		ldr	r3, .L57+24
 927 00c2 DA72     		strb	r2, [r3, #11]
 928              	.LVL56:
 365:main.c        ****             kp = 50;
 929              		.loc 1 365 0
 930 00c4 3348     		ldr	r0, .L57+44
 931 00c6 3449     		ldr	r1, .L57+48
 932 00c8 2A4B     		ldr	r3, .L57+12
 933 00ca 1860     		str	r0, [r3]
 934 00cc 5960     		str	r1, [r3, #4]
 366:main.c        ****             ki = 40;
 935              		.loc 1 366 0
 936 00ce CD3A     		subs	r2, r2, #205
 937 00d0 2C4B     		ldr	r3, .L57+28
 938 00d2 1A60     		str	r2, [r3]
 367:main.c        ****             kd = 10;
 939              		.loc 1 367 0
 940 00d4 0A3A     		subs	r2, r2, #10
 941 00d6 2C4B     		ldr	r3, .L57+32
 942 00d8 1A60     		str	r2, [r3]
 368:main.c        ****             break;
 943              		.loc 1 368 0
 944 00da 1E3A     		subs	r2, r2, #30
 945 00dc 2B4B     		ldr	r3, .L57+36
 946 00de 1A60     		str	r2, [r3]
 364:main.c        ****             ratio = 1.3888;
 947              		.loc 1 364 0
 948 00e0 0526     		movs	r6, #5
 369:main.c        ****         case 0b110: // hand
 949              		.loc 1 369 0
 950 00e2 0AE0     		b	.L46
 951              	.LVL57:
 952              	.L54:
 371:main.c        ****             shift = 6;
 953              		.loc 1 371 0
 954 00e4 1622     		movs	r2, #22
 955 00e6 214B     		ldr	r3, .L57+4
 956 00e8 1A61     		str	r2, [r3, #16]
 957              	.LVL58:
 373:main.c        ****             break;
 958              		.loc 1 373 0
 959 00ea 0020     		movs	r0, #0
 960 00ec 2049     		ldr	r1, .L57+8
 961 00ee 214B     		ldr	r3, .L57+12
 962 00f0 1860     		str	r0, [r3]
 963 00f2 5960     		str	r1, [r3, #4]
 372:main.c        ****             ratio = 1;
 964              		.loc 1 372 0
ARM GAS  C:\Users\austc\AppData\Local\Temp\ccAwGtxE.s 			page 29


 965 00f4 0626     		movs	r6, #6
 374:main.c        ****     }
 966              		.loc 1 374 0
 967 00f6 00E0     		b	.L46
 968              	.LVL59:
 969              	.L56:
 320:main.c        ****     switch(Can_addr_Read()) {
 970              		.loc 1 320 0
 971 00f8 0026     		movs	r6, #0
 972              	.LVL60:
 973              	.L46:
 377:main.c        ****     CAN_RX_MAILBOX_1_SHIFT = CAN_RX_MAILBOX_1_SHIFT << shift;
 974              		.loc 1 377 0
 975 00fa 214C     		ldr	r4, .L57+24
 976 00fc 6368     		ldr	r3, [r4, #4]
 977 00fe B340     		lsls	r3, r3, r6
 978 0100 6360     		str	r3, [r4, #4]
 378:main.c        ****     CAN_RX_MAILBOX_0 += shift;
 979              		.loc 1 378 0
 980 0102 A389     		ldrh	r3, [r4, #12]
 981 0104 B340     		lsls	r3, r3, r6
 982 0106 A381     		strh	r3, [r4, #12]
 379:main.c        ****     CAN_RX_MAILBOX_1 += shift;
 983              		.loc 1 379 0
 984 0108 B3B2     		uxth	r3, r6
 985 010a 2289     		ldrh	r2, [r4, #8]
 986 010c 9A18     		adds	r2, r3, r2
 987 010e 2281     		strh	r2, [r4, #8]
 380:main.c        ****     set_CAN_ID(0b1);
 988              		.loc 1 380 0
 989 0110 1649     		ldr	r1, .L57+4
 990 0112 4A89     		ldrh	r2, [r1, #10]
 991 0114 9B18     		adds	r3, r3, r2
 992 0116 4B81     		strh	r3, [r1, #10]
 381:main.c        ****     
 993              		.loc 1 381 0
 994 0118 0120     		movs	r0, #1
 995 011a FFF7FEFF 		bl	set_CAN_ID
 996              	.LVL61:
 383:main.c        ****         sprintf(txData, "CAN dip setting:  %x Message ID: %ld\r\n",setting, message_id);
 997              		.loc 1 383 0
 998 011e 2378     		ldrb	r3, [r4]
 999 0120 002B     		cmp	r3, #0
 1000 0122 1ED0     		beq	.L45
 384:main.c        ****         UART_UartPutString(txData); 
 1001              		.loc 1 384 0
 1002 0124 114F     		ldr	r7, .L57+4
 1003 0126 1D4C     		ldr	r4, .L57+52
 1004 0128 3B69     		ldr	r3, [r7, #16]
 1005 012a 2A00     		movs	r2, r5
 1006 012c 1C49     		ldr	r1, .L57+56
 1007 012e 2000     		movs	r0, r4
 1008 0130 FFF7FEFF 		bl	sprintf
 1009              	.LVL62:
 385:main.c        ****         sprintf(txData, "Can shift: %d   P0Mailbox: %d P1Mailbox %d\r\n",shift, CAN_RX_MAILBOX_0, C
 1010              		.loc 1 385 0
 1011 0134 2000     		movs	r0, r4
ARM GAS  C:\Users\austc\AppData\Local\Temp\ccAwGtxE.s 			page 30


 1012 0136 FFF7FEFF 		bl	UART_UartPutString
 1013              	.LVL63:
 386:main.c        ****         UART_UartPutString(txData); 
 1014              		.loc 1 386 0
 1015 013a 114B     		ldr	r3, .L57+24
 1016 013c 1B89     		ldrh	r3, [r3, #8]
 1017 013e 7A89     		ldrh	r2, [r7, #10]
 1018 0140 0092     		str	r2, [sp]
 1019 0142 3200     		movs	r2, r6
 1020 0144 1749     		ldr	r1, .L57+60
 1021 0146 2000     		movs	r0, r4
 1022 0148 FFF7FEFF 		bl	sprintf
 1023              	.LVL64:
 387:main.c        ****         sprintf(txData, "disable_limit: %d\r\n",disable_limit);
 1024              		.loc 1 387 0
 1025 014c 2000     		movs	r0, r4
 1026 014e FFF7FEFF 		bl	UART_UartPutString
 1027              	.LVL65:
 388:main.c        ****         UART_UartPutString(txData); 
 1028              		.loc 1 388 0
 1029 0152 3A7D     		ldrb	r2, [r7, #20]
 1030 0154 1449     		ldr	r1, .L57+64
 1031 0156 2000     		movs	r0, r4
 1032 0158 FFF7FEFF 		bl	sprintf
 1033              	.LVL66:
 389:main.c        ****     }
 1034              		.loc 1 389 0
 1035 015c 2000     		movs	r0, r4
 1036 015e FFF7FEFF 		bl	UART_UartPutString
 1037              	.LVL67:
 1038              	.L45:
 391:main.c        **** 
 1039              		.loc 1 391 0
 1040 0162 03B0     		add	sp, sp, #12
 1041              		@ sp needed
 1042              	.LVL68:
 1043              	.LVL69:
 1044 0164 F0BD     		pop	{r4, r5, r6, r7, pc}
 1045              	.L58:
 1046 0166 C046     		.align	2
 1047              	.L57:
 1048 0168 00000000 		.word	.L48
 1049 016c 00000000 		.word	.LANCHOR1
 1050 0170 0000F03F 		.word	1072693248
 1051 0174 00000000 		.word	ratio
 1052 0178 66666666 		.word	1717986918
 1053 017c 66E62C40 		.word	1076684390
 1054 0180 00000000 		.word	.LANCHOR0
 1055 0184 00000000 		.word	kp
 1056 0188 00000000 		.word	ki
 1057 018c 00000000 		.word	kd
 1058 0190 66660640 		.word	1074161254
 1059 0194 F1F44A59 		.word	1498084593
 1060 0198 8638F63F 		.word	1073100934
 1061 019c 00000000 		.word	txData
 1062 01a0 84000000 		.word	.LC39
 1063 01a4 AC000000 		.word	.LC42
ARM GAS  C:\Users\austc\AppData\Local\Temp\ccAwGtxE.s 			page 31


 1064 01a8 DC000000 		.word	.LC44
 1065              		.cfi_endproc
 1066              	.LFE40:
 1067              		.size	initialize_can_addr, .-initialize_can_addr
 1068              		.global	__aeabi_i2d
 1069              		.global	__aeabi_ddiv
 1070              		.global	__aeabi_dmul
 1071              		.global	__aeabi_d2iz
 1072              		.section	.text.CAN_Send_Encoder,"ax",%progbits
 1073              		.align	2
 1074              		.global	CAN_Send_Encoder
 1075              		.code	16
 1076              		.thumb_func
 1077              		.type	CAN_Send_Encoder, %function
 1078              	CAN_Send_Encoder:
 1079              	.LFB42:
 398:main.c        ****     int16 ticks = QuadDec_GetCounter();
 1080              		.loc 1 398 0
 1081              		.cfi_startproc
 1082              		@ args = 0, pretend = 0, frame = 0
 1083              		@ frame_needed = 0, uses_anonymous_args = 0
 1084 0000 F0B5     		push	{r4, r5, r6, r7, lr}
 1085              		.cfi_def_cfa_offset 20
 1086              		.cfi_offset 4, -20
 1087              		.cfi_offset 5, -16
 1088              		.cfi_offset 6, -12
 1089              		.cfi_offset 7, -8
 1090              		.cfi_offset 14, -4
 1091 0002 83B0     		sub	sp, sp, #12
 1092              		.cfi_def_cfa_offset 32
 399:main.c        ****     int16 angle = (((double)ticks)/ratio)*10;
 1093              		.loc 1 399 0
 1094 0004 FFF7FEFF 		bl	QuadDec_GetCounter
 1095              	.LVL70:
 400:main.c        ****     data.byte[0u] = 0x14u;
 1096              		.loc 1 400 0
 1097 0008 FFF7FEFF 		bl	__aeabi_i2d
 1098              	.LVL71:
 1099 000c 184B     		ldr	r3, .L61
 1100 000e 1A68     		ldr	r2, [r3]
 1101 0010 5B68     		ldr	r3, [r3, #4]
 1102 0012 FFF7FEFF 		bl	__aeabi_ddiv
 1103              	.LVL72:
 1104 0016 0022     		movs	r2, #0
 1105 0018 164B     		ldr	r3, .L61+4
 1106 001a FFF7FEFF 		bl	__aeabi_dmul
 1107              	.LVL73:
 1108 001e FFF7FEFF 		bl	__aeabi_d2iz
 1109              	.LVL74:
 1110 0022 00B2     		sxth	r0, r0
 1111              	.LVL75:
 401:main.c        ****     data.byte[1u] = LO8(angle);
 1112              		.loc 1 401 0
 1113 0024 144B     		ldr	r3, .L61+8
 1114 0026 1422     		movs	r2, #20
 1115 0028 1A70     		strb	r2, [r3]
 402:main.c        ****     data.byte[2u] = HI8(angle);
ARM GAS  C:\Users\austc\AppData\Local\Temp\ccAwGtxE.s 			page 32


 1116              		.loc 1 402 0
 1117 002a 5870     		strb	r0, [r3, #1]
 403:main.c        ****     data.byte[3u] = 0;
 1118              		.loc 1 403 0
 1119 002c 80B2     		uxth	r0, r0
 1120 002e 000A     		lsrs	r0, r0, #8
 1121              	.LVL76:
 1122 0030 9870     		strb	r0, [r3, #2]
 404:main.c        ****     data.byte[4u] = 0;
 1123              		.loc 1 404 0
 1124 0032 0022     		movs	r2, #0
 1125 0034 DA70     		strb	r2, [r3, #3]
 405:main.c        ****     CAN_SendMsg(&message);
 1126              		.loc 1 405 0
 1127 0036 1A71     		strb	r2, [r3, #4]
 406:main.c        ****     if(uart_debug == 2) {
 1128              		.loc 1 406 0
 1129 0038 1048     		ldr	r0, .L61+12
 1130 003a FFF7FEFF 		bl	CAN_SendMsg
 1131              	.LVL77:
 407:main.c        ****         sprintf(txData, "CAN_Send_Encoder: byte[0u] %x byte[1u] %x byte[2u] %x QuadDec Count %d\r\n
 1132              		.loc 1 407 0
 1133 003e 104B     		ldr	r3, .L61+16
 1134 0040 1B78     		ldrb	r3, [r3]
 1135 0042 022B     		cmp	r3, #2
 1136 0044 11D1     		bne	.L59
 409:main.c        ****             QuadDec_GetCounter());
 1137              		.loc 1 409 0
 1138 0046 0C4B     		ldr	r3, .L61+8
 1139 0048 1D78     		ldrb	r5, [r3]
 1140 004a 5E78     		ldrb	r6, [r3, #1]
 1141 004c 9F78     		ldrb	r7, [r3, #2]
 410:main.c        ****         UART_UartPutString(txData);    
 1142              		.loc 1 410 0
 1143 004e FFF7FEFF 		bl	QuadDec_GetCounter
 1144              	.LVL78:
 408:main.c        ****             data.byte[0u],data.byte[1u],data.byte[2u],
 1145              		.loc 1 408 0
 1146 0052 0C4C     		ldr	r4, .L61+20
 1147 0054 0190     		str	r0, [sp, #4]
 1148 0056 0097     		str	r7, [sp]
 1149 0058 3300     		movs	r3, r6
 1150 005a 2A00     		movs	r2, r5
 1151 005c 0A49     		ldr	r1, .L61+24
 1152 005e 2000     		movs	r0, r4
 1153 0060 FFF7FEFF 		bl	sprintf
 1154              	.LVL79:
 411:main.c        ****     }
 1155              		.loc 1 411 0
 1156 0064 2000     		movs	r0, r4
 1157 0066 FFF7FEFF 		bl	UART_UartPutString
 1158              	.LVL80:
 1159              	.L59:
 413:main.c        **** 
 1160              		.loc 1 413 0
 1161 006a 03B0     		add	sp, sp, #12
 1162              		@ sp needed
ARM GAS  C:\Users\austc\AppData\Local\Temp\ccAwGtxE.s 			page 33


 1163 006c F0BD     		pop	{r4, r5, r6, r7, pc}
 1164              	.L62:
 1165 006e C046     		.align	2
 1166              	.L61:
 1167 0070 00000000 		.word	ratio
 1168 0074 00002440 		.word	1076101120
 1169 0078 00000000 		.word	data
 1170 007c 00000000 		.word	message
 1171 0080 00000000 		.word	.LANCHOR0
 1172 0084 00000000 		.word	txData
 1173 0088 F0000000 		.word	.LC50
 1174              		.cfi_endproc
 1175              	.LFE42:
 1176              		.size	CAN_Send_Encoder, .-CAN_Send_Encoder
 1177              		.section	.text.CAN_Send_Telemetry,"ax",%progbits
 1178              		.align	2
 1179              		.global	CAN_Send_Telemetry
 1180              		.code	16
 1181              		.thumb_func
 1182              		.type	CAN_Send_Telemetry, %function
 1183              	CAN_Send_Telemetry:
 1184              	.LFB43:
 415:main.c        ****     data.byte[0u] = 0x18u;
 1185              		.loc 1 415 0
 1186              		.cfi_startproc
 1187              		@ args = 0, pretend = 0, frame = 0
 1188              		@ frame_needed = 0, uses_anonymous_args = 0
 1189 0000 10B5     		push	{r4, lr}
 1190              		.cfi_def_cfa_offset 8
 1191              		.cfi_offset 4, -8
 1192              		.cfi_offset 14, -4
 416:main.c        ****     data.byte[1u] = 0;
 1193              		.loc 1 416 0
 1194 0002 0D4B     		ldr	r3, .L65
 1195 0004 1822     		movs	r2, #24
 1196 0006 1A70     		strb	r2, [r3]
 417:main.c        ****     data.byte[2u] = 0;
 1197              		.loc 1 417 0
 1198 0008 0022     		movs	r2, #0
 1199 000a 5A70     		strb	r2, [r3, #1]
 418:main.c        ****     data.byte[3u] = 0;
 1200              		.loc 1 418 0
 1201 000c 9A70     		strb	r2, [r3, #2]
 419:main.c        ****     data.byte[4u] = 0;
 1202              		.loc 1 419 0
 1203 000e DA70     		strb	r2, [r3, #3]
 420:main.c        ****     CAN_SendMsg(&message);
 1204              		.loc 1 420 0
 1205 0010 1A71     		strb	r2, [r3, #4]
 421:main.c        ****     if(uart_debug == 2) {
 1206              		.loc 1 421 0
 1207 0012 0A48     		ldr	r0, .L65+4
 1208 0014 FFF7FEFF 		bl	CAN_SendMsg
 1209              	.LVL81:
 422:main.c        ****         sprintf(txData, "Telemerty: byte[0u] %x byte[1u] %x\r\n",(uint8)data.byte[0u],(uint8)data.b
 1210              		.loc 1 422 0
 1211 0018 094B     		ldr	r3, .L65+8
ARM GAS  C:\Users\austc\AppData\Local\Temp\ccAwGtxE.s 			page 34


 1212 001a 1B78     		ldrb	r3, [r3]
 1213 001c 022B     		cmp	r3, #2
 1214 001e 0AD1     		bne	.L63
 423:main.c        ****         UART_UartPutString(txData); 
 1215              		.loc 1 423 0
 1216 0020 054B     		ldr	r3, .L65
 1217 0022 1A78     		ldrb	r2, [r3]
 1218 0024 5B78     		ldrb	r3, [r3, #1]
 1219 0026 074C     		ldr	r4, .L65+12
 1220 0028 0749     		ldr	r1, .L65+16
 1221 002a 2000     		movs	r0, r4
 1222 002c FFF7FEFF 		bl	sprintf
 1223              	.LVL82:
 424:main.c        ****     }
 1224              		.loc 1 424 0
 1225 0030 2000     		movs	r0, r4
 1226 0032 FFF7FEFF 		bl	UART_UartPutString
 1227              	.LVL83:
 1228              	.L63:
 426:main.c        **** 
 1229              		.loc 1 426 0
 1230              		@ sp needed
 1231 0036 10BD     		pop	{r4, pc}
 1232              	.L66:
 1233              		.align	2
 1234              	.L65:
 1235 0038 00000000 		.word	data
 1236 003c 00000000 		.word	message
 1237 0040 00000000 		.word	.LANCHOR0
 1238 0044 00000000 		.word	txData
 1239 0048 3C010000 		.word	.LC56
 1240              		.cfi_endproc
 1241              	.LFE43:
 1242              		.size	CAN_Send_Telemetry, .-CAN_Send_Telemetry
 1243              		.section	.text.CAN_Send_Model,"ax",%progbits
 1244              		.align	2
 1245              		.global	CAN_Send_Model
 1246              		.code	16
 1247              		.thumb_func
 1248              		.type	CAN_Send_Model, %function
 1249              	CAN_Send_Model:
 1250              	.LFB44:
 428:main.c        ****     data.byte[0u] = 0x12u;
 1251              		.loc 1 428 0
 1252              		.cfi_startproc
 1253              		@ args = 0, pretend = 0, frame = 0
 1254              		@ frame_needed = 0, uses_anonymous_args = 0
 1255 0000 10B5     		push	{r4, lr}
 1256              		.cfi_def_cfa_offset 8
 1257              		.cfi_offset 4, -8
 1258              		.cfi_offset 14, -4
 429:main.c        ****     data.byte[1u] = 0x00u;
 1259              		.loc 1 429 0
 1260 0002 0D4B     		ldr	r3, .L69
 1261 0004 1222     		movs	r2, #18
 1262 0006 1A70     		strb	r2, [r3]
 430:main.c        ****     data.byte[2u] = 0;
ARM GAS  C:\Users\austc\AppData\Local\Temp\ccAwGtxE.s 			page 35


 1263              		.loc 1 430 0
 1264 0008 0022     		movs	r2, #0
 1265 000a 5A70     		strb	r2, [r3, #1]
 431:main.c        ****     data.byte[3u] = 0;
 1266              		.loc 1 431 0
 1267 000c 9A70     		strb	r2, [r3, #2]
 432:main.c        ****     data.byte[4u] = 0;
 1268              		.loc 1 432 0
 1269 000e DA70     		strb	r2, [r3, #3]
 433:main.c        ****     CAN_SendMsg(&message);
 1270              		.loc 1 433 0
 1271 0010 1A71     		strb	r2, [r3, #4]
 434:main.c        ****     if(uart_debug == 2) {
 1272              		.loc 1 434 0
 1273 0012 0A48     		ldr	r0, .L69+4
 1274 0014 FFF7FEFF 		bl	CAN_SendMsg
 1275              	.LVL84:
 435:main.c        ****         sprintf(txData, "Model: byte[0u] %x byte[1u] %x\r\n",data.byte[0u],data.byte[1u]);
 1276              		.loc 1 435 0
 1277 0018 094B     		ldr	r3, .L69+8
 1278 001a 1B78     		ldrb	r3, [r3]
 1279 001c 022B     		cmp	r3, #2
 1280 001e 0AD1     		bne	.L67
 436:main.c        ****         UART_UartPutString(txData); 
 1281              		.loc 1 436 0
 1282 0020 054B     		ldr	r3, .L69
 1283 0022 1A78     		ldrb	r2, [r3]
 1284 0024 5B78     		ldrb	r3, [r3, #1]
 1285 0026 074C     		ldr	r4, .L69+12
 1286 0028 0749     		ldr	r1, .L69+16
 1287 002a 2000     		movs	r0, r4
 1288 002c FFF7FEFF 		bl	sprintf
 1289              	.LVL85:
 437:main.c        ****     }
 1290              		.loc 1 437 0
 1291 0030 2000     		movs	r0, r4
 1292 0032 FFF7FEFF 		bl	UART_UartPutString
 1293              	.LVL86:
 1294              	.L67:
 439:main.c        **** 
 1295              		.loc 1 439 0
 1296              		@ sp needed
 1297 0036 10BD     		pop	{r4, pc}
 1298              	.L70:
 1299              		.align	2
 1300              	.L69:
 1301 0038 00000000 		.word	data
 1302 003c 00000000 		.word	message
 1303 0040 00000000 		.word	.LANCHOR0
 1304 0044 00000000 		.word	txData
 1305 0048 64010000 		.word	.LC62
 1306              		.cfi_endproc
 1307              	.LFE44:
 1308              		.size	CAN_Send_Model, .-CAN_Send_Model
 1309              		.section	.text.CAN_Send_Error,"ax",%progbits
 1310              		.align	2
 1311              		.global	CAN_Send_Error
ARM GAS  C:\Users\austc\AppData\Local\Temp\ccAwGtxE.s 			page 36


 1312              		.code	16
 1313              		.thumb_func
 1314              		.type	CAN_Send_Error, %function
 1315              	CAN_Send_Error:
 1316              	.LFB45:
 441:main.c        ****     data.byte[0u] = 0xffu;
 1317              		.loc 1 441 0
 1318              		.cfi_startproc
 1319              		@ args = 0, pretend = 0, frame = 0
 1320              		@ frame_needed = 0, uses_anonymous_args = 0
 1321              	.LVL87:
 1322 0000 10B5     		push	{r4, lr}
 1323              		.cfi_def_cfa_offset 8
 1324              		.cfi_offset 4, -8
 1325              		.cfi_offset 14, -4
 1326 0002 82B0     		sub	sp, sp, #8
 1327              		.cfi_def_cfa_offset 16
 442:main.c        ****     data.byte[1u] = code;
 1328              		.loc 1 442 0
 1329 0004 0E4B     		ldr	r3, .L73
 1330 0006 FF22     		movs	r2, #255
 1331 0008 1A70     		strb	r2, [r3]
 443:main.c        ****     data.byte[2u] = param;
 1332              		.loc 1 443 0
 1333 000a 5870     		strb	r0, [r3, #1]
 444:main.c        ****     data.byte[3u] = 0;
 1334              		.loc 1 444 0
 1335 000c 9970     		strb	r1, [r3, #2]
 445:main.c        ****     data.byte[4u] = 0;
 1336              		.loc 1 445 0
 1337 000e 0022     		movs	r2, #0
 1338 0010 DA70     		strb	r2, [r3, #3]
 446:main.c        ****     CAN_SendMsg(&message);
 1339              		.loc 1 446 0
 1340 0012 1A71     		strb	r2, [r3, #4]
 447:main.c        ****     if(uart_debug == 2) {
 1341              		.loc 1 447 0
 1342 0014 0B48     		ldr	r0, .L73+4
 1343              	.LVL88:
 1344 0016 FFF7FEFF 		bl	CAN_SendMsg
 1345              	.LVL89:
 448:main.c        ****         sprintf(txData, "Error: byte[0u] %x byte[1u] %x byte[2u] %x\r\n",data.byte[0u],data.byte[1u
 1346              		.loc 1 448 0
 1347 001a 0B4B     		ldr	r3, .L73+8
 1348 001c 1B78     		ldrb	r3, [r3]
 1349 001e 022B     		cmp	r3, #2
 1350 0020 0CD1     		bne	.L71
 449:main.c        ****         UART_UartPutString(txData); 
 1351              		.loc 1 449 0
 1352 0022 0749     		ldr	r1, .L73
 1353 0024 0A78     		ldrb	r2, [r1]
 1354 0026 4B78     		ldrb	r3, [r1, #1]
 1355 0028 8978     		ldrb	r1, [r1, #2]
 1356 002a 084C     		ldr	r4, .L73+12
 1357 002c 0091     		str	r1, [sp]
 1358 002e 0849     		ldr	r1, .L73+16
 1359 0030 2000     		movs	r0, r4
ARM GAS  C:\Users\austc\AppData\Local\Temp\ccAwGtxE.s 			page 37


 1360 0032 FFF7FEFF 		bl	sprintf
 1361              	.LVL90:
 450:main.c        ****     }
 1362              		.loc 1 450 0
 1363 0036 2000     		movs	r0, r4
 1364 0038 FFF7FEFF 		bl	UART_UartPutString
 1365              	.LVL91:
 1366              	.L71:
 452:main.c        **** 
 1367              		.loc 1 452 0
 1368 003c 02B0     		add	sp, sp, #8
 1369              		@ sp needed
 1370 003e 10BD     		pop	{r4, pc}
 1371              	.L74:
 1372              		.align	2
 1373              	.L73:
 1374 0040 00000000 		.word	data
 1375 0044 00000000 		.word	message
 1376 0048 00000000 		.word	.LANCHOR0
 1377 004c 00000000 		.word	txData
 1378 0050 88010000 		.word	.LC68
 1379              		.cfi_endproc
 1380              	.LFE45:
 1381              		.size	CAN_Send_Error, .-CAN_Send_Error
 1382              		.section	.text.set_data,"ax",%progbits
 1383              		.align	2
 1384              		.global	set_data
 1385              		.code	16
 1386              		.thumb_func
 1387              		.type	set_data, %function
 1388              	set_data:
 1389              	.LFB47:
 492:main.c        ****         //set mode
 1390              		.loc 1 492 0
 1391              		.cfi_startproc
 1392              		@ args = 0, pretend = 0, frame = 0
 1393              		@ frame_needed = 0, uses_anonymous_args = 0
 1394              	.LVL92:
 1395 0000 10B5     		push	{r4, lr}
 1396              		.cfi_def_cfa_offset 8
 1397              		.cfi_offset 4, -8
 1398              		.cfi_offset 14, -4
 494:main.c        ****             if(CAN_RX_DATA_BYTE2(addr) == 1 || CAN_RX_DATA_BYTE2(addr) == 0) {
 1399              		.loc 1 494 0
 1400 0002 4001     		lsls	r0, r0, #5
 1401              	.LVL93:
 1402 0004 334B     		ldr	r3, .L84
 1403 0006 9C46     		mov	ip, r3
 1404 0008 6044     		add	r0, r0, ip
 1405 000a 8368     		ldr	r3, [r0, #8]
 1406 000c 1B0E     		lsrs	r3, r3, #24
 1407 000e 23D1     		bne	.L76
 495:main.c        ****                 mode = CAN_RX_DATA_BYTE2(addr);
 1408              		.loc 1 495 0
 1409 0010 8368     		ldr	r3, [r0, #8]
 1410 0012 1B0C     		lsrs	r3, r3, #16
 1411 0014 FF22     		movs	r2, #255
ARM GAS  C:\Users\austc\AppData\Local\Temp\ccAwGtxE.s 			page 38


 1412 0016 1340     		ands	r3, r2
 1413 0018 012B     		cmp	r3, #1
 1414 001a 03D0     		beq	.L77
 495:main.c        ****                 mode = CAN_RX_DATA_BYTE2(addr);
 1415              		.loc 1 495 0 is_stmt 0 discriminator 1
 1416 001c 8368     		ldr	r3, [r0, #8]
 1417 001e 1B0C     		lsrs	r3, r3, #16
 1418 0020 1A42     		tst	r2, r3
 1419 0022 11D1     		bne	.L78
 1420              	.L77:
 496:main.c        ****                 if(mode == 1){
 1421              		.loc 1 496 0 is_stmt 1
 1422 0024 8368     		ldr	r3, [r0, #8]
 1423 0026 1B0C     		lsrs	r3, r3, #16
 1424 0028 DBB2     		uxtb	r3, r3
 1425 002a 2B4A     		ldr	r2, .L84+4
 1426 002c 9372     		strb	r3, [r2, #10]
 497:main.c        ****                     final_angle = QuadDec_GetCounter() * flipEncoder;
 1427              		.loc 1 497 0
 1428 002e 012B     		cmp	r3, #1
 1429 0030 0ED1     		bne	.L79
 498:main.c        ****                     i = 0;
 1430              		.loc 1 498 0
 1431 0032 FFF7FEFF 		bl	QuadDec_GetCounter
 1432              	.LVL94:
 1433 0036 294A     		ldr	r2, .L84+8
 1434 0038 274B     		ldr	r3, .L84+4
 1435 003a DB7A     		ldrb	r3, [r3, #11]
 1436 003c 5BB2     		sxtb	r3, r3
 1437 003e 5843     		muls	r0, r3
 1438 0040 5080     		strh	r0, [r2, #2]
 499:main.c        ****                 }
 1439              		.loc 1 499 0
 1440 0042 0023     		movs	r3, #0
 1441 0044 5360     		str	r3, [r2, #4]
 1442 0046 03E0     		b	.L79
 1443              	.L78:
 503:main.c        ****                 invalid_arg.done = 0;
 1444              		.loc 1 503 0
 1445 0048 254B     		ldr	r3, .L84+12
 1446 004a 0022     		movs	r2, #0
 1447 004c 5A70     		strb	r2, [r3, #1]
 504:main.c        ****             }
 1448              		.loc 1 504 0
 1449 004e 9A70     		strb	r2, [r3, #2]
 1450              	.L79:
 506:main.c        ****         } 
 1451              		.loc 1 506 0
 1452 0050 0122     		movs	r2, #1
 1453 0052 224B     		ldr	r3, .L84+8
 1454 0054 1A72     		strb	r2, [r3, #8]
 1455 0056 3BE0     		b	.L75
 1456              	.L76:
 509:main.c        ****             Can_rx_pwm.b1 = CAN_RX_DATA_BYTE2(addr);
 1457              		.loc 1 509 0
 1458 0058 8368     		ldr	r3, [r0, #8]
 1459 005a 1B0E     		lsrs	r3, r3, #24
ARM GAS  C:\Users\austc\AppData\Local\Temp\ccAwGtxE.s 			page 39


 1460 005c 022B     		cmp	r3, #2
 1461 005e 0ED1     		bne	.L81
 510:main.c        ****             Can_rx_pwm.b2 = CAN_RX_DATA_BYTE3(addr);
 1462              		.loc 1 510 0
 1463 0060 8268     		ldr	r2, [r0, #8]
 1464 0062 120C     		lsrs	r2, r2, #16
 1465 0064 1F4B     		ldr	r3, .L84+16
 1466 0066 5A70     		strb	r2, [r3, #1]
 511:main.c        ****             Can_rx_pwm.b3 = CAN_RX_DATA_BYTE4(addr);
 1467              		.loc 1 511 0
 1468 0068 8268     		ldr	r2, [r0, #8]
 1469 006a 120A     		lsrs	r2, r2, #8
 1470 006c 9A70     		strb	r2, [r3, #2]
 512:main.c        ****             Can_rx_pwm.b4 = CAN_RX_DATA_BYTE5(addr);
 1471              		.loc 1 512 0
 1472 006e 8268     		ldr	r2, [r0, #8]
 1473 0070 DA70     		strb	r2, [r3, #3]
 513:main.c        ****             Can_rx_pwm.done = 0;
 1474              		.loc 1 513 0
 1475 0072 C268     		ldr	r2, [r0, #12]
 1476 0074 120E     		lsrs	r2, r2, #24
 1477 0076 1A71     		strb	r2, [r3, #4]
 514:main.c        ****         } 
 1478              		.loc 1 514 0
 1479 0078 0022     		movs	r2, #0
 1480 007a 5A71     		strb	r2, [r3, #5]
 1481 007c 28E0     		b	.L75
 1482              	.L81:
 517:main.c        ****             Can_rx_angle.b1 = CAN_RX_DATA_BYTE2(addr);
 1483              		.loc 1 517 0
 1484 007e 8368     		ldr	r3, [r0, #8]
 1485 0080 1B0E     		lsrs	r3, r3, #24
 1486 0082 042B     		cmp	r3, #4
 1487 0084 1DD1     		bne	.L82
 518:main.c        ****             Can_rx_angle.b2 = CAN_RX_DATA_BYTE3(addr);
 1488              		.loc 1 518 0
 1489 0086 8368     		ldr	r3, [r0, #8]
 1490 0088 1B0C     		lsrs	r3, r3, #16
 1491 008a D9B2     		uxtb	r1, r3
 1492 008c 164C     		ldr	r4, .L84+20
 1493 008e 6170     		strb	r1, [r4, #1]
 519:main.c        ****             Can_rx_angle.b3 = CAN_RX_DATA_BYTE4(addr);
 1494              		.loc 1 519 0
 1495 0090 8268     		ldr	r2, [r0, #8]
 1496 0092 120A     		lsrs	r2, r2, #8
 1497 0094 D3B2     		uxtb	r3, r2
 1498 0096 A370     		strb	r3, [r4, #2]
 520:main.c        ****             Can_rx_angle.b4 = CAN_RX_DATA_BYTE5(addr);
 1499              		.loc 1 520 0
 1500 0098 8268     		ldr	r2, [r0, #8]
 1501 009a E270     		strb	r2, [r4, #3]
 521:main.c        ****             Can_rx_angle.done = 0;
 1502              		.loc 1 521 0
 1503 009c C268     		ldr	r2, [r0, #12]
 1504 009e 120E     		lsrs	r2, r2, #24
 1505 00a0 2271     		strb	r2, [r4, #4]
 522:main.c        ****             if((((uint16_t)Can_rx_angle.b2) << 8 | Can_rx_angle.b1) != final_angle){
ARM GAS  C:\Users\austc\AppData\Local\Temp\ccAwGtxE.s 			page 40


 1506              		.loc 1 522 0
 1507 00a2 0022     		movs	r2, #0
 1508 00a4 6271     		strb	r2, [r4, #5]
 523:main.c        ****                  i=0;
 1509              		.loc 1 523 0
 1510 00a6 1B02     		lsls	r3, r3, #8
 1511 00a8 0B43     		orrs	r3, r1
 1512 00aa 0C4A     		ldr	r2, .L84+8
 1513 00ac 0221     		movs	r1, #2
 1514 00ae 525E     		ldrsh	r2, [r2, r1]
 1515 00b0 9342     		cmp	r3, r2
 1516 00b2 02D0     		beq	.L83
 524:main.c        ****             }
 1517              		.loc 1 524 0
 1518 00b4 0022     		movs	r2, #0
 1519 00b6 094B     		ldr	r3, .L84+8
 1520 00b8 5A60     		str	r2, [r3, #4]
 1521              	.L83:
 526:main.c        ****         } 
 1522              		.loc 1 526 0
 1523 00ba 0122     		movs	r2, #1
 1524 00bc 074B     		ldr	r3, .L84+8
 1525 00be 1A72     		strb	r2, [r3, #8]
 1526 00c0 06E0     		b	.L75
 1527              	.L82:
 529:main.c        ****             model_req = 1;
 1528              		.loc 1 529 0
 1529 00c2 8368     		ldr	r3, [r0, #8]
 1530 00c4 1B0E     		lsrs	r3, r3, #24
 1531 00c6 102B     		cmp	r3, #16
 1532 00c8 02D1     		bne	.L75
 1533              		.loc 1 530 0
 1534 00ca 0122     		movs	r2, #1
 1535 00cc 034B     		ldr	r3, .L84+8
 1536 00ce 5A72     		strb	r2, [r3, #9]
 1537              	.L75:
 531:main.c        ****         }
 532:main.c        **** }
 1538              		.loc 1 532 0
 1539              		@ sp needed
 1540 00d0 10BD     		pop	{r4, pc}
 1541              	.L85:
 1542 00d2 C046     		.align	2
 1543              	.L84:
 1544 00d4 A0002F40 		.word	1076822176
 1545 00d8 00000000 		.word	.LANCHOR0
 1546 00dc 00000000 		.word	.LANCHOR1
 1547 00e0 00000000 		.word	invalid_arg
 1548 00e4 00000000 		.word	Can_rx_pwm
 1549 00e8 00000000 		.word	Can_rx_angle
 1550              		.cfi_endproc
 1551              	.LFE47:
 1552              		.size	set_data, .-set_data
 1553              		.section	.text.degrees_to_tick,"ax",%progbits
 1554              		.align	2
 1555              		.global	degrees_to_tick
 1556              		.code	16
ARM GAS  C:\Users\austc\AppData\Local\Temp\ccAwGtxE.s 			page 41


 1557              		.thumb_func
 1558              		.type	degrees_to_tick, %function
 1559              	degrees_to_tick:
 1560              	.LFB49:
 533:main.c        **** 
 534:main.c        **** void set_Position(int16 degrees) {
 535:main.c        ****     if(uart_debug) {
 536:main.c        ****         sprintf(txData, "complete: %d\r\n",complete);
 537:main.c        ****         UART_UartPutString(txData);
 538:main.c        ****     }
 539:main.c        ****     //while(!complete) {
 540:main.c        ****         int PWM = position_PID(degrees_to_tick(degrees));
 541:main.c        ****         if(uart_debug) {
 542:main.c        ****             sprintf(txData, "PWM: %d\r\n",PWM);
 543:main.c        ****             UART_UartPutString(txData);
 544:main.c        ****         }
 545:main.c        ****         if(PWM > maxV){
 546:main.c        ****             set_PWM(maxV);   
 547:main.c        ****         } else if(PWM < -maxV) {
 548:main.c        ****             set_PWM(-maxV);
 549:main.c        ****         } else {
 550:main.c        ****             set_PWM(PWM);   
 551:main.c        ****         }
 552:main.c        ****    // }
 553:main.c        **** }
 554:main.c        **** 
 555:main.c        **** int degrees_to_tick(int16 degrees){
 1561              		.loc 1 555 0
 1562              		.cfi_startproc
 1563              		@ args = 0, pretend = 0, frame = 0
 1564              		@ frame_needed = 0, uses_anonymous_args = 0
 1565              	.LVL95:
 1566 0000 70B5     		push	{r4, r5, r6, lr}
 1567              		.cfi_def_cfa_offset 16
 1568              		.cfi_offset 4, -16
 1569              		.cfi_offset 5, -12
 1570              		.cfi_offset 6, -8
 1571              		.cfi_offset 14, -4
 1572 0002 0500     		movs	r5, r0
 556:main.c        ****     int ticks = (int)((double)degrees * ratio);
 1573              		.loc 1 556 0
 1574 0004 FFF7FEFF 		bl	__aeabi_i2d
 1575              	.LVL96:
 1576 0008 0B4B     		ldr	r3, .L88
 1577 000a 1A68     		ldr	r2, [r3]
 1578 000c 5B68     		ldr	r3, [r3, #4]
 1579 000e FFF7FEFF 		bl	__aeabi_dmul
 1580              	.LVL97:
 1581 0012 FFF7FEFF 		bl	__aeabi_d2iz
 1582              	.LVL98:
 1583 0016 0400     		movs	r4, r0
 1584              	.LVL99:
 557:main.c        ****     if(uart_debug) {
 1585              		.loc 1 557 0
 1586 0018 084B     		ldr	r3, .L88+4
 1587 001a 1B78     		ldrb	r3, [r3]
 1588 001c 002B     		cmp	r3, #0
ARM GAS  C:\Users\austc\AppData\Local\Temp\ccAwGtxE.s 			page 42


 1589 001e 09D0     		beq	.L87
 558:main.c        ****         sprintf(txData, "degree: %d ticks: %d\r\n", degrees, ticks);
 1590              		.loc 1 558 0
 1591 0020 074E     		ldr	r6, .L88+8
 1592 0022 0300     		movs	r3, r0
 1593 0024 2A00     		movs	r2, r5
 1594 0026 0749     		ldr	r1, .L88+12
 1595 0028 3000     		movs	r0, r6
 1596              	.LVL100:
 1597 002a FFF7FEFF 		bl	sprintf
 1598              	.LVL101:
 559:main.c        ****         UART_UartPutString(txData);
 1599              		.loc 1 559 0
 1600 002e 3000     		movs	r0, r6
 1601 0030 FFF7FEFF 		bl	UART_UartPutString
 1602              	.LVL102:
 1603              	.L87:
 560:main.c        ****     }
 561:main.c        ****     return(ticks);
 562:main.c        **** }
 1604              		.loc 1 562 0
 1605 0034 2000     		movs	r0, r4
 1606              		@ sp needed
 1607              	.LVL103:
 1608 0036 70BD     		pop	{r4, r5, r6, pc}
 1609              	.L89:
 1610              		.align	2
 1611              	.L88:
 1612 0038 00000000 		.word	ratio
 1613 003c 00000000 		.word	.LANCHOR0
 1614 0040 00000000 		.word	txData
 1615 0044 B8010000 		.word	.LC78
 1616              		.cfi_endproc
 1617              	.LFE49:
 1618              		.size	degrees_to_tick, .-degrees_to_tick
 1619              		.global	__aeabi_idiv
 1620              		.section	.text.position_PID,"ax",%progbits
 1621              		.align	2
 1622              		.global	position_PID
 1623              		.code	16
 1624              		.thumb_func
 1625              		.type	position_PID, %function
 1626              	position_PID:
 1627              	.LFB50:
 563:main.c        **** 
 564:main.c        **** int position_PID(int target){
 1628              		.loc 1 564 0
 1629              		.cfi_startproc
 1630              		@ args = 0, pretend = 0, frame = 0
 1631              		@ frame_needed = 0, uses_anonymous_args = 0
 1632              	.LVL104:
 1633 0000 70B5     		push	{r4, r5, r6, lr}
 1634              		.cfi_def_cfa_offset 16
 1635              		.cfi_offset 4, -16
 1636              		.cfi_offset 5, -12
 1637              		.cfi_offset 6, -8
 1638              		.cfi_offset 14, -4
ARM GAS  C:\Users\austc\AppData\Local\Temp\ccAwGtxE.s 			page 43


 1639 0002 82B0     		sub	sp, sp, #8
 1640              		.cfi_def_cfa_offset 24
 1641 0004 0400     		movs	r4, r0
 565:main.c        ****     int16 current =  QuadDec_GetCounter() * flipEncoder;
 1642              		.loc 1 565 0
 1643 0006 FFF7FEFF 		bl	QuadDec_GetCounter
 1644              	.LVL105:
 1645 000a 2D4B     		ldr	r3, .L97
 1646 000c DB7A     		ldrb	r3, [r3, #11]
 1647 000e 5BB2     		sxtb	r3, r3
 1648 0010 5843     		muls	r0, r3
 1649 0012 02B2     		sxth	r2, r0
 1650              	.LVL106:
 566:main.c        ****     int p = target - current;
 1651              		.loc 1 566 0
 1652 0014 A41A     		subs	r4, r4, r2
 1653              	.LVL107:
 567:main.c        ****     if(p <= 5 && p >= -5) {
 1654              		.loc 1 567 0
 1655 0016 631D     		adds	r3, r4, #5
 1656 0018 0A2B     		cmp	r3, #10
 1657 001a 0ED8     		bhi	.L91
 568:main.c        ****         if(uart_debug) {
 1658              		.loc 1 568 0
 1659 001c 284B     		ldr	r3, .L97
 1660 001e 1B78     		ldrb	r3, [r3]
 1661 0020 002B     		cmp	r3, #0
 1662 0022 49D0     		beq	.L96
 569:main.c        ****             sprintf(txData, "p: %d\r\n",p);
 1663              		.loc 1 569 0
 1664 0024 274D     		ldr	r5, .L97+4
 1665 0026 2200     		movs	r2, r4
 1666              	.LVL108:
 1667 0028 2749     		ldr	r1, .L97+8
 1668 002a 2800     		movs	r0, r5
 1669              	.LVL109:
 1670 002c FFF7FEFF 		bl	sprintf
 1671              	.LVL110:
 570:main.c        ****             UART_UartPutString(txData);
 1672              		.loc 1 570 0
 1673 0030 2800     		movs	r0, r5
 1674 0032 FFF7FEFF 		bl	UART_UartPutString
 1675              	.LVL111:
 571:main.c        ****         }
 572:main.c        ****       //complete =  1;
 573:main.c        ****       return(0);
 1676              		.loc 1 573 0
 1677 0036 0020     		movs	r0, #0
 1678 0038 3FE0     		b	.L92
 1679              	.LVL112:
 1680              	.L91:
 574:main.c        ****     }
 575:main.c        ****     i = i + p;
 1681              		.loc 1 575 0
 1682 003a 2449     		ldr	r1, .L97+12
 1683 003c 4B68     		ldr	r3, [r1, #4]
 1684 003e E318     		adds	r3, r4, r3
ARM GAS  C:\Users\austc\AppData\Local\Temp\ccAwGtxE.s 			page 44


 1685 0040 4B60     		str	r3, [r1, #4]
 576:main.c        ****     if ( i > 500) {
 1686              		.loc 1 576 0
 1687 0042 FA21     		movs	r1, #250
 1688 0044 4900     		lsls	r1, r1, #1
 1689 0046 8B42     		cmp	r3, r1
 1690 0048 01DD     		ble	.L93
 577:main.c        ****         i = 500;   
 1691              		.loc 1 577 0
 1692 004a 204B     		ldr	r3, .L97+12
 1693 004c 5960     		str	r1, [r3, #4]
 1694              	.L93:
 578:main.c        ****     }
 579:main.c        ****     if ( i < -500) {
 1695              		.loc 1 579 0
 1696 004e 1F4B     		ldr	r3, .L97+12
 1697 0050 5968     		ldr	r1, [r3, #4]
 1698 0052 1F4B     		ldr	r3, .L97+16
 1699 0054 9942     		cmp	r1, r3
 1700 0056 02DA     		bge	.L94
 580:main.c        ****         i = -500;
 1701              		.loc 1 580 0
 1702 0058 1900     		movs	r1, r3
 1703 005a 1C4B     		ldr	r3, .L97+12
 1704 005c 5960     		str	r1, [r3, #4]
 1705              	.L94:
 581:main.c        ****     }
 582:main.c        ****     int d = p - lastp;
 1706              		.loc 1 582 0
 1707 005e 1B4B     		ldr	r3, .L97+12
 1708 0060 9969     		ldr	r1, [r3, #24]
 1709 0062 651A     		subs	r5, r4, r1
 1710              	.LVL113:
 583:main.c        ****     lastp = p;
 1711              		.loc 1 583 0
 1712 0064 9C61     		str	r4, [r3, #24]
 584:main.c        ****     if(uart_debug) {
 1713              		.loc 1 584 0
 1714 0066 164B     		ldr	r3, .L97
 1715 0068 1B78     		ldrb	r3, [r3]
 1716 006a 002B     		cmp	r3, #0
 1717 006c 0CD0     		beq	.L95
 585:main.c        ****         sprintf(txData, "p: %d, i: %d d %d current %d\r\n",p, i, d, current);
 1718              		.loc 1 585 0
 1719 006e 174B     		ldr	r3, .L97+12
 1720 0070 5B68     		ldr	r3, [r3, #4]
 1721 0072 144E     		ldr	r6, .L97+4
 1722 0074 0192     		str	r2, [sp, #4]
 1723 0076 0095     		str	r5, [sp]
 1724 0078 2200     		movs	r2, r4
 1725              	.LVL114:
 1726 007a 1649     		ldr	r1, .L97+20
 1727 007c 3000     		movs	r0, r6
 1728 007e FFF7FEFF 		bl	sprintf
 1729              	.LVL115:
 586:main.c        ****         UART_UartPutString(txData);
 1730              		.loc 1 586 0
ARM GAS  C:\Users\austc\AppData\Local\Temp\ccAwGtxE.s 			page 45


 1731 0082 3000     		movs	r0, r6
 1732 0084 FFF7FEFF 		bl	UART_UartPutString
 1733              	.LVL116:
 1734              	.L95:
 587:main.c        ****     }
 588:main.c        ****     return (p*kp/10 + i*ki/10 + d*kd/10);
 1735              		.loc 1 588 0
 1736 0088 134B     		ldr	r3, .L97+24
 1737 008a 1868     		ldr	r0, [r3]
 1738 008c 6043     		muls	r0, r4
 1739 008e 0A21     		movs	r1, #10
 1740 0090 FFF7FEFF 		bl	__aeabi_idiv
 1741              	.LVL117:
 1742 0094 0400     		movs	r4, r0
 1743              	.LVL118:
 1744 0096 0D4B     		ldr	r3, .L97+12
 1745 0098 5868     		ldr	r0, [r3, #4]
 1746 009a 104B     		ldr	r3, .L97+28
 1747 009c 1B68     		ldr	r3, [r3]
 1748 009e 5843     		muls	r0, r3
 1749 00a0 0A21     		movs	r1, #10
 1750 00a2 FFF7FEFF 		bl	__aeabi_idiv
 1751              	.LVL119:
 1752 00a6 2418     		adds	r4, r4, r0
 1753 00a8 0D4B     		ldr	r3, .L97+32
 1754 00aa 1868     		ldr	r0, [r3]
 1755 00ac 6843     		muls	r0, r5
 1756 00ae 0A21     		movs	r1, #10
 1757 00b0 FFF7FEFF 		bl	__aeabi_idiv
 1758              	.LVL120:
 1759 00b4 2018     		adds	r0, r4, r0
 1760 00b6 00E0     		b	.L92
 1761              	.LVL121:
 1762              	.L96:
 573:main.c        ****     }
 1763              		.loc 1 573 0
 1764 00b8 0020     		movs	r0, #0
 1765              	.LVL122:
 1766              	.L92:
 589:main.c        **** }
 1767              		.loc 1 589 0
 1768 00ba 02B0     		add	sp, sp, #8
 1769              		@ sp needed
 1770 00bc 70BD     		pop	{r4, r5, r6, pc}
 1771              	.L98:
 1772 00be C046     		.align	2
 1773              	.L97:
 1774 00c0 00000000 		.word	.LANCHOR0
 1775 00c4 00000000 		.word	txData
 1776 00c8 D0010000 		.word	.LC82
 1777 00cc 00000000 		.word	.LANCHOR1
 1778 00d0 0CFEFFFF 		.word	-500
 1779 00d4 D8010000 		.word	.LC86
 1780 00d8 00000000 		.word	kp
 1781 00dc 00000000 		.word	ki
 1782 00e0 00000000 		.word	kd
 1783              		.cfi_endproc
ARM GAS  C:\Users\austc\AppData\Local\Temp\ccAwGtxE.s 			page 46


 1784              	.LFE50:
 1785              		.size	position_PID, .-position_PID
 1786              		.section	.text.set_Position,"ax",%progbits
 1787              		.align	2
 1788              		.global	set_Position
 1789              		.code	16
 1790              		.thumb_func
 1791              		.type	set_Position, %function
 1792              	set_Position:
 1793              	.LFB48:
 534:main.c        ****     if(uart_debug) {
 1794              		.loc 1 534 0
 1795              		.cfi_startproc
 1796              		@ args = 0, pretend = 0, frame = 0
 1797              		@ frame_needed = 0, uses_anonymous_args = 0
 1798              	.LVL123:
 1799 0000 70B5     		push	{r4, r5, r6, lr}
 1800              		.cfi_def_cfa_offset 16
 1801              		.cfi_offset 4, -16
 1802              		.cfi_offset 5, -12
 1803              		.cfi_offset 6, -8
 1804              		.cfi_offset 14, -4
 1805 0002 0400     		movs	r4, r0
 535:main.c        ****         sprintf(txData, "complete: %d\r\n",complete);
 1806              		.loc 1 535 0
 1807 0004 184B     		ldr	r3, .L105
 1808 0006 1B78     		ldrb	r3, [r3]
 1809 0008 002B     		cmp	r3, #0
 1810 000a 09D0     		beq	.L100
 536:main.c        ****         UART_UartPutString(txData);
 1811              		.loc 1 536 0
 1812 000c 174B     		ldr	r3, .L105+4
 1813 000e 1A7A     		ldrb	r2, [r3, #8]
 1814 0010 174D     		ldr	r5, .L105+8
 1815 0012 1849     		ldr	r1, .L105+12
 1816 0014 2800     		movs	r0, r5
 1817              	.LVL124:
 1818 0016 FFF7FEFF 		bl	sprintf
 1819              	.LVL125:
 537:main.c        ****     }
 1820              		.loc 1 537 0
 1821 001a 2800     		movs	r0, r5
 1822 001c FFF7FEFF 		bl	UART_UartPutString
 1823              	.LVL126:
 1824              	.L100:
 540:main.c        ****         if(uart_debug) {
 1825              		.loc 1 540 0
 1826 0020 2000     		movs	r0, r4
 1827 0022 FFF7FEFF 		bl	degrees_to_tick
 1828              	.LVL127:
 1829 0026 FFF7FEFF 		bl	position_PID
 1830              	.LVL128:
 1831 002a 0400     		movs	r4, r0
 1832              	.LVL129:
 541:main.c        ****             sprintf(txData, "PWM: %d\r\n",PWM);
 1833              		.loc 1 541 0
 1834 002c 0E4B     		ldr	r3, .L105
ARM GAS  C:\Users\austc\AppData\Local\Temp\ccAwGtxE.s 			page 47


 1835 002e 1B78     		ldrb	r3, [r3]
 1836 0030 002B     		cmp	r3, #0
 1837 0032 08D0     		beq	.L101
 542:main.c        ****             UART_UartPutString(txData);
 1838              		.loc 1 542 0
 1839 0034 0E4D     		ldr	r5, .L105+8
 1840 0036 0200     		movs	r2, r0
 1841 0038 0F49     		ldr	r1, .L105+16
 1842 003a 2800     		movs	r0, r5
 1843              	.LVL130:
 1844 003c FFF7FEFF 		bl	sprintf
 1845              	.LVL131:
 543:main.c        ****         }
 1846              		.loc 1 543 0
 1847 0040 2800     		movs	r0, r5
 1848 0042 FFF7FEFF 		bl	UART_UartPutString
 1849              	.LVL132:
 1850              	.L101:
 545:main.c        ****             set_PWM(maxV);   
 1851              		.loc 1 545 0
 1852 0046 094B     		ldr	r3, .L105+4
 1853 0048 187F     		ldrb	r0, [r3, #28]
 1854 004a 8442     		cmp	r4, r0
 1855 004c 02DD     		ble	.L102
 1856              	.LBB11:
 546:main.c        ****         } else if(PWM < -maxV) {
 1857              		.loc 1 546 0
 1858 004e FFF7FEFF 		bl	set_PWM
 1859              	.LVL133:
 1860              	.LBE11:
 1861 0052 08E0     		b	.L99
 1862              	.L102:
 547:main.c        ****             set_PWM(-maxV);
 1863              		.loc 1 547 0
 1864 0054 4042     		rsbs	r0, r0, #0
 1865 0056 8442     		cmp	r4, r0
 1866 0058 02DA     		bge	.L104
 1867              	.LBB12:
 548:main.c        ****         } else {
 1868              		.loc 1 548 0
 1869 005a FFF7FEFF 		bl	set_PWM
 1870              	.LVL134:
 1871              	.LBE12:
 1872 005e 02E0     		b	.L99
 1873              	.L104:
 1874              	.LBB13:
 550:main.c        ****         }
 1875              		.loc 1 550 0
 1876 0060 2000     		movs	r0, r4
 1877 0062 FFF7FEFF 		bl	set_PWM
 1878              	.LVL135:
 1879              	.L99:
 1880              	.LBE13:
 553:main.c        **** 
 1881              		.loc 1 553 0
 1882              		@ sp needed
 1883              	.LVL136:
ARM GAS  C:\Users\austc\AppData\Local\Temp\ccAwGtxE.s 			page 48


 1884 0066 70BD     		pop	{r4, r5, r6, pc}
 1885              	.L106:
 1886              		.align	2
 1887              	.L105:
 1888 0068 00000000 		.word	.LANCHOR0
 1889 006c 00000000 		.word	.LANCHOR1
 1890 0070 00000000 		.word	txData
 1891 0074 F8010000 		.word	.LC93
 1892 0078 08020000 		.word	.LC96
 1893              		.cfi_endproc
 1894              	.LFE48:
 1895              		.size	set_Position, .-set_Position
 1896              		.section	.text.main,"ax",%progbits
 1897              		.align	2
 1898              		.global	main
 1899              		.code	16
 1900              		.thumb_func
 1901              		.type	main, %function
 1902              	main:
 1903              	.LFB37:
 116:main.c        ****     #ifdef REV2
 1904              		.loc 1 116 0
 1905              		.cfi_startproc
 1906              		@ args = 0, pretend = 0, frame = 0
 1907              		@ frame_needed = 0, uses_anonymous_args = 0
 1908 0000 10B5     		push	{r4, lr}
 1909              		.cfi_def_cfa_offset 8
 1910              		.cfi_offset 4, -8
 1911              		.cfi_offset 14, -4
 1912 0002 82B0     		sub	sp, sp, #8
 1913              		.cfi_def_cfa_offset 16
 118:main.c        ****         Error_Write(LED_ON);
 1914              		.loc 1 118 0
 1915 0004 0020     		movs	r0, #0
 1916 0006 FFF7FEFF 		bl	Test_LED_Write
 1917              	.LVL137:
 119:main.c        ****     #endif
 1918              		.loc 1 119 0
 1919 000a 0020     		movs	r0, #0
 1920 000c FFF7FEFF 		bl	Error_Write
 1921              	.LVL138:
 121:main.c        ****     stall.done = 1;
 1922              		.loc 1 121 0
 1923 0010 634A     		ldr	r2, .L121
 1924 0012 0123     		movs	r3, #1
 1925 0014 1370     		strb	r3, [r2]
 122:main.c        ****     command_failed.code = 0x02;
 1926              		.loc 1 122 0
 1927 0016 9370     		strb	r3, [r2, #2]
 123:main.c        ****     command_failed.done = 1;
 1928              		.loc 1 123 0
 1929 0018 624A     		ldr	r2, .L121+4
 1930 001a 0221     		movs	r1, #2
 1931 001c 1170     		strb	r1, [r2]
 124:main.c        ****     invalid_arg.code = 0x03;
 1932              		.loc 1 124 0
 1933 001e 9370     		strb	r3, [r2, #2]
ARM GAS  C:\Users\austc\AppData\Local\Temp\ccAwGtxE.s 			page 49


 125:main.c        ****     invalid_arg.done = 1;
 1934              		.loc 1 125 0
 1935 0020 614A     		ldr	r2, .L121+8
 1936 0022 0131     		adds	r1, r1, #1
 1937 0024 1170     		strb	r1, [r2]
 126:main.c        ****     uint8 error;
 1938              		.loc 1 126 0
 1939 0026 9370     		strb	r3, [r2, #2]
 129:main.c        ****     message.ide = MESSAGE_IDE;
 1940              		.loc 1 129 0
 1941 0028 604B     		ldr	r3, .L121+12
 1942 002a 0522     		movs	r2, #5
 1943 002c 9A71     		strb	r2, [r3, #6]
 130:main.c        ****     message.irq = MESSAGE_IRQ;
 1944              		.loc 1 130 0
 1945 002e 0024     		movs	r4, #0
 1946 0030 5C71     		strb	r4, [r3, #5]
 131:main.c        ****     message.msg = &data;
 1947              		.loc 1 131 0
 1948 0032 DC71     		strb	r4, [r3, #7]
 132:main.c        ****     message.rtr = MESSAGE_RTR;
 1949              		.loc 1 132 0
 1950 0034 5E4A     		ldr	r2, .L121+16
 1951 0036 DA60     		str	r2, [r3, #12]
 133:main.c        ****     
 1952              		.loc 1 133 0
 1953 0038 1C71     		strb	r4, [r3, #4]
 136:main.c        ****         Error_Write(0);
 1954              		.loc 1 136 0
 1955 003a 0020     		movs	r0, #0
 1956 003c FFF7FEFF 		bl	Test_LED_Write
 1957              	.LVL139:
 137:main.c        ****     #endif
 1958              		.loc 1 137 0
 1959 0040 0020     		movs	r0, #0
 1960 0042 FFF7FEFF 		bl	Error_Write
 1961              	.LVL140:
 140:main.c        ****     initialize_can_addr();
 1962              		.loc 1 140 0
 1963 0046 FFF7FEFF 		bl	initialize
 1964              	.LVL141:
 141:main.c        ****     int up = 0;
 1965              		.loc 1 141 0
 1966 004a FFF7FEFF 		bl	initialize_can_addr
 1967              	.LVL142:
 144:main.c        ****     set_PWM(0);
 1968              		.loc 1 144 0
 1969 004e 594B     		ldr	r3, .L121+20
 1970 0050 1C60     		str	r4, [r3]
 145:main.c        ****     
 1971              		.loc 1 145 0
 1972 0052 0020     		movs	r0, #0
 1973 0054 FFF7FEFF 		bl	set_PWM
 1974              	.LVL143:
 148:main.c        ****         Error_Write(LED_OFF);
 1975              		.loc 1 148 0
 1976 0058 0120     		movs	r0, #1
ARM GAS  C:\Users\austc\AppData\Local\Temp\ccAwGtxE.s 			page 50


 1977 005a FFF7FEFF 		bl	Test_LED_Write
 1978              	.LVL144:
 149:main.c        ****     #endif
 1979              		.loc 1 149 0
 1980 005e 0120     		movs	r0, #1
 1981 0060 FFF7FEFF 		bl	Error_Write
 1982              	.LVL145:
 1983              	.L108:
 154:main.c        **** 
 1984              		.loc 1 154 0
 1985 0064 544B     		ldr	r3, .L121+24
 1986 0066 1B7B     		ldrb	r3, [r3, #12]
 1987 0068 002B     		cmp	r3, #0
 1988 006a FBD1     		bne	.L108
 163:main.c        ****                     if(mode == 0) {
 1989              		.loc 1 163 0
 1990 006c 534B     		ldr	r3, .L121+28
 1991 006e 5979     		ldrb	r1, [r3, #5]
 1992 0070 0029     		cmp	r1, #0
 1993 0072 34D1     		bne	.L109
 164:main.c        ****                         if(uart_debug) {
 1994              		.loc 1 164 0
 1995 0074 524B     		ldr	r3, .L121+32
 1996 0076 9A7A     		ldrb	r2, [r3, #10]
 1997 0078 002A     		cmp	r2, #0
 1998 007a 1FD1     		bne	.L110
 165:main.c        ****                             sprintf(txData, "B1: %d, B2: %d done %x\r\n",Can_rx_pwm.b1, Can_rx_pwm.
 1999              		.loc 1 165 0
 2000 007c 1B78     		ldrb	r3, [r3]
 2001 007e 002B     		cmp	r3, #0
 2002 0080 0BD0     		beq	.L111
 166:main.c        ****                             UART_UartPutString(txData);
 2003              		.loc 1 166 0
 2004 0082 4E4B     		ldr	r3, .L121+28
 2005 0084 5A78     		ldrb	r2, [r3, #1]
 2006 0086 9B78     		ldrb	r3, [r3, #2]
 2007 0088 4E4C     		ldr	r4, .L121+36
 2008 008a 0091     		str	r1, [sp]
 2009 008c 4E49     		ldr	r1, .L121+40
 2010 008e 2000     		movs	r0, r4
 2011 0090 FFF7FEFF 		bl	sprintf
 2012              	.LVL146:
 167:main.c        ****                         }
 2013              		.loc 1 167 0
 2014 0094 2000     		movs	r0, r4
 2015 0096 FFF7FEFF 		bl	UART_UartPutString
 2016              	.LVL147:
 2017              	.L111:
 169:main.c        ****                         if(Can_rx_pwm.b2 & 0b01) {
 2018              		.loc 1 169 0
 2019 009a 484B     		ldr	r3, .L121+28
 2020 009c 0122     		movs	r2, #1
 2021 009e 5A71     		strb	r2, [r3, #5]
 170:main.c        ****                             set_PWM((int)Can_rx_pwm.b1);
 2022              		.loc 1 170 0
 2023 00a0 9B78     		ldrb	r3, [r3, #2]
 2024 00a2 DB07     		lsls	r3, r3, #31
ARM GAS  C:\Users\austc\AppData\Local\Temp\ccAwGtxE.s 			page 51


 2025 00a4 04D5     		bpl	.L112
 171:main.c        ****                         }
 2026              		.loc 1 171 0
 2027 00a6 454B     		ldr	r3, .L121+28
 2028 00a8 5878     		ldrb	r0, [r3, #1]
 2029 00aa FFF7FEFF 		bl	set_PWM
 2030              	.LVL148:
 2031 00ae 16E0     		b	.L109
 2032              	.L112:
 174:main.c        ****                         }
 2033              		.loc 1 174 0
 2034 00b0 424B     		ldr	r3, .L121+28
 2035 00b2 5878     		ldrb	r0, [r3, #1]
 2036 00b4 4042     		rsbs	r0, r0, #0
 2037 00b6 FFF7FEFF 		bl	set_PWM
 2038              	.LVL149:
 2039 00ba 10E0     		b	.L109
 2040              	.L110:
 177:main.c        ****                         command_failed.param = 0x02;
 2041              		.loc 1 177 0
 2042 00bc 394B     		ldr	r3, .L121+4
 2043 00be 0021     		movs	r1, #0
 2044 00c0 9970     		strb	r1, [r3, #2]
 178:main.c        ****                         if(uart_debug) {
 2045              		.loc 1 178 0
 2046 00c2 0231     		adds	r1, r1, #2
 2047 00c4 5970     		strb	r1, [r3, #1]
 179:main.c        ****                             sprintf(txData, "Mode is not set to 0, mode is %d\r\n",mode);
 2048              		.loc 1 179 0
 2049 00c6 3E4B     		ldr	r3, .L121+32
 2050 00c8 1B78     		ldrb	r3, [r3]
 2051 00ca 002B     		cmp	r3, #0
 2052 00cc 07D0     		beq	.L109
 180:main.c        ****                             UART_UartPutString(txData);
 2053              		.loc 1 180 0
 2054 00ce 3D4C     		ldr	r4, .L121+36
 2055 00d0 3E49     		ldr	r1, .L121+44
 2056 00d2 2000     		movs	r0, r4
 2057 00d4 FFF7FEFF 		bl	sprintf
 2058              	.LVL150:
 181:main.c        ****                         }
 2059              		.loc 1 181 0
 2060 00d8 2000     		movs	r0, r4
 2061 00da FFF7FEFF 		bl	UART_UartPutString
 2062              	.LVL151:
 2063              	.L109:
 188:main.c        ****                         if(uart_debug) {
 2064              		.loc 1 188 0
 2065 00de 384B     		ldr	r3, .L121+32
 2066 00e0 9A7A     		ldrb	r2, [r3, #10]
 2067 00e2 012A     		cmp	r2, #1
 2068 00e4 20D1     		bne	.L113
 189:main.c        ****                             sprintf(txData, "B1: %d, B3: %d done %x\r\n",Can_rx_angle.b1, Can_rx_an
 2069              		.loc 1 189 0
 2070 00e6 1B78     		ldrb	r3, [r3]
 2071 00e8 002B     		cmp	r3, #0
 2072 00ea 0DD0     		beq	.L114
ARM GAS  C:\Users\austc\AppData\Local\Temp\ccAwGtxE.s 			page 52


 190:main.c        ****                             UART_UartPutString(txData);
 2073              		.loc 1 190 0
 2074 00ec 384B     		ldr	r3, .L121+48
 2075 00ee 5A78     		ldrb	r2, [r3, #1]
 2076 00f0 DB78     		ldrb	r3, [r3, #3]
 2077 00f2 3249     		ldr	r1, .L121+28
 2078 00f4 4979     		ldrb	r1, [r1, #5]
 2079 00f6 334C     		ldr	r4, .L121+36
 2080 00f8 0091     		str	r1, [sp]
 2081 00fa 3649     		ldr	r1, .L121+52
 2082 00fc 2000     		movs	r0, r4
 2083 00fe FFF7FEFF 		bl	sprintf
 2084              	.LVL152:
 191:main.c        ****                         }
 2085              		.loc 1 191 0
 2086 0102 2000     		movs	r0, r4
 2087 0104 FFF7FEFF 		bl	UART_UartPutString
 2088              	.LVL153:
 2089              	.L114:
 194:main.c        ****                         maxV = Can_rx_angle.b3;
 2090              		.loc 1 194 0
 2091 0108 2B4A     		ldr	r2, .L121+24
 2092 010a 0021     		movs	r1, #0
 2093 010c 1172     		strb	r1, [r2, #8]
 195:main.c        ****                         i = 0;
 2094              		.loc 1 195 0
 2095 010e 304B     		ldr	r3, .L121+48
 2096 0110 D878     		ldrb	r0, [r3, #3]
 2097 0112 1077     		strb	r0, [r2, #28]
 196:main.c        ****                         
 2098              		.loc 1 196 0
 2099 0114 5160     		str	r1, [r2, #4]
 200:main.c        ****                         set_Position(final_angle);
 2100              		.loc 1 200 0
 2101 0116 9878     		ldrb	r0, [r3, #2]
 2102 0118 0002     		lsls	r0, r0, #8
 2103 011a 5B78     		ldrb	r3, [r3, #1]
 2104 011c 1843     		orrs	r0, r3
 2105 011e 00B2     		sxth	r0, r0
 2106 0120 5080     		strh	r0, [r2, #2]
 201:main.c        ****                     }
 2107              		.loc 1 201 0
 2108 0122 FFF7FEFF 		bl	set_Position
 2109              	.LVL154:
 2110 0126 14E0     		b	.L115
 2111              	.L113:
 203:main.c        ****                         command_failed.done = 0;
 2112              		.loc 1 203 0
 2113 0128 244B     		ldr	r3, .L121+28
 2114 012a 5B79     		ldrb	r3, [r3, #5]
 2115 012c 002B     		cmp	r3, #0
 2116 012e 10D1     		bne	.L115
 204:main.c        ****                         command_failed.param = 0x04;
 2117              		.loc 1 204 0
 2118 0130 1C4B     		ldr	r3, .L121+4
 2119 0132 0021     		movs	r1, #0
 2120 0134 9970     		strb	r1, [r3, #2]
ARM GAS  C:\Users\austc\AppData\Local\Temp\ccAwGtxE.s 			page 53


 205:main.c        ****                         if(uart_debug) {
 2121              		.loc 1 205 0
 2122 0136 0431     		adds	r1, r1, #4
 2123 0138 5970     		strb	r1, [r3, #1]
 206:main.c        ****                             sprintf(txData, "Mode is not set to 1, mode is %d\r\n", mode);
 2124              		.loc 1 206 0
 2125 013a 214B     		ldr	r3, .L121+32
 2126 013c 1B78     		ldrb	r3, [r3]
 2127 013e 002B     		cmp	r3, #0
 2128 0140 07D0     		beq	.L115
 207:main.c        ****                             UART_UartPutString(txData);
 2129              		.loc 1 207 0
 2130 0142 204C     		ldr	r4, .L121+36
 2131 0144 2449     		ldr	r1, .L121+56
 2132 0146 2000     		movs	r0, r4
 2133 0148 FFF7FEFF 		bl	sprintf
 2134              	.LVL155:
 208:main.c        ****                         }
 2135              		.loc 1 208 0
 2136 014c 2000     		movs	r0, r4
 2137 014e FFF7FEFF 		bl	UART_UartPutString
 2138              	.LVL156:
 2139              	.L115:
 213:main.c        ****                     Can_rx_angle.done = 1;
 2140              		.loc 1 213 0
 2141 0152 1B4B     		ldr	r3, .L121+32
 2142 0154 9B7A     		ldrb	r3, [r3, #10]
 2143 0156 012B     		cmp	r3, #1
 2144 0158 04D9     		bls	.L116
 214:main.c        ****                     Can_rx_pwm.done = 1;
 2145              		.loc 1 214 0
 2146 015a 0123     		movs	r3, #1
 2147 015c 1C4A     		ldr	r2, .L121+48
 2148 015e 5371     		strb	r3, [r2, #5]
 215:main.c        ****                 }
 2149              		.loc 1 215 0
 2150 0160 164A     		ldr	r2, .L121+28
 2151 0162 5371     		strb	r3, [r2, #5]
 2152              	.L116:
 239:main.c        ****                 if(uart_debug) {
 2153              		.loc 1 239 0
 2154 0164 164B     		ldr	r3, .L121+32
 2155 0166 5B78     		ldrb	r3, [r3, #1]
 2156 0168 002B     		cmp	r3, #0
 2157 016a 0DD0     		beq	.L117
 240:main.c        ****                     sprintf(txData,"\nSending Data... \r\n");
 2158              		.loc 1 240 0
 2159 016c 144B     		ldr	r3, .L121+32
 2160 016e 1B78     		ldrb	r3, [r3]
 2161 0170 002B     		cmp	r3, #0
 2162 0172 04D0     		beq	.L118
 241:main.c        ****                    // UART_UartPutString(txData);
 2163              		.loc 1 241 0
 2164 0174 1422     		movs	r2, #20
 2165 0176 1949     		ldr	r1, .L121+60
 2166 0178 1248     		ldr	r0, .L121+36
 2167 017a FFF7FEFF 		bl	memcpy
ARM GAS  C:\Users\austc\AppData\Local\Temp\ccAwGtxE.s 			page 54


 2168              	.LVL157:
 2169              	.L118:
 244:main.c        ****                 send_data = 0;
 2170              		.loc 1 244 0
 2171 017e FFF7FEFF 		bl	CAN_Send_Encoder
 2172              	.LVL158:
 245:main.c        ****             }
 2173              		.loc 1 245 0
 2174 0182 0022     		movs	r2, #0
 2175 0184 0E4B     		ldr	r3, .L121+32
 2176 0186 5A70     		strb	r2, [r3, #1]
 2177              	.L117:
 249:main.c        ****                 CAN_Send_Model();
 2178              		.loc 1 249 0
 2179 0188 0B4B     		ldr	r3, .L121+24
 2180 018a 5B7A     		ldrb	r3, [r3, #9]
 2181 018c 002B     		cmp	r3, #0
 2182 018e 00D1     		bne	.LCB1907
 2183 0190 68E7     		b	.L108	@long jump
 2184              	.LCB1907:
 250:main.c        ****                 model_req = 0;
 2185              		.loc 1 250 0
 2186 0192 FFF7FEFF 		bl	CAN_Send_Model
 2187              	.LVL159:
 251:main.c        ****             }
 2188              		.loc 1 251 0
 2189 0196 0022     		movs	r2, #0
 2190 0198 074B     		ldr	r3, .L121+24
 2191 019a 5A72     		strb	r2, [r3, #9]
 2192 019c 62E7     		b	.L108
 2193              	.L122:
 2194 019e C046     		.align	2
 2195              	.L121:
 2196 01a0 00000000 		.word	stall
 2197 01a4 00000000 		.word	command_failed
 2198 01a8 00000000 		.word	invalid_arg
 2199 01ac 00000000 		.word	message
 2200 01b0 00000000 		.word	data
 2201 01b4 00000000 		.word	pwm_compare
 2202 01b8 00000000 		.word	.LANCHOR1
 2203 01bc 00000000 		.word	Can_rx_pwm
 2204 01c0 00000000 		.word	.LANCHOR0
 2205 01c4 00000000 		.word	txData
 2206 01c8 14020000 		.word	.LC107
 2207 01cc 30020000 		.word	.LC110
 2208 01d0 00000000 		.word	Can_rx_angle
 2209 01d4 54020000 		.word	.LC113
 2210 01d8 70020000 		.word	.LC115
 2211 01dc 94020000 		.word	.LC117
 2212              		.cfi_endproc
 2213              	.LFE37:
 2214              		.size	main, .-main
 2215              		.global	drive
 2216              		.comm	message,16,4
 2217              		.comm	data,8,4
 2218              		.comm	txData,100,4
 2219              		.global	emergency
ARM GAS  C:\Users\austc\AppData\Local\Temp\ccAwGtxE.s 			page 55


 2220              		.global	mailbox
 2221              		.comm	invalid_arg,3,4
 2222              		.comm	command_failed,3,4
 2223              		.comm	stall,3,4
 2224              		.comm	Can_rx_angle,6,4
 2225              		.comm	Can_rx_pwm,6,4
 2226              		.global	disable_limit
 2227              		.global	model_req
 2228              		.global	send_data
 2229              		.global	mode
 2230              		.global	maxV
 2231              		.global	complete
 2232              		.comm	ratio,8,8
 2233              		.comm	kd,4,4
 2234              		.comm	ki,4,4
 2235              		.comm	kp,4,4
 2236              		.global	lastp
 2237              		.global	i
 2238              		.global	final_angle
 2239              		.global	flipEncoder
 2240              		.global	invalidate
 2241              		.comm	pwm_compare,4,4
 2242              		.comm	GEAR_RATIO,4,4
 2243              		.global	uart_debug
 2244              		.comm	CAN_TIMEOUT,4,4
 2245              		.global	CAN_RX_MAILBOX_0
 2246              		.global	CAN_RX_MAILBOX_1
 2247              		.global	CAN_RX_MAILBOX_0_SHIFT
 2248              		.global	CAN_RX_MAILBOX_1_SHIFT
 2249              		.global	message_id
 2250              		.global	time_LED
 2251              		.data
 2252              		.align	2
 2253              		.set	.LANCHOR0,. + 0
 2254              		.type	uart_debug, %object
 2255              		.size	uart_debug, 1
 2256              	uart_debug:
 2257 0000 02       		.byte	2
 2258              		.type	send_data, %object
 2259              		.size	send_data, 1
 2260              	send_data:
 2261 0001 01       		.byte	1
 2262 0002 0000     		.space	2
 2263              		.type	CAN_RX_MAILBOX_0_SHIFT, %object
 2264              		.size	CAN_RX_MAILBOX_0_SHIFT, 4
 2265              	CAN_RX_MAILBOX_0_SHIFT:
 2266 0004 80000000 		.word	128
 2267              		.type	CAN_RX_MAILBOX_0, %object
 2268              		.size	CAN_RX_MAILBOX_0, 2
 2269              	CAN_RX_MAILBOX_0:
 2270 0008 0700     		.short	7
 2271              		.type	mode, %object
 2272              		.size	mode, 1
 2273              	mode:
 2274 000a 02       		.byte	2
 2275              		.type	flipEncoder, %object
 2276              		.size	flipEncoder, 1
ARM GAS  C:\Users\austc\AppData\Local\Temp\ccAwGtxE.s 			page 56


 2277              	flipEncoder:
 2278 000b 01       		.byte	1
 2279              		.type	CAN_RX_MAILBOX_1_SHIFT, %object
 2280              		.size	CAN_RX_MAILBOX_1_SHIFT, 2
 2281              	CAN_RX_MAILBOX_1_SHIFT:
 2282 000c 0100     		.short	1
 2283              		.section	.rodata.str1.4,"aMS",%progbits,1
 2284              		.align	2
 2285              	.LC1:
 2286 0000 50657269 		.ascii	"Period interupt triggerd %x\015\012\000"
 2286      6F642069 
 2286      6E746572 
 2286      75707420 
 2286      74726967 
 2287 001e 0000     		.space	2
 2288              	.LC8:
 2289 0020 4C696D69 		.ascii	"Limit interupt triggerd\015\012\000"
 2289      7420696E 
 2289      74657275 
 2289      70742074 
 2289      72696767 
 2290 003a 0000     		.space	2
 2291              	.LC12:
 2292 003c 0A204361 		.ascii	"\012 Can rx triggered\012\000"
 2292      6E207278 
 2292      20747269 
 2292      67676572 
 2292      65640A00 
 2293              	.LC14:
 2294 0050 50302072 		.ascii	"P0 recieved\012\000"
 2294      65636965 
 2294      7665640A 
 2294      00
 2295 005d 000000   		.space	3
 2296              	.LC20:
 2297 0060 50312072 		.ascii	"P1 recieved\012\012\000"
 2297      65636965 
 2297      7665640A 
 2297      0A00
 2298 006e 0000     		.space	2
 2299              	.LC27:
 2300 0070 43414E5F 		.ascii	"CAN_Start():  %u\015\012\000"
 2300      53746172 
 2300      7428293A 
 2300      20202575 
 2300      0D0A00
 2301 0083 00       		.space	1
 2302              	.LC39:
 2303 0084 43414E20 		.ascii	"CAN dip setting:  %x Message ID: %ld\015\012\000"
 2303      64697020 
 2303      73657474 
 2303      696E673A 
 2303      20202578 
 2304 00ab 00       		.space	1
 2305              	.LC42:
 2306 00ac 43616E20 		.ascii	"Can shift: %d   P0Mailbox: %d P1Mailbox %d\015\012\000"
 2306      73686966 
ARM GAS  C:\Users\austc\AppData\Local\Temp\ccAwGtxE.s 			page 57


 2306      743A2025 
 2306      64202020 
 2306      50304D61 
 2307 00d9 000000   		.space	3
 2308              	.LC44:
 2309 00dc 64697361 		.ascii	"disable_limit: %d\015\012\000"
 2309      626C655F 
 2309      6C696D69 
 2309      743A2025 
 2309      640D0A00 
 2310              	.LC50:
 2311 00f0 43414E5F 		.ascii	"CAN_Send_Encoder: byte[0u] %x byte[1u] %x byte[2u] "
 2311      53656E64 
 2311      5F456E63 
 2311      6F646572 
 2311      3A206279 
 2312 0123 25782051 		.ascii	"%x QuadDec Count %d\015\012\000"
 2312      75616444 
 2312      65632043 
 2312      6F756E74 
 2312      2025640D 
 2313 0139 000000   		.space	3
 2314              	.LC56:
 2315 013c 54656C65 		.ascii	"Telemerty: byte[0u] %x byte[1u] %x\015\012\000"
 2315      6D657274 
 2315      793A2062 
 2315      7974655B 
 2315      30755D20 
 2316 0161 000000   		.space	3
 2317              	.LC62:
 2318 0164 4D6F6465 		.ascii	"Model: byte[0u] %x byte[1u] %x\015\012\000"
 2318      6C3A2062 
 2318      7974655B 
 2318      30755D20 
 2318      25782062 
 2319 0185 000000   		.space	3
 2320              	.LC68:
 2321 0188 4572726F 		.ascii	"Error: byte[0u] %x byte[1u] %x byte[2u] %x\015\012\000"
 2321      723A2062 
 2321      7974655B 
 2321      30755D20 
 2321      25782062 
 2322 01b5 000000   		.space	3
 2323              	.LC78:
 2324 01b8 64656772 		.ascii	"degree: %d ticks: %d\015\012\000"
 2324      65653A20 
 2324      25642074 
 2324      69636B73 
 2324      3A202564 
 2325 01cf 00       		.space	1
 2326              	.LC82:
 2327 01d0 703A2025 		.ascii	"p: %d\015\012\000"
 2327      640D0A00 
 2328              	.LC86:
 2329 01d8 703A2025 		.ascii	"p: %d, i: %d d %d current %d\015\012\000"
 2329      642C2069 
 2329      3A202564 
ARM GAS  C:\Users\austc\AppData\Local\Temp\ccAwGtxE.s 			page 58


 2329      20642025 
 2329      64206375 
 2330 01f7 00       		.space	1
 2331              	.LC93:
 2332 01f8 636F6D70 		.ascii	"complete: %d\015\012\000"
 2332      6C657465 
 2332      3A202564 
 2332      0D0A00
 2333 0207 00       		.space	1
 2334              	.LC96:
 2335 0208 50574D3A 		.ascii	"PWM: %d\015\012\000"
 2335      2025640D 
 2335      0A00
 2336 0212 0000     		.space	2
 2337              	.LC107:
 2338 0214 42313A20 		.ascii	"B1: %d, B2: %d done %x\015\012\000"
 2338      25642C20 
 2338      42323A20 
 2338      25642064 
 2338      6F6E6520 
 2339 022d 000000   		.space	3
 2340              	.LC110:
 2341 0230 4D6F6465 		.ascii	"Mode is not set to 0, mode is %d\015\012\000"
 2341      20697320 
 2341      6E6F7420 
 2341      73657420 
 2341      746F2030 
 2342 0253 00       		.space	1
 2343              	.LC113:
 2344 0254 42313A20 		.ascii	"B1: %d, B3: %d done %x\015\012\000"
 2344      25642C20 
 2344      42333A20 
 2344      25642064 
 2344      6F6E6520 
 2345 026d 000000   		.space	3
 2346              	.LC115:
 2347 0270 4D6F6465 		.ascii	"Mode is not set to 1, mode is %d\015\012\000"
 2347      20697320 
 2347      6E6F7420 
 2347      73657420 
 2347      746F2031 
 2348 0293 00       		.space	1
 2349              	.LC117:
 2350 0294 0A53656E 		.ascii	"\012Sending Data... \015\012\000"
 2350      64696E67 
 2350      20446174 
 2350      612E2E2E 
 2350      200D0A00 
 2351              		.bss
 2352              		.align	2
 2353              		.set	.LANCHOR1,. + 0
 2354              		.type	invalidate, %object
 2355              		.size	invalidate, 1
 2356              	invalidate:
 2357 0000 00       		.space	1
 2358              		.type	time_LED, %object
 2359              		.size	time_LED, 1
ARM GAS  C:\Users\austc\AppData\Local\Temp\ccAwGtxE.s 			page 59


 2360              	time_LED:
 2361 0001 00       		.space	1
 2362              		.type	final_angle, %object
 2363              		.size	final_angle, 2
 2364              	final_angle:
 2365 0002 0000     		.space	2
 2366              		.type	i, %object
 2367              		.size	i, 4
 2368              	i:
 2369 0004 00000000 		.space	4
 2370              		.type	complete, %object
 2371              		.size	complete, 1
 2372              	complete:
 2373 0008 00       		.space	1
 2374              		.type	model_req, %object
 2375              		.size	model_req, 1
 2376              	model_req:
 2377 0009 00       		.space	1
 2378              		.type	CAN_RX_MAILBOX_1, %object
 2379              		.size	CAN_RX_MAILBOX_1, 2
 2380              	CAN_RX_MAILBOX_1:
 2381 000a 0000     		.space	2
 2382              		.type	emergency, %object
 2383              		.size	emergency, 1
 2384              	emergency:
 2385 000c 00       		.space	1
 2386 000d 000000   		.space	3
 2387              		.type	message_id, %object
 2388              		.size	message_id, 4
 2389              	message_id:
 2390 0010 00000000 		.space	4
 2391              		.type	disable_limit, %object
 2392              		.size	disable_limit, 1
 2393              	disable_limit:
 2394 0014 00       		.space	1
 2395 0015 000000   		.space	3
 2396              		.type	lastp, %object
 2397              		.size	lastp, 4
 2398              	lastp:
 2399 0018 00000000 		.space	4
 2400              		.type	maxV, %object
 2401              		.size	maxV, 1
 2402              	maxV:
 2403 001c 00       		.space	1
 2404              		.type	drive, %object
 2405              		.size	drive, 1
 2406              	drive:
 2407 001d 00       		.space	1
 2408 001e 0000     		.space	2
 2409              		.type	mailbox, %object
 2410              		.size	mailbox, 4
 2411              	mailbox:
 2412 0020 00000000 		.space	4
 2413              		.text
 2414              	.Letext0:
 2415              		.file 2 "c:\\program files (x86)\\cypress\\psoc creator\\4.2\\psoc creator\\import\\gnu\\arm\\5.4.
 2416              		.file 3 "c:\\program files (x86)\\cypress\\psoc creator\\4.2\\psoc creator\\import\\gnu\\arm\\5.4.
ARM GAS  C:\Users\austc\AppData\Local\Temp\ccAwGtxE.s 			page 60


 2417              		.file 4 "Generated_Source\\PSoC4/cytypes.h"
 2418              		.file 5 "./cyapicallbacks.h"
 2419              		.file 6 "Generated_Source\\PSoC4/CAN.h"
 2420              		.file 7 "Generated_Source\\PSoC4/Timer_1.h"
 2421              		.file 8 "c:\\program files (x86)\\cypress\\psoc creator\\4.2\\psoc creator\\import\\gnu\\arm\\5.4.
 2422              		.file 9 "Generated_Source\\PSoC4/Test_LED.h"
 2423              		.file 10 "Generated_Source\\PSoC4/UART_SPI_UART.h"
 2424              		.file 11 "Generated_Source\\PSoC4/QuadDec.h"
 2425              		.file 12 "Generated_Source\\PSoC4/PWM_Motor.h"
 2426              		.file 13 "Generated_Source\\PSoC4/Status_Reg_Switches.h"
 2427              		.file 14 "Generated_Source\\PSoC4/CyLib.h"
 2428              		.file 15 "Generated_Source\\PSoC4/isr_Limit_1.h"
 2429              		.file 16 "Generated_Source\\PSoC4/isr_period.h"
 2430              		.file 17 "Generated_Source\\PSoC4/UART.h"
 2431              		.file 18 "Generated_Source\\PSoC4/Can_addr.h"
 2432              		.file 19 "Generated_Source\\PSoC4/Error.h"