ARM GAS  C:\Users\austc\AppData\Local\Temp\ccAwGtxE.s 			page 1


   1              		.syntax unified
   2              		.cpu cortex-m0
   3              		.fpu softvfp
   4              		.eabi_attribute 20, 1
   5              		.eabi_attribute 21, 1
   6              		.eabi_attribute 23, 3
   7              		.eabi_attribute 24, 1
   8              		.eabi_attribute 25, 1
   9              		.eabi_attribute 26, 1
  10              		.eabi_attribute 30, 1
  11              		.eabi_attribute 34, 0
  12              		.eabi_attribute 18, 4
  13              		.thumb
  14              		.syntax unified
  15              		.file	"main.c"
  16              		.text
  17              	.Ltext0:
  18              		.cfi_sections	.debug_frame
  19              		.section	.text.Period_Reset_Handler,"ax",%progbits
  20              		.align	2
  21              		.global	Period_Reset_Handler
  22              		.code	16
  23              		.thumb_func
  24              		.type	Period_Reset_Handler, %function
  25              	Period_Reset_Handler:
  26              	.LFB35:
  27              		.file 1 "main.c"
   1:main.c        **** /* ========================================
   2:main.c        ****  *
   3:main.c        ****  * Copyright YOUR COMPANY, THE YEAR
   4:main.c        ****  * All Rights Reserved
   5:main.c        ****  * UNPUBLISHED, LICENSED SOFTWARE.
   6:main.c        ****  *
   7:main.c        ****  * CONFIDENTIAL AND PROPRIETARY INFORMATION
   8:main.c        ****  * WHICH IS THE PROPERTY OF your company.
   9:main.c        ****  *
  10:main.c        ****  * ========================================
  11:main.c        **** */
  12:main.c        **** #include <project.h>
  13:main.c        **** #include "cyapicallbacks.h"
  14:main.c        **** #include <stdio.h>
  15:main.c        **** 
  16:main.c        **** #define REV2
  17:main.c        **** #define LED_ON   (0u)
  18:main.c        **** #define LED_OFF  (1u)
  19:main.c        **** 
  20:main.c        **** //LED
  21:main.c        **** uint8 time_LED = 0;
  22:main.c        **** 
  23:main.c        **** //CAN variables
  24:main.c        **** uint32 message_id = 0;
  25:main.c        **** #define MESSAGE_IDE             (0u)    /* Standard message */
  26:main.c        **** #define MESSAGE_IRQ             (0u)    /* No transmit IRQ */
  27:main.c        **** #define MESSAGE_RTR             (0u)    /* No RTR */
  28:main.c        **** uint16 CAN_RX_MAILBOX_1_SHIFT  = 0b1;
  29:main.c        **** uint32 CAN_RX_MAILBOX_0_SHIFT  = 0b10000000;
  30:main.c        **** uint16 CAN_RX_MAILBOX_1 = 0u;
ARM GAS  C:\Users\austc\AppData\Local\Temp\ccAwGtxE.s 			page 2


  31:main.c        **** uint16 CAN_RX_MAILBOX_0 = 7u;
  32:main.c        **** int CAN_TIMEOUT;
  33:main.c        **** 
  34:main.c        **** CY_ISR_PROTO(ISR_CAN);
  35:main.c        **** 
  36:main.c        **** //Uart variables
  37:main.c        **** volatile uint8 uart_debug = 2;
  38:main.c        **** #define PWM_PERIOD = 255;
  39:main.c        **** 
  40:main.c        **** 
  41:main.c        **** //drive varaible
  42:main.c        **** int GEAR_RATIO;
  43:main.c        **** int pwm_compare;
  44:main.c        **** uint8 invalidate = 0;
  45:main.c        **** 
  46:main.c        **** //PID varaibles
  47:main.c        **** int8 flipEncoder = 1;
  48:main.c        **** int16 final_angle = 0;
  49:main.c        **** int i = 0;
  50:main.c        **** int lastp = 0;
  51:main.c        **** int kp;
  52:main.c        **** int ki;
  53:main.c        **** int kd;
  54:main.c        **** double ratio;
  55:main.c        **** uint8 complete = 0;
  56:main.c        **** uint8 maxV = 0;
  57:main.c        **** 
  58:main.c        **** //drive mode
  59:main.c        **** uint8 mode = 2;
  60:main.c        **** 
  61:main.c        **** //flags
  62:main.c        **** uint8 send_data = 1;
  63:main.c        **** uint8 model_req = 0;
  64:main.c        **** uint8 disable_limit = 0;
  65:main.c        **** 
  66:main.c        **** //Status and Data Structs
  67:main.c        **** struct Can_data Can_rx_pwm, Can_rx_angle;
  68:main.c        **** struct Error stall;
  69:main.c        **** struct Error command_failed;
  70:main.c        **** struct Error invalid_arg;
  71:main.c        **** 
  72:main.c        **** 
  73:main.c        **** int mailbox = 0x000;
  74:main.c        **** uint8 emergency = 0;
  75:main.c        **** char8 txData[TX_DATA_SIZE];
  76:main.c        **** /* Global variables used to store configuration and data for BASIC CAN mailbox */
  77:main.c        **** CAN_DATA_BYTES_MSG data;
  78:main.c        **** CAN_TX_MSG message;
  79:main.c        **** 
  80:main.c        **** volatile uint8 drive = 0;
  81:main.c        **** 
  82:main.c        **** 
  83:main.c        **** CY_ISR(Period_Reset_Handler) {
  28              		.loc 1 83 0
  29              		.cfi_startproc
  30              		@ args = 0, pretend = 0, frame = 0
  31              		@ frame_needed = 0, uses_anonymous_args = 0
ARM GAS  C:\Users\austc\AppData\Local\Temp\ccAwGtxE.s 			page 3


  32 0000 10B5     		push	{r4, lr}
  33              		.cfi_def_cfa_offset 8
  34              		.cfi_offset 4, -8
  35              		.cfi_offset 14, -4
  84:main.c        ****     int timer = Timer_1_ReadStatusRegister();
  36              		.loc 1 84 0
  37 0002 FFF7FEFF 		bl	Timer_1_ReadStatusRegister
  38              	.LVL0:
  85:main.c        ****     if(uart_debug) {
  39              		.loc 1 85 0
  40 0006 124B     		ldr	r3, .L5
  41 0008 1B78     		ldrb	r3, [r3]
  42 000a 002B     		cmp	r3, #0
  43 000c 04D0     		beq	.L2
  86:main.c        ****         sprintf(txData,"Period interupt triggerd %x\r\n", timer);
  44              		.loc 1 86 0
  45 000e 0200     		movs	r2, r0
  46 0010 1049     		ldr	r1, .L5+4
  47 0012 1148     		ldr	r0, .L5+8
  48              	.LVL1:
  49 0014 FFF7FEFF 		bl	sprintf
  50              	.LVL2:
  51              	.L2:
  87:main.c        ****         //UART_UartPutString(txData);
  88:main.c        ****     }
  89:main.c        ****     send_data = 1;
  52              		.loc 1 89 0
  53 0018 0122     		movs	r2, #1
  54 001a 0D4B     		ldr	r3, .L5
  55 001c 5A70     		strb	r2, [r3, #1]
  90:main.c        ****     invalidate++;
  56              		.loc 1 90 0
  57 001e 0F4A     		ldr	r2, .L5+12
  58 0020 1378     		ldrb	r3, [r2]
  59 0022 0133     		adds	r3, r3, #1
  60 0024 DBB2     		uxtb	r3, r3
  61 0026 1370     		strb	r3, [r2]
  91:main.c        ****     time_LED++;
  62              		.loc 1 91 0
  63 0028 5178     		ldrb	r1, [r2, #1]
  64 002a 0131     		adds	r1, r1, #1
  65 002c 5170     		strb	r1, [r2, #1]
  92:main.c        ****     if(invalidate >= 20){
  66              		.loc 1 92 0
  67 002e 132B     		cmp	r3, #19
  68 0030 05D9     		bls	.L3
  69              	.LBB2:
  93:main.c        ****         set_PWM(0);   
  70              		.loc 1 93 0
  71 0032 0020     		movs	r0, #0
  72 0034 FFF7FEFF 		bl	set_PWM
  73              	.LVL3:
  94:main.c        ****         Can_rx_pwm.done = 1;
  74              		.loc 1 94 0
  75 0038 0122     		movs	r2, #1
  76 003a 094B     		ldr	r3, .L5+16
  77 003c 5A71     		strb	r2, [r3, #5]
ARM GAS  C:\Users\austc\AppData\Local\Temp\ccAwGtxE.s 			page 4


  78              	.L3:
  79              	.LBE2:
  95:main.c        ****     }
  96:main.c        ****     
  97:main.c        ****     #ifdef REV2
  98:main.c        ****         if(time_LED >= 5){
  80              		.loc 1 98 0
  81 003e 074B     		ldr	r3, .L5+12
  82 0040 5B78     		ldrb	r3, [r3, #1]
  83 0042 042B     		cmp	r3, #4
  84 0044 02D9     		bls	.L1
  99:main.c        ****             Test_LED_Write(LED_OFF);
  85              		.loc 1 99 0
  86 0046 0120     		movs	r0, #1
  87 0048 FFF7FEFF 		bl	Test_LED_Write
  88              	.LVL4:
  89              	.L1:
 100:main.c        ****             
 101:main.c        ****             
 102:main.c        ****         }
 103:main.c        ****     #endif
 104:main.c        **** }
  90              		.loc 1 104 0
  91              		@ sp needed
  92 004c 10BD     		pop	{r4, pc}
  93              	.L6:
  94 004e C046     		.align	2
  95              	.L5:
  96 0050 00000000 		.word	.LANCHOR0
  97 0054 00000000 		.word	.LC1
  98 0058 00000000 		.word	txData
  99 005c 00000000 		.word	.LANCHOR1
 100 0060 00000000 		.word	Can_rx_pwm
 101              		.cfi_endproc
 102              	.LFE35:
 103              		.size	Period_Reset_Handler, .-Period_Reset_Handler
 104              		.section	.text.Pin_Limit_Handler,"ax",%progbits
 105              		.align	2
 106              		.global	Pin_Limit_Handler
 107              		.code	16
 108              		.thumb_func
 109              		.type	Pin_Limit_Handler, %function
 110              	Pin_Limit_Handler:
 111              	.LFB36:
 105:main.c        ****   
 106:main.c        **** CY_ISR(Pin_Limit_Handler){
 112              		.loc 1 106 0
 113              		.cfi_startproc
 114              		@ args = 0, pretend = 0, frame = 0
 115              		@ frame_needed = 0, uses_anonymous_args = 0
 116 0000 10B5     		push	{r4, lr}
 117              		.cfi_def_cfa_offset 8
 118              		.cfi_offset 4, -8
 119              		.cfi_offset 14, -4
 107:main.c        ****     if(uart_debug) {
 120              		.loc 1 107 0
 121 0002 0A4B     		ldr	r3, .L9
ARM GAS  C:\Users\austc\AppData\Local\Temp\ccAwGtxE.s 			page 5


 122 0004 1B78     		ldrb	r3, [r3]
 123 0006 002B     		cmp	r3, #0
 124 0008 08D0     		beq	.L8
 108:main.c        ****         sprintf(txData,"Limit interupt triggerd\r\n");
 125              		.loc 1 108 0
 126 000a 094C     		ldr	r4, .L9+4
 127 000c 1A22     		movs	r2, #26
 128 000e 0949     		ldr	r1, .L9+8
 129 0010 2000     		movs	r0, r4
 130 0012 FFF7FEFF 		bl	memcpy
 131              	.LVL5:
 109:main.c        ****         UART_UartPutString(txData);
 132              		.loc 1 109 0
 133 0016 2000     		movs	r0, r4
 134 0018 FFF7FEFF 		bl	UART_UartPutString
 135              	.LVL6:
 136              	.L8:
 110:main.c        ****     }
 111:main.c        ****     set_PWM(pwm_compare);
 137              		.loc 1 111 0
 138 001c 064B     		ldr	r3, .L9+12
 139 001e 1868     		ldr	r0, [r3]
 140 0020 FFF7FEFF 		bl	set_PWM
 141              	.LVL7:
 112:main.c        ****     QuadDec_SetCounter(0);
 142              		.loc 1 112 0
 143 0024 0020     		movs	r0, #0
 144 0026 FFF7FEFF 		bl	QuadDec_SetCounter
 145              	.LVL8:
 113:main.c        **** }
 146              		.loc 1 113 0
 147              		@ sp needed
 148 002a 10BD     		pop	{r4, pc}
 149              	.L10:
 150              		.align	2
 151              	.L9:
 152 002c 00000000 		.word	.LANCHOR0
 153 0030 00000000 		.word	txData
 154 0034 20000000 		.word	.LC8
 155 0038 00000000 		.word	pwm_compare
 156              		.cfi_endproc
 157              	.LFE36:
 158              		.size	Pin_Limit_Handler, .-Pin_Limit_Handler
 159              		.section	.text.ISR_CAN,"ax",%progbits
 160              		.align	2
 161              		.global	ISR_CAN
 162              		.code	16
 163              		.thumb_func
 164              		.type	ISR_CAN, %function
 165              	ISR_CAN:
 166              	.LFB46:
 114:main.c        **** 
 115:main.c        **** int main(void)
 116:main.c        **** { 
 117:main.c        ****     #ifdef REV2
 118:main.c        ****         Test_LED_Write(LED_ON);
 119:main.c        ****         Error_Write(LED_ON);
ARM GAS  C:\Users\austc\AppData\Local\Temp\ccAwGtxE.s 			page 6


 120:main.c        ****     #endif
 121:main.c        ****     stall.code = 0x01;
 122:main.c        ****     stall.done = 1;
 123:main.c        ****     command_failed.code = 0x02;
 124:main.c        ****     command_failed.done = 1;
 125:main.c        ****     invalid_arg.code = 0x03;
 126:main.c        ****     invalid_arg.done = 1;
 127:main.c        ****     uint8 error;
 128:main.c        ****         /* BASIC CAN mailbox configuration */
 129:main.c        ****     message.dlc = 5u;
 130:main.c        ****     message.ide = MESSAGE_IDE;
 131:main.c        ****     message.irq = MESSAGE_IRQ;
 132:main.c        ****     message.msg = &data;
 133:main.c        ****     message.rtr = MESSAGE_RTR;
 134:main.c        ****     
 135:main.c        ****     #ifdef REV2
 136:main.c        ****         Test_LED_Write(0);
 137:main.c        ****         Error_Write(0);
 138:main.c        ****     #endif
 139:main.c        **** 
 140:main.c        ****     initialize();
 141:main.c        ****     initialize_can_addr();
 142:main.c        ****     int up = 0;
 143:main.c        ****     int test = 0;
 144:main.c        ****     pwm_compare = 0;
 145:main.c        ****     set_PWM(0);
 146:main.c        ****     
 147:main.c        ****     #ifdef REV2
 148:main.c        ****         Test_LED_Write(LED_OFF);
 149:main.c        ****         Error_Write(LED_OFF);
 150:main.c        ****     #endif
 151:main.c        ****     
 152:main.c        ****     for(;;)
 153:main.c        ****     {
 154:main.c        ****         if(!emergency) {
 155:main.c        **** 
 156:main.c        ****             //Tests if there are still drive packets that still need to be done
 157:main.c        ****             //drive = !Can_rx_pwm.done | !Can_rx_angle.done;
 158:main.c        ****             
 159:main.c        ****             //Handles Can drive recieve packets
 160:main.c        ****             //if (drive)
 161:main.c        ****             //{           
 162:main.c        ****                 //Mode 0 packets
 163:main.c        ****                 if(!Can_rx_pwm.done) {
 164:main.c        ****                     if(mode == 0) {
 165:main.c        ****                         if(uart_debug) {
 166:main.c        ****                             sprintf(txData, "B1: %d, B2: %d done %x\r\n",Can_rx_pwm.b1, Can_rx_pwm.
 167:main.c        ****                             UART_UartPutString(txData);
 168:main.c        ****                         }
 169:main.c        ****                         Can_rx_pwm.done = 1;
 170:main.c        ****                         if(Can_rx_pwm.b2 & 0b01) {
 171:main.c        ****                             set_PWM((int)Can_rx_pwm.b1);
 172:main.c        ****                         }
 173:main.c        ****                         else {
 174:main.c        ****                             set_PWM(-(int)Can_rx_pwm.b1);
 175:main.c        ****                         }
 176:main.c        ****                     } else {
ARM GAS  C:\Users\austc\AppData\Local\Temp\ccAwGtxE.s 			page 7


 177:main.c        ****                         command_failed.done = 0;
 178:main.c        ****                         command_failed.param = 0x02;
 179:main.c        ****                         if(uart_debug) {
 180:main.c        ****                             sprintf(txData, "Mode is not set to 0, mode is %d\r\n",mode);
 181:main.c        ****                             UART_UartPutString(txData);
 182:main.c        ****                         }
 183:main.c        ****                     }
 184:main.c        ****                 }
 185:main.c        ****                 
 186:main.c        ****                 // Mode 1 packets
 187:main.c        ****                // if(!Can_rx_angle.done){
 188:main.c        ****                     if(mode == 1){
 189:main.c        ****                         if(uart_debug) {
 190:main.c        ****                             sprintf(txData, "B1: %d, B3: %d done %x\r\n",Can_rx_angle.b1, Can_rx_an
 191:main.c        ****                             UART_UartPutString(txData);
 192:main.c        ****                         }
 193:main.c        ****                         //Can_rx_angle.done = 1;
 194:main.c        ****                         complete = 0;
 195:main.c        ****                         maxV = Can_rx_angle.b3;
 196:main.c        ****                         i = 0;
 197:main.c        ****                         
 198:main.c        ****                        // final_angle = final_angle | (int16)Can_rx_angle.b2 << 8;
 199:main.c        ****                        // final_angle = final_angle | (int16)Can_rx_angle.b1;
 200:main.c        ****                         final_angle = ((uint16_t)Can_rx_angle.b2) << 8 | Can_rx_angle.b1;
 201:main.c        ****                         set_Position(final_angle);
 202:main.c        ****                     }
 203:main.c        ****                     else if(!Can_rx_pwm.done) {
 204:main.c        ****                         command_failed.done = 0;
 205:main.c        ****                         command_failed.param = 0x04;
 206:main.c        ****                         if(uart_debug) {
 207:main.c        ****                             sprintf(txData, "Mode is not set to 1, mode is %d\r\n", mode);
 208:main.c        ****                             UART_UartPutString(txData);
 209:main.c        ****                         }
 210:main.c        ****                     }
 211:main.c        ****                 //}
 212:main.c        ****                 
 213:main.c        ****                 if(mode != 1 && mode != 0) {
 214:main.c        ****                     Can_rx_angle.done = 1;
 215:main.c        ****                     Can_rx_pwm.done = 1;
 216:main.c        ****                 }
 217:main.c        ****             //}
 218:main.c        ****             
 219:main.c        ****             //Tests if there are any errors
 220:main.c        ****           //  error = !stall.done | !invalid_arg.done | !command_failed.done; 
 221:main.c        ****             
 222:main.c        ****             //sends errors over CAN
 223:main.c        ****             /*if(error){
 224:main.c        ****                 if(!stall.done) {
 225:main.c        ****                     CAN_Send_Error(stall.code, stall.param);
 226:main.c        ****                     stall.done = 1;
 227:main.c        ****                 }
 228:main.c        ****                 if(!invalid_arg.done) {
 229:main.c        ****                     CAN_Send_Error(invalid_arg.code, invalid_arg.param);
 230:main.c        ****                     invalid_arg.done = 1;
 231:main.c        ****                 }
 232:main.c        ****                 if(!command_failed.done) {
 233:main.c        ****                     CAN_Send_Error(command_failed.code, command_failed.param);
ARM GAS  C:\Users\austc\AppData\Local\Temp\ccAwGtxE.s 			page 8


 234:main.c        ****                     command_failed.done = 1;
 235:main.c        ****                 }
 236:main.c        ****             }*/
 237:main.c        ****             
 238:main.c        ****             //Sends periodic data
 239:main.c        ****             if(send_data) {
 240:main.c        ****                 if(uart_debug) {
 241:main.c        ****                     sprintf(txData,"\nSending Data... \r\n");
 242:main.c        ****                    // UART_UartPutString(txData);
 243:main.c        ****                 }
 244:main.c        ****                 CAN_Send_Encoder(); 
 245:main.c        ****                 send_data = 0;
 246:main.c        ****             }
 247:main.c        ****             
 248:main.c        ****             //Sends model
 249:main.c        ****             if(model_req) {
 250:main.c        ****                 CAN_Send_Model();
 251:main.c        ****                 model_req = 0;
 252:main.c        ****             }
 253:main.c        ****             //PWM test code
 254:main.c        ****             /*CyDelay(100);
 255:main.c        ****             if(up){
 256:main.c        ****                 test += 10;
 257:main.c        ****             } else {
 258:main.c        ****                 test -= 10;   
 259:main.c        ****             }
 260:main.c        ****             if(test > 255) {
 261:main.c        ****                 up = 0;   
 262:main.c        ****             } else if (test < -255) {
 263:main.c        ****                 up = 1;
 264:main.c        ****             }
 265:main.c        ****             set_PWM(test);
 266:main.c        ****             */
 267:main.c        **** 
 268:main.c        ****         }
 269:main.c        ****     }
 270:main.c        **** }
 271:main.c        **** 
 272:main.c        **** void emergency_halt(void) {
 273:main.c        ****     PWM_Motor_Stop();
 274:main.c        ****     emergency = 1;
 275:main.c        ****     // stops all motors;
 276:main.c        ****     // waits for restart CAN signal.
 277:main.c        **** }
 278:main.c        **** 
 279:main.c        **** void initialize(void) {
 280:main.c        ****     
 281:main.c        ****     int can_start = CAN_Start();
 282:main.c        ****     Status_Reg_Switches_InterruptEnable();
 283:main.c        ****     Timer_1_Start();
 284:main.c        ****    // ADC_SAR_Seq_1_Start();
 285:main.c        ****     //ADC_SAR_Seq_1_StartConvert();
 286:main.c        ****     QuadDec_Start();
 287:main.c        ****     PWM_Motor_Start();  
 288:main.c        ****     
 289:main.c        ****     CAN_GlobalIntEnable();
 290:main.c        ****     CyIntSetVector(CAN_ISR_NUMBER, ISR_CAN);
ARM GAS  C:\Users\austc\AppData\Local\Temp\ccAwGtxE.s 			page 9


 291:main.c        ****     CyGlobalIntEnable; /* Enable global interrupts. */
 292:main.c        ****     isr_Limit_1_StartEx(Pin_Limit_Handler);
 293:main.c        ****     isr_period_StartEx(Period_Reset_Handler);
 294:main.c        ****     
 295:main.c        ****     if(uart_debug) {
 296:main.c        ****         UART_Start();
 297:main.c        ****         sprintf(txData, "CAN_Start():  %u\r\n",can_start);
 298:main.c        ****         UART_UartPutString(txData); 
 299:main.c        ****     }
 300:main.c        **** }
 301:main.c        **** 
 302:main.c        **** //Recieve:
 303:main.c        **** //1 00010 10000 0x450 BBB to base rotation
 304:main.c        **** //1 00010 10001 0x451 
 305:main.c        **** //1 00010 10010 0x452
 306:main.c        **** //1 00010 10011 0x453
 307:main.c        **** //1 00010 10100 0x454
 308:main.c        **** //1 00010 10101 0x455
 309:main.c        **** //1 00010 10110 0x456
 310:main.c        **** //Send:
 311:main.c        **** //1 10000 00010 0x602 base rotation to BBB 
 312:main.c        **** //1 10001 00010 0x622 shoulder to BBB
 313:main.c        **** //1 10010 00010 0x642 elbow ""
 314:main.c        **** //1 10011 00010 0x662 forearm rotation ""
 315:main.c        **** //1 10100 00010 0x682 diff wrist 1 ""
 316:main.c        **** //1 10101 00010 0x6A2 diff wrist 2 ""
 317:main.c        **** //1 10110 00010 0x6C2 hand ""
 318:main.c        **** void initialize_can_addr(void) {
 319:main.c        ****     uint8 setting = Can_addr_Read();
 320:main.c        ****     uint8 shift = 0;
 321:main.c        ****     switch(Can_addr_Read()) {
 322:main.c        ****         case 0b000: //Base rotation
 323:main.c        ****             message_id = 0b10000;
 324:main.c        ****             shift = 0;
 325:main.c        ****             ratio = 1;
 326:main.c        ****             break;
 327:main.c        ****         case 0b001: // shoulder
 328:main.c        ****             message_id = 0b10001;
 329:main.c        ****             shift = 1;
 330:main.c        ****             ratio = 14.45;
 331:main.c        ****             #ifdef REV2
 332:main.c        ****                 flipEncoder = 1;
 333:main.c        ****             #endif
 334:main.c        ****             kp = 50;
 335:main.c        ****             ki = 12;
 336:main.c        ****             kd = 10;
 337:main.c        ****             break;
 338:main.c        ****         case 0b010: // elbow
 339:main.c        ****             message_id = 0b10010;
 340:main.c        ****             shift = 2;
 341:main.c        ****             ratio = 2.8;
 342:main.c        ****             break;
 343:main.c        ****         case 0b011: // forearm rotation
 344:main.c        ****             message_id = 0b10011;
 345:main.c        ****             disable_limit = 1;
 346:main.c        ****             shift = 3;
 347:main.c        ****             ratio = 1;
ARM GAS  C:\Users\austc\AppData\Local\Temp\ccAwGtxE.s 			page 10


 348:main.c        **** 
 349:main.c        ****             break;
 350:main.c        ****         case 0b100: // diff wrist 1
 351:main.c        ****             message_id = 0b10100;
 352:main.c        ****             disable_limit = 1;
 353:main.c        ****             shift = 4;
 354:main.c        ****             ratio = 1.3888;
 355:main.c        ****             kp = 20;
 356:main.c        ****             ki = 30;
 357:main.c        ****             kd = 10;
 358:main.c        ****             flipEncoder = -1;
 359:main.c        ****             break;
 360:main.c        ****         case 0b101: // diff wrist 2
 361:main.c        ****             message_id = 0b10101;
 362:main.c        ****             disable_limit = 1;
 363:main.c        ****             flipEncoder = -1;
 364:main.c        ****             shift = 5;
 365:main.c        ****             ratio = 1.3888;
 366:main.c        ****             kp = 50;
 367:main.c        ****             ki = 40;
 368:main.c        ****             kd = 10;
 369:main.c        ****             break;
 370:main.c        ****         case 0b110: // hand
 371:main.c        ****             message_id = 0b10110;
 372:main.c        ****             shift = 6;
 373:main.c        ****             ratio = 1;
 374:main.c        ****             break;
 375:main.c        ****     }
 376:main.c        ****     
 377:main.c        ****     CAN_RX_MAILBOX_0_SHIFT = CAN_RX_MAILBOX_0_SHIFT << shift;
 378:main.c        ****     CAN_RX_MAILBOX_1_SHIFT = CAN_RX_MAILBOX_1_SHIFT << shift;
 379:main.c        ****     CAN_RX_MAILBOX_0 += shift;
 380:main.c        ****     CAN_RX_MAILBOX_1 += shift;
 381:main.c        ****     set_CAN_ID(0b1);
 382:main.c        ****     
 383:main.c        ****     if(uart_debug) {
 384:main.c        ****         sprintf(txData, "CAN dip setting:  %x Message ID: %ld\r\n",setting, message_id);
 385:main.c        ****         UART_UartPutString(txData); 
 386:main.c        ****         sprintf(txData, "Can shift: %d   P0Mailbox: %d P1Mailbox %d\r\n",shift, CAN_RX_MAILBOX_0, C
 387:main.c        ****         UART_UartPutString(txData); 
 388:main.c        ****         sprintf(txData, "disable_limit: %d\r\n",disable_limit);
 389:main.c        ****         UART_UartPutString(txData); 
 390:main.c        ****     }
 391:main.c        **** }
 392:main.c        **** 
 393:main.c        **** void set_CAN_ID(uint32 priority) {
 394:main.c        ****     message.id = (priority << 10) | (message_id << 5) | 0b00010;
 395:main.c        **** }
 396:main.c        **** 
 397:main.c        **** 
 398:main.c        **** void CAN_Send_Encoder(void){
 399:main.c        ****     int16 ticks = QuadDec_GetCounter();
 400:main.c        ****     int16 angle = (((double)ticks)/ratio)*10;
 401:main.c        ****     data.byte[0u] = 0x14u;
 402:main.c        ****     data.byte[1u] = LO8(angle);
 403:main.c        ****     data.byte[2u] = HI8(angle);
 404:main.c        ****     data.byte[3u] = 0;
ARM GAS  C:\Users\austc\AppData\Local\Temp\ccAwGtxE.s 			page 11


 405:main.c        ****     data.byte[4u] = 0;
 406:main.c        ****     CAN_SendMsg(&message);
 407:main.c        ****     if(uart_debug == 2) {
 408:main.c        ****         sprintf(txData, "CAN_Send_Encoder: byte[0u] %x byte[1u] %x byte[2u] %x QuadDec Count %d\r\n
 409:main.c        ****             data.byte[0u],data.byte[1u],data.byte[2u],
 410:main.c        ****             QuadDec_GetCounter());
 411:main.c        ****         UART_UartPutString(txData);    
 412:main.c        ****     }
 413:main.c        **** }
 414:main.c        **** 
 415:main.c        **** void CAN_Send_Telemetry(void) {
 416:main.c        ****     data.byte[0u] = 0x18u;
 417:main.c        ****     data.byte[1u] = 0;
 418:main.c        ****     data.byte[2u] = 0;
 419:main.c        ****     data.byte[3u] = 0;
 420:main.c        ****     data.byte[4u] = 0;
 421:main.c        ****     CAN_SendMsg(&message);
 422:main.c        ****     if(uart_debug == 2) {
 423:main.c        ****         sprintf(txData, "Telemerty: byte[0u] %x byte[1u] %x\r\n",(uint8)data.byte[0u],(uint8)data.b
 424:main.c        ****         UART_UartPutString(txData); 
 425:main.c        ****     }
 426:main.c        **** }
 427:main.c        **** 
 428:main.c        **** void CAN_Send_Model(void) {
 429:main.c        ****     data.byte[0u] = 0x12u;
 430:main.c        ****     data.byte[1u] = 0x00u;
 431:main.c        ****     data.byte[2u] = 0;
 432:main.c        ****     data.byte[3u] = 0;
 433:main.c        ****     data.byte[4u] = 0;
 434:main.c        ****     CAN_SendMsg(&message);
 435:main.c        ****     if(uart_debug == 2) {
 436:main.c        ****         sprintf(txData, "Model: byte[0u] %x byte[1u] %x\r\n",data.byte[0u],data.byte[1u]);
 437:main.c        ****         UART_UartPutString(txData); 
 438:main.c        ****     }
 439:main.c        **** }
 440:main.c        **** 
 441:main.c        **** void CAN_Send_Error(uint8 code, uint8 param) {
 442:main.c        ****     data.byte[0u] = 0xffu;
 443:main.c        ****     data.byte[1u] = code;
 444:main.c        ****     data.byte[2u] = param;
 445:main.c        ****     data.byte[3u] = 0;
 446:main.c        ****     data.byte[4u] = 0;
 447:main.c        ****     CAN_SendMsg(&message);
 448:main.c        ****     if(uart_debug == 2) {
 449:main.c        ****         sprintf(txData, "Error: byte[0u] %x byte[1u] %x byte[2u] %x\r\n",data.byte[0u],data.byte[1u
 450:main.c        ****         UART_UartPutString(txData); 
 451:main.c        ****     }
 452:main.c        **** }
 453:main.c        **** 
 454:main.c        **** CY_ISR(ISR_CAN)
 455:main.c        **** {
 167              		.loc 1 455 0
 168              		.cfi_startproc
 169              		@ args = 0, pretend = 0, frame = 0
 170              		@ frame_needed = 0, uses_anonymous_args = 0
 171 0000 10B5     		push	{r4, lr}
 172              		.cfi_def_cfa_offset 8
ARM GAS  C:\Users\austc\AppData\Local\Temp\ccAwGtxE.s 			page 12


 173              		.cfi_offset 4, -8
 174              		.cfi_offset 14, -4
 456:main.c        ****     /* Clear Receive Message flag */
 457:main.c        ****     CAN_INT_SR_REG = CAN_RX_MESSAGE_MASK;
 175              		.loc 1 457 0
 176 0002 8022     		movs	r2, #128
 177 0004 5201     		lsls	r2, r2, #5
 178 0006 8B4B     		ldr	r3, .L33
 179 0008 1A60     		str	r2, [r3]
 458:main.c        ****     if(uart_debug) {
 180              		.loc 1 458 0
 181 000a 8B4B     		ldr	r3, .L33+4
 182 000c 1B78     		ldrb	r3, [r3]
 183 000e 002B     		cmp	r3, #0
 184 0010 02D0     		beq	.L12
 459:main.c        ****         UART_UartPutString("\n Can rx triggered\n");   
 185              		.loc 1 459 0
 186 0012 8A48     		ldr	r0, .L33+8
 187 0014 FFF7FEFF 		bl	UART_UartPutString
 188              	.LVL9:
 189              	.L12:
 460:main.c        ****     }
 461:main.c        ****     /* Switch status message received */
 462:main.c        ****     if ((CAN_BUF_SR_REG & CAN_RX_MAILBOX_0_SHIFT) != 0u)
 190              		.loc 1 462 0
 191 0018 894B     		ldr	r3, .L33+12
 192 001a 1B68     		ldr	r3, [r3]
 193 001c 864A     		ldr	r2, .L33+4
 194 001e 5268     		ldr	r2, [r2, #4]
 195 0020 1A42     		tst	r2, r3
 196 0022 00D1     		bne	.LCB146
 197 0024 7FE0     		b	.L13	@long jump
 198              	.LCB146:
 463:main.c        ****     {   
 464:main.c        ****         if(uart_debug){
 199              		.loc 1 464 0
 200 0026 844B     		ldr	r3, .L33+4
 201 0028 1B78     		ldrb	r3, [r3]
 202 002a 002B     		cmp	r3, #0
 203 002c 02D0     		beq	.L14
 465:main.c        ****             UART_UartPutString("P0 recieved\n");    
 204              		.loc 1 465 0
 205 002e 8548     		ldr	r0, .L33+16
 206 0030 FFF7FEFF 		bl	UART_UartPutString
 207              	.LVL10:
 208              	.L14:
 466:main.c        ****         }
 467:main.c        ****         #ifdef REV2
 468:main.c        ****         time_LED = 0;
 209              		.loc 1 468 0
 210 0034 0022     		movs	r2, #0
 211 0036 844B     		ldr	r3, .L33+20
 212 0038 5A70     		strb	r2, [r3, #1]
 469:main.c        ****         Test_LED_Write(LED_ON);
 213              		.loc 1 469 0
 214 003a 0020     		movs	r0, #0
 215 003c FFF7FEFF 		bl	Test_LED_Write
ARM GAS  C:\Users\austc\AppData\Local\Temp\ccAwGtxE.s 			page 13


 216              	.LVL11:
 470:main.c        ****         #endif
 471:main.c        ****         set_data(CAN_RX_MAILBOX_0);
 217              		.loc 1 471 0
 218 0040 7D4B     		ldr	r3, .L33+4
 219 0042 1B89     		ldrh	r3, [r3, #8]
 220              	.LVL12:
 221              	.LBB7:
 222              	.LBB8:
 472:main.c        ****         /* Acknowledges receipt of new message */
 473:main.c        ****         CAN_RX_ACK_MESSAGE(CAN_RX_MAILBOX_0);
 474:main.c        ****     }
 475:main.c        **** 
 476:main.c        ****     if ((CAN_BUF_SR_REG & CAN_RX_MAILBOX_1_SHIFT) != 0u)
 477:main.c        ****     {
 478:main.c        ****         if(uart_debug){
 479:main.c        ****             UART_UartPutString("P1 recieved\n\n");    
 480:main.c        ****         }
 481:main.c        ****         #ifdef REV2
 482:main.c        ****         time_LED = 0;
 483:main.c        ****         Test_LED_Write(LED_ON);
 484:main.c        ****         #endif
 485:main.c        ****         set_data(CAN_RX_MAILBOX_1);
 486:main.c        ****         /* Acknowledges receipt of new message */
 487:main.c        ****         CAN_RX_ACK_MESSAGE(CAN_RX_MAILBOX_1);
 488:main.c        ****     }
 489:main.c        ****     
 490:main.c        **** }
 491:main.c        **** 
 492:main.c        **** inline void set_data(uint16 addr){
 493:main.c        ****         //set mode
 494:main.c        ****         if(CAN_RX_DATA_BYTE1(addr) == 0x00) {
 223              		.loc 1 494 0
 224 0044 5B01     		lsls	r3, r3, #5
 225              	.LVL13:
 226 0046 814A     		ldr	r2, .L33+24
 227 0048 9446     		mov	ip, r2
 228 004a 6344     		add	r3, r3, ip
 229 004c 9A68     		ldr	r2, [r3, #8]
 230 004e 120E     		lsrs	r2, r2, #24
 231 0050 23D1     		bne	.L15
 495:main.c        ****             if(CAN_RX_DATA_BYTE2(addr) == 1 || CAN_RX_DATA_BYTE2(addr) == 0) {
 232              		.loc 1 495 0
 233 0052 9A68     		ldr	r2, [r3, #8]
 234 0054 120C     		lsrs	r2, r2, #16
 235 0056 FF21     		movs	r1, #255
 236 0058 0A40     		ands	r2, r1
 237 005a 012A     		cmp	r2, #1
 238 005c 03D0     		beq	.L16
 239 005e 9A68     		ldr	r2, [r3, #8]
 240 0060 120C     		lsrs	r2, r2, #16
 241 0062 1142     		tst	r1, r2
 242 0064 11D1     		bne	.L17
 243              	.L16:
 496:main.c        ****                 mode = CAN_RX_DATA_BYTE2(addr);
 244              		.loc 1 496 0
 245 0066 9B68     		ldr	r3, [r3, #8]
ARM GAS  C:\Users\austc\AppData\Local\Temp\ccAwGtxE.s 			page 14


 246 0068 1B0C     		lsrs	r3, r3, #16
 247 006a DBB2     		uxtb	r3, r3
 248 006c 724A     		ldr	r2, .L33+4
 249 006e 9372     		strb	r3, [r2, #10]
 497:main.c        ****                 if(mode == 1){
 250              		.loc 1 497 0
 251 0070 012B     		cmp	r3, #1
 252 0072 0ED1     		bne	.L18
 498:main.c        ****                     final_angle = QuadDec_GetCounter() * flipEncoder;
 253              		.loc 1 498 0
 254 0074 FFF7FEFF 		bl	QuadDec_GetCounter
 255              	.LVL14:
 256 0078 734A     		ldr	r2, .L33+20
 257 007a 6F4B     		ldr	r3, .L33+4
 258 007c DB7A     		ldrb	r3, [r3, #11]
 259 007e 5BB2     		sxtb	r3, r3
 260 0080 5843     		muls	r0, r3
 261 0082 5080     		strh	r0, [r2, #2]
 499:main.c        ****                     i = 0;
 262              		.loc 1 499 0
 263 0084 0023     		movs	r3, #0
 264 0086 5360     		str	r3, [r2, #4]
 265 0088 03E0     		b	.L18
 266              	.LVL15:
 267              	.L17:
 500:main.c        ****                 }
 501:main.c        ****             }
 502:main.c        ****             else {
 503:main.c        ****                 invalid_arg.param = 0x00;
 268              		.loc 1 503 0
 269 008a 714B     		ldr	r3, .L33+28
 270 008c 0022     		movs	r2, #0
 271 008e 5A70     		strb	r2, [r3, #1]
 504:main.c        ****                 invalid_arg.done = 0;
 272              		.loc 1 504 0
 273 0090 9A70     		strb	r2, [r3, #2]
 274              	.LVL16:
 275              	.L18:
 505:main.c        ****             }
 506:main.c        ****             complete = 1;
 276              		.loc 1 506 0
 277 0092 0122     		movs	r2, #1
 278 0094 6C4B     		ldr	r3, .L33+20
 279 0096 1A72     		strb	r2, [r3, #8]
 280 0098 3BE0     		b	.L19
 281              	.LVL17:
 282              	.L15:
 507:main.c        ****         } 
 508:main.c        ****         //pwm
 509:main.c        ****         else if(CAN_RX_DATA_BYTE1(addr) == 0x02) {
 283              		.loc 1 509 0
 284 009a 9A68     		ldr	r2, [r3, #8]
 285 009c 120E     		lsrs	r2, r2, #24
 286 009e 022A     		cmp	r2, #2
 287 00a0 0ED1     		bne	.L20
 510:main.c        ****             Can_rx_pwm.b1 = CAN_RX_DATA_BYTE2(addr);
 288              		.loc 1 510 0
ARM GAS  C:\Users\austc\AppData\Local\Temp\ccAwGtxE.s 			page 15


 289 00a2 9968     		ldr	r1, [r3, #8]
 290 00a4 090C     		lsrs	r1, r1, #16
 291 00a6 6B4A     		ldr	r2, .L33+32
 292 00a8 5170     		strb	r1, [r2, #1]
 511:main.c        ****             Can_rx_pwm.b2 = CAN_RX_DATA_BYTE3(addr);
 293              		.loc 1 511 0
 294 00aa 9968     		ldr	r1, [r3, #8]
 295 00ac 090A     		lsrs	r1, r1, #8
 296 00ae 9170     		strb	r1, [r2, #2]
 512:main.c        ****             Can_rx_pwm.b3 = CAN_RX_DATA_BYTE4(addr);
 297              		.loc 1 512 0
 298 00b0 9968     		ldr	r1, [r3, #8]
 299 00b2 D170     		strb	r1, [r2, #3]
 513:main.c        ****             Can_rx_pwm.b4 = CAN_RX_DATA_BYTE5(addr);
 300              		.loc 1 513 0
 301 00b4 DB68     		ldr	r3, [r3, #12]
 302 00b6 1B0E     		lsrs	r3, r3, #24
 303 00b8 1371     		strb	r3, [r2, #4]
 514:main.c        ****             Can_rx_pwm.done = 0;
 304              		.loc 1 514 0
 305 00ba 0023     		movs	r3, #0
 306 00bc 5371     		strb	r3, [r2, #5]
 307 00be 28E0     		b	.L19
 308              	.L20:
 515:main.c        ****         } 
 516:main.c        ****         //angle
 517:main.c        ****         else if(CAN_RX_DATA_BYTE1(addr) == 0x04) {
 309              		.loc 1 517 0
 310 00c0 9A68     		ldr	r2, [r3, #8]
 311 00c2 120E     		lsrs	r2, r2, #24
 312 00c4 042A     		cmp	r2, #4
 313 00c6 1DD1     		bne	.L21
 518:main.c        ****             Can_rx_angle.b1 = CAN_RX_DATA_BYTE2(addr);
 314              		.loc 1 518 0
 315 00c8 9A68     		ldr	r2, [r3, #8]
 316 00ca 120C     		lsrs	r2, r2, #16
 317 00cc D0B2     		uxtb	r0, r2
 318 00ce 624C     		ldr	r4, .L33+36
 319 00d0 6070     		strb	r0, [r4, #1]
 519:main.c        ****             Can_rx_angle.b2 = CAN_RX_DATA_BYTE3(addr);
 320              		.loc 1 519 0
 321 00d2 9968     		ldr	r1, [r3, #8]
 322 00d4 090A     		lsrs	r1, r1, #8
 323 00d6 CAB2     		uxtb	r2, r1
 324 00d8 A270     		strb	r2, [r4, #2]
 520:main.c        ****             Can_rx_angle.b3 = CAN_RX_DATA_BYTE4(addr);
 325              		.loc 1 520 0
 326 00da 9968     		ldr	r1, [r3, #8]
 327 00dc E170     		strb	r1, [r4, #3]
 521:main.c        ****             Can_rx_angle.b4 = CAN_RX_DATA_BYTE5(addr);
 328              		.loc 1 521 0
 329 00de DB68     		ldr	r3, [r3, #12]
 330 00e0 1B0E     		lsrs	r3, r3, #24
 331 00e2 2371     		strb	r3, [r4, #4]
 522:main.c        ****             Can_rx_angle.done = 0;
 332              		.loc 1 522 0
 333 00e4 0023     		movs	r3, #0
ARM GAS  C:\Users\austc\AppData\Local\Temp\ccAwGtxE.s 			page 16


 334 00e6 6371     		strb	r3, [r4, #5]
 523:main.c        ****             if((((uint16_t)Can_rx_angle.b2) << 8 | Can_rx_angle.b1) != final_angle){
 335              		.loc 1 523 0
 336 00e8 1202     		lsls	r2, r2, #8
 337 00ea 0243     		orrs	r2, r0
 338 00ec 564B     		ldr	r3, .L33+20
 339 00ee 0221     		movs	r1, #2
 340 00f0 5B5E     		ldrsh	r3, [r3, r1]
 341 00f2 9A42     		cmp	r2, r3
 342 00f4 02D0     		beq	.L22
 524:main.c        ****                  i=0;
 343              		.loc 1 524 0
 344 00f6 0022     		movs	r2, #0
 345 00f8 534B     		ldr	r3, .L33+20
 346 00fa 5A60     		str	r2, [r3, #4]
 347              	.L22:
 525:main.c        ****             }
 526:main.c        ****             complete = 1;
 348              		.loc 1 526 0
 349 00fc 0122     		movs	r2, #1
 350 00fe 524B     		ldr	r3, .L33+20
 351 0100 1A72     		strb	r2, [r3, #8]
 352 0102 06E0     		b	.L19
 353              	.L21:
 527:main.c        ****         } 
 528:main.c        ****         //model requst
 529:main.c        ****         else if (CAN_RX_DATA_BYTE1(addr) == 0x10){
 354              		.loc 1 529 0
 355 0104 9B68     		ldr	r3, [r3, #8]
 356 0106 1B0E     		lsrs	r3, r3, #24
 357 0108 102B     		cmp	r3, #16
 358 010a 02D1     		bne	.L19
 530:main.c        ****             model_req = 1;
 359              		.loc 1 530 0
 360 010c 0122     		movs	r2, #1
 361 010e 4E4B     		ldr	r3, .L33+20
 362 0110 5A72     		strb	r2, [r3, #9]
 363              	.LVL18:
 364              	.L19:
 365              	.LBE8:
 366              	.LBE7:
 473:main.c        ****     }
 367              		.loc 1 473 0
 368 0112 494B     		ldr	r3, .L33+4
 369 0114 1B89     		ldrh	r3, [r3, #8]
 370 0116 5B01     		lsls	r3, r3, #5
 371 0118 4C4A     		ldr	r2, .L33+24
 372 011a 9446     		mov	ip, r2
 373 011c 6344     		add	r3, r3, ip
 374 011e 1968     		ldr	r1, [r3]
 375 0120 0122     		movs	r2, #1
 376 0122 0A43     		orrs	r2, r1
 377 0124 1A60     		str	r2, [r3]
 378              	.L13:
 476:main.c        ****     {
 379              		.loc 1 476 0
 380 0126 464B     		ldr	r3, .L33+12
ARM GAS  C:\Users\austc\AppData\Local\Temp\ccAwGtxE.s 			page 17


 381 0128 1A68     		ldr	r2, [r3]
 382 012a 434B     		ldr	r3, .L33+4
 383 012c 9B89     		ldrh	r3, [r3, #12]
 384 012e 1A42     		tst	r2, r3
 385 0130 00D1     		bne	.LCB324
 386 0132 7EE0     		b	.L11	@long jump
 387              	.LCB324:
 478:main.c        ****             UART_UartPutString("P1 recieved\n\n");    
 388              		.loc 1 478 0
 389 0134 404B     		ldr	r3, .L33+4
 390 0136 1B78     		ldrb	r3, [r3]
 391 0138 002B     		cmp	r3, #0
 392 013a 02D0     		beq	.L24
 479:main.c        ****         }
 393              		.loc 1 479 0
 394 013c 4748     		ldr	r0, .L33+40
 395 013e FFF7FEFF 		bl	UART_UartPutString
 396              	.LVL19:
 397              	.L24:
 482:main.c        ****         Test_LED_Write(LED_ON);
 398              		.loc 1 482 0
 399 0142 414C     		ldr	r4, .L33+20
 400 0144 0023     		movs	r3, #0
 401 0146 6370     		strb	r3, [r4, #1]
 483:main.c        ****         #endif
 402              		.loc 1 483 0
 403 0148 0020     		movs	r0, #0
 404 014a FFF7FEFF 		bl	Test_LED_Write
 405              	.LVL20:
 485:main.c        ****         /* Acknowledges receipt of new message */
 406              		.loc 1 485 0
 407 014e 6389     		ldrh	r3, [r4, #10]
 408              	.LVL21:
 409              	.LBB9:
 410              	.LBB10:
 494:main.c        ****             if(CAN_RX_DATA_BYTE2(addr) == 1 || CAN_RX_DATA_BYTE2(addr) == 0) {
 411              		.loc 1 494 0
 412 0150 5B01     		lsls	r3, r3, #5
 413              	.LVL22:
 414 0152 3E4A     		ldr	r2, .L33+24
 415 0154 9446     		mov	ip, r2
 416 0156 6344     		add	r3, r3, ip
 417 0158 9A68     		ldr	r2, [r3, #8]
 418 015a 120E     		lsrs	r2, r2, #24
 419 015c 23D1     		bne	.L25
 495:main.c        ****                 mode = CAN_RX_DATA_BYTE2(addr);
 420              		.loc 1 495 0
 421 015e 9A68     		ldr	r2, [r3, #8]
 422 0160 120C     		lsrs	r2, r2, #16
 423 0162 FF21     		movs	r1, #255
 424 0164 0A40     		ands	r2, r1
 425 0166 012A     		cmp	r2, #1
 426 0168 03D0     		beq	.L26
 427 016a 9A68     		ldr	r2, [r3, #8]
 428 016c 120C     		lsrs	r2, r2, #16
 429 016e 1142     		tst	r1, r2
 430 0170 11D1     		bne	.L27
ARM GAS  C:\Users\austc\AppData\Local\Temp\ccAwGtxE.s 			page 18


 431              	.L26:
 496:main.c        ****                 if(mode == 1){
 432              		.loc 1 496 0
 433 0172 9B68     		ldr	r3, [r3, #8]
 434 0174 1B0C     		lsrs	r3, r3, #16
 435 0176 DBB2     		uxtb	r3, r3
 436 0178 2F4A     		ldr	r2, .L33+4
 437 017a 9372     		strb	r3, [r2, #10]
 497:main.c        ****                     final_angle = QuadDec_GetCounter() * flipEncoder;
 438              		.loc 1 497 0
 439 017c 012B     		cmp	r3, #1
 440 017e 0ED1     		bne	.L28
 498:main.c        ****                     i = 0;
 441              		.loc 1 498 0
 442 0180 FFF7FEFF 		bl	QuadDec_GetCounter
 443              	.LVL23:
 444 0184 304A     		ldr	r2, .L33+20
 445 0186 2C4B     		ldr	r3, .L33+4
 446 0188 DB7A     		ldrb	r3, [r3, #11]
 447 018a 5BB2     		sxtb	r3, r3
 448 018c 5843     		muls	r0, r3
 449 018e 5080     		strh	r0, [r2, #2]
 499:main.c        ****                 }
 450              		.loc 1 499 0
 451 0190 0023     		movs	r3, #0
 452 0192 5360     		str	r3, [r2, #4]
 453 0194 03E0     		b	.L28
 454              	.LVL24:
 455              	.L27:
 503:main.c        ****                 invalid_arg.done = 0;
 456              		.loc 1 503 0
 457 0196 2E4B     		ldr	r3, .L33+28
 458 0198 0022     		movs	r2, #0
 459 019a 5A70     		strb	r2, [r3, #1]
 504:main.c        ****             }
 460              		.loc 1 504 0
 461 019c 9A70     		strb	r2, [r3, #2]
 462              	.LVL25:
 463              	.L28:
 506:main.c        ****         } 
 464              		.loc 1 506 0
 465 019e 0122     		movs	r2, #1
 466 01a0 294B     		ldr	r3, .L33+20
 467 01a2 1A72     		strb	r2, [r3, #8]
 468 01a4 3BE0     		b	.L29
 469              	.LVL26:
 470              	.L25:
 509:main.c        ****             Can_rx_pwm.b1 = CAN_RX_DATA_BYTE2(addr);
 471              		.loc 1 509 0
 472 01a6 9A68     		ldr	r2, [r3, #8]
 473 01a8 120E     		lsrs	r2, r2, #24
 474 01aa 022A     		cmp	r2, #2
 475 01ac 0ED1     		bne	.L30
 510:main.c        ****             Can_rx_pwm.b2 = CAN_RX_DATA_BYTE3(addr);
 476              		.loc 1 510 0
 477 01ae 9968     		ldr	r1, [r3, #8]
 478 01b0 090C     		lsrs	r1, r1, #16
ARM GAS  C:\Users\austc\AppData\Local\Temp\ccAwGtxE.s 			page 19


 479 01b2 284A     		ldr	r2, .L33+32
 480 01b4 5170     		strb	r1, [r2, #1]
 511:main.c        ****             Can_rx_pwm.b3 = CAN_RX_DATA_BYTE4(addr);
 481              		.loc 1 511 0
 482 01b6 9968     		ldr	r1, [r3, #8]
 483 01b8 090A     		lsrs	r1, r1, #8
 484 01ba 9170     		strb	r1, [r2, #2]
 512:main.c        ****             Can_rx_pwm.b4 = CAN_RX_DATA_BYTE5(addr);
 485              		.loc 1 512 0
 486 01bc 9968     		ldr	r1, [r3, #8]
 487 01be D170     		strb	r1, [r2, #3]
 513:main.c        ****             Can_rx_pwm.done = 0;
 488              		.loc 1 513 0
 489 01c0 DB68     		ldr	r3, [r3, #12]
 490 01c2 1B0E     		lsrs	r3, r3, #24
 491 01c4 1371     		strb	r3, [r2, #4]
 514:main.c        ****         } 
 492              		.loc 1 514 0
 493 01c6 0023     		movs	r3, #0
 494 01c8 5371     		strb	r3, [r2, #5]
 495 01ca 28E0     		b	.L29
 496              	.L30:
 517:main.c        ****             Can_rx_angle.b1 = CAN_RX_DATA_BYTE2(addr);
 497              		.loc 1 517 0
 498 01cc 9A68     		ldr	r2, [r3, #8]
 499 01ce 120E     		lsrs	r2, r2, #24
 500 01d0 042A     		cmp	r2, #4
 501 01d2 1DD1     		bne	.L31
 518:main.c        ****             Can_rx_angle.b2 = CAN_RX_DATA_BYTE3(addr);
 502              		.loc 1 518 0
 503 01d4 9A68     		ldr	r2, [r3, #8]
 504 01d6 120C     		lsrs	r2, r2, #16
 505 01d8 D0B2     		uxtb	r0, r2
 506 01da 1F4C     		ldr	r4, .L33+36
 507 01dc 6070     		strb	r0, [r4, #1]
 519:main.c        ****             Can_rx_angle.b3 = CAN_RX_DATA_BYTE4(addr);
 508              		.loc 1 519 0
 509 01de 9968     		ldr	r1, [r3, #8]
 510 01e0 090A     		lsrs	r1, r1, #8
 511 01e2 CAB2     		uxtb	r2, r1
 512 01e4 A270     		strb	r2, [r4, #2]
 520:main.c        ****             Can_rx_angle.b4 = CAN_RX_DATA_BYTE5(addr);
 513              		.loc 1 520 0
 514 01e6 9968     		ldr	r1, [r3, #8]
 515 01e8 E170     		strb	r1, [r4, #3]
 521:main.c        ****             Can_rx_angle.done = 0;
 516              		.loc 1 521 0
 517 01ea DB68     		ldr	r3, [r3, #12]
 518 01ec 1B0E     		lsrs	r3, r3, #24
 519 01ee 2371     		strb	r3, [r4, #4]
 522:main.c        ****             if((((uint16_t)Can_rx_angle.b2) << 8 | Can_rx_angle.b1) != final_angle){
 520              		.loc 1 522 0
 521 01f0 0023     		movs	r3, #0
 522 01f2 6371     		strb	r3, [r4, #5]
 523:main.c        ****                  i=0;
 523              		.loc 1 523 0
 524 01f4 1202     		lsls	r2, r2, #8
ARM GAS  C:\Users\austc\AppData\Local\Temp\ccAwGtxE.s 			page 20


 525 01f6 0243     		orrs	r2, r0
 526 01f8 134B     		ldr	r3, .L33+20
 527 01fa 0221     		movs	r1, #2
 528 01fc 5B5E     		ldrsh	r3, [r3, r1]
 529 01fe 9A42     		cmp	r2, r3
 530 0200 02D0     		beq	.L32
 524:main.c        ****             }
 531              		.loc 1 524 0
 532 0202 0022     		movs	r2, #0
 533 0204 104B     		ldr	r3, .L33+20
 534 0206 5A60     		str	r2, [r3, #4]
 535              	.L32:
 526:main.c        ****         } 
 536              		.loc 1 526 0
 537 0208 0122     		movs	r2, #1
 538 020a 0F4B     		ldr	r3, .L33+20
 539 020c 1A72     		strb	r2, [r3, #8]
 540 020e 06E0     		b	.L29
 541              	.L31:
 529:main.c        ****             model_req = 1;
 542              		.loc 1 529 0
 543 0210 9B68     		ldr	r3, [r3, #8]
 544 0212 1B0E     		lsrs	r3, r3, #24
 545 0214 102B     		cmp	r3, #16
 546 0216 02D1     		bne	.L29
 547              		.loc 1 530 0
 548 0218 0122     		movs	r2, #1
 549 021a 0B4B     		ldr	r3, .L33+20
 550 021c 5A72     		strb	r2, [r3, #9]
 551              	.LVL27:
 552              	.L29:
 553              	.LBE10:
 554              	.LBE9:
 487:main.c        ****     }
 555              		.loc 1 487 0
 556 021e 0A4B     		ldr	r3, .L33+20
 557 0220 5B89     		ldrh	r3, [r3, #10]
 558 0222 5B01     		lsls	r3, r3, #5
 559 0224 094A     		ldr	r2, .L33+24
 560 0226 9446     		mov	ip, r2
 561 0228 6344     		add	r3, r3, ip
 562 022a 1968     		ldr	r1, [r3]
 563 022c 0122     		movs	r2, #1
 564 022e 0A43     		orrs	r2, r1
 565 0230 1A60     		str	r2, [r3]
 566              	.L11:
 490:main.c        **** 
 567              		.loc 1 490 0
 568              		@ sp needed
 569 0232 10BD     		pop	{r4, pc}
 570              	.L34:
 571              		.align	2
 572              	.L33:
 573 0234 00002F40 		.word	1076822016
 574 0238 00000000 		.word	.LANCHOR0
 575 023c 3C000000 		.word	.LC12
 576 0240 08002F40 		.word	1076822024
ARM GAS  C:\Users\austc\AppData\Local\Temp\ccAwGtxE.s 			page 21


 577 0244 50000000 		.word	.LC14
 578 0248 00000000 		.word	.LANCHOR1
 579 024c A0002F40 		.word	1076822176
 580 0250 00000000 		.word	invalid_arg
 581 0254 00000000 		.word	Can_rx_pwm
 582 0258 00000000 		.word	Can_rx_angle
 583 025c 60000000 		.word	.LC20
 584              		.cfi_endproc
 585              	.LFE46:
 586              		.size	ISR_CAN, .-ISR_CAN
 587              		.section	.text.emergency_halt,"ax",%progbits
 588              		.align	2
 589              		.global	emergency_halt
 590              		.code	16
 591              		.thumb_func
 592              		.type	emergency_halt, %function
 593              	emergency_halt:
 594              	.LFB38:
 272:main.c        ****     PWM_Motor_Stop();
 595              		.loc 1 272 0
 596              		.cfi_startproc
 597              		@ args = 0, pretend = 0, frame = 0
 598              		@ frame_needed = 0, uses_anonymous_args = 0
 599 0000 10B5     		push	{r4, lr}
 600              		.cfi_def_cfa_offset 8
 601              		.cfi_offset 4, -8
 602              		.cfi_offset 14, -4
 273:main.c        ****     emergency = 1;
 603              		.loc 1 273 0
 604 0002 FFF7FEFF 		bl	PWM_Motor_Stop
 605              	.LVL28:
 274:main.c        ****     // stops all motors;
 606              		.loc 1 274 0
 607 0006 0122     		movs	r2, #1
 608 0008 014B     		ldr	r3, .L36
 609 000a 1A73     		strb	r2, [r3, #12]
 277:main.c        **** 
 610              		.loc 1 277 0
 611              		@ sp needed
 612 000c 10BD     		pop	{r4, pc}
 613              	.L37:
 614 000e C046     		.align	2
 615              	.L36:
 616 0010 00000000 		.word	.LANCHOR1
 617              		.cfi_endproc
 618              	.LFE38:
 619              		.size	emergency_halt, .-emergency_halt
 620              		.section	.text.initialize,"ax",%progbits
 621              		.align	2
 622              		.global	initialize
 623              		.code	16
 624              		.thumb_func
 625              		.type	initialize, %function
 626              	initialize:
 627              	.LFB39:
 279:main.c        ****     
 628              		.loc 1 279 0
ARM GAS  C:\Users\austc\AppData\Local\Temp\ccAwGtxE.s 			page 22


 629              		.cfi_startproc
 630              		@ args = 0, pretend = 0, frame = 0
 631              		@ frame_needed = 0, uses_anonymous_args = 0
 632 0000 70B5     		push	{r4, r5, r6, lr}
 633              		.cfi_def_cfa_offset 16
 634              		.cfi_offset 4, -16
 635              		.cfi_offset 5, -12
 636              		.cfi_offset 6, -8
 637              		.cfi_offset 14, -4
 281:main.c        ****     Status_Reg_Switches_InterruptEnable();
 638              		.loc 1 281 0
 639 0002 FFF7FEFF 		bl	CAN_Start
 640              	.LVL29:
 641 0006 0400     		movs	r4, r0
 642              	.LVL30:
 282:main.c        ****     Timer_1_Start();
 643              		.loc 1 282 0
 644 0008 FFF7FEFF 		bl	Status_Reg_Switches_InterruptEnable
 645              	.LVL31:
 283:main.c        ****    // ADC_SAR_Seq_1_Start();
 646              		.loc 1 283 0
 647 000c FFF7FEFF 		bl	Timer_1_Start
 648              	.LVL32:
 286:main.c        ****     PWM_Motor_Start();  
 649              		.loc 1 286 0
 650 0010 FFF7FEFF 		bl	QuadDec_Start
 651              	.LVL33:
 287:main.c        ****     
 652              		.loc 1 287 0
 653 0014 FFF7FEFF 		bl	PWM_Motor_Start
 654              	.LVL34:
 289:main.c        ****     CyIntSetVector(CAN_ISR_NUMBER, ISR_CAN);
 655              		.loc 1 289 0
 656 0018 FFF7FEFF 		bl	CAN_GlobalIntEnable
 657              	.LVL35:
 290:main.c        ****     CyGlobalIntEnable; /* Enable global interrupts. */
 658              		.loc 1 290 0
 659 001c 0D49     		ldr	r1, .L40
 660 001e 1D20     		movs	r0, #29
 661 0020 FFF7FEFF 		bl	CyIntSetVector
 662              	.LVL36:
 291:main.c        ****     isr_Limit_1_StartEx(Pin_Limit_Handler);
 663              		.loc 1 291 0
 664              		.syntax divided
 665              	@ 291 "main.c" 1
 666 0024 62B6     		CPSIE   i
 667              	@ 0 "" 2
 292:main.c        ****     isr_period_StartEx(Period_Reset_Handler);
 668              		.loc 1 292 0
 669              		.thumb
 670              		.syntax unified
 671 0026 0C48     		ldr	r0, .L40+4
 672 0028 FFF7FEFF 		bl	isr_Limit_1_StartEx
 673              	.LVL37:
 293:main.c        ****     
 674              		.loc 1 293 0
 675 002c 0B48     		ldr	r0, .L40+8
ARM GAS  C:\Users\austc\AppData\Local\Temp\ccAwGtxE.s 			page 23


 676 002e FFF7FEFF 		bl	isr_period_StartEx
 677              	.LVL38:
 295:main.c        ****         UART_Start();
 678              		.loc 1 295 0
 679 0032 0B4B     		ldr	r3, .L40+12
 680 0034 1B78     		ldrb	r3, [r3]
 681 0036 002B     		cmp	r3, #0
 682 0038 0AD0     		beq	.L38
 296:main.c        ****         sprintf(txData, "CAN_Start():  %u\r\n",can_start);
 683              		.loc 1 296 0
 684 003a FFF7FEFF 		bl	UART_Start
 685              	.LVL39:
 297:main.c        ****         UART_UartPutString(txData); 
 686              		.loc 1 297 0
 687 003e 094D     		ldr	r5, .L40+16
 688 0040 2200     		movs	r2, r4
 689 0042 0949     		ldr	r1, .L40+20
 690 0044 2800     		movs	r0, r5
 691 0046 FFF7FEFF 		bl	sprintf
 692              	.LVL40:
 298:main.c        ****     }
 693              		.loc 1 298 0
 694 004a 2800     		movs	r0, r5
 695 004c FFF7FEFF 		bl	UART_UartPutString
 696              	.LVL41:
 697              	.L38:
 300:main.c        **** 
 698              		.loc 1 300 0
 699              		@ sp needed
 700              	.LVL42:
 701 0050 70BD     		pop	{r4, r5, r6, pc}
 702              	.L41:
 703 0052 C046     		.align	2
 704              	.L40:
 705 0054 00000000 		.word	ISR_CAN
 706 0058 00000000 		.word	Pin_Limit_Handler
 707 005c 00000000 		.word	Period_Reset_Handler
 708 0060 00000000 		.word	.LANCHOR0
 709 0064 00000000 		.word	txData
 710 0068 70000000 		.word	.LC27
 711              		.cfi_endproc
 712              	.LFE39:
 713              		.size	initialize, .-initialize
 714              		.section	.text.set_CAN_ID,"ax",%progbits
 715              		.align	2
 716              		.global	set_CAN_ID
 717              		.code	16
 718              		.thumb_func
 719              		.type	set_CAN_ID, %function
 720              	set_CAN_ID:
 721              	.LFB41:
 393:main.c        ****     message.id = (priority << 10) | (message_id << 5) | 0b00010;
 722              		.loc 1 393 0
 723              		.cfi_startproc
 724              		@ args = 0, pretend = 0, frame = 0
 725              		@ frame_needed = 0, uses_anonymous_args = 0
 726              		@ link register save eliminated.
ARM GAS  C:\Users\austc\AppData\Local\Temp\ccAwGtxE.s 			page 24


 727              	.LVL43:
 394:main.c        **** }
 728              		.loc 1 394 0
 729 0000 8002     		lsls	r0, r0, #10
 730              	.LVL44:
 731 0002 044B     		ldr	r3, .L43
 732 0004 1B69     		ldr	r3, [r3, #16]
 733 0006 5B01     		lsls	r3, r3, #5
 734 0008 1843     		orrs	r0, r3
 735 000a 0223     		movs	r3, #2
 736 000c 1843     		orrs	r0, r3
 737 000e 024B     		ldr	r3, .L43+4
 738 0010 1860     		str	r0, [r3]
 395:main.c        **** 
 739              		.loc 1 395 0
 740              		@ sp needed
 741 0012 7047     		bx	lr
 742              	.L44:
 743              		.align	2
 744              	.L43:
 745 0014 00000000 		.word	.LANCHOR1
 746 0018 00000000 		.word	message
 747              		.cfi_endproc
 748              	.LFE41:
 749              		.size	set_CAN_ID, .-set_CAN_ID
 750              		.section	.text.initialize_can_addr,"ax",%progbits
 751              		.align	2
 752              		.global	initialize_can_addr
 753              		.code	16
 754              		.thumb_func
 755              		.type	initialize_can_addr, %function
 756              	initialize_can_addr:
 757              	.LFB40:
 318:main.c        ****     uint8 setting = Can_addr_Read();
 758              		.loc 1 318 0
 759              		.cfi_startproc
 760              		@ args = 0, pretend = 0, frame = 0
 761              		@ frame_needed = 0, uses_anonymous_args = 0
 762 0000 F0B5     		push	{r4, r5, r6, r7, lr}
 763              		.cfi_def_cfa_offset 20
 764              		.cfi_offset 4, -20
 765              		.cfi_offset 5, -16
 766              		.cfi_offset 6, -12
 767              		.cfi_offset 7, -8
 768              		.cfi_offset 14, -4
 769 0002 83B0     		sub	sp, sp, #12
 770              		.cfi_def_cfa_offset 32
 319:main.c        ****     uint8 shift = 0;
 771              		.loc 1 319 0
 772 0004 FFF7FEFF 		bl	Can_addr_Read
 773              	.LVL45:
 774 0008 0500     		movs	r5, r0
 775              	.LVL46:
 321:main.c        ****         case 0b000: //Base rotation
 776              		.loc 1 321 0
 777 000a FFF7FEFF 		bl	Can_addr_Read
 778              	.LVL47:
ARM GAS  C:\Users\austc\AppData\Local\Temp\ccAwGtxE.s 			page 25


 779 000e 0628     		cmp	r0, #6
 780 0010 72D8     		bhi	.L56
 781 0012 8000     		lsls	r0, r0, #2
 782 0014 544B     		ldr	r3, .L57
 783 0016 1B58     		ldr	r3, [r3, r0]
 784 0018 9F46     		mov	pc, r3
 785              		.section	.rodata
 786              		.align	2
 787              	.L48:
 788 0000 1A000000 		.word	.L47
 789 0004 2E000000 		.word	.L49
 790 0008 5A000000 		.word	.L50
 791 000c 6E000000 		.word	.L51
 792 0010 86000000 		.word	.L52
 793 0014 B4000000 		.word	.L53
 794 0018 E4000000 		.word	.L54
 795              		.section	.text.initialize_can_addr
 796              	.L47:
 323:main.c        ****             shift = 0;
 797              		.loc 1 323 0
 798 001a 1022     		movs	r2, #16
 799 001c 534B     		ldr	r3, .L57+4
 800 001e 1A61     		str	r2, [r3, #16]
 325:main.c        ****             break;
 801              		.loc 1 325 0
 802 0020 0020     		movs	r0, #0
 803 0022 5349     		ldr	r1, .L57+8
 804 0024 534B     		ldr	r3, .L57+12
 805 0026 1860     		str	r0, [r3]
 806 0028 5960     		str	r1, [r3, #4]
 324:main.c        ****             ratio = 1;
 807              		.loc 1 324 0
 808 002a 0026     		movs	r6, #0
 326:main.c        ****         case 0b001: // shoulder
 809              		.loc 1 326 0
 810 002c 65E0     		b	.L46
 811              	.L49:
 328:main.c        ****             shift = 1;
 812              		.loc 1 328 0
 813 002e 1122     		movs	r2, #17
 814 0030 4E4B     		ldr	r3, .L57+4
 815 0032 1A61     		str	r2, [r3, #16]
 816              	.LVL48:
 330:main.c        ****             #ifdef REV2
 817              		.loc 1 330 0
 818 0034 5048     		ldr	r0, .L57+16
 819 0036 5149     		ldr	r1, .L57+20
 820 0038 4E4B     		ldr	r3, .L57+12
 821 003a 1860     		str	r0, [r3]
 822 003c 5960     		str	r1, [r3, #4]
 332:main.c        ****             #endif
 823              		.loc 1 332 0
 824 003e 103A     		subs	r2, r2, #16
 825 0040 4F4B     		ldr	r3, .L57+24
 826 0042 DA72     		strb	r2, [r3, #11]
 334:main.c        ****             ki = 12;
 827              		.loc 1 334 0
ARM GAS  C:\Users\austc\AppData\Local\Temp\ccAwGtxE.s 			page 26


 828 0044 3132     		adds	r2, r2, #49
 829 0046 4F4B     		ldr	r3, .L57+28
 830 0048 1A60     		str	r2, [r3]
 335:main.c        ****             kd = 10;
 831              		.loc 1 335 0
 832 004a 263A     		subs	r2, r2, #38
 833 004c 4E4B     		ldr	r3, .L57+32
 834 004e 1A60     		str	r2, [r3]
 336:main.c        ****             break;
 835              		.loc 1 336 0
 836 0050 023A     		subs	r2, r2, #2
 837 0052 4E4B     		ldr	r3, .L57+36
 838 0054 1A60     		str	r2, [r3]
 329:main.c        ****             ratio = 14.45;
 839              		.loc 1 329 0
 840 0056 0126     		movs	r6, #1
 337:main.c        ****         case 0b010: // elbow
 841              		.loc 1 337 0
 842 0058 4FE0     		b	.L46
 843              	.LVL49:
 844              	.L50:
 339:main.c        ****             shift = 2;
 845              		.loc 1 339 0
 846 005a 1222     		movs	r2, #18
 847 005c 434B     		ldr	r3, .L57+4
 848 005e 1A61     		str	r2, [r3, #16]
 849              	.LVL50:
 341:main.c        ****             break;
 850              		.loc 1 341 0
 851 0060 4548     		ldr	r0, .L57+16
 852 0062 4B49     		ldr	r1, .L57+40
 853 0064 434B     		ldr	r3, .L57+12
 854 0066 1860     		str	r0, [r3]
 855 0068 5960     		str	r1, [r3, #4]
 340:main.c        ****             ratio = 2.8;
 856              		.loc 1 340 0
 857 006a 0226     		movs	r6, #2
 342:main.c        ****         case 0b011: // forearm rotation
 858              		.loc 1 342 0
 859 006c 45E0     		b	.L46
 860              	.LVL51:
 861              	.L51:
 344:main.c        ****             disable_limit = 1;
 862              		.loc 1 344 0
 863 006e 3F4B     		ldr	r3, .L57+4
 864 0070 1322     		movs	r2, #19
 865 0072 1A61     		str	r2, [r3, #16]
 345:main.c        ****             shift = 3;
 866              		.loc 1 345 0
 867 0074 123A     		subs	r2, r2, #18
 868 0076 1A75     		strb	r2, [r3, #20]
 869              	.LVL52:
 347:main.c        **** 
 870              		.loc 1 347 0
 871 0078 0020     		movs	r0, #0
 872 007a 3D49     		ldr	r1, .L57+8
 873 007c 3D4B     		ldr	r3, .L57+12
ARM GAS  C:\Users\austc\AppData\Local\Temp\ccAwGtxE.s 			page 27


 874 007e 1860     		str	r0, [r3]
 875 0080 5960     		str	r1, [r3, #4]
 346:main.c        ****             ratio = 1;
 876              		.loc 1 346 0
 877 0082 0326     		movs	r6, #3
 349:main.c        ****         case 0b100: // diff wrist 1
 878              		.loc 1 349 0
 879 0084 39E0     		b	.L46
 880              	.LVL53:
 881              	.L52:
 351:main.c        ****             disable_limit = 1;
 882              		.loc 1 351 0
 883 0086 394A     		ldr	r2, .L57+4
 884 0088 1423     		movs	r3, #20
 885 008a 1361     		str	r3, [r2, #16]
 352:main.c        ****             shift = 4;
 886              		.loc 1 352 0
 887 008c 0121     		movs	r1, #1
 888 008e 1175     		strb	r1, [r2, #20]
 889              	.LVL54:
 354:main.c        ****             kp = 20;
 890              		.loc 1 354 0
 891 0090 4048     		ldr	r0, .L57+44
 892 0092 4149     		ldr	r1, .L57+48
 893 0094 374A     		ldr	r2, .L57+12
 894 0096 1060     		str	r0, [r2]
 895 0098 5160     		str	r1, [r2, #4]
 355:main.c        ****             ki = 30;
 896              		.loc 1 355 0
 897 009a 3A4A     		ldr	r2, .L57+28
 898 009c 1360     		str	r3, [r2]
 356:main.c        ****             kd = 10;
 899              		.loc 1 356 0
 900 009e 1E22     		movs	r2, #30
 901 00a0 394B     		ldr	r3, .L57+32
 902 00a2 1A60     		str	r2, [r3]
 357:main.c        ****             flipEncoder = -1;
 903              		.loc 1 357 0
 904 00a4 143A     		subs	r2, r2, #20
 905 00a6 394B     		ldr	r3, .L57+36
 906 00a8 1A60     		str	r2, [r3]
 358:main.c        ****             break;
 907              		.loc 1 358 0
 908 00aa F532     		adds	r2, r2, #245
 909 00ac 344B     		ldr	r3, .L57+24
 910 00ae DA72     		strb	r2, [r3, #11]
 353:main.c        ****             ratio = 1.3888;
 911              		.loc 1 353 0
 912 00b0 0426     		movs	r6, #4
 359:main.c        ****         case 0b101: // diff wrist 2
 913              		.loc 1 359 0
 914 00b2 22E0     		b	.L46
 915              	.LVL55:
 916              	.L53:
 361:main.c        ****             disable_limit = 1;
 917              		.loc 1 361 0
 918 00b4 2D4B     		ldr	r3, .L57+4
ARM GAS  C:\Users\austc\AppData\Local\Temp\ccAwGtxE.s 			page 28


 919 00b6 1522     		movs	r2, #21
 920 00b8 1A61     		str	r2, [r3, #16]
 362:main.c        ****             flipEncoder = -1;
 921              		.loc 1 362 0
 922 00ba 143A     		subs	r2, r2, #20
 923 00bc 1A75     		strb	r2, [r3, #20]
 363:main.c        ****             shift = 5;
 924              		.loc 1 363 0
 925 00be FE32     		adds	r2, r2, #254
 926 00c0 2F4B     		ldr	r3, .L57+24
 927 00c2 DA72     		strb	r2, [r3, #11]
 928              	.LVL56:
 365:main.c        ****             kp = 50;
 929              		.loc 1 365 0
 930 00c4 3348     		ldr	r0, .L57+44
 931 00c6 3449     		ldr	r1, .L57+48
 932 00c8 2A4B     		ldr	r3, .L57+12
 933 00ca 1860     		str	r0, [r3]
 934 00cc 5960     		str	r1, [r3, #4]
 366:main.c        ****             ki = 40;
 935              		.loc 1 366 0
 936 00ce CD3A     		subs	r2, r2, #205
 937 00d0 2C4B     		ldr	r3, .L57+28
 938 00d2 1A60     		str	r2, [r3]
 367:main.c        ****             kd = 10;
 939              		.loc 1 367 0
 940 00d4 0A3A     		subs	r2, r2, #10
 941 00d6 2C4B     		ldr	r3, .L57+32
 942 00d8 1A60     		str	r2, [r3]
 368:main.c        ****             break;
 943              		.loc 1 368 0
 944 00da 1E3A     		subs	r2, r2, #30
 945 00dc 2B4B     		ldr	r3, .L57+36
 946 00de 1A60     		str	r2, [r3]
 364:main.c        ****             ratio = 1.3888;
 947              		.loc 1 364 0
 948 00e0 0526     		movs	r6, #5
 369:main.c        ****         case 0b110: // hand
 949              		.loc 1 369 0
 950 00e2 0AE0     		b	.L46
 951              	.LVL57:
 952              	.L54:
 371:main.c        ****             shift = 6;
 953              		.loc 1 371 0
 954 00e4 1622     		movs	r2, #22
 955 00e6 214B     		ldr	r3, .L57+4
 956 00e8 1A61     		str	r2, [r3, #16]
 957              	.LVL58:
 373:main.c        ****             break;
 958              		.loc 1 373 0
 959 00ea 0020     		movs	r0, #0
 960 00ec 2049     		ldr	r1, .L57+8
 961 00ee 214B     		ldr	r3, .L57+12
 962 00f0 1860     		str	r0, [r3]
 963 00f2 5960     		str	r1, [r3, #4]
 372:main.c        ****             ratio = 1;
 964              		.loc 1 372 0
ARM GAS  C:\Users\austc\AppData\Local\Temp\ccAwGtxE.s 			page 29


 965 00f4 0626     		movs	r6, #6
 374:main.c        ****     }
 966              		.loc 1 374 0
 967 00f6 00E0     		b	.L46
 968              	.LVL59:
 969              	.L56:
 320:main.c        ****     switch(Can_addr_Read()) {
 970              		.loc 1 320 0
 971 00f8 0026     		movs	r6, #0
 972              	.LVL60:
 973              	.L46:
 377:main.c        ****     CAN_RX_MAILBOX_1_SHIFT = CAN_RX_MAILBOX_1_SHIFT << shift;
 974              		.loc 1 377 0
 975 00fa 214C     		ldr	r4, .L57+24
 976 00fc 6368     		ldr	r3, [r4, #4]
 977 00fe B340     		lsls	r3, r3, r6
 978 0100 6360     		str	r3, [r4, #4]
 378:main.c        ****     CAN_RX_MAILBOX_0 += shift;
 979              		.loc 1 378 0
 980 0102 A389     		ldrh	r3, [r4, #12]
 981 0104 B340     		lsls	r3, r3, r6
 982 0106 A381     		strh	r3, [r4, #12]
 379:main.c        ****     CAN_RX_MAILBOX_1 += shift;
 983              		.loc 1 379 0
 984 0108 B3B2     		uxth	r3, r6
 985 010a 2289     		ldrh	r2, [r4, #8]
 986 010c 9A18     		adds	r2, r3, r2
 987 010e 2281     		strh	r2, [r4, #8]
 380:main.c        ****     set_CAN_ID(0b1);
 988              		.loc 1 380 0
 989 0110 1649     		ldr	r1, .L57+4
 990 0112 4A89     		ldrh	r2, [r1, #10]
 991 0114 9B18     		adds	r3, r3, r2
 992 0116 4B81     		strh	r3, [r1, #10]
 381:main.c        ****     
 993              		.loc 1 381 0
 994 0118 0120     		movs	r0, #1
 995 011a FFF7FEFF 		bl	set_CAN_ID
 996              	.LVL61:
 383:main.c        ****         sprintf(txData, "CAN dip setting:  %x Message ID: %ld\r\n",setting, message_id);
 997              		.loc 1 383 0
 998 011e 2378     		ldrb	r3, [r4]
 999 0120 002B     		cmp	r3, #0
 1000 0122 1ED0     		beq	.L45
 384:main.c        ****         UART_UartPutString(txData); 
 1001              		.loc 1 384 0
 1002 0124 114F     		ldr	r7, .L57+4
 1003 0126 1D4C     		ldr	r4, .L57+52
 1004 0128 3B69     		ldr	r3, [r7, #16]
 1005 012a 2A00     		movs	r2, r5
 1006 012c 1C49     		ldr	r1, .L57+56
 1007 012e 2000     		movs	r0, r4
 1008 0130 FFF7FEFF 		bl	sprintf
 1009              	.LVL62:
 385:main.c        ****         sprintf(txData, "Can shift: %d   P0Mailbox: %d P1Mailbox %d\r\n",shift, CAN_RX_MAILBOX_0, C
 1010              		.loc 1 385 0
 1011 0134 2000     		movs	r0, r4
ARM GAS  C:\Users\austc\AppData\Local\Temp\ccAwGtxE.s 			page 30


 1012 0136 FFF7FEFF 		bl	UART_UartPutString
 1013              	.LVL63:
 386:main.c        ****         UART_UartPutString(txData); 
 1014              		.loc 1 386 0
 1015 013a 114B     		ldr	r3, .L57+24
 1016 013c 1B89     		ldrh	r3, [r3, #8]
 1017 013e 7A89     		ldrh	r2, [r7, #10]
 1018 0140 0092     		str	r2, [sp]
 1019 0142 3200     		movs	r2, r6
 1020 0144 1749     		ldr	r1, .L57+60
 1021 0146 2000     		movs	r0, r4
 1022 0148 FFF7FEFF 		bl	sprintf
 1023              	.LVL64:
 387:main.c        ****         sprintf(txData, "disable_limit: %d\r\n",disable_limit);
 1024              		.loc 1 387 0
 1025 014c 2000     		movs	r0, r4
 1026 014e FFF7FEFF 		bl	UART_UartPutString
 1027              	.LVL65:
 388:main.c        ****         UART_UartPutString(txData); 
 1028              		.loc 1 388 0
 1029 0152 3A7D     		ldrb	r2, [r7, #20]
 1030 0154 1449     		ldr	r1, .L57+64
 1031 0156 2000     		movs	r0, r4
 1032 0158 FFF7FEFF 		bl	sprintf
 1033              	.LVL66:
 389:main.c        ****     }
 1034              		.loc 1 389 0
 1035 015c 2000     		movs	r0, r4
 1036 015e FFF7FEFF 		bl	UART_UartPutString
 1037              	.LVL67:
 1038              	.L45:
 391:main.c        **** 
 1039              		.loc 1 391 0
 1040 0162 03B0     		add	sp, sp, #12
 1041              		@ sp needed
 1042              	.LVL68:
 1043              	.LVL69:
 1044 0164 F0BD     		pop	{r4, r5, r6, r7, pc}
 1045              	.L58:
 1046 0166 C046     		.align	2
 1047              	.L57:
 1048 0168 00000000 		.word	.L48
 1049 016c 00000000 		.word	.LANCHOR1
 1050 0170 0000F03F 		.word	1072693248
 1051 0174 00000000 		.word	ratio
 1052 0178 66666666 		.word	1717986918
 1053 017c 66E62C40 		.word	1076684390
 1054 0180 00000000 		.word	.LANCHOR0
 1055 0184 00000000 		.word	kp
 1056 0188 00000000 		.word	ki
 1057 018c 00000000 		.word	kd
 1058 0190 66660640 		.word	1074161254
 1059 0194 F1F44A59 		.word	1498084593
 1060 0198 8638F63F 		.word	1073100934
 1061 019c 00000000 		.word	txData
 1062 01a0 84000000 		.word	.LC39
 1063 01a4 AC000000 		.word	.LC42
ARM GAS  C:\Users\austc\AppData\Local\Temp\ccAwGtxE.s 			page 31


 1064 01a8 DC000000 		.word	.LC44
 1065              		.cfi_endproc
 1066              	.LFE40:
 1067              		.size	initialize_can_addr, .-initialize_can_addr
 1068              		.global	__aeabi_i2d
 1069              		.global	__aeabi_ddiv
 1070              		.global	__aeabi_dmul
 1071              		.global	__aeabi_d2iz
 1072              		.section	.text.CAN_Send_Encoder,"ax",%progbits
 1073              		.align	2
 1074              		.global	CAN_Send_Encoder
 1075              		.code	16
 1076              		.thumb_func
 1077              		.type	CAN_Send_Encoder, %function
 1078              	CAN_Send_Encoder:
 1079              	.LFB42:
 398:main.c        ****     int16 ticks = QuadDec_GetCounter();
 1080              		.loc 1 398 0
 1081              		.cfi_startproc
 1082              		@ args = 0, pretend = 0, frame = 0
 1083              		@ frame_needed = 0, uses_anonymous_args = 0
 1084 0000 F0B5     		push	{r4, r5, r6, r7, lr}
 1085              		.cfi_def_cfa_offset 20
 1086              		.cfi_offset 4, -20
 1087              		.cfi_offset 5, -16
 1088              		.cfi_offset 6, -12
 1089              		.cfi_offset 7, -8
 1090              		.cfi_offset 14, -4
 1091 0002 83B0     		sub	sp, sp, #12
 1092              		.cfi_def_cfa_offset 32
 399:main.c        ****     int16 angle = (((double)ticks)/ratio)*10;
 1093              		.loc 1 399 0
 1094 0004 FFF7FEFF 		bl	QuadDec_GetCounter
 1095              	.LVL70:
 400:main.c        ****     data.byte[0u] = 0x14u;
 1096              		.loc 1 400 0
 1097 0008 FFF7FEFF 		bl	__aeabi_i2d
 1098              	.LVL71:
 1099 000c 184B     		ldr	r3, .L61
 1100 000e 1A68     		ldr	r2, [r3]
 1101 0010 5B68     		ldr	r3, [r3, #4]
 1102 0012 FFF7FEFF 		bl	__aeabi_ddiv
 1103              	.LVL72:
 1104 0016 0022     		movs	r2, #0
 1105 0018 164B     		ldr	r3, .L61+4
 1106 001a FFF7FEFF 		bl	__aeabi_dmul
 1107              	.LVL73:
 1108 001e FFF7FEFF 		bl	__aeabi_d2iz
 1109              	.LVL74:
 1110 0022 00B2     		sxth	r0, r0
 1111              	.LVL75:
 401:main.c        ****     data.byte[1u] = LO8(angle);
 1112              		.loc 1 401 0
 1113 0024 144B     		ldr	r3, .L61+8
 1114 0026 1422     		movs	r2, #20
 1115 0028 1A70     		strb	r2, [r3]
 402:main.c        ****     data.byte[2u] = HI8(angle);
ARM GAS  C:\Users\austc\AppData\Local\Temp\ccAwGtxE.s 			page 32


 1116              		.loc 1 402 0
 1117 002a 5870     		strb	r0, [r3, #1]
 403:main.c        ****     data.byte[3u] = 0;
 1118              		.loc 1 403 0
 1119 002c 80B2     		uxth	r0, r0
 1120 002e 000A     		lsrs	r0, r0, #8
 1121              	.LVL76:
 1122 0030 9870     		strb	r0, [r3, #2]
 404:main.c        ****     data.byte[4u] = 0;
 1123              		.loc 1 404 0
 1124 0032 0022     		movs	r2, #0
 1125 0034 DA70     		strb	r2, [r3, #3]
 405:main.c        ****     CAN_SendMsg(&message);
 1126              		.loc 1 405 0
 1127 0036 1A71     		strb	r2, [r3, #4]
 406:main.c        ****     if(uart_debug == 2) {
 1128              		.loc 1 406 0
 1129 0038 1048     		ldr	r0, .L61+12
 1130 003a FFF7FEFF 		bl	CAN_SendMsg
 1131              	.LVL77:
 407:main.c        ****         sprintf(txData, "CAN_Send_Encoder: byte[0u] %x byte[1u] %x byte[2u] %x QuadDec Count %d\r\n
 1132              		.loc 1 407 0
 1133 003e 104B     		ldr	r3, .L61+16
 1134 0040 1B78     		ldrb	r3, [r3]
 1135 0042 022B     		cmp	r3, #2
 1136 0044 11D1     		bne	.L59
 409:main.c        ****             QuadDec_GetCounter());
 1137              		.loc 1 409 0
 1138 0046 0C4B     		ldr	r3, .L61+8
 1139 0048 1D78     		ldrb	r5, [r3]
 1140 004a 5E78     		ldrb	r6, [r3, #1]
 1141 004c 9F78     		ldrb	r7, [r3, #2]
 410:main.c        ****         UART_UartPutString(txData);    
 1142              		.loc 1 410 0
 1143 004e FFF7FEFF 		bl	QuadDec_GetCounter
 1144              	.LVL78:
 408:main.c        ****             data.byte[0u],data.byte[1u],data.byte[2u],
 1145              		.loc 1 408 0
 1146 0052 0C4C     		ldr	r4, .L61+20
 1147 0054 0190     		str	r0, [sp, #4]
 1148 0056 0097     		str	r7, [sp]
 1149 0058 3300     		movs	r3, r6
 1150 005a 2A00     		movs	r2, r5
 1151 005c 0A49     		ldr	r1, .L61+24
 1152 005e 2000     		movs	r0, r4
 1153 0060 FFF7FEFF 		bl	sprintf
 1154              	.LVL79:
 411:main.c        ****     }
 1155              		.loc 1 411 0
 1156 0064 2000     		movs	r0, r4
 1157 0066 FFF7FEFF 		bl	UART_UartPutString
 1158              	.LVL80:
 1159              	.L59:
 413:main.c        **** 
 1160              		.loc 1 413 0
 1161 006a 03B0     		add	sp, sp, #12
 1162              		@ sp needed
ARM GAS  C:\Users\austc\AppData\Local\Temp\ccAwGtxE.s 			page 33


 1163 006c F0BD     		pop	{r4, r5, r6, r7, pc}
 1164              	.L62:
 1165 006e C046     		.align	2
 1166              	.L61:
 1167 0070 00000000 		.word	ratio
 1168 0074 00002440 		.word	1076101120
 1169 0078 00000000 		.word	data
 1170 007c 00000000 		.word	message
 1171 0080 00000000 		.word	.LANCHOR0
 1172 0084 00000000 		.word	txData
 1173 0088 F0000000 		.word	.LC50
 1174              		.cfi_endproc
 1175              	.LFE42:
 1176              		.size	CAN_Send_Encoder, .-CAN_Send_Encoder
 1177              		.section	.text.CAN_Send_Telemetry,"ax",%progbits
 1178              		.align	2
 1179              		.global	CAN_Send_Telemetry
 1180              		.code	16
 1181              		.thumb_func
 1182              		.type	CAN_Send_Telemetry, %function
 1183              	CAN_Send_Telemetry:
 1184              	.LFB43:
 415:main.c        ****     data.byte[0u] = 0x18u;
 1185              		.loc 1 415 0
 1186              		.cfi_startproc
 1187              		@ args = 0, pretend = 0, frame = 0
 1188              		@ frame_needed = 0, uses_anonymous_args = 0
 1189 0000 10B5     		push	{r4, lr}
 1190              		.cfi_def_cfa_offset 8
 1191              		.cfi_offset 4, -8
 1192              		.cfi_offset 14, -4
 416:main.c        ****     data.byte[1u] = 0;
 1193              		.loc 1 416 0
 1194 0002 0D4B     		ldr	r3, .L65
 1195 0004 1822     		movs	r2, #24
 1196 0006 1A70     		strb	r2, [r3]
 417:main.c        ****     data.byte[2u] = 0;
 1197              		.loc 1 417 0
 1198 0008 0022     		movs	r2, #0
 1199 000a 5A70     		strb	r2, [r3, #1]
 418:main.c        ****     data.byte[3u] = 0;
 1200              		.loc 1 418 0
 1201 000c 9A70     		strb	r2, [r3, #2]
 419:main.c        ****     data.byte[4u] = 0;
 1202              		.loc 1 419 0
 1203 000e DA70     		strb	r2, [r3, #3]
 420:main.c        ****     CAN_SendMsg(&message);
 1204              		.loc 1 420 0
 1205 0010 1A71     		strb	r2, [r3, #4]
 421:main.c        ****     if(uart_debug == 2) {
 1206              		.loc 1 421 0
 1207 0012 0A48     		ldr	r0, .L65+4
 1208 0014 FFF7FEFF 		bl	CAN_SendMsg
 1209              	.LVL81:
 422:main.c        ****         sprintf(txData, "Telemerty: byte[0u] %x byte[1u] %x\r\n",(uint8)data.byte[0u],(uint8)data.b
 1210              		.loc 1 422 0
 1211 0018 094B     		ldr	r3, .L65+8
ARM GAS  C:\Users\austc\AppData\Local\Temp\ccAwGtxE.s 			page 34


 1212 001a 1B78     		ldrb	r3, [r3]
 1213 001c 022B     		cmp	r3, #2
 1214 001e 0AD1     		bne	.L63
 423:main.c        ****         UART_UartPutString(txData); 
 1215              		.loc 1 423 0
 1216 0020 054B     		ldr	r3, .L65
 1217 0022 1A78     		ldrb	r2, [r3]
 1218 0024 5B78     		ldrb	r3, [r3, #1]
 1219 0026 074C     		ldr	r4, .L65+12
 1220 0028 0749     		ldr	r1, .L65+16
 1221 002a 2000     		movs	r0, r4
 1222 002c FFF7FEFF 		bl	sprintf
 1223              	.LVL82:
 424:main.c        ****     }
 1224              		.loc 1 424 0
 1225 0030 2000     		movs	r0, r4
 1226 0032 FFF7FEFF 		bl	UART_UartPutString
 1227              	.LVL83:
 1228              	.L63:
 426:main.c        **** 
 1229              		.loc 1 426 0
 1230              		@ sp needed
 1231 0036 10BD     		pop	{r4, pc}
 1232              	.L66:
 1233              		.align	2
 1234              	.L65:
 1235 0038 00000000 		.word	data
 1236 003c 00000000 		.word	message
 1237 0040 00000000 		.word	.LANCHOR0
 1238 0044 00000000 		.word	txData
 1239 0048 3C010000 		.word	.LC56
 1240              		.cfi_endproc
 1241              	.LFE43:
 1242              		.size	CAN_Send_Telemetry, .-CAN_Send_Telemetry
 1243              		.section	.text.CAN_Send_Model,"ax",%progbits
 1244              		.align	2
 1245              		.global	CAN_Send_Model
 1246              		.code	16
 1247              		.thumb_func
 1248              		.type	CAN_Send_Model, %function
 1249              	CAN_Send_Model:
 1250              	.LFB44:
 428:main.c        ****     data.byte[0u] = 0x12u;
 1251              		.loc 1 428 0
 1252              		.cfi_startproc
 1253              		@ args = 0, pretend = 0, frame = 0
 1254              		@ frame_needed = 0, uses_anonymous_args = 0
 1255 0000 10B5     		push	{r4, lr}
 1256              		.cfi_def_cfa_offset 8
 1257              		.cfi_offset 4, -8
 1258              		.cfi_offset 14, -4
 429:main.c        ****     data.byte[1u] = 0x00u;
 1259              		.loc 1 429 0
 1260 0002 0D4B     		ldr	r3, .L69
 1261 0004 1222     		movs	r2, #18
 1262 0006 1A70     		strb	r2, [r3]
 430:main.c        ****     data.byte[2u] = 0;
ARM GAS  C:\Users\austc\AppData\Local\Temp\ccAwGtxE.s 			page 35


 1263              		.loc 1 430 0
 1264 0008 0022     		movs	r2, #0
 1265 000a 5A70     		strb	r2, [r3, #1]
 431:main.c        ****     data.byte[3u] = 0;
 1266              		.loc 1 431 0
 1267 000c 9A70     		strb	r2, [r3, #2]
 432:main.c        ****     data.byte[4u] = 0;
 1268              		.loc 1 432 0
 1269 000e DA70     		strb	r2, [r3, #3]
 433:main.c        ****     CAN_SendMsg(&message);
 1270              		.loc 1 433 0
 1271 0010 1A71     		strb	r2, [r3, #4]
 434:main.c        ****     if(uart_debug == 2) {
 1272              		.loc 1 434 0
 1273 0012 0A48     		ldr	r0, .L69+4
 1274 0014 FFF7FEFF 		bl	CAN_SendMsg
 1275              	.LVL84:
 435:main.c        ****         sprintf(txData, "Model: byte[0u] %x byte[1u] %x\r\n",data.byte[0u],data.byte[1u]);
 1276              		.loc 1 435 0
 1277 0018 094B     		ldr	r3, .L69+8
 1278 001a 1B78     		ldrb	r3, [r3]
 1279 001c 022B     		cmp	r3, #2
 1280 001e 0AD1     		bne	.L67
 436:main.c        ****         UART_UartPutString(txData); 
 1281              		.loc 1 436 0
 1282 0020 054B     		ldr	r3, .L69
 1283 0022 1A78     		ldrb	r2, [r3]
 1284 0024 5B78     		ldrb	r3, [r3, #1]
 1285 0026 074C     		ldr	r4, .L69+12
 1286 0028 0749     		ldr	r1, .L69+16
 1287 002a 2000     		movs	r0, r4
 1288 002c FFF7FEFF 		bl	sprintf
 1289              	.LVL85:
 437:main.c        ****     }
 1290              		.loc 1 437 0
 1291 0030 2000     		movs	r0, r4
 1292 0032 FFF7FEFF 		bl	UART_UartPutString
 1293              	.LVL86:
 1294              	.L67:
 439:main.c        **** 
 1295              		.loc 1 439 0
 1296              		@ sp needed
 1297 0036 10BD     		pop	{r4, pc}
 1298              	.L70:
 1299              		.align	2
 1300              	.L69:
 1301 0038 00000000 		.word	data
 1302 003c 00000000 		.word	message
 1303 0040 00000000 		.word	.LANCHOR0
 1304 0044 00000000 		.word	txData
 1305 0048 64010000 		.word	.LC62
 1306              		.cfi_endproc
 1307              	.LFE44:
 1308              		.size	CAN_Send_Model, .-CAN_Send_Model
 1309              		.section	.text.CAN_Send_Error,"ax",%progbits
 1310              		.align	2
 1311              		.global	CAN_Send_Error
ARM GAS  C:\Users\austc\AppData\Local\Temp\ccAwGtxE.s 			page 36


 1312              		.code	16
 1313              		.thumb_func
 1314              		.type	CAN_Send_Error, %function
 1315              	CAN_Send_Error:
 1316              	.LFB45:
 441:main.c        ****     data.byte[0u] = 0xffu;
 1317              		.loc 1 441 0
 1318              		.cfi_startproc
 1319              		@ args = 0, pretend = 0, frame = 0
 1320              		@ frame_needed = 0, uses_anonymous_args = 0
 1321              	.LVL87:
 1322 0000 10B5     		push	{r4, lr}
 1323              		.cfi_def_cfa_offset 8
 1324              		.cfi_offset 4, -8
 1325              		.cfi_offset 14, -4
 1326 0002 82B0     		sub	sp, sp, #8
 1327              		.cfi_def_cfa_offset 16
 442:main.c        ****     data.byte[1u] = code;
 1328              		.loc 1 442 0
 1329 0004 0E4B     		ldr	r3, .L73
 1330 0006 FF22     		movs	r2, #255
 1331 0008 1A70     		strb	r2, [r3]
 443:main.c        ****     data.byte[2u] = param;
 1332              		.loc 1 443 0
 1333 000a 5870     		strb	r0, [r3, #1]
 444:main.c        ****     data.byte[3u] = 0;
 1334              		.loc 1 444 0
 1335 000c 9970     		strb	r1, [r3, #2]
 445:main.c        ****     data.byte[4u] = 0;
 1336              		.loc 1 445 0
 1337 000e 0022     		movs	r2, #0
 1338 0010 DA70     		strb	r2, [r3, #3]
 446:main.c        ****     CAN_SendMsg(&message);
 1339              		.loc 1 446 0
 1340 0012 1A71     		strb	r2, [r3, #4]
 447:main.c        ****     if(uart_debug == 2) {
 1341              		.loc 1 447 0
 1342 0014 0B48     		ldr	r0, .L73+4
 1343              	.LVL88:
 1344 0016 FFF7FEFF 		bl	CAN_SendMsg
 1345              	.LVL89:
 448:main.c        ****         sprintf(txData, "Error: byte[0u] %x byte[1u] %x byte[2u] %x\r\n",data.byte[0u],data.byte[1u
 1346              		.loc 1 448 0
 1347 001a 0B4B     		ldr	r3, .L73+8
 1348 001c 1B78     		ldrb	r3, [r3]
 1349 001e 022B     		cmp	r3, #2
 1350 0020 0CD1     		bne	.L71
 449:main.c        ****         UART_UartPutString(txData); 
 1351              		.loc 1 449 0
 1352 0022 0749     		ldr	r1, .L73
 1353 0024 0A78     		ldrb	r2, [r1]
 1354 0026 4B78     		ldrb	r3, [r1, #1]
 1355 0028 8978     		ldrb	r1, [r1, #2]
 1356 002a 084C     		ldr	r4, .L73+12
 1357 002c 0091     		str	r1, [sp]
 1358 002e 0849     		ldr	r1, .L73+16
 1359 0030 2000     		movs	r0, r4
ARM GAS  C:\Users\austc\AppData\Local\Temp\ccAwGtxE.s 			page 37


 1360 0032 FFF7FEFF 		bl	sprintf
 1361              	.LVL90:
 450:main.c        ****     }
 1362              		.loc 1 450 0
 1363 0036 2000     		movs	r0, r4
 1364 0038 FFF7FEFF 		bl	UART_UartPutString
 1365              	.LVL91:
 1366              	.L71:
 452:main.c        **** 
 1367              		.loc 1 452 0
 1368 003c 02B0     		add	sp, sp, #8
 1369              		@ sp needed
 1370 003e 10BD     		pop	{r4, pc}
 1371              	.L74:
 1372              		.align	2
 1373              	.L73:
 1374 0040 00000000 		.word	data
 1375 0044 00000000 		.word	message
 1376 0048 00000000 		.word	.LANCHOR0
 1377 004c 00000000 		.word	txData
 1378 0050 88010000 		.word	.LC68
 1379              		.cfi_endproc
 1380              	.LFE45:
 1381              		.size	CAN_Send_Error, .-CAN_Send_Error
 1382              		.section	.text.set_data,"ax",%progbits
 1383              		.align	2
 1384              		.global	set_data
 1385              		.code	16
 1386              		.thumb_func
 1387              		.type	set_data, %function
 1388              	set_data:
 1389              	.LFB47:
 492:main.c        ****         //set mode
 1390              		.loc 1 492 0
 1391              		.cfi_startproc
 1392              		@ args = 0, pretend = 0, frame = 0
 1393              		@ frame_needed = 0, uses_anonymous_args = 0
 1394              	.LVL92:
 1395 0000 10B5     		push	{r4, lr}
 1396              		.cfi_def_cfa_offset 8
 1397              		.cfi_offset 4, -8
 1398              		.cfi_offset 14, -4
 494:main.c        ****             if(CAN_RX_DATA_BYTE2(addr) == 1 || CAN_RX_DATA_BYTE2(addr) == 0) {
 1399              		.loc 1 494 0
 1400 0002 4001     		lsls	r0, r0, #5
 1401              	.LVL93:
 1402 0004 334B     		ldr	r3, .L84
 1403 0006 9C46     		mov	ip, r3
 1404 0008 6044     		add	r0, r0, ip
 1405 000a 8368     		ldr	r3, [r0, #8]
 1406 000c 1B0E     		lsrs	r3, r3, #24
 1407 000e 23D1     		bne	.L76
 495:main.c        ****                 mode = CAN_RX_DATA_BYTE2(addr);
 1408              		.loc 1 495 0
 1409 0010 8368     		ldr	r3, [r0, #8]
 1410 0012 1B0C     		lsrs	r3, r3, #16
 1411 0014 FF22     		movs	r2, #255
ARM GAS  C:\Users\austc\AppData\Local\Temp\ccAwGtxE.s 			page 38


 1412 0016 1340     		ands	r3, r2
 1413 0018 012B     		cmp	r3, #1
 1414 001a 03D0     		beq	.L77
 495:main.c        ****                 mode = CAN_RX_DATA_BYTE2(addr);
 1415              		.loc 1 495 0 is_stmt 0 discriminator 1
 1416 001c 8368     		ldr	r3, [r0, #8]
 1417 001e 1B0C     		lsrs	r3, r3, #16
 1418 0020 1A42     		tst	r2, r3
 1419 0022 11D1     		bne	.L78
 1420              	.L77:
 496:main.c        ****                 if(mode == 1){
 1421              		.loc 1 496 0 is_stmt 1
 1422 0024 8368     		ldr	r3, [r0, #8]
 1423 0026 1B0C     		lsrs	r3, r3, #16
 1424 0028 DBB2     		uxtb	r3, r3
 1425 002a 2B4A     		ldr	r2, .L84+4
 1426 002c 9372     		strb	r3, [r2, #10]
 497:main.c        ****                     final_angle = QuadDec_GetCounter() * flipEncoder;
 1427              		.loc 1 497 0
 1428 002e 012B     		cmp	r3, #1
 1429 0030 0ED1     		bne	.L79
 498:main.c        ****                     i = 0;
 1430              		.loc 1 498 0
 1431 0032 FFF7FEFF 		bl	QuadDec_GetCounter
 1432              	.LVL94:
 1433 0036 294A     		ldr	r2, .L84+8
 1434 0038 274B     		ldr	r3, .L84+4
 1435 003a DB7A     		ldrb	r3, [r3, #11]
 1436 003c 5BB2     		sxtb	r3, r3
 1437 003e 5843     		muls	r0, r3
 1438 0040 5080     		strh	r0, [r2, #2]
 499:main.c        ****                 }
 1439              		.loc 1 499 0
 1440 0042 0023     		movs	r3, #0
 1441 0044 5360     		str	r3, [r2, #4]
 1442 0046 03E0     		b	.L79
 1443              	.L78:
 503:main.c        ****                 invalid_arg.done = 0;
 1444              		.loc 1 503 0
 1445 0048 254B     		ldr	r3, .L84+12
 1446 004a 0022     		movs	r2, #0
 1447 004c 5A70     		strb	r2, [r3, #1]
 504:main.c        ****             }
 1448              		.loc 1 504 0
 1449 004e 9A70     		strb	r2, [r3, #2]
 1450              	.L79:
 506:main.c        ****         } 
 1451              		.loc 1 506 0
 1452 0050 0122     		movs	r2, #1
 1453 0052 224B     		ldr	r3, .L84+8
 1454 0054 1A72     		strb	r2, [r3, #8]
 1455 0056 3BE0     		b	.L75
 1456              	.L76:
 509:main.c        ****             Can_rx_pwm.b1 = CAN_RX_DATA_BYTE2(addr);
 1457              		.loc 1 509 0
 1458 0058 8368     		ldr	r3, [r0, #8]
 1459 005a 1B0E     		lsrs	r3, r3, #24
ARM GAS  C:\Users\austc\AppData\Local\Temp\ccAwGtxE.s 			page 39


 1460 005c 022B     		cmp	r3, #2
 1461 005e 0ED1     		bne	.L81
 510:main.c        ****             Can_rx_pwm.b2 = CAN_RX_DATA_BYTE3(addr);
 1462              		.loc 1 510 0
 1463 0060 8268     		ldr	r2, [r0, #8]
 1464 0062 120C     		lsrs	r2, r2, #16
 1465 0064 1F4B     		ldr	r3, .L84+16
 1466 0066 5A70     		strb	r2, [r3, #1]
 511:main.c        ****             Can_rx_pwm.b3 = CAN_RX_DATA_BYTE4(addr);
 1467              		.loc 1 511 0
 1468 0068 8268     		ldr	r2, [r0, #8]
 1469 006a 120A     		lsrs	r2, r2, #8
 1470 006c 9A70     		strb	r2, [r3, #2]
 512:main.c        ****             Can_rx_pwm.b4 = CAN_RX_DATA_BYTE5(addr);
 1471              		.loc 1 512 0
 1472 006e 8268     		ldr	r2, [r0, #8]
 1473 0070 DA70     		strb	r2, [r3, #3]
 513:main.c        ****             Can_rx_pwm.done = 0;
 1474              		.loc 1 513 0
 1475 0072 C268     		ldr	r2, [r0, #12]
 1476 0074 120E     		lsrs	r2, r2, #24
 1477 0076 1A71     		strb	r2, [r3, #4]
 514:main.c        ****         } 
 1478              		.loc 1 514 0
 1479 0078 0022     		movs	r2, #0
 1480 007a 5A71     		strb	r2, [r3, #5]
 1481 007c 28E0     		b	.L75
 1482              	.L81:
 517:main.c        ****             Can_rx_angle.b1 = CAN_RX_DATA_BYTE2(addr);
 1483              		.loc 1 517 0
 1484 007e 8368     		ldr	r3, [r0, #8]
 1485 0080 1B0E     		lsrs	r3, r3, #24
 1486 0082 042B     		cmp	r3, #4
 1487 0084 1DD1     		bne	.L82
 518:main.c        ****             Can_rx_angle.b2 = CAN_RX_DATA_BYTE3(addr);
 1488              		.loc 1 518 0
 1489 0086 8368     		ldr	r3, [r0, #8]
 1490 0088 1B0C     		lsrs	r3, r3, #16
 1491 008a D9B2     		uxtb	r1, r3
 1492 008c 164C     		ldr	r4, .L84+20
 1493 008e 6170     		strb	r1, [r4, #1]
 519:main.c        ****             Can_rx_angle.b3 = CAN_RX_DATA_BYTE4(addr);
 1494              		.loc 1 519 0
 1495 0090 8268     		ldr	r2, [r0, #8]
 1496 0092 120A     		lsrs	r2, r2, #8
 1497 0094 D3B2     		uxtb	r3, r2
 1498 0096 A370     		strb	r3, [r4, #2]
 520:main.c        ****             Can_rx_angle.b4 = CAN_RX_DATA_BYTE5(addr);
 1499              		.loc 1 520 0
 1500 0098 8268     		ldr	r2, [r0, #8]
 1501 009a E270     		strb	r2, [r4, #3]
 521:main.c        ****             Can_rx_angle.done = 0;
 1502              		.loc 1 521 0
 1503 009c C268     		ldr	r2, [r0, #12]
 1504 009e 120E     		lsrs	r2, r2, #24
 1505 00a0 2271     		strb	r2, [r4, #4]
 522:main.c        ****             if((((uint16_t)Can_rx_angle.b2) << 8 | Can_rx_angle.b1) != final_angle){
ARM GAS  C:\Users\austc\AppData\Local\Temp\ccAwGtxE.s 			page 40


 1506              		.loc 1 522 0
 1507 00a2 0022     		movs	r2, #0
 1508 00a4 6271     		strb	r2, [r4, #5]
 523:main.c        ****                  i=0;
 1509              		.loc 1 523 0
 1510 00a6 1B02     		lsls	r3, r3, #8
 1511 00a8 0B43     		orrs	r3, r1
 1512 00aa 0C4A     		ldr	r2, .L84+8
 1513 00ac 0221     		movs	r1, #2
 1514 00ae 525E     		ldrsh	r2, [r2, r1]
 1515 00b0 9342     		cmp	r3, r2
 1516 00b2 02D0     		beq	.L83
 524:main.c        ****             }
 1517              		.loc 1 524 0
 1518 00b4 0022     		movs	r2, #0
 1519 00b6 094B     		ldr	r3, .L84+8
 1520 00b8 5A60     		str	r2, [r3, #4]
 1521              	.L83:
 526:main.c        ****         } 
 1522              		.loc 1 526 0
 1523 00ba 0122     		movs	r2, #1
 1524 00bc 074B     		ldr	r3, .L84+8
 1525 00be 1A72     		strb	r2, [r3, #8]
 1526 00c0 06E0     		b	.L75
 1527              	.L82:
 529:main.c        ****             model_req = 1;
 1528              		.loc 1 529 0
 1529 00c2 8368     		ldr	r3, [r0, #8]
 1530 00c4 1B0E     		lsrs	r3, r3, #24
 1531 00c6 102B     		cmp	r3, #16
 1532 00c8 02D1     		bne	.L75
 1533              		.loc 1 530 0
 1534 00ca 0122     		movs	r2, #1
 1535 00cc 034B     		ldr	r3, .L84+8
 1536 00ce 5A72     		strb	r2, [r3, #9]
 1537              	.L75:
 531:main.c        ****         }
 532:main.c        **** }
 1538              		.loc 1 532 0
 1539              		@ sp needed
 1540 00d0 10BD     		pop	{r4, pc}
 1541              	.L85:
 1542 00d2 C046     		.align	2
 1543              	.L84:
 1544 00d4 A0002F40 		.word	1076822176
 1545 00d8 00000000 		.word	.LANCHOR0
 1546 00dc 00000000 		.word	.LANCHOR1
 1547 00e0 00000000 		.word	invalid_arg
 1548 00e4 00000000 		.word	Can_rx_pwm
 1549 00e8 00000000 		.word	Can_rx_angle
 1550              		.cfi_endproc
 1551              	.LFE47:
 1552              		.size	set_data, .-set_data
 1553              		.section	.text.degrees_to_tick,"ax",%progbits
 1554              		.align	2
 1555              		.global	degrees_to_tick
 1556              		.code	16
ARM GAS  C:\Users\austc\AppData\Local\Temp\ccAwGtxE.s 			page 41


 1557              		.thumb_func
 1558              		.type	degrees_to_tick, %function
 1559              	degrees_to_tick:
 1560              	.LFB49:
 533:main.c        **** 
 534:main.c        **** void set_Position(int16 degrees) {
 535:main.c        ****     if(uart_debug) {
 536:main.c        ****         sprintf(txData, "complete: %d\r\n",complete);
 537:main.c        ****         UART_UartPutString(txData);
 538:main.c        ****     }
 539:main.c        ****     //while(!complete) {
 540:main.c        ****         int PWM = position_PID(degrees_to_tick(degrees));
 541:main.c        ****         if(uart_debug) {
 542:main.c        ****             sprintf(txData, "PWM: %d\r\n",PWM);
 543:main.c        ****             UART_UartPutString(txData);
 544:main.c        ****         }
 545:main.c        ****         if(PWM > maxV){
 546:main.c        ****             set_PWM(maxV);   
 547:main.c        ****         } else if(PWM < -maxV) {
 548:main.c        ****             set_PWM(-maxV);
 549:main.c        ****         } else {
 550:main.c        ****             set_PWM(PWM);   
 551:main.c        ****         }
 552:main.c        ****    // }
 553:main.c        **** }
 554:main.c        **** 
 555:main.c        **** int degrees_to_tick(int16 degrees){
 1561              		.loc 1 555 0
 1562              		.cfi_startproc
 1563              		@ args = 0, pretend = 0, frame = 0
 1564              		@ frame_needed = 0, uses_anonymous_args = 0
 1565              	.LVL95:
 1566 0000 70B5     		push	{r4, r5, r6, lr}
 1567              		.cfi_def_cfa_offset 16
 1568              		.cfi_offset 4, -16
 1569              		.cfi_offset 5, -12
 1570              		.cfi_offset 6, -8
 1571              		.cfi_offset 14, -4
 1572 0002 0500     		movs	r5, r0
 556:main.c        ****     int ticks = (int)((double)degrees * ratio);
 1573              		.loc 1 556 0
 1574 0004 FFF7FEFF 		bl	__aeabi_i2d
 1575              	.LVL96:
 1576 0008 0B4B     		ldr	r3, .L88
 1577 000a 1A68     		ldr	r2, [r3]
 1578 000c 5B68     		ldr	r3, [r3, #4]
 1579 000e FFF7FEFF 		bl	__aeabi_dmul
 1580              	.LVL97:
 1581 0012 FFF7FEFF 		bl	__aeabi_d2iz
 1582              	.LVL98:
 1583 0016 0400     		movs	r4, r0
 1584              	.LVL99:
 557:main.c        ****     if(uart_debug) {
 1585              		.loc 1 557 0
 1586 0018 084B     		ldr	r3, .L88+4
 1587 001a 1B78     		ldrb	r3, [r3]
 1588 001c 002B     		cmp	r3, #0
ARM GAS  C:\Users\austc\AppData\Local\Temp\ccAwGtxE.s 			page 42


 1589 001e 09D0     		beq	.L87
 558:main.c        ****         sprintf(txData, "degree: %d ticks: %d\r\n", degrees, ticks);
 1590              		.loc 1 558 0
 1591 0020 074E     		ldr	r6, .L88+8
 1592 0022 0300     		movs	r3, r0
 1593 0024 2A00     		movs	r2, r5
 1594 0026 0749     		ldr	r1, .L88+12
 1595 0028 3000     		movs	r0, r6
 1596              	.LVL100:
 1597 002a FFF7FEFF 		bl	sprintf
 1598              	.LVL101:
 559:main.c        ****         UART_UartPutString(txData);
 1599              		.loc 1 559 0
 1600 002e 3000     		movs	r0, r6
 1601 0030 FFF7FEFF 		bl	UART_UartPutString
 1602              	.LVL102:
 1603              	.L87:
 560:main.c        ****     }
 561:main.c        ****     return(ticks);
 562:main.c        **** }
 1604              		.loc 1 562 0
 1605 0034 2000     		movs	r0, r4
 1606              		@ sp needed
 1607              	.LVL103:
 1608 0036 70BD     		pop	{r4, r5, r6, pc}
 1609              	.L89:
 1610              		.align	2
 1611              	.L88:
 1612 0038 00000000 		.word	ratio
 1613 003c 00000000 		.word	.LANCHOR0
 1614 0040 00000000 		.word	txData
 1615 0044 B8010000 		.word	.LC78
 1616              		.cfi_endproc
 1617              	.LFE49:
 1618              		.size	degrees_to_tick, .-degrees_to_tick
 1619              		.global	__aeabi_idiv
 1620              		.section	.text.position_PID,"ax",%progbits
 1621              		.align	2
 1622              		.global	position_PID
 1623              		.code	16
 1624              		.thumb_func
 1625              		.type	position_PID, %function
 1626              	position_PID:
 1627              	.LFB50:
 563:main.c        **** 
 564:main.c        **** int position_PID(int target){
 1628              		.loc 1 564 0
 1629              		.cfi_startproc
 1630              		@ args = 0, pretend = 0, frame = 0
 1631              		@ frame_needed = 0, uses_anonymous_args = 0
 1632              	.LVL104:
 1633 0000 70B5     		push	{r4, r5, r6, lr}
 1634              		.cfi_def_cfa_offset 16
 1635              		.cfi_offset 4, -16
 1636              		.cfi_offset 5, -12
 1637              		.cfi_offset 6, -8
 1638              		.cfi_offset 14, -4
ARM GAS  C:\Users\austc\AppData\Local\Temp\ccAwGtxE.s 			page 43


 1639 0002 82B0     		sub	sp, sp, #8
 1640              		.cfi_def_cfa_offset 24
 1641 0004 0400     		movs	r4, r0
 565:main.c        ****     int16 current =  QuadDec_GetCounter() * flipEncoder;
 1642              		.loc 1 565 0
 1643 0006 FFF7FEFF 		bl	QuadDec_GetCounter
 1644              	.LVL105:
 1645 000a 2D4B     		ldr	r3, .L97
 1646 000c DB7A     		ldrb	r3, [r3, #11]
 1647 000e 5BB2     		sxtb	r3, r3
 1648 0010 5843     		muls	r0, r3
 1649 0012 02B2     		sxth	r2, r0
 1650              	.LVL106:
 566:main.c        ****     int p = target - current;
 1651              		.loc 1 566 0
 1652 0014 A41A     		subs	r4, r4, r2
 1653              	.LVL107:
 567:main.c        ****     if(p <= 5 && p >= -5) {
 1654              		.loc 1 567 0
 1655 0016 631D     		adds	r3, r4, #5
 1656 0018 0A2B     		cmp	r3, #10
 1657 001a 0ED8     		bhi	.L91
 568:main.c        ****         if(uart_debug) {
 1658              		.loc 1 568 0
 1659 001c 284B     		ldr	r3, .L97
 1660 001e 1B78     		ldrb	r3, [r3]
 1661 0020 002B     		cmp	r3, #0
 1662 0022 49D0     		beq	.L96
 569:main.c        ****             sprintf(txData, "p: %d\r\n",p);
 1663              		.loc 1 569 0
 1664 0024 274D     		ldr	r5, .L97+4
 1665 0026 2200     		movs	r2, r4
 1666              	.LVL108:
 1667 0028 2749     		ldr	r1, .L97+8
 1668 002a 2800     		movs	r0, r5
 1669              	.LVL109:
 1670 002c FFF7FEFF 		bl	sprintf
 1671              	.LVL110:
 570:main.c        ****             UART_UartPutString(txData);
 1672              		.loc 1 570 0
 1673 0030 2800     		movs	r0, r5
 1674 0032 FFF7FEFF 		bl	UART_UartPutString
 1675              	.LVL111:
 571:main.c        ****         }
 572:main.c        ****       //complete =  1;
 573:main.c        ****       return(0);
 1676              		.loc 1 573 0
 1677 0036 0020     		movs	r0, #0
 1678 0038 3FE0     		b	.L92
 1679              	.LVL112:
 1680              	.L91:
 574:main.c        ****     }
 575:main.c        ****     i = i + p;
 1681              		.loc 1 575 0
 1682 003a 2449     		ldr	r1, .L97+12
 1683 003c 4B68     		ldr	r3, [r1, #4]
 1684 003e E318     		adds	r3, r4, r3
ARM GAS  C:\Users\austc\AppData\Local\Temp\ccAwGtxE.s 			page 44


 1685 0040 4B60     		str	r3, [r1, #4]
 576:main.c        ****     if ( i > 500) {
 1686              		.loc 1 576 0
 1687 0042 FA21     		movs	r1, #250
 1688 0044 4900     		lsls	r1, r1, #1
 1689 0046 8B42     		cmp	r3, r1
 1690 0048 01DD     		ble	.L93
 577:main.c        ****         i = 500;   
 1691              		.loc 1 577 0
 1692 004a 204B     		ldr	r3, .L97+12
 1693 004c 5960     		str	r1, [r3, #4]
 1694              	.L93:
 578:main.c        ****     }
 579:main.c        ****     if ( i < -500) {
 1695              		.loc 1 579 0
 1696 004e 1F4B     		ldr	r3, .L97+12
 1697 0050 5968     		ldr	r1, [r3, #4]
 1698 0052 1F4B     		ldr	r3, .L97+16
 1699 0054 9942     		cmp	r1, r3
 1700 0056 02DA     		bge	.L94
 580:main.c        ****         i = -500;
 1701              		.loc 1 580 0
 1702 0058 1900     		movs	r1, r3
 1703 005a 1C4B     		ldr	r3, .L97+12
 1704 005c 5960     		str	r1, [r3, #4]
 1705              	.L94:
 581:main.c        ****     }
 582:main.c        ****     int d = p - lastp;
 1706              		.loc 1 582 0
 1707 005e 1B4B     		ldr	r3, .L97+12
 1708 0060 9969     		ldr	r1, [r3, #24]
 1709 0062 651A     		subs	r5, r4, r1
 1710              	.LVL113:
 583:main.c        ****     lastp = p;
 1711              		.loc 1 583 0
 1712 0064 9C61     		str	r4, [r3, #24]
 584:main.c        ****     if(uart_debug) {
 1713              		.loc 1 584 0
 1714 0066 164B     		ldr	r3, .L97
 1715 0068 1B78     		ldrb	r3, [r3]
 1716 006a 002B     		cmp	r3, #0
 1717 006c 0CD0     		beq	.L95
 585:main.c        ****         sprintf(txData, "p: %d, i: %d d %d current %d\r\n",p, i, d, current);
 1718              		.loc 1 585 0
 1719 006e 174B     		ldr	r3, .L97+12
 1720 0070 5B68     		ldr	r3, [r3, #4]
 1721 0072 144E     		ldr	r6, .L97+4
 1722 0074 0192     		str	r2, [sp, #4]
 1723 0076 0095     		str	r5, [sp]
 1724 0078 2200     		movs	r2, r4
 1725              	.LVL114:
 1726 007a 1649     		ldr	r1, .L97+20
 1727 007c 3000     		movs	r0, r6
 1728 007e FFF7FEFF 		bl	sprintf
 1729              	.LVL115:
 586:main.c        ****         UART_UartPutString(txData);
 1730              		.loc 1 586 0
ARM GAS  C:\Users\austc\AppData\Local\Temp\ccAwGtxE.s 			page 45


 1731 0082 3000     		movs	r0, r6
 1732 0084 FFF7FEFF 		bl	UART_UartPutString
 1733              	.LVL116:
 1734              	.L95:
 587:main.c        ****     }
 588:main.c        ****     return (p*kp/10 + i*ki/10 + d*kd/10);
 1735              		.loc 1 588 0
 1736 0088 134B     		ldr	r3, .L97+24
 1737 008a 1868     		ldr	r0, [r3]
 1738 008c 6043     		muls	r0, r4
 1739 008e 0A21     		movs	r1, #10
 1740 0090 FFF7FEFF 		bl	__aeabi_idiv
 1741              	.LVL117:
 1742 0094 0400     		movs	r4, r0
 1743              	.LVL118:
 1744 0096 0D4B     		ldr	r3, .L97+12
 1745 0098 5868     		ldr	r0, [r3, #4]
 1746 009a 104B     		ldr	r3, .L97+28
 1747 009c 1B68     		ldr	r3, [r3]
 1748 009e 5843     		muls	r0, r3
 1749 00a0 0A21     		movs	r1, #10
 1750 00a2 FFF7FEFF 		bl	__aeabi_idiv
 1751              	.LVL119:
 1752 00a6 2418     		adds	r4, r4, r0
 1753 00a8 0D4B     		ldr	r3, .L97+32
 1754 00aa 1868     		ldr	r0, [r3]
 1755 00ac 6843     		muls	r0, r5
 1756 00ae 0A21     		movs	r1, #10
 1757 00b0 FFF7FEFF 		bl	__aeabi_idiv
 1758              	.LVL120:
 1759 00b4 2018     		adds	r0, r4, r0
 1760 00b6 00E0     		b	.L92
 1761              	.LVL121:
 1762              	.L96:
 573:main.c        ****     }
 1763              		.loc 1 573 0
 1764 00b8 0020     		movs	r0, #0
 1765              	.LVL122:
 1766              	.L92:
 589:main.c        **** }
 1767              		.loc 1 589 0
 1768 00ba 02B0     		add	sp, sp, #8
 1769              		@ sp needed
 1770 00bc 70BD     		pop	{r4, r5, r6, pc}
 1771              	.L98:
 1772 00be C046     		.align	2
 1773              	.L97:
 1774 00c0 00000000 		.word	.LANCHOR0
 1775 00c4 00000000 		.word	txData
 1776 00c8 D0010000 		.word	.LC82
 1777 00cc 00000000 		.word	.LANCHOR1
 1778 00d0 0CFEFFFF 		.word	-500
 1779 00d4 D8010000 		.word	.LC86
 1780 00d8 00000000 		.word	kp
 1781 00dc 00000000 		.word	ki
 1782 00e0 00000000 		.word	kd
 1783              		.cfi_endproc
ARM GAS  C:\Users\austc\AppData\Local\Temp\ccAwGtxE.s 			page 46


 1784              	.LFE50:
 1785              		.size	position_PID, .-position_PID
 1786              		.section	.text.set_Position,"ax",%progbits
 1787              		.align	2
 1788              		.global	set_Position
 1789              		.code	16
 1790              		.thumb_func
 1791              		.type	set_Position, %function
 1792              	set_Position:
 1793              	.LFB48:
 534:main.c        ****     if(uart_debug) {
 1794              		.loc 1 534 0
 1795              		.cfi_startproc
 1796              		@ args = 0, pretend = 0, frame = 0
 1797              		@ frame_needed = 0, uses_anonymous_args = 0
 1798              	.LVL123:
 1799 0000 70B5     		push	{r4, r5, r6, lr}
 1800              		.cfi_def_cfa_offset 16
 1801              		.cfi_offset 4, -16
 1802              		.cfi_offset 5, -12
 1803              		.cfi_offset 6, -8
 1804              		.cfi_offset 14, -4
 1805 0002 0400     		movs	r4, r0
 535:main.c        ****         sprintf(txData, "complete: %d\r\n",complete);
 1806              		.loc 1 535 0
 1807 0004 184B     		ldr	r3, .L105
 1808 0006 1B78     		ldrb	r3, [r3]
 1809 0008 002B     		cmp	r3, #0
 1810 000a 09D0     		beq	.L100
 536:main.c        ****         UART_UartPutString(txData);
 1811              		.loc 1 536 0
 1812 000c 174B     		ldr	r3, .L105+4
 1813 000e 1A7A     		ldrb	r2, [r3, #8]
 1814 0010 174D     		ldr	r5, .L105+8
 1815 0012 1849     		ldr	r1, .L105+12
 1816 0014 2800     		movs	r0, r5
 1817              	.LVL124:
 1818 0016 FFF7FEFF 		bl	sprintf
 1819              	.LVL125:
 537:main.c        ****     }
 1820              		.loc 1 537 0
 1821 001a 2800     		movs	r0, r5
 1822 001c FFF7FEFF 		bl	UART_UartPutString
 1823              	.LVL126:
 1824              	.L100:
 540:main.c        ****         if(uart_debug) {
 1825              		.loc 1 540 0
 1826 0020 2000     		movs	r0, r4
 1827 0022 FFF7FEFF 		bl	degrees_to_tick
 1828              	.LVL127:
 1829 0026 FFF7FEFF 		bl	position_PID
 1830              	.LVL128:
 1831 002a 0400     		movs	r4, r0
 1832              	.LVL129:
 541:main.c        ****             sprintf(txData, "PWM: %d\r\n",PWM);
 1833              		.loc 1 541 0
 1834 002c 0E4B     		ldr	r3, .L105
ARM GAS  C:\Users\austc\AppData\Local\Temp\ccAwGtxE.s 			page 47


 1835 002e 1B78     		ldrb	r3, [r3]
 1836 0030 002B     		cmp	r3, #0
 1837 0032 08D0     		beq	.L101
 542:main.c        ****             UART_UartPutString(txData);
 1838              		.loc 1 542 0
 1839 0034 0E4D     		ldr	r5, .L105+8
 1840 0036 0200     		movs	r2, r0
 1841 0038 0F49     		ldr	r1, .L105+16
 1842 003a 2800     		movs	r0, r5
 1843              	.LVL130:
 1844 003c FFF7FEFF 		bl	sprintf
 1845              	.LVL131:
 543:main.c        ****         }
 1846              		.loc 1 543 0
 1847 0040 2800     		movs	r0, r5
 1848 0042 FFF7FEFF 		bl	UART_UartPutString
 1849              	.LVL132:
 1850              	.L101:
 545:main.c        ****             set_PWM(maxV);   
 1851              		.loc 1 545 0
 1852 0046 094B     		ldr	r3, .L105+4
 1853 0048 187F     		ldrb	r0, [r3, #28]
 1854 004a 8442     		cmp	r4, r0
 1855 004c 02DD     		ble	.L102
 1856              	.LBB11:
 546:main.c        ****         } else if(PWM < -maxV) {
 1857              		.loc 1 546 0
 1858 004e FFF7FEFF 		bl	set_PWM
 1859              	.LVL133:
 1860              	.LBE11:
 1861 0052 08E0     		b	.L99
 1862              	.L102:
 547:main.c        ****             set_PWM(-maxV);
 1863              		.loc 1 547 0
 1864 0054 4042     		rsbs	r0, r0, #0
 1865 0056 8442     		cmp	r4, r0
 1866 0058 02DA     		bge	.L104
 1867              	.LBB12:
 548:main.c        ****         } else {
 1868              		.loc 1 548 0
 1869 005a FFF7FEFF 		bl	set_PWM
 1870              	.LVL134:
 1871              	.LBE12:
 1872 005e 02E0     		b	.L99
 1873              	.L104:
 1874              	.LBB13:
 550:main.c        ****         }
 1875              		.loc 1 550 0
 1876 0060 2000     		movs	r0, r4
 1877 0062 FFF7FEFF 		bl	set_PWM
 1878              	.LVL135:
 1879              	.L99:
 1880              	.LBE13:
 553:main.c        **** 
 1881              		.loc 1 553 0
 1882              		@ sp needed
 1883              	.LVL136:
ARM GAS  C:\Users\austc\AppData\Local\Temp\ccAwGtxE.s 			page 48


 1884 0066 70BD     		pop	{r4, r5, r6, pc}
 1885              	.L106:
 1886              		.align	2
 1887              	.L105:
 1888 0068 00000000 		.word	.LANCHOR0
 1889 006c 00000000 		.word	.LANCHOR1
 1890 0070 00000000 		.word	txData
 1891 0074 F8010000 		.word	.LC93
 1892 0078 08020000 		.word	.LC96
 1893              		.cfi_endproc
 1894              	.LFE48:
 1895              		.size	set_Position, .-set_Position
 1896              		.section	.text.main,"ax",%progbits
 1897              		.align	2
 1898              		.global	main
 1899              		.code	16
 1900              		.thumb_func
 1901              		.type	main, %function
 1902              	main:
 1903              	.LFB37:
 116:main.c        ****     #ifdef REV2
 1904              		.loc 1 116 0
 1905              		.cfi_startproc
 1906              		@ args = 0, pretend = 0, frame = 0
 1907              		@ frame_needed = 0, uses_anonymous_args = 0
 1908 0000 10B5     		push	{r4, lr}
 1909              		.cfi_def_cfa_offset 8
 1910              		.cfi_offset 4, -8
 1911              		.cfi_offset 14, -4
 1912 0002 82B0     		sub	sp, sp, #8
 1913              		.cfi_def_cfa_offset 16
 118:main.c        ****         Error_Write(LED_ON);
 1914              		.loc 1 118 0
 1915 0004 0020     		movs	r0, #0
 1916 0006 FFF7FEFF 		bl	Test_LED_Write
 1917              	.LVL137:
 119:main.c        ****     #endif
 1918              		.loc 1 119 0
 1919 000a 0020     		movs	r0, #0
 1920 000c FFF7FEFF 		bl	Error_Write
 1921              	.LVL138:
 121:main.c        ****     stall.done = 1;
 1922              		.loc 1 121 0
 1923 0010 634A     		ldr	r2, .L121
 1924 0012 0123     		movs	r3, #1
 1925 0014 1370     		strb	r3, [r2]
 122:main.c        ****     command_failed.code = 0x02;
 1926              		.loc 1 122 0
 1927 0016 9370     		strb	r3, [r2, #2]
 123:main.c        ****     command_failed.done = 1;
 1928              		.loc 1 123 0
 1929 0018 624A     		ldr	r2, .L121+4
 1930 001a 0221     		movs	r1, #2
 1931 001c 1170     		strb	r1, [r2]
 124:main.c        ****     invalid_arg.code = 0x03;
 1932              		.loc 1 124 0
 1933 001e 9370     		strb	r3, [r2, #2]
ARM GAS  C:\Users\austc\AppData\Local\Temp\ccAwGtxE.s 			page 49


 125:main.c        ****     invalid_arg.done = 1;
 1934              		.loc 1 125 0
 1935 0020 614A     		ldr	r2, .L121+8
 1936 0022 0131     		adds	r1, r1, #1
 1937 0024 1170     		strb	r1, [r2]
 126:main.c        ****     uint8 error;
 1938              		.loc 1 126 0
 1939 0026 9370     		strb	r3, [r2, #2]
 129:main.c        ****     message.ide = MESSAGE_IDE;
 1940              		.loc 1 129 0
 1941 0028 604B     		ldr	r3, .L121+12
 1942 002a 0522     		movs	r2, #5
 1943 002c 9A71     		strb	r2, [r3, #6]
 130:main.c        ****     message.irq = MESSAGE_IRQ;
 1944              		.loc 1 130 0
 1945 002e 0024     		movs	r4, #0
 1946 0030 5C71     		strb	r4, [r3, #5]
 131:main.c        ****     message.msg = &data;
 1947              		.loc 1 131 0
 1948 0032 DC71     		strb	r4, [r3, #7]
 132:main.c        ****     message.rtr = MESSAGE_RTR;
 1949              		.loc 1 132 0
 1950 0034 5E4A     		ldr	r2, .L121+16
 1951 0036 DA60     		str	r2, [r3, #12]
 133:main.c        ****     
 1952              		.loc 1 133 0
 1953 0038 1C71     		strb	r4, [r3, #4]
 136:main.c        ****         Error_Write(0);
 1954              		.loc 1 136 0
 1955 003a 0020     		movs	r0, #0
 1956 003c FFF7FEFF 		bl	Test_LED_Write
 1957              	.LVL139:
 137:main.c        ****     #endif
 1958              		.loc 1 137 0
 1959 0040 0020     		movs	r0, #0
 1960 0042 FFF7FEFF 		bl	Error_Write
 1961              	.LVL140:
 140:main.c        ****     initialize_can_addr();
 1962              		.loc 1 140 0
 1963 0046 FFF7FEFF 		bl	initialize
 1964              	.LVL141:
 141:main.c        ****     int up = 0;
 1965              		.loc 1 141 0
 1966 004a FFF7FEFF 		bl	initialize_can_addr
 1967              	.LVL142:
 144:main.c        ****     set_PWM(0);
 1968              		.loc 1 144 0
 1969 004e 594B     		ldr	r3, .L121+20
 1970 0050 1C60     		str	r4, [r3]
 145:main.c        ****     
 1971              		.loc 1 145 0
 1972 0052 0020     		movs	r0, #0
 1973 0054 FFF7FEFF 		bl	set_PWM
 1974              	.LVL143:
 148:main.c        ****         Error_Write(LED_OFF);
 1975              		.loc 1 148 0
 1976 0058 0120     		movs	r0, #1
ARM GAS  C:\Users\austc\AppData\Local\Temp\ccAwGtxE.s 			page 50


 1977 005a FFF7FEFF 		bl	Test_LED_Write
 1978              	.LVL144:
 149:main.c        ****     #endif
 1979              		.loc 1 149 0
 1980 005e 0120     		movs	r0, #1
 1981 0060 FFF7FEFF 		bl	Error_Write
 1982              	.LVL145:
 1983              	.L108:
 154:main.c        **** 
 1984              		.loc 1 154 0
 1985 0064 544B     		ldr	r3, .L121+24
 1986 0066 1B7B     		ldrb	r3, [r3, #12]
 1987 0068 002B     		cmp	r3, #0
 1988 006a FBD1     		bne	.L108
 163:main.c        ****                     if(mode == 0) {
 1989              		.loc 1 163 0
 1990 006c 534B     		ldr	r3, .L121+28
 1991 006e 5979     		ldrb	r1, [r3, #5]
 1992 0070 0029     		cmp	r1, #0
 1993 0072 34D1     		bne	.L109
 164:main.c        ****                         if(uart_debug) {
 1994              		.loc 1 164 0
 1995 0074 524B     		ldr	r3, .L121+32
 1996 0076 9A7A     		ldrb	r2, [r3, #10]
 1997 0078 002A     		cmp	r2, #0
 1998 007a 1FD1     		bne	.L110
 165:main.c        ****                             sprintf(txData, "B1: %d, B2: %d done %x\r\n",Can_rx_pwm.b1, Can_rx_pwm.
 1999              		.loc 1 165 0
 2000 007c 1B78     		ldrb	r3, [r3]
 2001 007e 002B     		cmp	r3, #0
 2002 0080 0BD0     		beq	.L111
 166:main.c        ****                             UART_UartPutString(txData);
 2003              		.loc 1 166 0
 2004 0082 4E4B     		ldr	r3, .L121+28
 2005 0084 5A78     		ldrb	r2, [r3, #1]
 2006 0086 9B78     		ldrb	r3, [r3, #2]
 2007 0088 4E4C     		ldr	r4, .L121+36
 2008 008a 0091     		str	r1, [sp]
 2009 008c 4E49     		ldr	r1, .L121+40
 2010 008e 2000     		movs	r0, r4
 2011 0090 FFF7FEFF 		bl	sprintf
 2012              	.LVL146:
 167:main.c        ****                         }
 2013              		.loc 1 167 0
 2014 0094 2000     		movs	r0, r4
 2015 0096 FFF7FEFF 		bl	UART_UartPutString
 2016              	.LVL147:
 2017              	.L111:
 169:main.c        ****                         if(Can_rx_pwm.b2 & 0b01) {
 2018              		.loc 1 169 0
 2019 009a 484B     		ldr	r3, .L121+28
 2020 009c 0122     		movs	r2, #1
 2021 009e 5A71     		strb	r2, [r3, #5]
 170:main.c        ****                             set_PWM((int)Can_rx_pwm.b1);
 2022              		.loc 1 170 0
 2023 00a0 9B78     		ldrb	r3, [r3, #2]
 2024 00a2 DB07     		lsls	r3, r3, #31
ARM GAS  C:\Users\austc\AppData\Local\Temp\ccAwGtxE.s 			page 51


 2025 00a4 04D5     		bpl	.L112
 171:main.c        ****                         }
 2026              		.loc 1 171 0
 2027 00a6 454B     		ldr	r3, .L121+28
 2028 00a8 5878     		ldrb	r0, [r3, #1]
 2029 00aa FFF7FEFF 		bl	set_PWM
 2030              	.LVL148:
 2031 00ae 16E0     		b	.L109
 2032              	.L112:
 174:main.c        ****                         }
 2033              		.loc 1 174 0
 2034 00b0 424B     		ldr	r3, .L121+28
 2035 00b2 5878     		ldrb	r0, [r3, #1]
 2036 00b4 4042     		rsbs	r0, r0, #0
 2037 00b6 FFF7FEFF 		bl	set_PWM
 2038              	.LVL149:
 2039 00ba 10E0     		b	.L109
 2040              	.L110:
 177:main.c        ****                         command_failed.param = 0x02;
 2041              		.loc 1 177 0
 2042 00bc 394B     		ldr	r3, .L121+4
 2043 00be 0021     		movs	r1, #0
 2044 00c0 9970     		strb	r1, [r3, #2]
 178:main.c        ****                         if(uart_debug) {
 2045              		.loc 1 178 0
 2046 00c2 0231     		adds	r1, r1, #2
 2047 00c4 5970     		strb	r1, [r3, #1]
 179:main.c        ****                             sprintf(txData, "Mode is not set to 0, mode is %d\r\n",mode);
 2048              		.loc 1 179 0
 2049 00c6 3E4B     		ldr	r3, .L121+32
 2050 00c8 1B78     		ldrb	r3, [r3]
 2051 00ca 002B     		cmp	r3, #0
 2052 00cc 07D0     		beq	.L109
 180:main.c        ****                             UART_UartPutString(txData);
 2053              		.loc 1 180 0
 2054 00ce 3D4C     		ldr	r4, .L121+36
 2055 00d0 3E49     		ldr	r1, .L121+44
 2056 00d2 2000     		movs	r0, r4
 2057 00d4 FFF7FEFF 		bl	sprintf
 2058              	.LVL150:
 181:main.c        ****                         }
 2059              		.loc 1 181 0
 2060 00d8 2000     		movs	r0, r4
 2061 00da FFF7FEFF 		bl	UART_UartPutString
 2062              	.LVL151:
 2063              	.L109:
 188:main.c        ****                         if(uart_debug) {
 2064              		.loc 1 188 0
 2065 00de 384B     		ldr	r3, .L121+32
 2066 00e0 9A7A     		ldrb	r2, [r3, #10]
 2067 00e2 012A     		cmp	r2, #1
 2068 00e4 20D1     		bne	.L113
 189:main.c        ****                             sprintf(txData, "B1: %d, B3: %d done %x\r\n",Can_rx_angle.b1, Can_rx_an
 2069              		.loc 1 189 0
 2070 00e6 1B78     		ldrb	r3, [r3]
 2071 00e8 002B     		cmp	r3, #0
 2072 00ea 0DD0     		beq	.L114
ARM GAS  C:\Users\austc\AppData\Local\Temp\ccAwGtxE.s 			page 52


 190:main.c        ****                             UART_UartPutString(txData);
 2073              		.loc 1 190 0
 2074 00ec 384B     		ldr	r3, .L121+48
 2075 00ee 5A78     		ldrb	r2, [r3, #1]
 2076 00f0 DB78     		ldrb	r3, [r3, #3]
 2077 00f2 3249     		ldr	r1, .L121+28
 2078 00f4 4979     		ldrb	r1, [r1, #5]
 2079 00f6 334C     		ldr	r4, .L121+36
 2080 00f8 0091     		str	r1, [sp]
 2081 00fa 3649     		ldr	r1, .L121+52
 2082 00fc 2000     		movs	r0, r4
 2083 00fe FFF7FEFF 		bl	sprintf
 2084              	.LVL152:
 191:main.c        ****                         }
 2085              		.loc 1 191 0
 2086 0102 2000     		movs	r0, r4
 2087 0104 FFF7FEFF 		bl	UART_UartPutString
 2088              	.LVL153:
 2089              	.L114:
 194:main.c        ****                         maxV = Can_rx_angle.b3;
 2090              		.loc 1 194 0
 2091 0108 2B4A     		ldr	r2, .L121+24
 2092 010a 0021     		movs	r1, #0
 2093 010c 1172     		strb	r1, [r2, #8]
 195:main.c        ****                         i = 0;
 2094              		.loc 1 195 0
 2095 010e 304B     		ldr	r3, .L121+48
 2096 0110 D878     		ldrb	r0, [r3, #3]
 2097 0112 1077     		strb	r0, [r2, #28]
 196:main.c        ****                         
 2098              		.loc 1 196 0
 2099 0114 5160     		str	r1, [r2, #4]
 200:main.c        ****                         set_Position(final_angle);
 2100              		.loc 1 200 0
 2101 0116 9878     		ldrb	r0, [r3, #2]
 2102 0118 0002     		lsls	r0, r0, #8
 2103 011a 5B78     		ldrb	r3, [r3, #1]
 2104 011c 1843     		orrs	r0, r3
 2105 011e 00B2     		sxth	r0, r0
 2106 0120 5080     		strh	r0, [r2, #2]
 201:main.c        ****                     }
 2107              		.loc 1 201 0
 2108 0122 FFF7FEFF 		bl	set_Position
 2109              	.LVL154:
 2110 0126 14E0     		b	.L115
 2111              	.L113:
 203:main.c        ****                         command_failed.done = 0;
 2112              		.loc 1 203 0
 2113 0128 244B     		ldr	r3, .L121+28
 2114 012a 5B79     		ldrb	r3, [r3, #5]
 2115 012c 002B     		cmp	r3, #0
 2116 012e 10D1     		bne	.L115
 204:main.c        ****                         command_failed.param = 0x04;
 2117              		.loc 1 204 0
 2118 0130 1C4B     		ldr	r3, .L121+4
 2119 0132 0021     		movs	r1, #0
 2120 0134 9970     		strb	r1, [r3, #2]
ARM GAS  C:\Users\austc\AppData\Local\Temp\ccAwGtxE.s 			page 53


 205:main.c        ****                         if(uart_debug) {
 2121              		.loc 1 205 0
 2122 0136 0431     		adds	r1, r1, #4
 2123 0138 5970     		strb	r1, [r3, #1]
 206:main.c        ****                             sprintf(txData, "Mode is not set to 1, mode is %d\r\n", mode);
 2124              		.loc 1 206 0
 2125 013a 214B     		ldr	r3, .L121+32
 2126 013c 1B78     		ldrb	r3, [r3]
 2127 013e 002B     		cmp	r3, #0
 2128 0140 07D0     		beq	.L115
 207:main.c        ****                             UART_UartPutString(txData);
 2129              		.loc 1 207 0
 2130 0142 204C     		ldr	r4, .L121+36
 2131 0144 2449     		ldr	r1, .L121+56
 2132 0146 2000     		movs	r0, r4
 2133 0148 FFF7FEFF 		bl	sprintf
 2134              	.LVL155:
 208:main.c        ****                         }
 2135              		.loc 1 208 0
 2136 014c 2000     		movs	r0, r4
 2137 014e FFF7FEFF 		bl	UART_UartPutString
 2138              	.LVL156:
 2139              	.L115:
 213:main.c        ****                     Can_rx_angle.done = 1;
 2140              		.loc 1 213 0
 2141 0152 1B4B     		ldr	r3, .L121+32
 2142 0154 9B7A     		ldrb	r3, [r3, #10]
 2143 0156 012B     		cmp	r3, #1
 2144 0158 04D9     		bls	.L116
 214:main.c        ****                     Can_rx_pwm.done = 1;
 2145              		.loc 1 214 0
 2146 015a 0123     		movs	r3, #1
 2147 015c 1C4A     		ldr	r2, .L121+48
 2148 015e 5371     		strb	r3, [r2, #5]
 215:main.c        ****                 }
 2149              		.loc 1 215 0
 2150 0160 164A     		ldr	r2, .L121+28
 2151 0162 5371     		strb	r3, [r2, #5]
 2152              	.L116:
 239:main.c        ****                 if(uart_debug) {
 2153              		.loc 1 239 0
 2154 0164 164B     		ldr	r3, .L121+32
 2155 0166 5B78     		ldrb	r3, [r3, #1]
 2156 0168 002B     		cmp	r3, #0
 2157 016a 0DD0     		beq	.L117
 240:main.c        ****                     sprintf(txData,"\nSending Data... \r\n");
 2158              		.loc 1 240 0
 2159 016c 144B     		ldr	r3, .L121+32
 2160 016e 1B78     		ldrb	r3, [r3]
 2161 0170 002B     		cmp	r3, #0
 2162 0172 04D0     		beq	.L118
 241:main.c        ****                    // UART_UartPutString(txData);
 2163              		.loc 1 241 0
 2164 0174 1422     		movs	r2, #20
 2165 0176 1949     		ldr	r1, .L121+60
 2166 0178 1248     		ldr	r0, .L121+36
 2167 017a FFF7FEFF 		bl	memcpy
ARM GAS  C:\Users\austc\AppData\Local\Temp\ccAwGtxE.s 			page 54


 2168              	.LVL157:
 2169              	.L118:
 244:main.c        ****                 send_data = 0;
 2170              		.loc 1 244 0
 2171 017e FFF7FEFF 		bl	CAN_Send_Encoder
 2172              	.LVL158:
 245:main.c        ****             }
 2173              		.loc 1 245 0
 2174 0182 0022     		movs	r2, #0
 2175 0184 0E4B     		ldr	r3, .L121+32
 2176 0186 5A70     		strb	r2, [r3, #1]
 2177              	.L117:
 249:main.c        ****                 CAN_Send_Model();
 2178              		.loc 1 249 0
 2179 0188 0B4B     		ldr	r3, .L121+24
 2180 018a 5B7A     		ldrb	r3, [r3, #9]
 2181 018c 002B     		cmp	r3, #0
 2182 018e 00D1     		bne	.LCB1907
 2183 0190 68E7     		b	.L108	@long jump
 2184              	.LCB1907:
 250:main.c        ****                 model_req = 0;
 2185              		.loc 1 250 0
 2186 0192 FFF7FEFF 		bl	CAN_Send_Model
 2187              	.LVL159:
 251:main.c        ****             }
 2188              		.loc 1 251 0
 2189 0196 0022     		movs	r2, #0
 2190 0198 074B     		ldr	r3, .L121+24
 2191 019a 5A72     		strb	r2, [r3, #9]
 2192 019c 62E7     		b	.L108
 2193              	.L122:
 2194 019e C046     		.align	2
 2195              	.L121:
 2196 01a0 00000000 		.word	stall
 2197 01a4 00000000 		.word	command_failed
 2198 01a8 00000000 		.word	invalid_arg
 2199 01ac 00000000 		.word	message
 2200 01b0 00000000 		.word	data
 2201 01b4 00000000 		.word	pwm_compare
 2202 01b8 00000000 		.word	.LANCHOR1
 2203 01bc 00000000 		.word	Can_rx_pwm
 2204 01c0 00000000 		.word	.LANCHOR0
 2205 01c4 00000000 		.word	txData
 2206 01c8 14020000 		.word	.LC107
 2207 01cc 30020000 		.word	.LC110
 2208 01d0 00000000 		.word	Can_rx_angle
 2209 01d4 54020000 		.word	.LC113
 2210 01d8 70020000 		.word	.LC115
 2211 01dc 94020000 		.word	.LC117
 2212              		.cfi_endproc
 2213              	.LFE37:
 2214              		.size	main, .-main
 2215              		.global	drive
 2216              		.comm	message,16,4
 2217              		.comm	data,8,4
 2218              		.comm	txData,100,4
 2219              		.global	emergency
ARM GAS  C:\Users\austc\AppData\Local\Temp\ccAwGtxE.s 			page 55


 2220              		.global	mailbox
 2221              		.comm	invalid_arg,3,4
 2222              		.comm	command_failed,3,4
 2223              		.comm	stall,3,4
 2224              		.comm	Can_rx_angle,6,4
 2225              		.comm	Can_rx_pwm,6,4
 2226              		.global	disable_limit
 2227              		.global	model_req
 2228              		.global	send_data
 2229              		.global	mode
 2230              		.global	maxV
 2231              		.global	complete
 2232              		.comm	ratio,8,8
 2233              		.comm	kd,4,4
 2234              		.comm	ki,4,4
 2235              		.comm	kp,4,4
 2236              		.global	lastp
 2237              		.global	i
 2238              		.global	final_angle
 2239              		.global	flipEncoder
 2240              		.global	invalidate
 2241              		.comm	pwm_compare,4,4
 2242              		.comm	GEAR_RATIO,4,4
 2243              		.global	uart_debug
 2244              		.comm	CAN_TIMEOUT,4,4
 2245              		.global	CAN_RX_MAILBOX_0
 2246              		.global	CAN_RX_MAILBOX_1
 2247              		.global	CAN_RX_MAILBOX_0_SHIFT
 2248              		.global	CAN_RX_MAILBOX_1_SHIFT
 2249              		.global	message_id
 2250              		.global	time_LED
 2251              		.data
 2252              		.align	2
 2253              		.set	.LANCHOR0,. + 0
 2254              		.type	uart_debug, %object
 2255              		.size	uart_debug, 1
 2256              	uart_debug:
 2257 0000 02       		.byte	2
 2258              		.type	send_data, %object
 2259              		.size	send_data, 1
 2260              	send_data:
 2261 0001 01       		.byte	1
 2262 0002 0000     		.space	2
 2263              		.type	CAN_RX_MAILBOX_0_SHIFT, %object
 2264              		.size	CAN_RX_MAILBOX_0_SHIFT, 4
 2265              	CAN_RX_MAILBOX_0_SHIFT:
 2266 0004 80000000 		.word	128
 2267              		.type	CAN_RX_MAILBOX_0, %object
 2268              		.size	CAN_RX_MAILBOX_0, 2
 2269              	CAN_RX_MAILBOX_0:
 2270 0008 0700     		.short	7
 2271              		.type	mode, %object
 2272              		.size	mode, 1
 2273              	mode:
 2274 000a 02       		.byte	2
 2275              		.type	flipEncoder, %object
 2276              		.size	flipEncoder, 1
ARM GAS  C:\Users\austc\AppData\Local\Temp\ccAwGtxE.s 			page 56


 2277              	flipEncoder:
 2278 000b 01       		.byte	1
 2279              		.type	CAN_RX_MAILBOX_1_SHIFT, %object
 2280              		.size	CAN_RX_MAILBOX_1_SHIFT, 2
 2281              	CAN_RX_MAILBOX_1_SHIFT:
 2282 000c 0100     		.short	1
 2283              		.section	.rodata.str1.4,"aMS",%progbits,1
 2284              		.align	2
 2285              	.LC1:
 2286 0000 50657269 		.ascii	"Period interupt triggerd %x\015\012\000"
 2286      6F642069 
 2286      6E746572 
 2286      75707420 
 2286      74726967 
 2287 001e 0000     		.space	2
 2288              	.LC8:
 2289 0020 4C696D69 		.ascii	"Limit interupt triggerd\015\012\000"
 2289      7420696E 
 2289      74657275 
 2289      70742074 
 2289      72696767 
 2290 003a 0000     		.space	2
 2291              	.LC12:
 2292 003c 0A204361 		.ascii	"\012 Can rx triggered\012\000"
 2292      6E207278 
 2292      20747269 
 2292      67676572 
 2292      65640A00 
 2293              	.LC14:
 2294 0050 50302072 		.ascii	"P0 recieved\012\000"
 2294      65636965 
 2294      7665640A 
 2294      00
 2295 005d 000000   		.space	3
 2296              	.LC20:
 2297 0060 50312072 		.ascii	"P1 recieved\012\012\000"
 2297      65636965 
 2297      7665640A 
 2297      0A00
 2298 006e 0000     		.space	2
 2299              	.LC27:
 2300 0070 43414E5F 		.ascii	"CAN_Start():  %u\015\012\000"
 2300      53746172 
 2300      7428293A 
 2300      20202575 
 2300      0D0A00
 2301 0083 00       		.space	1
 2302              	.LC39:
 2303 0084 43414E20 		.ascii	"CAN dip setting:  %x Message ID: %ld\015\012\000"
 2303      64697020 
 2303      73657474 
 2303      696E673A 
 2303      20202578 
 2304 00ab 00       		.space	1
 2305              	.LC42:
 2306 00ac 43616E20 		.ascii	"Can shift: %d   P0Mailbox: %d P1Mailbox %d\015\012\000"
 2306      73686966 
ARM GAS  C:\Users\austc\AppData\Local\Temp\ccAwGtxE.s 			page 57


 2306      743A2025 
 2306      64202020 
 2306      50304D61 
 2307 00d9 000000   		.space	3
 2308              	.LC44:
 2309 00dc 64697361 		.ascii	"disable_limit: %d\015\012\000"
 2309      626C655F 
 2309      6C696D69 
 2309      743A2025 
 2309      640D0A00 
 2310              	.LC50:
 2311 00f0 43414E5F 		.ascii	"CAN_Send_Encoder: byte[0u] %x byte[1u] %x byte[2u] "
 2311      53656E64 
 2311      5F456E63 
 2311      6F646572 
 2311      3A206279 
 2312 0123 25782051 		.ascii	"%x QuadDec Count %d\015\012\000"
 2312      75616444 
 2312      65632043 
 2312      6F756E74 
 2312      2025640D 
 2313 0139 000000   		.space	3
 2314              	.LC56:
 2315 013c 54656C65 		.ascii	"Telemerty: byte[0u] %x byte[1u] %x\015\012\000"
 2315      6D657274 
 2315      793A2062 
 2315      7974655B 
 2315      30755D20 
 2316 0161 000000   		.space	3
 2317              	.LC62:
 2318 0164 4D6F6465 		.ascii	"Model: byte[0u] %x byte[1u] %x\015\012\000"
 2318      6C3A2062 
 2318      7974655B 
 2318      30755D20 
 2318      25782062 
 2319 0185 000000   		.space	3
 2320              	.LC68:
 2321 0188 4572726F 		.ascii	"Error: byte[0u] %x byte[1u] %x byte[2u] %x\015\012\000"
 2321      723A2062 
 2321      7974655B 
 2321      30755D20 
 2321      25782062 
 2322 01b5 000000   		.space	3
 2323              	.LC78:
 2324 01b8 64656772 		.ascii	"degree: %d ticks: %d\015\012\000"
 2324      65653A20 
 2324      25642074 
 2324      69636B73 
 2324      3A202564 
 2325 01cf 00       		.space	1
 2326              	.LC82:
 2327 01d0 703A2025 		.ascii	"p: %d\015\012\000"
 2327      640D0A00 
 2328              	.LC86:
 2329 01d8 703A2025 		.ascii	"p: %d, i: %d d %d current %d\015\012\000"
 2329      642C2069 
 2329      3A202564 
ARM GAS  C:\Users\austc\AppData\Local\Temp\ccAwGtxE.s 			page 58


 2329      20642025 
 2329      64206375 
 2330 01f7 00       		.space	1
 2331              	.LC93:
 2332 01f8 636F6D70 		.ascii	"complete: %d\015\012\000"
 2332      6C657465 
 2332      3A202564 
 2332      0D0A00
 2333 0207 00       		.space	1
 2334              	.LC96:
 2335 0208 50574D3A 		.ascii	"PWM: %d\015\012\000"
 2335      2025640D 
 2335      0A00
 2336 0212 0000     		.space	2
 2337              	.LC107:
 2338 0214 42313A20 		.ascii	"B1: %d, B2: %d done %x\015\012\000"
 2338      25642C20 
 2338      42323A20 
 2338      25642064 
 2338      6F6E6520 
 2339 022d 000000   		.space	3
 2340              	.LC110:
 2341 0230 4D6F6465 		.ascii	"Mode is not set to 0, mode is %d\015\012\000"
 2341      20697320 
 2341      6E6F7420 
 2341      73657420 
 2341      746F2030 
 2342 0253 00       		.space	1
 2343              	.LC113:
 2344 0254 42313A20 		.ascii	"B1: %d, B3: %d done %x\015\012\000"
 2344      25642C20 
 2344      42333A20 
 2344      25642064 
 2344      6F6E6520 
 2345 026d 000000   		.space	3
 2346              	.LC115:
 2347 0270 4D6F6465 		.ascii	"Mode is not set to 1, mode is %d\015\012\000"
 2347      20697320 
 2347      6E6F7420 
 2347      73657420 
 2347      746F2031 
 2348 0293 00       		.space	1
 2349              	.LC117:
 2350 0294 0A53656E 		.ascii	"\012Sending Data... \015\012\000"
 2350      64696E67 
 2350      20446174 
 2350      612E2E2E 
 2350      200D0A00 
 2351              		.bss
 2352              		.align	2
 2353              		.set	.LANCHOR1,. + 0
 2354              		.type	invalidate, %object
 2355              		.size	invalidate, 1
 2356              	invalidate:
 2357 0000 00       		.space	1
 2358              		.type	time_LED, %object
 2359              		.size	time_LED, 1
ARM GAS  C:\Users\austc\AppData\Local\Temp\ccAwGtxE.s 			page 59


 2360              	time_LED:
 2361 0001 00       		.space	1
 2362              		.type	final_angle, %object
 2363              		.size	final_angle, 2
 2364              	final_angle:
 2365 0002 0000     		.space	2
 2366              		.type	i, %object
 2367              		.size	i, 4
 2368              	i:
 2369 0004 00000000 		.space	4
 2370              		.type	complete, %object
 2371              		.size	complete, 1
 2372              	complete:
 2373 0008 00       		.space	1
 2374              		.type	model_req, %object
 2375              		.size	model_req, 1
 2376              	model_req:
 2377 0009 00       		.space	1
 2378              		.type	CAN_RX_MAILBOX_1, %object
 2379              		.size	CAN_RX_MAILBOX_1, 2
 2380              	CAN_RX_MAILBOX_1:
 2381 000a 0000     		.space	2
 2382              		.type	emergency, %object
 2383              		.size	emergency, 1
 2384              	emergency:
 2385 000c 00       		.space	1
 2386 000d 000000   		.space	3
 2387              		.type	message_id, %object
 2388              		.size	message_id, 4
 2389              	message_id:
 2390 0010 00000000 		.space	4
 2391              		.type	disable_limit, %object
 2392              		.size	disable_limit, 1
 2393              	disable_limit:
 2394 0014 00       		.space	1
 2395 0015 000000   		.space	3
 2396              		.type	lastp, %object
 2397              		.size	lastp, 4
 2398              	lastp:
 2399 0018 00000000 		.space	4
 2400              		.type	maxV, %object
 2401              		.size	maxV, 1
 2402              	maxV:
 2403 001c 00       		.space	1
 2404              		.type	drive, %object
 2405              		.size	drive, 1
 2406              	drive:
 2407 001d 00       		.space	1
 2408 001e 0000     		.space	2
 2409              		.type	mailbox, %object
 2410              		.size	mailbox, 4
 2411              	mailbox:
 2412 0020 00000000 		.space	4
 2413              		.text
 2414              	.Letext0:
 2415              		.file 2 "c:\\program files (x86)\\cypress\\psoc creator\\4.2\\psoc creator\\import\\gnu\\arm\\5.4.
 2416              		.file 3 "c:\\program files (x86)\\cypress\\psoc creator\\4.2\\psoc creator\\import\\gnu\\arm\\5.4.
ARM GAS  C:\Users\austc\AppData\Local\Temp\ccAwGtxE.s 			page 60


 2417              		.file 4 "Generated_Source\\PSoC4/cytypes.h"
 2418              		.file 5 "./cyapicallbacks.h"
 2419              		.file 6 "Generated_Source\\PSoC4/CAN.h"
 2420              		.file 7 "Generated_Source\\PSoC4/Timer_1.h"
 2421              		.file 8 "c:\\program files (x86)\\cypress\\psoc creator\\4.2\\psoc creator\\import\\gnu\\arm\\5.4.
 2422              		.file 9 "Generated_Source\\PSoC4/Test_LED.h"
 2423              		.file 10 "Generated_Source\\PSoC4/UART_SPI_UART.h"
 2424              		.file 11 "Generated_Source\\PSoC4/QuadDec.h"
 2425              		.file 12 "Generated_Source\\PSoC4/PWM_Motor.h"
 2426              		.file 13 "Generated_Source\\PSoC4/Status_Reg_Switches.h"
 2427              		.file 14 "Generated_Source\\PSoC4/CyLib.h"
 2428              		.file 15 "Generated_Source\\PSoC4/isr_Limit_1.h"
 2429              		.file 16 "Generated_Source\\PSoC4/isr_period.h"
 2430              		.file 17 "Generated_Source\\PSoC4/UART.h"
 2431              		.file 18 "Generated_Source\\PSoC4/Can_addr.h"
 2432              		.file 19 "Generated_Source\\PSoC4/Error.h"
 2433              		.section	.debug_info,"",%progbits
 2434              	.Ldebug_info0:
 2435 0000 D5100000 		.4byte	0x10d5
 2436 0004 0400     		.2byte	0x4
 2437 0006 00000000 		.4byte	.Ldebug_abbrev0
 2438 000a 04       		.byte	0x4
 2439 000b 01       		.uleb128 0x1
 2440 000c 2F010000 		.4byte	.LASF121
 2441 0010 0C       		.byte	0xc
 2442 0011 00000000 		.4byte	.LASF122
 2443 0015 CC040000 		.4byte	.LASF123
 2444 0019 00000000 		.4byte	.Ldebug_ranges0+0
 2445 001d 00000000 		.4byte	0
 2446 0021 00000000 		.4byte	.Ldebug_line0
 2447 0025 02       		.uleb128 0x2
 2448 0026 01       		.byte	0x1
 2449 0027 06       		.byte	0x6
 2450 0028 0E060000 		.4byte	.LASF0
 2451 002c 02       		.uleb128 0x2
 2452 002d 01       		.byte	0x1
 2453 002e 08       		.byte	0x8
 2454 002f D2050000 		.4byte	.LASF1
 2455 0033 02       		.uleb128 0x2
 2456 0034 02       		.byte	0x2
 2457 0035 05       		.byte	0x5
 2458 0036 5D040000 		.4byte	.LASF2
 2459 003a 03       		.uleb128 0x3
 2460 003b 13010000 		.4byte	.LASF9
 2461 003f 02       		.byte	0x2
 2462 0040 2B       		.byte	0x2b
 2463 0041 45000000 		.4byte	0x45
 2464 0045 02       		.uleb128 0x2
 2465 0046 02       		.byte	0x2
 2466 0047 07       		.byte	0x7
 2467 0048 1A060000 		.4byte	.LASF3
 2468 004c 02       		.uleb128 0x2
 2469 004d 04       		.byte	0x4
 2470 004e 05       		.byte	0x5
 2471 004f 7C040000 		.4byte	.LASF4
 2472 0053 02       		.uleb128 0x2
 2473 0054 04       		.byte	0x4
ARM GAS  C:\Users\austc\AppData\Local\Temp\ccAwGtxE.s 			page 61


 2474 0055 07       		.byte	0x7
 2475 0056 8F050000 		.4byte	.LASF5
 2476 005a 02       		.uleb128 0x2
 2477 005b 08       		.byte	0x8
 2478 005c 05       		.byte	0x5
 2479 005d 21030000 		.4byte	.LASF6
 2480 0061 02       		.uleb128 0x2
 2481 0062 08       		.byte	0x8
 2482 0063 07       		.byte	0x7
 2483 0064 E7000000 		.4byte	.LASF7
 2484 0068 04       		.uleb128 0x4
 2485 0069 04       		.byte	0x4
 2486 006a 05       		.byte	0x5
 2487 006b 696E7400 		.ascii	"int\000"
 2488 006f 02       		.uleb128 0x2
 2489 0070 04       		.byte	0x4
 2490 0071 07       		.byte	0x7
 2491 0072 5F000000 		.4byte	.LASF8
 2492 0076 03       		.uleb128 0x3
 2493 0077 E9030000 		.4byte	.LASF10
 2494 007b 03       		.byte	0x3
 2495 007c 24       		.byte	0x24
 2496 007d 3A000000 		.4byte	0x3a
 2497 0081 05       		.uleb128 0x5
 2498 0082 41060000 		.4byte	.LASF11
 2499 0086 04       		.byte	0x4
 2500 0087 E401     		.2byte	0x1e4
 2501 0089 2C000000 		.4byte	0x2c
 2502 008d 05       		.uleb128 0x5
 2503 008e B6020000 		.4byte	.LASF12
 2504 0092 04       		.byte	0x4
 2505 0093 E501     		.2byte	0x1e5
 2506 0095 45000000 		.4byte	0x45
 2507 0099 05       		.uleb128 0x5
 2508 009a 9D030000 		.4byte	.LASF13
 2509 009e 04       		.byte	0x4
 2510 009f E601     		.2byte	0x1e6
 2511 00a1 53000000 		.4byte	0x53
 2512 00a5 05       		.uleb128 0x5
 2513 00a6 C2020000 		.4byte	.LASF14
 2514 00aa 04       		.byte	0x4
 2515 00ab E701     		.2byte	0x1e7
 2516 00ad 25000000 		.4byte	0x25
 2517 00b1 05       		.uleb128 0x5
 2518 00b2 80000000 		.4byte	.LASF15
 2519 00b6 04       		.byte	0x4
 2520 00b7 E801     		.2byte	0x1e8
 2521 00b9 33000000 		.4byte	0x33
 2522 00bd 02       		.uleb128 0x2
 2523 00be 04       		.byte	0x4
 2524 00bf 04       		.byte	0x4
 2525 00c0 DB000000 		.4byte	.LASF16
 2526 00c4 02       		.uleb128 0x2
 2527 00c5 08       		.byte	0x8
 2528 00c6 04       		.byte	0x4
 2529 00c7 47060000 		.4byte	.LASF17
 2530 00cb 05       		.uleb128 0x5
ARM GAS  C:\Users\austc\AppData\Local\Temp\ccAwGtxE.s 			page 62


 2531 00cc E4020000 		.4byte	.LASF18
 2532 00d0 04       		.byte	0x4
 2533 00d1 F501     		.2byte	0x1f5
 2534 00d3 D7000000 		.4byte	0xd7
 2535 00d7 02       		.uleb128 0x2
 2536 00d8 01       		.byte	0x1
 2537 00d9 08       		.byte	0x8
 2538 00da 77020000 		.4byte	.LASF19
 2539 00de 05       		.uleb128 0x5
 2540 00df 86000000 		.4byte	.LASF20
 2541 00e3 04       		.byte	0x4
 2542 00e4 8E02     		.2byte	0x28e
 2543 00e6 EA000000 		.4byte	0xea
 2544 00ea 06       		.uleb128 0x6
 2545 00eb 81000000 		.4byte	0x81
 2546 00ef 05       		.uleb128 0x5
 2547 00f0 F2030000 		.4byte	.LASF21
 2548 00f4 04       		.byte	0x4
 2549 00f5 9002     		.2byte	0x290
 2550 00f7 FB000000 		.4byte	0xfb
 2551 00fb 06       		.uleb128 0x6
 2552 00fc 99000000 		.4byte	0x99
 2553 0100 02       		.uleb128 0x2
 2554 0101 08       		.byte	0x8
 2555 0102 04       		.byte	0x4
 2556 0103 CD030000 		.4byte	.LASF22
 2557 0107 02       		.uleb128 0x2
 2558 0108 04       		.byte	0x4
 2559 0109 07       		.byte	0x7
 2560 010a 86050000 		.4byte	.LASF23
 2561 010e 07       		.uleb128 0x7
 2562 010f FE000000 		.4byte	.LASF25
 2563 0113 06       		.byte	0x6
 2564 0114 05       		.byte	0x5
 2565 0115 15       		.byte	0x15
 2566 0116 5E010000 		.4byte	0x15e
 2567 011a 08       		.uleb128 0x8
 2568 011b 623000   		.ascii	"b0\000"
 2569 011e 05       		.byte	0x5
 2570 011f 17       		.byte	0x17
 2571 0120 81000000 		.4byte	0x81
 2572 0124 00       		.byte	0
 2573 0125 08       		.uleb128 0x8
 2574 0126 623100   		.ascii	"b1\000"
 2575 0129 05       		.byte	0x5
 2576 012a 17       		.byte	0x17
 2577 012b 81000000 		.4byte	0x81
 2578 012f 01       		.byte	0x1
 2579 0130 08       		.uleb128 0x8
 2580 0131 623200   		.ascii	"b2\000"
 2581 0134 05       		.byte	0x5
 2582 0135 17       		.byte	0x17
 2583 0136 81000000 		.4byte	0x81
 2584 013a 02       		.byte	0x2
 2585 013b 08       		.uleb128 0x8
 2586 013c 623300   		.ascii	"b3\000"
 2587 013f 05       		.byte	0x5
ARM GAS  C:\Users\austc\AppData\Local\Temp\ccAwGtxE.s 			page 63


 2588 0140 17       		.byte	0x17
 2589 0141 81000000 		.4byte	0x81
 2590 0145 03       		.byte	0x3
 2591 0146 08       		.uleb128 0x8
 2592 0147 623400   		.ascii	"b4\000"
 2593 014a 05       		.byte	0x5
 2594 014b 17       		.byte	0x17
 2595 014c 81000000 		.4byte	0x81
 2596 0150 04       		.byte	0x4
 2597 0151 09       		.uleb128 0x9
 2598 0152 AE030000 		.4byte	.LASF24
 2599 0156 05       		.byte	0x5
 2600 0157 17       		.byte	0x17
 2601 0158 81000000 		.4byte	0x81
 2602 015c 05       		.byte	0x5
 2603 015d 00       		.byte	0
 2604 015e 07       		.uleb128 0x7
 2605 015f 29010000 		.4byte	.LASF26
 2606 0163 03       		.byte	0x3
 2607 0164 05       		.byte	0x5
 2608 0165 19       		.byte	0x19
 2609 0166 8F010000 		.4byte	0x18f
 2610 016a 09       		.uleb128 0x9
 2611 016b 29020000 		.4byte	.LASF27
 2612 016f 05       		.byte	0x5
 2613 0170 1B       		.byte	0x1b
 2614 0171 81000000 		.4byte	0x81
 2615 0175 00       		.byte	0
 2616 0176 09       		.uleb128 0x9
 2617 0177 6F030000 		.4byte	.LASF28
 2618 017b 05       		.byte	0x5
 2619 017c 1B       		.byte	0x1b
 2620 017d 81000000 		.4byte	0x81
 2621 0181 01       		.byte	0x1
 2622 0182 09       		.uleb128 0x9
 2623 0183 AE030000 		.4byte	.LASF24
 2624 0187 05       		.byte	0x5
 2625 0188 1B       		.byte	0x1b
 2626 0189 81000000 		.4byte	0x81
 2627 018d 02       		.byte	0x2
 2628 018e 00       		.byte	0
 2629 018f 0A       		.uleb128 0xa
 2630 0190 08       		.byte	0x8
 2631 0191 06       		.byte	0x6
 2632 0192 6F       		.byte	0x6f
 2633 0193 A4010000 		.4byte	0x1a4
 2634 0197 09       		.uleb128 0x9
 2635 0198 C8050000 		.4byte	.LASF29
 2636 019c 06       		.byte	0x6
 2637 019d 71       		.byte	0x71
 2638 019e A4010000 		.4byte	0x1a4
 2639 01a2 00       		.byte	0
 2640 01a3 00       		.byte	0
 2641 01a4 0B       		.uleb128 0xb
 2642 01a5 81000000 		.4byte	0x81
 2643 01a9 B4010000 		.4byte	0x1b4
 2644 01ad 0C       		.uleb128 0xc
ARM GAS  C:\Users\austc\AppData\Local\Temp\ccAwGtxE.s 			page 64


 2645 01ae 07010000 		.4byte	0x107
 2646 01b2 07       		.byte	0x7
 2647 01b3 00       		.byte	0
 2648 01b4 03       		.uleb128 0x3
 2649 01b5 7C020000 		.4byte	.LASF30
 2650 01b9 06       		.byte	0x6
 2651 01ba 72       		.byte	0x72
 2652 01bb 8F010000 		.4byte	0x18f
 2653 01bf 0A       		.uleb128 0xa
 2654 01c0 08       		.byte	0x8
 2655 01c1 06       		.byte	0x6
 2656 01c2 75       		.byte	0x75
 2657 01c3 D4010000 		.4byte	0x1d4
 2658 01c7 09       		.uleb128 0x9
 2659 01c8 C8050000 		.4byte	.LASF29
 2660 01cc 06       		.byte	0x6
 2661 01cd 77       		.byte	0x77
 2662 01ce E4010000 		.4byte	0x1e4
 2663 01d2 00       		.byte	0
 2664 01d3 00       		.byte	0
 2665 01d4 0B       		.uleb128 0xb
 2666 01d5 DE000000 		.4byte	0xde
 2667 01d9 E4010000 		.4byte	0x1e4
 2668 01dd 0C       		.uleb128 0xc
 2669 01de 07010000 		.4byte	0x107
 2670 01e2 07       		.byte	0x7
 2671 01e3 00       		.byte	0
 2672 01e4 06       		.uleb128 0x6
 2673 01e5 D4010000 		.4byte	0x1d4
 2674 01e9 03       		.uleb128 0x3
 2675 01ea 81030000 		.4byte	.LASF31
 2676 01ee 06       		.byte	0x6
 2677 01ef 78       		.byte	0x78
 2678 01f0 BF010000 		.4byte	0x1bf
 2679 01f4 0A       		.uleb128 0xa
 2680 01f5 04       		.byte	0x4
 2681 01f6 06       		.byte	0x6
 2682 01f7 7B       		.byte	0x7b
 2683 01f8 09020000 		.4byte	0x209
 2684 01fc 09       		.uleb128 0x9
 2685 01fd C8050000 		.4byte	.LASF29
 2686 0201 06       		.byte	0x6
 2687 0202 7D       		.byte	0x7d
 2688 0203 19020000 		.4byte	0x219
 2689 0207 00       		.byte	0
 2690 0208 00       		.byte	0
 2691 0209 0B       		.uleb128 0xb
 2692 020a DE000000 		.4byte	0xde
 2693 020e 19020000 		.4byte	0x219
 2694 0212 0C       		.uleb128 0xc
 2695 0213 07010000 		.4byte	0x107
 2696 0217 03       		.byte	0x3
 2697 0218 00       		.byte	0
 2698 0219 06       		.uleb128 0x6
 2699 021a 09020000 		.4byte	0x209
 2700 021e 03       		.uleb128 0x3
 2701 021f A1050000 		.4byte	.LASF32
ARM GAS  C:\Users\austc\AppData\Local\Temp\ccAwGtxE.s 			page 65


 2702 0223 06       		.byte	0x6
 2703 0224 7E       		.byte	0x7e
 2704 0225 F4010000 		.4byte	0x1f4
 2705 0229 0A       		.uleb128 0xa
 2706 022a 10       		.byte	0x10
 2707 022b 06       		.byte	0x6
 2708 022c 81       		.byte	0x81
 2709 022d 85020000 		.4byte	0x285
 2710 0231 08       		.uleb128 0x8
 2711 0232 696400   		.ascii	"id\000"
 2712 0235 06       		.byte	0x6
 2713 0236 83       		.byte	0x83
 2714 0237 99000000 		.4byte	0x99
 2715 023b 00       		.byte	0
 2716 023c 08       		.uleb128 0x8
 2717 023d 72747200 		.ascii	"rtr\000"
 2718 0241 06       		.byte	0x6
 2719 0242 84       		.byte	0x84
 2720 0243 81000000 		.4byte	0x81
 2721 0247 04       		.byte	0x4
 2722 0248 08       		.uleb128 0x8
 2723 0249 69646500 		.ascii	"ide\000"
 2724 024d 06       		.byte	0x6
 2725 024e 85       		.byte	0x85
 2726 024f 81000000 		.4byte	0x81
 2727 0253 05       		.byte	0x5
 2728 0254 08       		.uleb128 0x8
 2729 0255 646C6300 		.ascii	"dlc\000"
 2730 0259 06       		.byte	0x6
 2731 025a 86       		.byte	0x86
 2732 025b 81000000 		.4byte	0x81
 2733 025f 06       		.byte	0x6
 2734 0260 08       		.uleb128 0x8
 2735 0261 69727100 		.ascii	"irq\000"
 2736 0265 06       		.byte	0x6
 2737 0266 87       		.byte	0x87
 2738 0267 81000000 		.4byte	0x81
 2739 026b 07       		.byte	0x7
 2740 026c 08       		.uleb128 0x8
 2741 026d 73737400 		.ascii	"sst\000"
 2742 0271 06       		.byte	0x6
 2743 0272 89       		.byte	0x89
 2744 0273 81000000 		.4byte	0x81
 2745 0277 08       		.byte	0x8
 2746 0278 08       		.uleb128 0x8
 2747 0279 6D736700 		.ascii	"msg\000"
 2748 027d 06       		.byte	0x6
 2749 027e 8B       		.byte	0x8b
 2750 027f 85020000 		.4byte	0x285
 2751 0283 0C       		.byte	0xc
 2752 0284 00       		.byte	0
 2753 0285 0D       		.uleb128 0xd
 2754 0286 04       		.byte	0x4
 2755 0287 B4010000 		.4byte	0x1b4
 2756 028b 03       		.uleb128 0x3
 2757 028c A6000000 		.4byte	.LASF33
 2758 0290 06       		.byte	0x6
ARM GAS  C:\Users\austc\AppData\Local\Temp\ccAwGtxE.s 			page 66


 2759 0291 8C       		.byte	0x8c
 2760 0292 29020000 		.4byte	0x229
 2761 0296 0A       		.uleb128 0xa
 2762 0297 20       		.byte	0x20
 2763 0298 06       		.byte	0x6
 2764 0299 A0       		.byte	0xa0
 2765 029a F3020000 		.4byte	0x2f3
 2766 029e 09       		.uleb128 0x9
 2767 029f F0050000 		.4byte	.LASF34
 2768 02a3 06       		.byte	0x6
 2769 02a4 A2       		.byte	0xa2
 2770 02a5 1E020000 		.4byte	0x21e
 2771 02a9 00       		.byte	0
 2772 02aa 09       		.uleb128 0x9
 2773 02ab CD050000 		.4byte	.LASF35
 2774 02af 06       		.byte	0x6
 2775 02b0 A3       		.byte	0xa3
 2776 02b1 1E020000 		.4byte	0x21e
 2777 02b5 04       		.byte	0x4
 2778 02b6 09       		.uleb128 0x9
 2779 02b7 68030000 		.4byte	.LASF36
 2780 02bb 06       		.byte	0x6
 2781 02bc A4       		.byte	0xa4
 2782 02bd E9010000 		.4byte	0x1e9
 2783 02c1 08       		.byte	0x8
 2784 02c2 09       		.uleb128 0x9
 2785 02c3 6C000000 		.4byte	.LASF37
 2786 02c7 06       		.byte	0x6
 2787 02c8 A5       		.byte	0xa5
 2788 02c9 1E020000 		.4byte	0x21e
 2789 02cd 10       		.byte	0x10
 2790 02ce 09       		.uleb128 0x9
 2791 02cf 8F020000 		.4byte	.LASF38
 2792 02d3 06       		.byte	0x6
 2793 02d4 A6       		.byte	0xa6
 2794 02d5 1E020000 		.4byte	0x21e
 2795 02d9 14       		.byte	0x14
 2796 02da 09       		.uleb128 0x9
 2797 02db A4020000 		.4byte	.LASF39
 2798 02df 06       		.byte	0x6
 2799 02e0 A7       		.byte	0xa7
 2800 02e1 1E020000 		.4byte	0x21e
 2801 02e5 18       		.byte	0x18
 2802 02e6 09       		.uleb128 0x9
 2803 02e7 F3020000 		.4byte	.LASF40
 2804 02eb 06       		.byte	0x6
 2805 02ec A8       		.byte	0xa8
 2806 02ed 1E020000 		.4byte	0x21e
 2807 02f1 1C       		.byte	0x1c
 2808 02f2 00       		.byte	0
 2809 02f3 03       		.uleb128 0x3
 2810 02f4 E4010000 		.4byte	.LASF41
 2811 02f8 06       		.byte	0x6
 2812 02f9 A9       		.byte	0xa9
 2813 02fa 96020000 		.4byte	0x296
 2814 02fe 0E       		.uleb128 0xe
 2815 02ff 62020000 		.4byte	.LASF42
ARM GAS  C:\Users\austc\AppData\Local\Temp\ccAwGtxE.s 			page 67


 2816 0303 01       		.byte	0x1
 2817 0304 53       		.byte	0x53
 2818 0305 00000000 		.4byte	.LFB35
 2819 0309 64000000 		.4byte	.LFE35-.LFB35
 2820 030d 01       		.uleb128 0x1
 2821 030e 9C       		.byte	0x9c
 2822 030f 89030000 		.4byte	0x389
 2823 0313 0F       		.uleb128 0xf
 2824 0314 58060000 		.4byte	.LASF49
 2825 0318 01       		.byte	0x1
 2826 0319 54       		.byte	0x54
 2827 031a 68000000 		.4byte	0x68
 2828 031e 00000000 		.4byte	.LLST0
 2829 0322 10       		.uleb128 0x10
 2830 0323 32000000 		.4byte	.LBB2
 2831 0327 0C000000 		.4byte	.LBE2-.LBB2
 2832 032b 50030000 		.4byte	0x350
 2833 032f 11       		.uleb128 0x11
 2834 0330 D9030000 		.4byte	.LASF44
 2835 0334 01       		.byte	0x1
 2836 0335 5D       		.byte	0x5d
 2837 0336 68000000 		.4byte	0x68
 2838 033a 40030000 		.4byte	0x340
 2839 033e 12       		.uleb128 0x12
 2840 033f 00       		.byte	0
 2841 0340 13       		.uleb128 0x13
 2842 0341 38000000 		.4byte	.LVL3
 2843 0345 E40F0000 		.4byte	0xfe4
 2844 0349 14       		.uleb128 0x14
 2845 034a 01       		.uleb128 0x1
 2846 034b 50       		.byte	0x50
 2847 034c 01       		.uleb128 0x1
 2848 034d 30       		.byte	0x30
 2849 034e 00       		.byte	0
 2850 034f 00       		.byte	0
 2851 0350 15       		.uleb128 0x15
 2852 0351 06000000 		.4byte	.LVL0
 2853 0355 EF0F0000 		.4byte	0xfef
 2854 0359 16       		.uleb128 0x16
 2855 035a 18000000 		.4byte	.LVL2
 2856 035e FA0F0000 		.4byte	0xffa
 2857 0362 79030000 		.4byte	0x379
 2858 0366 14       		.uleb128 0x14
 2859 0367 01       		.uleb128 0x1
 2860 0368 50       		.byte	0x50
 2861 0369 05       		.uleb128 0x5
 2862 036a 03       		.byte	0x3
 2863 036b 00000000 		.4byte	txData
 2864 036f 14       		.uleb128 0x14
 2865 0370 01       		.uleb128 0x1
 2866 0371 51       		.byte	0x51
 2867 0372 05       		.uleb128 0x5
 2868 0373 03       		.byte	0x3
 2869 0374 00000000 		.4byte	.LC1
 2870 0378 00       		.byte	0
 2871 0379 13       		.uleb128 0x13
 2872 037a 4C000000 		.4byte	.LVL4
ARM GAS  C:\Users\austc\AppData\Local\Temp\ccAwGtxE.s 			page 68


 2873 037e 05100000 		.4byte	0x1005
 2874 0382 14       		.uleb128 0x14
 2875 0383 01       		.uleb128 0x1
 2876 0384 50       		.byte	0x50
 2877 0385 01       		.uleb128 0x1
 2878 0386 31       		.byte	0x31
 2879 0387 00       		.byte	0
 2880 0388 00       		.byte	0
 2881 0389 0E       		.uleb128 0xe
 2882 038a F8030000 		.4byte	.LASF43
 2883 038e 01       		.byte	0x1
 2884 038f 6A       		.byte	0x6a
 2885 0390 00000000 		.4byte	.LFB36
 2886 0394 3C000000 		.4byte	.LFE36-.LFB36
 2887 0398 01       		.uleb128 0x1
 2888 0399 9C       		.byte	0x9c
 2889 039a FE030000 		.4byte	0x3fe
 2890 039e 11       		.uleb128 0x11
 2891 039f D9030000 		.4byte	.LASF44
 2892 03a3 01       		.byte	0x1
 2893 03a4 5D       		.byte	0x5d
 2894 03a5 68000000 		.4byte	0x68
 2895 03a9 AF030000 		.4byte	0x3af
 2896 03ad 12       		.uleb128 0x12
 2897 03ae 00       		.byte	0
 2898 03af 16       		.uleb128 0x16
 2899 03b0 16000000 		.4byte	.LVL5
 2900 03b4 10100000 		.4byte	0x1010
 2901 03b8 D1030000 		.4byte	0x3d1
 2902 03bc 14       		.uleb128 0x14
 2903 03bd 01       		.uleb128 0x1
 2904 03be 50       		.byte	0x50
 2905 03bf 02       		.uleb128 0x2
 2906 03c0 74       		.byte	0x74
 2907 03c1 00       		.sleb128 0
 2908 03c2 14       		.uleb128 0x14
 2909 03c3 01       		.uleb128 0x1
 2910 03c4 51       		.byte	0x51
 2911 03c5 05       		.uleb128 0x5
 2912 03c6 03       		.byte	0x3
 2913 03c7 20000000 		.4byte	.LC8
 2914 03cb 14       		.uleb128 0x14
 2915 03cc 01       		.uleb128 0x1
 2916 03cd 52       		.byte	0x52
 2917 03ce 01       		.uleb128 0x1
 2918 03cf 4A       		.byte	0x4a
 2919 03d0 00       		.byte	0
 2920 03d1 16       		.uleb128 0x16
 2921 03d2 1C000000 		.4byte	.LVL6
 2922 03d6 19100000 		.4byte	0x1019
 2923 03da E5030000 		.4byte	0x3e5
 2924 03de 14       		.uleb128 0x14
 2925 03df 01       		.uleb128 0x1
 2926 03e0 50       		.byte	0x50
 2927 03e1 02       		.uleb128 0x2
 2928 03e2 74       		.byte	0x74
 2929 03e3 00       		.sleb128 0
ARM GAS  C:\Users\austc\AppData\Local\Temp\ccAwGtxE.s 			page 69


 2930 03e4 00       		.byte	0
 2931 03e5 15       		.uleb128 0x15
 2932 03e6 24000000 		.4byte	.LVL7
 2933 03ea E40F0000 		.4byte	0xfe4
 2934 03ee 13       		.uleb128 0x13
 2935 03ef 2A000000 		.4byte	.LVL8
 2936 03f3 25100000 		.4byte	0x1025
 2937 03f7 14       		.uleb128 0x14
 2938 03f8 01       		.uleb128 0x1
 2939 03f9 50       		.byte	0x50
 2940 03fa 01       		.uleb128 0x1
 2941 03fb 30       		.byte	0x30
 2942 03fc 00       		.byte	0
 2943 03fd 00       		.byte	0
 2944 03fe 17       		.uleb128 0x17
 2945 03ff 2F030000 		.4byte	.LASF45
 2946 0403 01       		.byte	0x1
 2947 0404 EC01     		.2byte	0x1ec
 2948 0406 03       		.byte	0x3
 2949 0407 18040000 		.4byte	0x418
 2950 040b 18       		.uleb128 0x18
 2951 040c F6050000 		.4byte	.LASF124
 2952 0410 01       		.byte	0x1
 2953 0411 EC01     		.2byte	0x1ec
 2954 0413 8D000000 		.4byte	0x8d
 2955 0417 00       		.byte	0
 2956 0418 19       		.uleb128 0x19
 2957 0419 0A040000 		.4byte	.LASF46
 2958 041d 01       		.byte	0x1
 2959 041e C601     		.2byte	0x1c6
 2960 0420 00000000 		.4byte	.LFB46
 2961 0424 60020000 		.4byte	.LFE46-.LFB46
 2962 0428 01       		.uleb128 0x1
 2963 0429 9C       		.byte	0x9c
 2964 042a E4040000 		.4byte	0x4e4
 2965 042e 1A       		.uleb128 0x1a
 2966 042f FE030000 		.4byte	0x3fe
 2967 0433 44000000 		.4byte	.LBB7
 2968 0437 CE000000 		.4byte	.LBE7-.LBB7
 2969 043b 01       		.byte	0x1
 2970 043c D701     		.2byte	0x1d7
 2971 043e 55040000 		.4byte	0x455
 2972 0442 1B       		.uleb128 0x1b
 2973 0443 0B040000 		.4byte	0x40b
 2974 0447 1E000000 		.4byte	.LLST1
 2975 044b 15       		.uleb128 0x15
 2976 044c 78000000 		.4byte	.LVL14
 2977 0450 30100000 		.4byte	0x1030
 2978 0454 00       		.byte	0
 2979 0455 1A       		.uleb128 0x1a
 2980 0456 FE030000 		.4byte	0x3fe
 2981 045a 50010000 		.4byte	.LBB9
 2982 045e CE000000 		.4byte	.LBE9-.LBB9
 2983 0462 01       		.byte	0x1
 2984 0463 E501     		.2byte	0x1e5
 2985 0465 7C040000 		.4byte	0x47c
 2986 0469 1B       		.uleb128 0x1b
ARM GAS  C:\Users\austc\AppData\Local\Temp\ccAwGtxE.s 			page 70


 2987 046a 0B040000 		.4byte	0x40b
 2988 046e 5E000000 		.4byte	.LLST2
 2989 0472 15       		.uleb128 0x15
 2990 0473 84010000 		.4byte	.LVL23
 2991 0477 30100000 		.4byte	0x1030
 2992 047b 00       		.byte	0
 2993 047c 16       		.uleb128 0x16
 2994 047d 18000000 		.4byte	.LVL9
 2995 0481 19100000 		.4byte	0x1019
 2996 0485 93040000 		.4byte	0x493
 2997 0489 14       		.uleb128 0x14
 2998 048a 01       		.uleb128 0x1
 2999 048b 50       		.byte	0x50
 3000 048c 05       		.uleb128 0x5
 3001 048d 03       		.byte	0x3
 3002 048e 3C000000 		.4byte	.LC12
 3003 0492 00       		.byte	0
 3004 0493 16       		.uleb128 0x16
 3005 0494 34000000 		.4byte	.LVL10
 3006 0498 19100000 		.4byte	0x1019
 3007 049c AA040000 		.4byte	0x4aa
 3008 04a0 14       		.uleb128 0x14
 3009 04a1 01       		.uleb128 0x1
 3010 04a2 50       		.byte	0x50
 3011 04a3 05       		.uleb128 0x5
 3012 04a4 03       		.byte	0x3
 3013 04a5 50000000 		.4byte	.LC14
 3014 04a9 00       		.byte	0
 3015 04aa 16       		.uleb128 0x16
 3016 04ab 40000000 		.4byte	.LVL11
 3017 04af 05100000 		.4byte	0x1005
 3018 04b3 BD040000 		.4byte	0x4bd
 3019 04b7 14       		.uleb128 0x14
 3020 04b8 01       		.uleb128 0x1
 3021 04b9 50       		.byte	0x50
 3022 04ba 01       		.uleb128 0x1
 3023 04bb 30       		.byte	0x30
 3024 04bc 00       		.byte	0
 3025 04bd 16       		.uleb128 0x16
 3026 04be 42010000 		.4byte	.LVL19
 3027 04c2 19100000 		.4byte	0x1019
 3028 04c6 D4040000 		.4byte	0x4d4
 3029 04ca 14       		.uleb128 0x14
 3030 04cb 01       		.uleb128 0x1
 3031 04cc 50       		.byte	0x50
 3032 04cd 05       		.uleb128 0x5
 3033 04ce 03       		.byte	0x3
 3034 04cf 60000000 		.4byte	.LC20
 3035 04d3 00       		.byte	0
 3036 04d4 13       		.uleb128 0x13
 3037 04d5 4E010000 		.4byte	.LVL20
 3038 04d9 05100000 		.4byte	0x1005
 3039 04dd 14       		.uleb128 0x14
 3040 04de 01       		.uleb128 0x1
 3041 04df 50       		.byte	0x50
 3042 04e0 01       		.uleb128 0x1
 3043 04e1 30       		.byte	0x30
ARM GAS  C:\Users\austc\AppData\Local\Temp\ccAwGtxE.s 			page 71


 3044 04e2 00       		.byte	0
 3045 04e3 00       		.byte	0
 3046 04e4 19       		.uleb128 0x19
 3047 04e5 12030000 		.4byte	.LASF47
 3048 04e9 01       		.byte	0x1
 3049 04ea 1001     		.2byte	0x110
 3050 04ec 00000000 		.4byte	.LFB38
 3051 04f0 14000000 		.4byte	.LFE38-.LFB38
 3052 04f4 01       		.uleb128 0x1
 3053 04f5 9C       		.byte	0x9c
 3054 04f6 04050000 		.4byte	0x504
 3055 04fa 15       		.uleb128 0x15
 3056 04fb 06000000 		.4byte	.LVL28
 3057 04ff 3B100000 		.4byte	0x103b
 3058 0503 00       		.byte	0
 3059 0504 19       		.uleb128 0x19
 3060 0505 CF010000 		.4byte	.LASF48
 3061 0509 01       		.byte	0x1
 3062 050a 1701     		.2byte	0x117
 3063 050c 00000000 		.4byte	.LFB39
 3064 0510 6C000000 		.4byte	.LFE39-.LFB39
 3065 0514 01       		.uleb128 0x1
 3066 0515 9C       		.byte	0x9c
 3067 0516 E7050000 		.4byte	0x5e7
 3068 051a 1C       		.uleb128 0x1c
 3069 051b 58020000 		.4byte	.LASF50
 3070 051f 01       		.byte	0x1
 3071 0520 1901     		.2byte	0x119
 3072 0522 68000000 		.4byte	0x68
 3073 0526 9E000000 		.4byte	.LLST3
 3074 052a 15       		.uleb128 0x15
 3075 052b 06000000 		.4byte	.LVL29
 3076 052f 47100000 		.4byte	0x1047
 3077 0533 15       		.uleb128 0x15
 3078 0534 0C000000 		.4byte	.LVL31
 3079 0538 52100000 		.4byte	0x1052
 3080 053c 15       		.uleb128 0x15
 3081 053d 10000000 		.4byte	.LVL32
 3082 0541 5D100000 		.4byte	0x105d
 3083 0545 15       		.uleb128 0x15
 3084 0546 14000000 		.4byte	.LVL33
 3085 054a 68100000 		.4byte	0x1068
 3086 054e 15       		.uleb128 0x15
 3087 054f 18000000 		.4byte	.LVL34
 3088 0553 73100000 		.4byte	0x1073
 3089 0557 15       		.uleb128 0x15
 3090 0558 1C000000 		.4byte	.LVL35
 3091 055c 7F100000 		.4byte	0x107f
 3092 0560 16       		.uleb128 0x16
 3093 0561 24000000 		.4byte	.LVL36
 3094 0565 8A100000 		.4byte	0x108a
 3095 0569 7C050000 		.4byte	0x57c
 3096 056d 14       		.uleb128 0x14
 3097 056e 01       		.uleb128 0x1
 3098 056f 50       		.byte	0x50
 3099 0570 01       		.uleb128 0x1
 3100 0571 4D       		.byte	0x4d
ARM GAS  C:\Users\austc\AppData\Local\Temp\ccAwGtxE.s 			page 72


 3101 0572 14       		.uleb128 0x14
 3102 0573 01       		.uleb128 0x1
 3103 0574 51       		.byte	0x51
 3104 0575 05       		.uleb128 0x5
 3105 0576 03       		.byte	0x3
 3106 0577 00000000 		.4byte	ISR_CAN
 3107 057b 00       		.byte	0
 3108 057c 16       		.uleb128 0x16
 3109 057d 2C000000 		.4byte	.LVL37
 3110 0581 95100000 		.4byte	0x1095
 3111 0585 93050000 		.4byte	0x593
 3112 0589 14       		.uleb128 0x14
 3113 058a 01       		.uleb128 0x1
 3114 058b 50       		.byte	0x50
 3115 058c 05       		.uleb128 0x5
 3116 058d 03       		.byte	0x3
 3117 058e 00000000 		.4byte	Pin_Limit_Handler
 3118 0592 00       		.byte	0
 3119 0593 16       		.uleb128 0x16
 3120 0594 32000000 		.4byte	.LVL38
 3121 0598 A0100000 		.4byte	0x10a0
 3122 059c AA050000 		.4byte	0x5aa
 3123 05a0 14       		.uleb128 0x14
 3124 05a1 01       		.uleb128 0x1
 3125 05a2 50       		.byte	0x50
 3126 05a3 05       		.uleb128 0x5
 3127 05a4 03       		.byte	0x3
 3128 05a5 00000000 		.4byte	Period_Reset_Handler
 3129 05a9 00       		.byte	0
 3130 05aa 15       		.uleb128 0x15
 3131 05ab 3E000000 		.4byte	.LVL39
 3132 05af AB100000 		.4byte	0x10ab
 3133 05b3 16       		.uleb128 0x16
 3134 05b4 4A000000 		.4byte	.LVL40
 3135 05b8 FA0F0000 		.4byte	0xffa
 3136 05bc D6050000 		.4byte	0x5d6
 3137 05c0 14       		.uleb128 0x14
 3138 05c1 01       		.uleb128 0x1
 3139 05c2 50       		.byte	0x50
 3140 05c3 02       		.uleb128 0x2
 3141 05c4 75       		.byte	0x75
 3142 05c5 00       		.sleb128 0
 3143 05c6 14       		.uleb128 0x14
 3144 05c7 01       		.uleb128 0x1
 3145 05c8 51       		.byte	0x51
 3146 05c9 05       		.uleb128 0x5
 3147 05ca 03       		.byte	0x3
 3148 05cb 70000000 		.4byte	.LC27
 3149 05cf 14       		.uleb128 0x14
 3150 05d0 01       		.uleb128 0x1
 3151 05d1 52       		.byte	0x52
 3152 05d2 02       		.uleb128 0x2
 3153 05d3 74       		.byte	0x74
 3154 05d4 00       		.sleb128 0
 3155 05d5 00       		.byte	0
 3156 05d6 13       		.uleb128 0x13
 3157 05d7 50000000 		.4byte	.LVL41
ARM GAS  C:\Users\austc\AppData\Local\Temp\ccAwGtxE.s 			page 73


 3158 05db 19100000 		.4byte	0x1019
 3159 05df 14       		.uleb128 0x14
 3160 05e0 01       		.uleb128 0x1
 3161 05e1 50       		.byte	0x50
 3162 05e2 02       		.uleb128 0x2
 3163 05e3 75       		.byte	0x75
 3164 05e4 00       		.sleb128 0
 3165 05e5 00       		.byte	0
 3166 05e6 00       		.byte	0
 3167 05e7 19       		.uleb128 0x19
 3168 05e8 1E000000 		.4byte	.LASF51
 3169 05ec 01       		.byte	0x1
 3170 05ed 8901     		.2byte	0x189
 3171 05ef 00000000 		.4byte	.LFB41
 3172 05f3 1C000000 		.4byte	.LFE41-.LFB41
 3173 05f7 01       		.uleb128 0x1
 3174 05f8 9C       		.byte	0x9c
 3175 05f9 0E060000 		.4byte	0x60e
 3176 05fd 1D       		.uleb128 0x1d
 3177 05fe C3040000 		.4byte	.LASF61
 3178 0602 01       		.byte	0x1
 3179 0603 8901     		.2byte	0x189
 3180 0605 99000000 		.4byte	0x99
 3181 0609 BC000000 		.4byte	.LLST4
 3182 060d 00       		.byte	0
 3183 060e 19       		.uleb128 0x19
 3184 060f B3030000 		.4byte	.LASF52
 3185 0613 01       		.byte	0x1
 3186 0614 3E01     		.2byte	0x13e
 3187 0616 00000000 		.4byte	.LFB40
 3188 061a AC010000 		.4byte	.LFE40-.LFB40
 3189 061e 01       		.uleb128 0x1
 3190 061f 9C       		.byte	0x9c
 3191 0620 05070000 		.4byte	0x705
 3192 0624 1C       		.uleb128 0x1c
 3193 0625 B1000000 		.4byte	.LASF53
 3194 0629 01       		.byte	0x1
 3195 062a 3F01     		.2byte	0x13f
 3196 062c 81000000 		.4byte	0x81
 3197 0630 DD000000 		.4byte	.LLST5
 3198 0634 1C       		.uleb128 0x1c
 3199 0635 E1000000 		.4byte	.LASF54
 3200 0639 01       		.byte	0x1
 3201 063a 4001     		.2byte	0x140
 3202 063c 81000000 		.4byte	0x81
 3203 0640 F0000000 		.4byte	.LLST6
 3204 0644 15       		.uleb128 0x15
 3205 0645 08000000 		.4byte	.LVL45
 3206 0649 B6100000 		.4byte	0x10b6
 3207 064d 15       		.uleb128 0x15
 3208 064e 0E000000 		.4byte	.LVL47
 3209 0652 B6100000 		.4byte	0x10b6
 3210 0656 16       		.uleb128 0x16
 3211 0657 1E010000 		.4byte	.LVL61
 3212 065b E7050000 		.4byte	0x5e7
 3213 065f 69060000 		.4byte	0x669
 3214 0663 14       		.uleb128 0x14
ARM GAS  C:\Users\austc\AppData\Local\Temp\ccAwGtxE.s 			page 74


 3215 0664 01       		.uleb128 0x1
 3216 0665 50       		.byte	0x50
 3217 0666 01       		.uleb128 0x1
 3218 0667 31       		.byte	0x31
 3219 0668 00       		.byte	0
 3220 0669 16       		.uleb128 0x16
 3221 066a 34010000 		.4byte	.LVL62
 3222 066e FA0F0000 		.4byte	0xffa
 3223 0672 8C060000 		.4byte	0x68c
 3224 0676 14       		.uleb128 0x14
 3225 0677 01       		.uleb128 0x1
 3226 0678 50       		.byte	0x50
 3227 0679 02       		.uleb128 0x2
 3228 067a 74       		.byte	0x74
 3229 067b 00       		.sleb128 0
 3230 067c 14       		.uleb128 0x14
 3231 067d 01       		.uleb128 0x1
 3232 067e 51       		.byte	0x51
 3233 067f 05       		.uleb128 0x5
 3234 0680 03       		.byte	0x3
 3235 0681 84000000 		.4byte	.LC39
 3236 0685 14       		.uleb128 0x14
 3237 0686 01       		.uleb128 0x1
 3238 0687 52       		.byte	0x52
 3239 0688 02       		.uleb128 0x2
 3240 0689 75       		.byte	0x75
 3241 068a 00       		.sleb128 0
 3242 068b 00       		.byte	0
 3243 068c 16       		.uleb128 0x16
 3244 068d 3A010000 		.4byte	.LVL63
 3245 0691 19100000 		.4byte	0x1019
 3246 0695 A0060000 		.4byte	0x6a0
 3247 0699 14       		.uleb128 0x14
 3248 069a 01       		.uleb128 0x1
 3249 069b 50       		.byte	0x50
 3250 069c 02       		.uleb128 0x2
 3251 069d 74       		.byte	0x74
 3252 069e 00       		.sleb128 0
 3253 069f 00       		.byte	0
 3254 06a0 16       		.uleb128 0x16
 3255 06a1 4C010000 		.4byte	.LVL64
 3256 06a5 FA0F0000 		.4byte	0xffa
 3257 06a9 C3060000 		.4byte	0x6c3
 3258 06ad 14       		.uleb128 0x14
 3259 06ae 01       		.uleb128 0x1
 3260 06af 50       		.byte	0x50
 3261 06b0 02       		.uleb128 0x2
 3262 06b1 74       		.byte	0x74
 3263 06b2 00       		.sleb128 0
 3264 06b3 14       		.uleb128 0x14
 3265 06b4 01       		.uleb128 0x1
 3266 06b5 51       		.byte	0x51
 3267 06b6 05       		.uleb128 0x5
 3268 06b7 03       		.byte	0x3
 3269 06b8 AC000000 		.4byte	.LC42
 3270 06bc 14       		.uleb128 0x14
 3271 06bd 01       		.uleb128 0x1
ARM GAS  C:\Users\austc\AppData\Local\Temp\ccAwGtxE.s 			page 75


 3272 06be 52       		.byte	0x52
 3273 06bf 02       		.uleb128 0x2
 3274 06c0 76       		.byte	0x76
 3275 06c1 00       		.sleb128 0
 3276 06c2 00       		.byte	0
 3277 06c3 16       		.uleb128 0x16
 3278 06c4 52010000 		.4byte	.LVL65
 3279 06c8 19100000 		.4byte	0x1019
 3280 06cc D7060000 		.4byte	0x6d7
 3281 06d0 14       		.uleb128 0x14
 3282 06d1 01       		.uleb128 0x1
 3283 06d2 50       		.byte	0x50
 3284 06d3 02       		.uleb128 0x2
 3285 06d4 74       		.byte	0x74
 3286 06d5 00       		.sleb128 0
 3287 06d6 00       		.byte	0
 3288 06d7 16       		.uleb128 0x16
 3289 06d8 5C010000 		.4byte	.LVL66
 3290 06dc FA0F0000 		.4byte	0xffa
 3291 06e0 F4060000 		.4byte	0x6f4
 3292 06e4 14       		.uleb128 0x14
 3293 06e5 01       		.uleb128 0x1
 3294 06e6 50       		.byte	0x50
 3295 06e7 02       		.uleb128 0x2
 3296 06e8 74       		.byte	0x74
 3297 06e9 00       		.sleb128 0
 3298 06ea 14       		.uleb128 0x14
 3299 06eb 01       		.uleb128 0x1
 3300 06ec 51       		.byte	0x51
 3301 06ed 05       		.uleb128 0x5
 3302 06ee 03       		.byte	0x3
 3303 06ef DC000000 		.4byte	.LC44
 3304 06f3 00       		.byte	0
 3305 06f4 13       		.uleb128 0x13
 3306 06f5 62010000 		.4byte	.LVL67
 3307 06f9 19100000 		.4byte	0x1019
 3308 06fd 14       		.uleb128 0x14
 3309 06fe 01       		.uleb128 0x1
 3310 06ff 50       		.byte	0x50
 3311 0700 02       		.uleb128 0x2
 3312 0701 74       		.byte	0x74
 3313 0702 00       		.sleb128 0
 3314 0703 00       		.byte	0
 3315 0704 00       		.byte	0
 3316 0705 1E       		.uleb128 0x1e
 3317 0706 F9010000 		.4byte	.LASF55
 3318 070a 01       		.byte	0x1
 3319 070b 8E01     		.2byte	0x18e
 3320 070d 00000000 		.4byte	.LFB42
 3321 0711 8C000000 		.4byte	.LFE42-.LFB42
 3322 0715 01       		.uleb128 0x1
 3323 0716 9C       		.byte	0x9c
 3324 0717 A5070000 		.4byte	0x7a5
 3325 071b 1C       		.uleb128 0x1c
 3326 071c 52020000 		.4byte	.LASF56
 3327 0720 01       		.byte	0x1
 3328 0721 8F01     		.2byte	0x18f
ARM GAS  C:\Users\austc\AppData\Local\Temp\ccAwGtxE.s 			page 76


 3329 0723 B1000000 		.4byte	0xb1
 3330 0727 9F010000 		.4byte	.LLST7
 3331 072b 1C       		.uleb128 0x1c
 3332 072c 12040000 		.4byte	.LASF57
 3333 0730 01       		.byte	0x1
 3334 0731 9001     		.2byte	0x190
 3335 0733 B1000000 		.4byte	0xb1
 3336 0737 B2010000 		.4byte	.LLST8
 3337 073b 15       		.uleb128 0x15
 3338 073c 08000000 		.4byte	.LVL70
 3339 0740 30100000 		.4byte	0x1030
 3340 0744 16       		.uleb128 0x16
 3341 0745 3E000000 		.4byte	.LVL77
 3342 0749 C1100000 		.4byte	0x10c1
 3343 074d 5B070000 		.4byte	0x75b
 3344 0751 14       		.uleb128 0x14
 3345 0752 01       		.uleb128 0x1
 3346 0753 50       		.byte	0x50
 3347 0754 05       		.uleb128 0x5
 3348 0755 03       		.byte	0x3
 3349 0756 00000000 		.4byte	message
 3350 075a 00       		.byte	0
 3351 075b 15       		.uleb128 0x15
 3352 075c 52000000 		.4byte	.LVL78
 3353 0760 30100000 		.4byte	0x1030
 3354 0764 16       		.uleb128 0x16
 3355 0765 64000000 		.4byte	.LVL79
 3356 0769 FA0F0000 		.4byte	0xffa
 3357 076d 94070000 		.4byte	0x794
 3358 0771 14       		.uleb128 0x14
 3359 0772 01       		.uleb128 0x1
 3360 0773 50       		.byte	0x50
 3361 0774 02       		.uleb128 0x2
 3362 0775 74       		.byte	0x74
 3363 0776 00       		.sleb128 0
 3364 0777 14       		.uleb128 0x14
 3365 0778 01       		.uleb128 0x1
 3366 0779 51       		.byte	0x51
 3367 077a 05       		.uleb128 0x5
 3368 077b 03       		.byte	0x3
 3369 077c F0000000 		.4byte	.LC50
 3370 0780 14       		.uleb128 0x14
 3371 0781 01       		.uleb128 0x1
 3372 0782 52       		.byte	0x52
 3373 0783 02       		.uleb128 0x2
 3374 0784 75       		.byte	0x75
 3375 0785 00       		.sleb128 0
 3376 0786 14       		.uleb128 0x14
 3377 0787 01       		.uleb128 0x1
 3378 0788 53       		.byte	0x53
 3379 0789 02       		.uleb128 0x2
 3380 078a 76       		.byte	0x76
 3381 078b 00       		.sleb128 0
 3382 078c 14       		.uleb128 0x14
 3383 078d 02       		.uleb128 0x2
 3384 078e 7D       		.byte	0x7d
 3385 078f 00       		.sleb128 0
ARM GAS  C:\Users\austc\AppData\Local\Temp\ccAwGtxE.s 			page 77


 3386 0790 02       		.uleb128 0x2
 3387 0791 77       		.byte	0x77
 3388 0792 00       		.sleb128 0
 3389 0793 00       		.byte	0
 3390 0794 13       		.uleb128 0x13
 3391 0795 6A000000 		.4byte	.LVL80
 3392 0799 19100000 		.4byte	0x1019
 3393 079d 14       		.uleb128 0x14
 3394 079e 01       		.uleb128 0x1
 3395 079f 50       		.byte	0x50
 3396 07a0 02       		.uleb128 0x2
 3397 07a1 74       		.byte	0x74
 3398 07a2 00       		.sleb128 0
 3399 07a3 00       		.byte	0
 3400 07a4 00       		.byte	0
 3401 07a5 19       		.uleb128 0x19
 3402 07a6 4C000000 		.4byte	.LASF58
 3403 07aa 01       		.byte	0x1
 3404 07ab 9F01     		.2byte	0x19f
 3405 07ad 00000000 		.4byte	.LFB43
 3406 07b1 4C000000 		.4byte	.LFE43-.LFB43
 3407 07b5 01       		.uleb128 0x1
 3408 07b6 9C       		.byte	0x9c
 3409 07b7 00080000 		.4byte	0x800
 3410 07bb 16       		.uleb128 0x16
 3411 07bc 18000000 		.4byte	.LVL81
 3412 07c0 C1100000 		.4byte	0x10c1
 3413 07c4 D2070000 		.4byte	0x7d2
 3414 07c8 14       		.uleb128 0x14
 3415 07c9 01       		.uleb128 0x1
 3416 07ca 50       		.byte	0x50
 3417 07cb 05       		.uleb128 0x5
 3418 07cc 03       		.byte	0x3
 3419 07cd 00000000 		.4byte	message
 3420 07d1 00       		.byte	0
 3421 07d2 16       		.uleb128 0x16
 3422 07d3 30000000 		.4byte	.LVL82
 3423 07d7 FA0F0000 		.4byte	0xffa
 3424 07db EF070000 		.4byte	0x7ef
 3425 07df 14       		.uleb128 0x14
 3426 07e0 01       		.uleb128 0x1
 3427 07e1 50       		.byte	0x50
 3428 07e2 02       		.uleb128 0x2
 3429 07e3 74       		.byte	0x74
 3430 07e4 00       		.sleb128 0
 3431 07e5 14       		.uleb128 0x14
 3432 07e6 01       		.uleb128 0x1
 3433 07e7 51       		.byte	0x51
 3434 07e8 05       		.uleb128 0x5
 3435 07e9 03       		.byte	0x3
 3436 07ea 3C010000 		.4byte	.LC56
 3437 07ee 00       		.byte	0
 3438 07ef 13       		.uleb128 0x13
 3439 07f0 36000000 		.4byte	.LVL83
 3440 07f4 19100000 		.4byte	0x1019
 3441 07f8 14       		.uleb128 0x14
 3442 07f9 01       		.uleb128 0x1
ARM GAS  C:\Users\austc\AppData\Local\Temp\ccAwGtxE.s 			page 78


 3443 07fa 50       		.byte	0x50
 3444 07fb 02       		.uleb128 0x2
 3445 07fc 74       		.byte	0x74
 3446 07fd 00       		.sleb128 0
 3447 07fe 00       		.byte	0
 3448 07ff 00       		.byte	0
 3449 0800 19       		.uleb128 0x19
 3450 0801 B4040000 		.4byte	.LASF59
 3451 0805 01       		.byte	0x1
 3452 0806 AC01     		.2byte	0x1ac
 3453 0808 00000000 		.4byte	.LFB44
 3454 080c 4C000000 		.4byte	.LFE44-.LFB44
 3455 0810 01       		.uleb128 0x1
 3456 0811 9C       		.byte	0x9c
 3457 0812 5B080000 		.4byte	0x85b
 3458 0816 16       		.uleb128 0x16
 3459 0817 18000000 		.4byte	.LVL84
 3460 081b C1100000 		.4byte	0x10c1
 3461 081f 2D080000 		.4byte	0x82d
 3462 0823 14       		.uleb128 0x14
 3463 0824 01       		.uleb128 0x1
 3464 0825 50       		.byte	0x50
 3465 0826 05       		.uleb128 0x5
 3466 0827 03       		.byte	0x3
 3467 0828 00000000 		.4byte	message
 3468 082c 00       		.byte	0
 3469 082d 16       		.uleb128 0x16
 3470 082e 30000000 		.4byte	.LVL85
 3471 0832 FA0F0000 		.4byte	0xffa
 3472 0836 4A080000 		.4byte	0x84a
 3473 083a 14       		.uleb128 0x14
 3474 083b 01       		.uleb128 0x1
 3475 083c 50       		.byte	0x50
 3476 083d 02       		.uleb128 0x2
 3477 083e 74       		.byte	0x74
 3478 083f 00       		.sleb128 0
 3479 0840 14       		.uleb128 0x14
 3480 0841 01       		.uleb128 0x1
 3481 0842 51       		.byte	0x51
 3482 0843 05       		.uleb128 0x5
 3483 0844 03       		.byte	0x3
 3484 0845 64010000 		.4byte	.LC62
 3485 0849 00       		.byte	0
 3486 084a 13       		.uleb128 0x13
 3487 084b 36000000 		.4byte	.LVL86
 3488 084f 19100000 		.4byte	0x1019
 3489 0853 14       		.uleb128 0x14
 3490 0854 01       		.uleb128 0x1
 3491 0855 50       		.byte	0x50
 3492 0856 02       		.uleb128 0x2
 3493 0857 74       		.byte	0x74
 3494 0858 00       		.sleb128 0
 3495 0859 00       		.byte	0
 3496 085a 00       		.byte	0
 3497 085b 19       		.uleb128 0x19
 3498 085c 95020000 		.4byte	.LASF60
 3499 0860 01       		.byte	0x1
ARM GAS  C:\Users\austc\AppData\Local\Temp\ccAwGtxE.s 			page 79


 3500 0861 B901     		.2byte	0x1b9
 3501 0863 00000000 		.4byte	.LFB45
 3502 0867 54000000 		.4byte	.LFE45-.LFB45
 3503 086b 01       		.uleb128 0x1
 3504 086c 9C       		.byte	0x9c
 3505 086d D6080000 		.4byte	0x8d6
 3506 0871 1D       		.uleb128 0x1d
 3507 0872 29020000 		.4byte	.LASF27
 3508 0876 01       		.byte	0x1
 3509 0877 B901     		.2byte	0x1b9
 3510 0879 81000000 		.4byte	0x81
 3511 087d C5010000 		.4byte	.LLST9
 3512 0881 1D       		.uleb128 0x1d
 3513 0882 6F030000 		.4byte	.LASF28
 3514 0886 01       		.byte	0x1
 3515 0887 B901     		.2byte	0x1b9
 3516 0889 81000000 		.4byte	0x81
 3517 088d F2010000 		.4byte	.LLST10
 3518 0891 16       		.uleb128 0x16
 3519 0892 1A000000 		.4byte	.LVL89
 3520 0896 C1100000 		.4byte	0x10c1
 3521 089a A8080000 		.4byte	0x8a8
 3522 089e 14       		.uleb128 0x14
 3523 089f 01       		.uleb128 0x1
 3524 08a0 50       		.byte	0x50
 3525 08a1 05       		.uleb128 0x5
 3526 08a2 03       		.byte	0x3
 3527 08a3 00000000 		.4byte	message
 3528 08a7 00       		.byte	0
 3529 08a8 16       		.uleb128 0x16
 3530 08a9 36000000 		.4byte	.LVL90
 3531 08ad FA0F0000 		.4byte	0xffa
 3532 08b1 C5080000 		.4byte	0x8c5
 3533 08b5 14       		.uleb128 0x14
 3534 08b6 01       		.uleb128 0x1
 3535 08b7 50       		.byte	0x50
 3536 08b8 02       		.uleb128 0x2
 3537 08b9 74       		.byte	0x74
 3538 08ba 00       		.sleb128 0
 3539 08bb 14       		.uleb128 0x14
 3540 08bc 01       		.uleb128 0x1
 3541 08bd 51       		.byte	0x51
 3542 08be 05       		.uleb128 0x5
 3543 08bf 03       		.byte	0x3
 3544 08c0 88010000 		.4byte	.LC68
 3545 08c4 00       		.byte	0
 3546 08c5 13       		.uleb128 0x13
 3547 08c6 3C000000 		.4byte	.LVL91
 3548 08ca 19100000 		.4byte	0x1019
 3549 08ce 14       		.uleb128 0x14
 3550 08cf 01       		.uleb128 0x1
 3551 08d0 50       		.byte	0x50
 3552 08d1 02       		.uleb128 0x2
 3553 08d2 74       		.byte	0x74
 3554 08d3 00       		.sleb128 0
 3555 08d4 00       		.byte	0
 3556 08d5 00       		.byte	0
ARM GAS  C:\Users\austc\AppData\Local\Temp\ccAwGtxE.s 			page 80


 3557 08d6 1F       		.uleb128 0x1f
 3558 08d7 FE030000 		.4byte	0x3fe
 3559 08db 00000000 		.4byte	.LFB47
 3560 08df EC000000 		.4byte	.LFE47-.LFB47
 3561 08e3 01       		.uleb128 0x1
 3562 08e4 9C       		.byte	0x9c
 3563 08e5 FC080000 		.4byte	0x8fc
 3564 08e9 1B       		.uleb128 0x1b
 3565 08ea 0B040000 		.4byte	0x40b
 3566 08ee 13020000 		.4byte	.LLST11
 3567 08f2 15       		.uleb128 0x15
 3568 08f3 36000000 		.4byte	.LVL94
 3569 08f7 30100000 		.4byte	0x1030
 3570 08fb 00       		.byte	0
 3571 08fc 20       		.uleb128 0x20
 3572 08fd 8B000000 		.4byte	.LASF63
 3573 0901 01       		.byte	0x1
 3574 0902 2B02     		.2byte	0x22b
 3575 0904 68000000 		.4byte	0x68
 3576 0908 00000000 		.4byte	.LFB49
 3577 090c 48000000 		.4byte	.LFE49-.LFB49
 3578 0910 01       		.uleb128 0x1
 3579 0911 9C       		.byte	0x9c
 3580 0912 70090000 		.4byte	0x970
 3581 0916 1D       		.uleb128 0x1d
 3582 0917 29000000 		.4byte	.LASF62
 3583 091b 01       		.byte	0x1
 3584 091c 2B02     		.2byte	0x22b
 3585 091e B1000000 		.4byte	0xb1
 3586 0922 34020000 		.4byte	.LLST12
 3587 0926 1C       		.uleb128 0x1c
 3588 0927 52020000 		.4byte	.LASF56
 3589 092b 01       		.byte	0x1
 3590 092c 2C02     		.2byte	0x22c
 3591 092e 68000000 		.4byte	0x68
 3592 0932 55020000 		.4byte	.LLST13
 3593 0936 16       		.uleb128 0x16
 3594 0937 2E000000 		.4byte	.LVL101
 3595 093b FA0F0000 		.4byte	0xffa
 3596 093f 5F090000 		.4byte	0x95f
 3597 0943 14       		.uleb128 0x14
 3598 0944 01       		.uleb128 0x1
 3599 0945 50       		.byte	0x50
 3600 0946 02       		.uleb128 0x2
 3601 0947 76       		.byte	0x76
 3602 0948 00       		.sleb128 0
 3603 0949 14       		.uleb128 0x14
 3604 094a 01       		.uleb128 0x1
 3605 094b 51       		.byte	0x51
 3606 094c 05       		.uleb128 0x5
 3607 094d 03       		.byte	0x3
 3608 094e B8010000 		.4byte	.LC78
 3609 0952 14       		.uleb128 0x14
 3610 0953 01       		.uleb128 0x1
 3611 0954 52       		.byte	0x52
 3612 0955 02       		.uleb128 0x2
 3613 0956 75       		.byte	0x75
ARM GAS  C:\Users\austc\AppData\Local\Temp\ccAwGtxE.s 			page 81


 3614 0957 00       		.sleb128 0
 3615 0958 14       		.uleb128 0x14
 3616 0959 01       		.uleb128 0x1
 3617 095a 53       		.byte	0x53
 3618 095b 02       		.uleb128 0x2
 3619 095c 74       		.byte	0x74
 3620 095d 00       		.sleb128 0
 3621 095e 00       		.byte	0
 3622 095f 13       		.uleb128 0x13
 3623 0960 34000000 		.4byte	.LVL102
 3624 0964 19100000 		.4byte	0x1019
 3625 0968 14       		.uleb128 0x14
 3626 0969 01       		.uleb128 0x1
 3627 096a 50       		.byte	0x50
 3628 096b 02       		.uleb128 0x2
 3629 096c 76       		.byte	0x76
 3630 096d 00       		.sleb128 0
 3631 096e 00       		.byte	0
 3632 096f 00       		.byte	0
 3633 0970 20       		.uleb128 0x20
 3634 0971 90030000 		.4byte	.LASF64
 3635 0975 01       		.byte	0x1
 3636 0976 3402     		.2byte	0x234
 3637 0978 68000000 		.4byte	0x68
 3638 097c 00000000 		.4byte	.LFB50
 3639 0980 E4000000 		.4byte	.LFE50-.LFB50
 3640 0984 01       		.uleb128 0x1
 3641 0985 9C       		.byte	0x9c
 3642 0986 410A0000 		.4byte	0xa41
 3643 098a 1D       		.uleb128 0x1d
 3644 098b C8010000 		.4byte	.LASF65
 3645 098f 01       		.byte	0x1
 3646 0990 3402     		.2byte	0x234
 3647 0992 68000000 		.4byte	0x68
 3648 0996 89020000 		.4byte	.LLST14
 3649 099a 1C       		.uleb128 0x1c
 3650 099b 39060000 		.4byte	.LASF66
 3651 099f 01       		.byte	0x1
 3652 09a0 3502     		.2byte	0x235
 3653 09a2 B1000000 		.4byte	0xb1
 3654 09a6 B5020000 		.4byte	.LLST15
 3655 09aa 21       		.uleb128 0x21
 3656 09ab 7000     		.ascii	"p\000"
 3657 09ad 01       		.byte	0x1
 3658 09ae 3602     		.2byte	0x236
 3659 09b0 68000000 		.4byte	0x68
 3660 09b4 F5020000 		.4byte	.LLST16
 3661 09b8 21       		.uleb128 0x21
 3662 09b9 6400     		.ascii	"d\000"
 3663 09bb 01       		.byte	0x1
 3664 09bc 4602     		.2byte	0x246
 3665 09be 68000000 		.4byte	0x68
 3666 09c2 13030000 		.4byte	.LLST17
 3667 09c6 15       		.uleb128 0x15
 3668 09c7 0A000000 		.4byte	.LVL105
 3669 09cb 30100000 		.4byte	0x1030
 3670 09cf 16       		.uleb128 0x16
ARM GAS  C:\Users\austc\AppData\Local\Temp\ccAwGtxE.s 			page 82


 3671 09d0 30000000 		.4byte	.LVL110
 3672 09d4 FA0F0000 		.4byte	0xffa
 3673 09d8 F2090000 		.4byte	0x9f2
 3674 09dc 14       		.uleb128 0x14
 3675 09dd 01       		.uleb128 0x1
 3676 09de 50       		.byte	0x50
 3677 09df 02       		.uleb128 0x2
 3678 09e0 75       		.byte	0x75
 3679 09e1 00       		.sleb128 0
 3680 09e2 14       		.uleb128 0x14
 3681 09e3 01       		.uleb128 0x1
 3682 09e4 51       		.byte	0x51
 3683 09e5 05       		.uleb128 0x5
 3684 09e6 03       		.byte	0x3
 3685 09e7 D0010000 		.4byte	.LC82
 3686 09eb 14       		.uleb128 0x14
 3687 09ec 01       		.uleb128 0x1
 3688 09ed 52       		.byte	0x52
 3689 09ee 02       		.uleb128 0x2
 3690 09ef 74       		.byte	0x74
 3691 09f0 00       		.sleb128 0
 3692 09f1 00       		.byte	0
 3693 09f2 16       		.uleb128 0x16
 3694 09f3 36000000 		.4byte	.LVL111
 3695 09f7 19100000 		.4byte	0x1019
 3696 09fb 060A0000 		.4byte	0xa06
 3697 09ff 14       		.uleb128 0x14
 3698 0a00 01       		.uleb128 0x1
 3699 0a01 50       		.byte	0x50
 3700 0a02 02       		.uleb128 0x2
 3701 0a03 75       		.byte	0x75
 3702 0a04 00       		.sleb128 0
 3703 0a05 00       		.byte	0
 3704 0a06 16       		.uleb128 0x16
 3705 0a07 82000000 		.4byte	.LVL115
 3706 0a0b FA0F0000 		.4byte	0xffa
 3707 0a0f 300A0000 		.4byte	0xa30
 3708 0a13 14       		.uleb128 0x14
 3709 0a14 01       		.uleb128 0x1
 3710 0a15 50       		.byte	0x50
 3711 0a16 02       		.uleb128 0x2
 3712 0a17 76       		.byte	0x76
 3713 0a18 00       		.sleb128 0
 3714 0a19 14       		.uleb128 0x14
 3715 0a1a 01       		.uleb128 0x1
 3716 0a1b 51       		.byte	0x51
 3717 0a1c 05       		.uleb128 0x5
 3718 0a1d 03       		.byte	0x3
 3719 0a1e D8010000 		.4byte	.LC86
 3720 0a22 14       		.uleb128 0x14
 3721 0a23 01       		.uleb128 0x1
 3722 0a24 52       		.byte	0x52
 3723 0a25 02       		.uleb128 0x2
 3724 0a26 74       		.byte	0x74
 3725 0a27 00       		.sleb128 0
 3726 0a28 14       		.uleb128 0x14
 3727 0a29 02       		.uleb128 0x2
ARM GAS  C:\Users\austc\AppData\Local\Temp\ccAwGtxE.s 			page 83


 3728 0a2a 7D       		.byte	0x7d
 3729 0a2b 00       		.sleb128 0
 3730 0a2c 02       		.uleb128 0x2
 3731 0a2d 75       		.byte	0x75
 3732 0a2e 00       		.sleb128 0
 3733 0a2f 00       		.byte	0
 3734 0a30 13       		.uleb128 0x13
 3735 0a31 88000000 		.4byte	.LVL116
 3736 0a35 19100000 		.4byte	0x1019
 3737 0a39 14       		.uleb128 0x14
 3738 0a3a 01       		.uleb128 0x1
 3739 0a3b 50       		.byte	0x50
 3740 0a3c 02       		.uleb128 0x2
 3741 0a3d 76       		.byte	0x76
 3742 0a3e 00       		.sleb128 0
 3743 0a3f 00       		.byte	0
 3744 0a40 00       		.byte	0
 3745 0a41 19       		.uleb128 0x19
 3746 0a42 A7040000 		.4byte	.LASF67
 3747 0a46 01       		.byte	0x1
 3748 0a47 1602     		.2byte	0x216
 3749 0a49 00000000 		.4byte	.LFB48
 3750 0a4d 7C000000 		.4byte	.LFE48-.LFB48
 3751 0a51 01       		.uleb128 0x1
 3752 0a52 9C       		.byte	0x9c
 3753 0a53 780B0000 		.4byte	0xb78
 3754 0a57 1D       		.uleb128 0x1d
 3755 0a58 29000000 		.4byte	.LASF62
 3756 0a5c 01       		.byte	0x1
 3757 0a5d 1602     		.2byte	0x216
 3758 0a5f B1000000 		.4byte	0xb1
 3759 0a63 26030000 		.4byte	.LLST18
 3760 0a67 21       		.uleb128 0x21
 3761 0a68 50574D00 		.ascii	"PWM\000"
 3762 0a6c 01       		.byte	0x1
 3763 0a6d 1C02     		.2byte	0x21c
 3764 0a6f 68000000 		.4byte	0x68
 3765 0a73 47030000 		.4byte	.LLST19
 3766 0a77 10       		.uleb128 0x10
 3767 0a78 4E000000 		.4byte	.LBB11
 3768 0a7c 04000000 		.4byte	.LBE11-.LBB11
 3769 0a80 9F0A0000 		.4byte	0xa9f
 3770 0a84 11       		.uleb128 0x11
 3771 0a85 D9030000 		.4byte	.LASF44
 3772 0a89 01       		.byte	0x1
 3773 0a8a 5D       		.byte	0x5d
 3774 0a8b 68000000 		.4byte	0x68
 3775 0a8f 950A0000 		.4byte	0xa95
 3776 0a93 12       		.uleb128 0x12
 3777 0a94 00       		.byte	0
 3778 0a95 15       		.uleb128 0x15
 3779 0a96 52000000 		.4byte	.LVL133
 3780 0a9a E40F0000 		.4byte	0xfe4
 3781 0a9e 00       		.byte	0
 3782 0a9f 10       		.uleb128 0x10
 3783 0aa0 5A000000 		.4byte	.LBB12
 3784 0aa4 04000000 		.4byte	.LBE12-.LBB12
ARM GAS  C:\Users\austc\AppData\Local\Temp\ccAwGtxE.s 			page 84


 3785 0aa8 C70A0000 		.4byte	0xac7
 3786 0aac 11       		.uleb128 0x11
 3787 0aad D9030000 		.4byte	.LASF44
 3788 0ab1 01       		.byte	0x1
 3789 0ab2 5D       		.byte	0x5d
 3790 0ab3 68000000 		.4byte	0x68
 3791 0ab7 BD0A0000 		.4byte	0xabd
 3792 0abb 12       		.uleb128 0x12
 3793 0abc 00       		.byte	0
 3794 0abd 15       		.uleb128 0x15
 3795 0abe 5E000000 		.4byte	.LVL134
 3796 0ac2 E40F0000 		.4byte	0xfe4
 3797 0ac6 00       		.byte	0
 3798 0ac7 10       		.uleb128 0x10
 3799 0ac8 60000000 		.4byte	.LBB13
 3800 0acc 06000000 		.4byte	.LBE13-.LBB13
 3801 0ad0 F60A0000 		.4byte	0xaf6
 3802 0ad4 11       		.uleb128 0x11
 3803 0ad5 D9030000 		.4byte	.LASF44
 3804 0ad9 01       		.byte	0x1
 3805 0ada 5D       		.byte	0x5d
 3806 0adb 68000000 		.4byte	0x68
 3807 0adf E50A0000 		.4byte	0xae5
 3808 0ae3 12       		.uleb128 0x12
 3809 0ae4 00       		.byte	0
 3810 0ae5 13       		.uleb128 0x13
 3811 0ae6 66000000 		.4byte	.LVL135
 3812 0aea E40F0000 		.4byte	0xfe4
 3813 0aee 14       		.uleb128 0x14
 3814 0aef 01       		.uleb128 0x1
 3815 0af0 50       		.byte	0x50
 3816 0af1 02       		.uleb128 0x2
 3817 0af2 74       		.byte	0x74
 3818 0af3 00       		.sleb128 0
 3819 0af4 00       		.byte	0
 3820 0af5 00       		.byte	0
 3821 0af6 16       		.uleb128 0x16
 3822 0af7 1A000000 		.4byte	.LVL125
 3823 0afb FA0F0000 		.4byte	0xffa
 3824 0aff 130B0000 		.4byte	0xb13
 3825 0b03 14       		.uleb128 0x14
 3826 0b04 01       		.uleb128 0x1
 3827 0b05 50       		.byte	0x50
 3828 0b06 02       		.uleb128 0x2
 3829 0b07 75       		.byte	0x75
 3830 0b08 00       		.sleb128 0
 3831 0b09 14       		.uleb128 0x14
 3832 0b0a 01       		.uleb128 0x1
 3833 0b0b 51       		.byte	0x51
 3834 0b0c 05       		.uleb128 0x5
 3835 0b0d 03       		.byte	0x3
 3836 0b0e F8010000 		.4byte	.LC93
 3837 0b12 00       		.byte	0
 3838 0b13 16       		.uleb128 0x16
 3839 0b14 20000000 		.4byte	.LVL126
 3840 0b18 19100000 		.4byte	0x1019
 3841 0b1c 270B0000 		.4byte	0xb27
ARM GAS  C:\Users\austc\AppData\Local\Temp\ccAwGtxE.s 			page 85


 3842 0b20 14       		.uleb128 0x14
 3843 0b21 01       		.uleb128 0x1
 3844 0b22 50       		.byte	0x50
 3845 0b23 02       		.uleb128 0x2
 3846 0b24 75       		.byte	0x75
 3847 0b25 00       		.sleb128 0
 3848 0b26 00       		.byte	0
 3849 0b27 16       		.uleb128 0x16
 3850 0b28 26000000 		.4byte	.LVL127
 3851 0b2c FC080000 		.4byte	0x8fc
 3852 0b30 3B0B0000 		.4byte	0xb3b
 3853 0b34 14       		.uleb128 0x14
 3854 0b35 01       		.uleb128 0x1
 3855 0b36 50       		.byte	0x50
 3856 0b37 02       		.uleb128 0x2
 3857 0b38 74       		.byte	0x74
 3858 0b39 00       		.sleb128 0
 3859 0b3a 00       		.byte	0
 3860 0b3b 15       		.uleb128 0x15
 3861 0b3c 2A000000 		.4byte	.LVL128
 3862 0b40 70090000 		.4byte	0x970
 3863 0b44 16       		.uleb128 0x16
 3864 0b45 40000000 		.4byte	.LVL131
 3865 0b49 FA0F0000 		.4byte	0xffa
 3866 0b4d 670B0000 		.4byte	0xb67
 3867 0b51 14       		.uleb128 0x14
 3868 0b52 01       		.uleb128 0x1
 3869 0b53 50       		.byte	0x50
 3870 0b54 02       		.uleb128 0x2
 3871 0b55 75       		.byte	0x75
 3872 0b56 00       		.sleb128 0
 3873 0b57 14       		.uleb128 0x14
 3874 0b58 01       		.uleb128 0x1
 3875 0b59 51       		.byte	0x51
 3876 0b5a 05       		.uleb128 0x5
 3877 0b5b 03       		.byte	0x3
 3878 0b5c 08020000 		.4byte	.LC96
 3879 0b60 14       		.uleb128 0x14
 3880 0b61 01       		.uleb128 0x1
 3881 0b62 52       		.byte	0x52
 3882 0b63 02       		.uleb128 0x2
 3883 0b64 74       		.byte	0x74
 3884 0b65 00       		.sleb128 0
 3885 0b66 00       		.byte	0
 3886 0b67 13       		.uleb128 0x13
 3887 0b68 46000000 		.4byte	.LVL132
 3888 0b6c 19100000 		.4byte	0x1019
 3889 0b70 14       		.uleb128 0x14
 3890 0b71 01       		.uleb128 0x1
 3891 0b72 50       		.byte	0x50
 3892 0b73 02       		.uleb128 0x2
 3893 0b74 75       		.byte	0x75
 3894 0b75 00       		.sleb128 0
 3895 0b76 00       		.byte	0
 3896 0b77 00       		.byte	0
 3897 0b78 22       		.uleb128 0x22
 3898 0b79 34060000 		.4byte	.LASF125
ARM GAS  C:\Users\austc\AppData\Local\Temp\ccAwGtxE.s 			page 86


 3899 0b7d 01       		.byte	0x1
 3900 0b7e 73       		.byte	0x73
 3901 0b7f 68000000 		.4byte	0x68
 3902 0b83 00000000 		.4byte	.LFB37
 3903 0b87 E0010000 		.4byte	.LFE37-.LFB37
 3904 0b8b 01       		.uleb128 0x1
 3905 0b8c 9C       		.byte	0x9c
 3906 0b8d 750D0000 		.4byte	0xd75
 3907 0b91 23       		.uleb128 0x23
 3908 0b92 9B000000 		.4byte	.LASF126
 3909 0b96 01       		.byte	0x1
 3910 0b97 7F       		.byte	0x7f
 3911 0b98 81000000 		.4byte	0x81
 3912 0b9c 24       		.uleb128 0x24
 3913 0b9d 757000   		.ascii	"up\000"
 3914 0ba0 01       		.byte	0x1
 3915 0ba1 8E       		.byte	0x8e
 3916 0ba2 68000000 		.4byte	0x68
 3917 0ba6 00       		.byte	0
 3918 0ba7 25       		.uleb128 0x25
 3919 0ba8 E0050000 		.4byte	.LASF68
 3920 0bac 01       		.byte	0x1
 3921 0bad 8F       		.byte	0x8f
 3922 0bae 68000000 		.4byte	0x68
 3923 0bb2 00       		.byte	0
 3924 0bb3 11       		.uleb128 0x11
 3925 0bb4 D9030000 		.4byte	.LASF44
 3926 0bb8 01       		.byte	0x1
 3927 0bb9 5D       		.byte	0x5d
 3928 0bba 68000000 		.4byte	0x68
 3929 0bbe C40B0000 		.4byte	0xbc4
 3930 0bc2 12       		.uleb128 0x12
 3931 0bc3 00       		.byte	0
 3932 0bc4 16       		.uleb128 0x16
 3933 0bc5 0A000000 		.4byte	.LVL137
 3934 0bc9 05100000 		.4byte	0x1005
 3935 0bcd D70B0000 		.4byte	0xbd7
 3936 0bd1 14       		.uleb128 0x14
 3937 0bd2 01       		.uleb128 0x1
 3938 0bd3 50       		.byte	0x50
 3939 0bd4 01       		.uleb128 0x1
 3940 0bd5 30       		.byte	0x30
 3941 0bd6 00       		.byte	0
 3942 0bd7 16       		.uleb128 0x16
 3943 0bd8 10000000 		.4byte	.LVL138
 3944 0bdc CD100000 		.4byte	0x10cd
 3945 0be0 EA0B0000 		.4byte	0xbea
 3946 0be4 14       		.uleb128 0x14
 3947 0be5 01       		.uleb128 0x1
 3948 0be6 50       		.byte	0x50
 3949 0be7 01       		.uleb128 0x1
 3950 0be8 30       		.byte	0x30
 3951 0be9 00       		.byte	0
 3952 0bea 16       		.uleb128 0x16
 3953 0beb 40000000 		.4byte	.LVL139
 3954 0bef 05100000 		.4byte	0x1005
 3955 0bf3 FE0B0000 		.4byte	0xbfe
ARM GAS  C:\Users\austc\AppData\Local\Temp\ccAwGtxE.s 			page 87


 3956 0bf7 14       		.uleb128 0x14
 3957 0bf8 01       		.uleb128 0x1
 3958 0bf9 50       		.byte	0x50
 3959 0bfa 02       		.uleb128 0x2
 3960 0bfb 74       		.byte	0x74
 3961 0bfc 00       		.sleb128 0
 3962 0bfd 00       		.byte	0
 3963 0bfe 16       		.uleb128 0x16
 3964 0bff 46000000 		.4byte	.LVL140
 3965 0c03 CD100000 		.4byte	0x10cd
 3966 0c07 120C0000 		.4byte	0xc12
 3967 0c0b 14       		.uleb128 0x14
 3968 0c0c 01       		.uleb128 0x1
 3969 0c0d 50       		.byte	0x50
 3970 0c0e 02       		.uleb128 0x2
 3971 0c0f 74       		.byte	0x74
 3972 0c10 00       		.sleb128 0
 3973 0c11 00       		.byte	0
 3974 0c12 15       		.uleb128 0x15
 3975 0c13 4A000000 		.4byte	.LVL141
 3976 0c17 04050000 		.4byte	0x504
 3977 0c1b 15       		.uleb128 0x15
 3978 0c1c 4E000000 		.4byte	.LVL142
 3979 0c20 0E060000 		.4byte	0x60e
 3980 0c24 16       		.uleb128 0x16
 3981 0c25 58000000 		.4byte	.LVL143
 3982 0c29 E40F0000 		.4byte	0xfe4
 3983 0c2d 380C0000 		.4byte	0xc38
 3984 0c31 14       		.uleb128 0x14
 3985 0c32 01       		.uleb128 0x1
 3986 0c33 50       		.byte	0x50
 3987 0c34 02       		.uleb128 0x2
 3988 0c35 74       		.byte	0x74
 3989 0c36 00       		.sleb128 0
 3990 0c37 00       		.byte	0
 3991 0c38 16       		.uleb128 0x16
 3992 0c39 5E000000 		.4byte	.LVL144
 3993 0c3d 05100000 		.4byte	0x1005
 3994 0c41 4B0C0000 		.4byte	0xc4b
 3995 0c45 14       		.uleb128 0x14
 3996 0c46 01       		.uleb128 0x1
 3997 0c47 50       		.byte	0x50
 3998 0c48 01       		.uleb128 0x1
 3999 0c49 31       		.byte	0x31
 4000 0c4a 00       		.byte	0
 4001 0c4b 16       		.uleb128 0x16
 4002 0c4c 64000000 		.4byte	.LVL145
 4003 0c50 CD100000 		.4byte	0x10cd
 4004 0c54 5E0C0000 		.4byte	0xc5e
 4005 0c58 14       		.uleb128 0x14
 4006 0c59 01       		.uleb128 0x1
 4007 0c5a 50       		.byte	0x50
 4008 0c5b 01       		.uleb128 0x1
 4009 0c5c 31       		.byte	0x31
 4010 0c5d 00       		.byte	0
 4011 0c5e 16       		.uleb128 0x16
 4012 0c5f 94000000 		.4byte	.LVL146
ARM GAS  C:\Users\austc\AppData\Local\Temp\ccAwGtxE.s 			page 88


 4013 0c63 FA0F0000 		.4byte	0xffa
 4014 0c67 7B0C0000 		.4byte	0xc7b
 4015 0c6b 14       		.uleb128 0x14
 4016 0c6c 01       		.uleb128 0x1
 4017 0c6d 50       		.byte	0x50
 4018 0c6e 02       		.uleb128 0x2
 4019 0c6f 74       		.byte	0x74
 4020 0c70 00       		.sleb128 0
 4021 0c71 14       		.uleb128 0x14
 4022 0c72 01       		.uleb128 0x1
 4023 0c73 51       		.byte	0x51
 4024 0c74 05       		.uleb128 0x5
 4025 0c75 03       		.byte	0x3
 4026 0c76 14020000 		.4byte	.LC107
 4027 0c7a 00       		.byte	0
 4028 0c7b 16       		.uleb128 0x16
 4029 0c7c 9A000000 		.4byte	.LVL147
 4030 0c80 19100000 		.4byte	0x1019
 4031 0c84 8F0C0000 		.4byte	0xc8f
 4032 0c88 14       		.uleb128 0x14
 4033 0c89 01       		.uleb128 0x1
 4034 0c8a 50       		.byte	0x50
 4035 0c8b 02       		.uleb128 0x2
 4036 0c8c 74       		.byte	0x74
 4037 0c8d 00       		.sleb128 0
 4038 0c8e 00       		.byte	0
 4039 0c8f 15       		.uleb128 0x15
 4040 0c90 AE000000 		.4byte	.LVL148
 4041 0c94 E40F0000 		.4byte	0xfe4
 4042 0c98 15       		.uleb128 0x15
 4043 0c99 BA000000 		.4byte	.LVL149
 4044 0c9d E40F0000 		.4byte	0xfe4
 4045 0ca1 16       		.uleb128 0x16
 4046 0ca2 D8000000 		.4byte	.LVL150
 4047 0ca6 FA0F0000 		.4byte	0xffa
 4048 0caa BE0C0000 		.4byte	0xcbe
 4049 0cae 14       		.uleb128 0x14
 4050 0caf 01       		.uleb128 0x1
 4051 0cb0 50       		.byte	0x50
 4052 0cb1 02       		.uleb128 0x2
 4053 0cb2 74       		.byte	0x74
 4054 0cb3 00       		.sleb128 0
 4055 0cb4 14       		.uleb128 0x14
 4056 0cb5 01       		.uleb128 0x1
 4057 0cb6 51       		.byte	0x51
 4058 0cb7 05       		.uleb128 0x5
 4059 0cb8 03       		.byte	0x3
 4060 0cb9 30020000 		.4byte	.LC110
 4061 0cbd 00       		.byte	0
 4062 0cbe 16       		.uleb128 0x16
 4063 0cbf DE000000 		.4byte	.LVL151
 4064 0cc3 19100000 		.4byte	0x1019
 4065 0cc7 D20C0000 		.4byte	0xcd2
 4066 0ccb 14       		.uleb128 0x14
 4067 0ccc 01       		.uleb128 0x1
 4068 0ccd 50       		.byte	0x50
 4069 0cce 02       		.uleb128 0x2
ARM GAS  C:\Users\austc\AppData\Local\Temp\ccAwGtxE.s 			page 89


 4070 0ccf 74       		.byte	0x74
 4071 0cd0 00       		.sleb128 0
 4072 0cd1 00       		.byte	0
 4073 0cd2 16       		.uleb128 0x16
 4074 0cd3 02010000 		.4byte	.LVL152
 4075 0cd7 FA0F0000 		.4byte	0xffa
 4076 0cdb EF0C0000 		.4byte	0xcef
 4077 0cdf 14       		.uleb128 0x14
 4078 0ce0 01       		.uleb128 0x1
 4079 0ce1 50       		.byte	0x50
 4080 0ce2 02       		.uleb128 0x2
 4081 0ce3 74       		.byte	0x74
 4082 0ce4 00       		.sleb128 0
 4083 0ce5 14       		.uleb128 0x14
 4084 0ce6 01       		.uleb128 0x1
 4085 0ce7 51       		.byte	0x51
 4086 0ce8 05       		.uleb128 0x5
 4087 0ce9 03       		.byte	0x3
 4088 0cea 54020000 		.4byte	.LC113
 4089 0cee 00       		.byte	0
 4090 0cef 16       		.uleb128 0x16
 4091 0cf0 08010000 		.4byte	.LVL153
 4092 0cf4 19100000 		.4byte	0x1019
 4093 0cf8 030D0000 		.4byte	0xd03
 4094 0cfc 14       		.uleb128 0x14
 4095 0cfd 01       		.uleb128 0x1
 4096 0cfe 50       		.byte	0x50
 4097 0cff 02       		.uleb128 0x2
 4098 0d00 74       		.byte	0x74
 4099 0d01 00       		.sleb128 0
 4100 0d02 00       		.byte	0
 4101 0d03 15       		.uleb128 0x15
 4102 0d04 26010000 		.4byte	.LVL154
 4103 0d08 410A0000 		.4byte	0xa41
 4104 0d0c 16       		.uleb128 0x16
 4105 0d0d 4C010000 		.4byte	.LVL155
 4106 0d11 FA0F0000 		.4byte	0xffa
 4107 0d15 290D0000 		.4byte	0xd29
 4108 0d19 14       		.uleb128 0x14
 4109 0d1a 01       		.uleb128 0x1
 4110 0d1b 50       		.byte	0x50
 4111 0d1c 02       		.uleb128 0x2
 4112 0d1d 74       		.byte	0x74
 4113 0d1e 00       		.sleb128 0
 4114 0d1f 14       		.uleb128 0x14
 4115 0d20 01       		.uleb128 0x1
 4116 0d21 51       		.byte	0x51
 4117 0d22 05       		.uleb128 0x5
 4118 0d23 03       		.byte	0x3
 4119 0d24 70020000 		.4byte	.LC115
 4120 0d28 00       		.byte	0
 4121 0d29 16       		.uleb128 0x16
 4122 0d2a 52010000 		.4byte	.LVL156
 4123 0d2e 19100000 		.4byte	0x1019
 4124 0d32 3D0D0000 		.4byte	0xd3d
 4125 0d36 14       		.uleb128 0x14
 4126 0d37 01       		.uleb128 0x1
ARM GAS  C:\Users\austc\AppData\Local\Temp\ccAwGtxE.s 			page 90


 4127 0d38 50       		.byte	0x50
 4128 0d39 02       		.uleb128 0x2
 4129 0d3a 74       		.byte	0x74
 4130 0d3b 00       		.sleb128 0
 4131 0d3c 00       		.byte	0
 4132 0d3d 16       		.uleb128 0x16
 4133 0d3e 7E010000 		.4byte	.LVL157
 4134 0d42 10100000 		.4byte	0x1010
 4135 0d46 620D0000 		.4byte	0xd62
 4136 0d4a 14       		.uleb128 0x14
 4137 0d4b 01       		.uleb128 0x1
 4138 0d4c 50       		.byte	0x50
 4139 0d4d 05       		.uleb128 0x5
 4140 0d4e 03       		.byte	0x3
 4141 0d4f 00000000 		.4byte	txData
 4142 0d53 14       		.uleb128 0x14
 4143 0d54 01       		.uleb128 0x1
 4144 0d55 51       		.byte	0x51
 4145 0d56 05       		.uleb128 0x5
 4146 0d57 03       		.byte	0x3
 4147 0d58 94020000 		.4byte	.LC117
 4148 0d5c 14       		.uleb128 0x14
 4149 0d5d 01       		.uleb128 0x1
 4150 0d5e 52       		.byte	0x52
 4151 0d5f 01       		.uleb128 0x1
 4152 0d60 44       		.byte	0x44
 4153 0d61 00       		.byte	0
 4154 0d62 15       		.uleb128 0x15
 4155 0d63 82010000 		.4byte	.LVL158
 4156 0d67 05070000 		.4byte	0x705
 4157 0d6b 15       		.uleb128 0x15
 4158 0d6c 96010000 		.4byte	.LVL159
 4159 0d70 00080000 		.4byte	0x800
 4160 0d74 00       		.byte	0
 4161 0d75 26       		.uleb128 0x26
 4162 0d76 EA020000 		.4byte	.LASF69
 4163 0d7a 01       		.byte	0x1
 4164 0d7b 15       		.byte	0x15
 4165 0d7c 81000000 		.4byte	0x81
 4166 0d80 05       		.uleb128 0x5
 4167 0d81 03       		.byte	0x3
 4168 0d82 00000000 		.4byte	time_LED
 4169 0d86 26       		.uleb128 0x26
 4170 0d87 54050000 		.4byte	.LASF70
 4171 0d8b 01       		.byte	0x1
 4172 0d8c 18       		.byte	0x18
 4173 0d8d 99000000 		.4byte	0x99
 4174 0d91 05       		.uleb128 0x5
 4175 0d92 03       		.byte	0x3
 4176 0d93 00000000 		.4byte	message_id
 4177 0d97 26       		.uleb128 0x26
 4178 0d98 07000000 		.4byte	.LASF71
 4179 0d9c 01       		.byte	0x1
 4180 0d9d 1C       		.byte	0x1c
 4181 0d9e 8D000000 		.4byte	0x8d
 4182 0da2 05       		.uleb128 0x5
 4183 0da3 03       		.byte	0x3
ARM GAS  C:\Users\austc\AppData\Local\Temp\ccAwGtxE.s 			page 91


 4184 0da4 00000000 		.4byte	CAN_RX_MAILBOX_1_SHIFT
 4185 0da8 26       		.uleb128 0x26
 4186 0da9 18040000 		.4byte	.LASF72
 4187 0dad 01       		.byte	0x1
 4188 0dae 1D       		.byte	0x1d
 4189 0daf 99000000 		.4byte	0x99
 4190 0db3 05       		.uleb128 0x5
 4191 0db4 03       		.byte	0x3
 4192 0db5 00000000 		.4byte	CAN_RX_MAILBOX_0_SHIFT
 4193 0db9 26       		.uleb128 0x26
 4194 0dba 4C040000 		.4byte	.LASF73
 4195 0dbe 01       		.byte	0x1
 4196 0dbf 1E       		.byte	0x1e
 4197 0dc0 8D000000 		.4byte	0x8d
 4198 0dc4 05       		.uleb128 0x5
 4199 0dc5 03       		.byte	0x3
 4200 0dc6 00000000 		.4byte	CAN_RX_MAILBOX_1
 4201 0dca 26       		.uleb128 0x26
 4202 0dcb 3B040000 		.4byte	.LASF74
 4203 0dcf 01       		.byte	0x1
 4204 0dd0 1F       		.byte	0x1f
 4205 0dd1 8D000000 		.4byte	0x8d
 4206 0dd5 05       		.uleb128 0x5
 4207 0dd6 03       		.byte	0x3
 4208 0dd7 00000000 		.4byte	CAN_RX_MAILBOX_0
 4209 0ddb 26       		.uleb128 0x26
 4210 0ddc 75030000 		.4byte	.LASF75
 4211 0de0 01       		.byte	0x1
 4212 0de1 20       		.byte	0x20
 4213 0de2 68000000 		.4byte	0x68
 4214 0de6 05       		.uleb128 0x5
 4215 0de7 03       		.byte	0x3
 4216 0de8 00000000 		.4byte	CAN_TIMEOUT
 4217 0dec 26       		.uleb128 0x26
 4218 0ded AB020000 		.4byte	.LASF76
 4219 0df1 01       		.byte	0x1
 4220 0df2 25       		.byte	0x25
 4221 0df3 EA000000 		.4byte	0xea
 4222 0df7 05       		.uleb128 0x5
 4223 0df8 03       		.byte	0x3
 4224 0df9 00000000 		.4byte	uart_debug
 4225 0dfd 26       		.uleb128 0x26
 4226 0dfe E5050000 		.4byte	.LASF77
 4227 0e02 01       		.byte	0x1
 4228 0e03 2A       		.byte	0x2a
 4229 0e04 68000000 		.4byte	0x68
 4230 0e08 05       		.uleb128 0x5
 4231 0e09 03       		.byte	0x3
 4232 0e0a 00000000 		.4byte	GEAR_RATIO
 4233 0e0e 26       		.uleb128 0x26
 4234 0e0f FA020000 		.4byte	.LASF78
 4235 0e13 01       		.byte	0x1
 4236 0e14 2B       		.byte	0x2b
 4237 0e15 68000000 		.4byte	0x68
 4238 0e19 05       		.uleb128 0x5
 4239 0e1a 03       		.byte	0x3
 4240 0e1b 00000000 		.4byte	pwm_compare
ARM GAS  C:\Users\austc\AppData\Local\Temp\ccAwGtxE.s 			page 92


 4241 0e1f 26       		.uleb128 0x26
 4242 0e20 BD010000 		.4byte	.LASF79
 4243 0e24 01       		.byte	0x1
 4244 0e25 2C       		.byte	0x2c
 4245 0e26 81000000 		.4byte	0x81
 4246 0e2a 05       		.uleb128 0x5
 4247 0e2b 03       		.byte	0x3
 4248 0e2c 00000000 		.4byte	invalidate
 4249 0e30 26       		.uleb128 0x26
 4250 0e31 5C030000 		.4byte	.LASF80
 4251 0e35 01       		.byte	0x1
 4252 0e36 2F       		.byte	0x2f
 4253 0e37 A5000000 		.4byte	0xa5
 4254 0e3b 05       		.uleb128 0x5
 4255 0e3c 03       		.byte	0x3
 4256 0e3d 00000000 		.4byte	flipEncoder
 4257 0e41 26       		.uleb128 0x26
 4258 0e42 07010000 		.4byte	.LASF81
 4259 0e46 01       		.byte	0x1
 4260 0e47 30       		.byte	0x30
 4261 0e48 B1000000 		.4byte	0xb1
 4262 0e4c 05       		.uleb128 0x5
 4263 0e4d 03       		.byte	0x3
 4264 0e4e 00000000 		.4byte	final_angle
 4265 0e52 27       		.uleb128 0x27
 4266 0e53 6900     		.ascii	"i\000"
 4267 0e55 01       		.byte	0x1
 4268 0e56 31       		.byte	0x31
 4269 0e57 68000000 		.4byte	0x68
 4270 0e5b 05       		.uleb128 0x5
 4271 0e5c 03       		.byte	0x3
 4272 0e5d 00000000 		.4byte	i
 4273 0e61 26       		.uleb128 0x26
 4274 0e62 C7030000 		.4byte	.LASF82
 4275 0e66 01       		.byte	0x1
 4276 0e67 32       		.byte	0x32
 4277 0e68 68000000 		.4byte	0x68
 4278 0e6c 05       		.uleb128 0x5
 4279 0e6d 03       		.byte	0x3
 4280 0e6e 00000000 		.4byte	lastp
 4281 0e72 27       		.uleb128 0x27
 4282 0e73 6B7000   		.ascii	"kp\000"
 4283 0e76 01       		.byte	0x1
 4284 0e77 33       		.byte	0x33
 4285 0e78 68000000 		.4byte	0x68
 4286 0e7c 05       		.uleb128 0x5
 4287 0e7d 03       		.byte	0x3
 4288 0e7e 00000000 		.4byte	kp
 4289 0e82 27       		.uleb128 0x27
 4290 0e83 6B6900   		.ascii	"ki\000"
 4291 0e86 01       		.byte	0x1
 4292 0e87 34       		.byte	0x34
 4293 0e88 68000000 		.4byte	0x68
 4294 0e8c 05       		.uleb128 0x5
 4295 0e8d 03       		.byte	0x3
 4296 0e8e 00000000 		.4byte	ki
 4297 0e92 27       		.uleb128 0x27
ARM GAS  C:\Users\austc\AppData\Local\Temp\ccAwGtxE.s 			page 93


 4298 0e93 6B6400   		.ascii	"kd\000"
 4299 0e96 01       		.byte	0x1
 4300 0e97 35       		.byte	0x35
 4301 0e98 68000000 		.4byte	0x68
 4302 0e9c 05       		.uleb128 0x5
 4303 0e9d 03       		.byte	0x3
 4304 0e9e 00000000 		.4byte	kd
 4305 0ea2 26       		.uleb128 0x26
 4306 0ea3 76040000 		.4byte	.LASF83
 4307 0ea7 01       		.byte	0x1
 4308 0ea8 36       		.byte	0x36
 4309 0ea9 C4000000 		.4byte	0xc4
 4310 0ead 05       		.uleb128 0x5
 4311 0eae 03       		.byte	0x3
 4312 0eaf 00000000 		.4byte	ratio
 4313 0eb3 26       		.uleb128 0x26
 4314 0eb4 2E020000 		.4byte	.LASF84
 4315 0eb8 01       		.byte	0x1
 4316 0eb9 37       		.byte	0x37
 4317 0eba 81000000 		.4byte	0x81
 4318 0ebe 05       		.uleb128 0x5
 4319 0ebf 03       		.byte	0x3
 4320 0ec0 00000000 		.4byte	complete
 4321 0ec4 26       		.uleb128 0x26
 4322 0ec5 FB050000 		.4byte	.LASF85
 4323 0ec9 01       		.byte	0x1
 4324 0eca 38       		.byte	0x38
 4325 0ecb 81000000 		.4byte	0x81
 4326 0ecf 05       		.uleb128 0x5
 4327 0ed0 03       		.byte	0x3
 4328 0ed1 00000000 		.4byte	maxV
 4329 0ed5 26       		.uleb128 0x26
 4330 0ed6 A1000000 		.4byte	.LASF86
 4331 0eda 01       		.byte	0x1
 4332 0edb 3B       		.byte	0x3b
 4333 0edc 81000000 		.4byte	0x81
 4334 0ee0 05       		.uleb128 0x5
 4335 0ee1 03       		.byte	0x3
 4336 0ee2 00000000 		.4byte	mode
 4337 0ee6 26       		.uleb128 0x26
 4338 0ee7 DA010000 		.4byte	.LASF87
 4339 0eeb 01       		.byte	0x1
 4340 0eec 3E       		.byte	0x3e
 4341 0eed 81000000 		.4byte	0x81
 4342 0ef1 05       		.uleb128 0x5
 4343 0ef2 03       		.byte	0x3
 4344 0ef3 00000000 		.4byte	send_data
 4345 0ef7 26       		.uleb128 0x26
 4346 0ef8 A4030000 		.4byte	.LASF88
 4347 0efc 01       		.byte	0x1
 4348 0efd 3F       		.byte	0x3f
 4349 0efe 81000000 		.4byte	0x81
 4350 0f02 05       		.uleb128 0x5
 4351 0f03 03       		.byte	0x3
 4352 0f04 00000000 		.4byte	model_req
 4353 0f08 26       		.uleb128 0x26
 4354 0f09 72000000 		.4byte	.LASF89
ARM GAS  C:\Users\austc\AppData\Local\Temp\ccAwGtxE.s 			page 94


 4355 0f0d 01       		.byte	0x1
 4356 0f0e 40       		.byte	0x40
 4357 0f0f 81000000 		.4byte	0x81
 4358 0f13 05       		.uleb128 0x5
 4359 0f14 03       		.byte	0x3
 4360 0f15 00000000 		.4byte	disable_limit
 4361 0f19 26       		.uleb128 0x26
 4362 0f1a 1E010000 		.4byte	.LASF90
 4363 0f1e 01       		.byte	0x1
 4364 0f1f 43       		.byte	0x43
 4365 0f20 0E010000 		.4byte	0x10e
 4366 0f24 05       		.uleb128 0x5
 4367 0f25 03       		.byte	0x3
 4368 0f26 00000000 		.4byte	Can_rx_pwm
 4369 0f2a 26       		.uleb128 0x26
 4370 0f2b 5F050000 		.4byte	.LASF91
 4371 0f2f 01       		.byte	0x1
 4372 0f30 43       		.byte	0x43
 4373 0f31 0E010000 		.4byte	0x10e
 4374 0f35 05       		.uleb128 0x5
 4375 0f36 03       		.byte	0x3
 4376 0f37 00000000 		.4byte	Can_rx_angle
 4377 0f3b 26       		.uleb128 0x26
 4378 0f3c 0A020000 		.4byte	.LASF92
 4379 0f40 01       		.byte	0x1
 4380 0f41 44       		.byte	0x44
 4381 0f42 5E010000 		.4byte	0x15e
 4382 0f46 05       		.uleb128 0x5
 4383 0f47 03       		.byte	0x3
 4384 0f48 00000000 		.4byte	stall
 4385 0f4c 26       		.uleb128 0x26
 4386 0f4d 6C050000 		.4byte	.LASF93
 4387 0f51 01       		.byte	0x1
 4388 0f52 45       		.byte	0x45
 4389 0f53 5E010000 		.4byte	0x15e
 4390 0f57 05       		.uleb128 0x5
 4391 0f58 03       		.byte	0x3
 4392 0f59 00000000 		.4byte	command_failed
 4393 0f5d 26       		.uleb128 0x26
 4394 0f5e 2F040000 		.4byte	.LASF94
 4395 0f62 01       		.byte	0x1
 4396 0f63 46       		.byte	0x46
 4397 0f64 5E010000 		.4byte	0x15e
 4398 0f68 05       		.uleb128 0x5
 4399 0f69 03       		.byte	0x3
 4400 0f6a 00000000 		.4byte	invalid_arg
 4401 0f6e 26       		.uleb128 0x26
 4402 0f6f 72060000 		.4byte	.LASF95
 4403 0f73 01       		.byte	0x1
 4404 0f74 49       		.byte	0x49
 4405 0f75 68000000 		.4byte	0x68
 4406 0f79 05       		.uleb128 0x5
 4407 0f7a 03       		.byte	0x3
 4408 0f7b 00000000 		.4byte	mailbox
 4409 0f7f 26       		.uleb128 0x26
 4410 0f80 4A050000 		.4byte	.LASF96
 4411 0f84 01       		.byte	0x1
ARM GAS  C:\Users\austc\AppData\Local\Temp\ccAwGtxE.s 			page 95


 4412 0f85 4A       		.byte	0x4a
 4413 0f86 81000000 		.4byte	0x81
 4414 0f8a 05       		.uleb128 0x5
 4415 0f8b 03       		.byte	0x3
 4416 0f8c 00000000 		.4byte	emergency
 4417 0f90 0B       		.uleb128 0xb
 4418 0f91 CB000000 		.4byte	0xcb
 4419 0f95 A00F0000 		.4byte	0xfa0
 4420 0f99 0C       		.uleb128 0xc
 4421 0f9a 07010000 		.4byte	0x107
 4422 0f9e 63       		.byte	0x63
 4423 0f9f 00       		.byte	0
 4424 0fa0 26       		.uleb128 0x26
 4425 0fa1 F2010000 		.4byte	.LASF97
 4426 0fa5 01       		.byte	0x1
 4427 0fa6 4B       		.byte	0x4b
 4428 0fa7 900F0000 		.4byte	0xf90
 4429 0fab 05       		.uleb128 0x5
 4430 0fac 03       		.byte	0x3
 4431 0fad 00000000 		.4byte	txData
 4432 0fb1 26       		.uleb128 0x26
 4433 0fb2 BD020000 		.4byte	.LASF98
 4434 0fb6 01       		.byte	0x1
 4435 0fb7 4D       		.byte	0x4d
 4436 0fb8 B4010000 		.4byte	0x1b4
 4437 0fbc 05       		.uleb128 0x5
 4438 0fbd 03       		.byte	0x3
 4439 0fbe 00000000 		.4byte	data
 4440 0fc2 26       		.uleb128 0x26
 4441 0fc3 31000000 		.4byte	.LASF99
 4442 0fc7 01       		.byte	0x1
 4443 0fc8 4E       		.byte	0x4e
 4444 0fc9 8B020000 		.4byte	0x28b
 4445 0fcd 05       		.uleb128 0x5
 4446 0fce 03       		.byte	0x3
 4447 0fcf 00000000 		.4byte	message
 4448 0fd3 26       		.uleb128 0x26
 4449 0fd4 10020000 		.4byte	.LASF100
 4450 0fd8 01       		.byte	0x1
 4451 0fd9 50       		.byte	0x50
 4452 0fda EA000000 		.4byte	0xea
 4453 0fde 05       		.uleb128 0x5
 4454 0fdf 03       		.byte	0x3
 4455 0fe0 00000000 		.4byte	drive
 4456 0fe4 28       		.uleb128 0x28
 4457 0fe5 D9030000 		.4byte	.LASF44
 4458 0fe9 D9030000 		.4byte	.LASF44
 4459 0fed 01       		.byte	0x1
 4460 0fee 5D       		.byte	0x5d
 4461 0fef 28       		.uleb128 0x28
 4462 0ff0 37020000 		.4byte	.LASF101
 4463 0ff4 37020000 		.4byte	.LASF101
 4464 0ff8 07       		.byte	0x7
 4465 0ff9 5E       		.byte	0x5e
 4466 0ffa 28       		.uleb128 0x28
 4467 0ffb E1030000 		.4byte	.LASF102
 4468 0fff E1030000 		.4byte	.LASF102
ARM GAS  C:\Users\austc\AppData\Local\Temp\ccAwGtxE.s 			page 96


 4469 1003 08       		.byte	0x8
 4470 1004 E7       		.byte	0xe7
 4471 1005 28       		.uleb128 0x28
 4472 1006 67040000 		.4byte	.LASF103
 4473 100a 67040000 		.4byte	.LASF103
 4474 100e 09       		.byte	0x9
 4475 100f 33       		.byte	0x33
 4476 1010 29       		.uleb128 0x29
 4477 1011 2D060000 		.4byte	.LASF127
 4478 1015 2D060000 		.4byte	.LASF127
 4479 1019 2A       		.uleb128 0x2a
 4480 101a 37050000 		.4byte	.LASF104
 4481 101e 37050000 		.4byte	.LASF104
 4482 1022 0A       		.byte	0xa
 4483 1023 2A03     		.2byte	0x32a
 4484 1025 28       		.uleb128 0x28
 4485 1026 B9000000 		.4byte	.LASF105
 4486 102a B9000000 		.4byte	.LASF105
 4487 102e 0B       		.byte	0xb
 4488 102f 4F       		.byte	0x4f
 4489 1030 28       		.uleb128 0x28
 4490 1031 16020000 		.4byte	.LASF106
 4491 1035 16020000 		.4byte	.LASF106
 4492 1039 0B       		.byte	0xb
 4493 103a 4E       		.byte	0x4e
 4494 103b 2A       		.uleb128 0x2a
 4495 103c CC000000 		.4byte	.LASF107
 4496 1040 CC000000 		.4byte	.LASF107
 4497 1044 0C       		.byte	0xc
 4498 1045 3301     		.2byte	0x133
 4499 1047 28       		.uleb128 0x28
 4500 1048 4E060000 		.4byte	.LASF108
 4501 104c 4E060000 		.4byte	.LASF108
 4502 1050 06       		.byte	0x6
 4503 1051 C5       		.byte	0xc5
 4504 1052 28       		.uleb128 0x28
 4505 1053 38030000 		.4byte	.LASF109
 4506 1057 38030000 		.4byte	.LASF109
 4507 105b 0D       		.byte	0xd
 4508 105c 31       		.byte	0x31
 4509 105d 28       		.uleb128 0x28
 4510 105e 00060000 		.4byte	.LASF110
 4511 1062 00060000 		.4byte	.LASF110
 4512 1066 07       		.byte	0x7
 4513 1067 5A       		.byte	0x5a
 4514 1068 28       		.uleb128 0x28
 4515 1069 C7020000 		.4byte	.LASF111
 4516 106d C7020000 		.4byte	.LASF111
 4517 1071 0B       		.byte	0xb
 4518 1072 48       		.byte	0x48
 4519 1073 2A       		.uleb128 0x2a
 4520 1074 AC050000 		.4byte	.LASF112
 4521 1078 AC050000 		.4byte	.LASF112
 4522 107c 0C       		.byte	0xc
 4523 107d 3201     		.2byte	0x132
 4524 107f 28       		.uleb128 0x28
 4525 1080 93040000 		.4byte	.LASF113
ARM GAS  C:\Users\austc\AppData\Local\Temp\ccAwGtxE.s 			page 97


 4526 1084 93040000 		.4byte	.LASF113
 4527 1088 06       		.byte	0x6
 4528 1089 C8       		.byte	0xc8
 4529 108a 28       		.uleb128 0x28
 4530 108b D5020000 		.4byte	.LASF114
 4531 108f D5020000 		.4byte	.LASF114
 4532 1093 0E       		.byte	0xe
 4533 1094 BD       		.byte	0xbd
 4534 1095 28       		.uleb128 0x28
 4535 1096 5E060000 		.4byte	.LASF115
 4536 109a 5E060000 		.4byte	.LASF115
 4537 109e 0F       		.byte	0xf
 4538 109f 18       		.byte	0x18
 4539 10a0 28       		.uleb128 0x28
 4540 10a1 39000000 		.4byte	.LASF116
 4541 10a5 39000000 		.4byte	.LASF116
 4542 10a9 10       		.byte	0x10
 4543 10aa 18       		.byte	0x18
 4544 10ab 28       		.uleb128 0x28
 4545 10ac 7B050000 		.4byte	.LASF117
 4546 10b0 7B050000 		.4byte	.LASF117
 4547 10b4 11       		.byte	0x11
 4548 10b5 72       		.byte	0x72
 4549 10b6 28       		.uleb128 0x28
 4550 10b7 85040000 		.4byte	.LASF118
 4551 10bb 85040000 		.4byte	.LASF118
 4552 10bf 12       		.byte	0x12
 4553 10c0 30       		.byte	0x30
 4554 10c1 2A       		.uleb128 0x2a
 4555 10c2 06030000 		.4byte	.LASF119
 4556 10c6 06030000 		.4byte	.LASF119
 4557 10ca 06       		.byte	0x6
 4558 10cb 1801     		.2byte	0x118
 4559 10cd 28       		.uleb128 0x28
 4560 10ce BC050000 		.4byte	.LASF120
 4561 10d2 BC050000 		.4byte	.LASF120
 4562 10d6 13       		.byte	0x13
 4563 10d7 33       		.byte	0x33
 4564 10d8 00       		.byte	0
 4565              		.section	.debug_abbrev,"",%progbits
 4566              	.Ldebug_abbrev0:
 4567 0000 01       		.uleb128 0x1
 4568 0001 11       		.uleb128 0x11
 4569 0002 01       		.byte	0x1
 4570 0003 25       		.uleb128 0x25
 4571 0004 0E       		.uleb128 0xe
 4572 0005 13       		.uleb128 0x13
 4573 0006 0B       		.uleb128 0xb
 4574 0007 03       		.uleb128 0x3
 4575 0008 0E       		.uleb128 0xe
 4576 0009 1B       		.uleb128 0x1b
 4577 000a 0E       		.uleb128 0xe
 4578 000b 55       		.uleb128 0x55
 4579 000c 17       		.uleb128 0x17
 4580 000d 11       		.uleb128 0x11
 4581 000e 01       		.uleb128 0x1
 4582 000f 10       		.uleb128 0x10
ARM GAS  C:\Users\austc\AppData\Local\Temp\ccAwGtxE.s 			page 98


 4583 0010 17       		.uleb128 0x17
 4584 0011 00       		.byte	0
 4585 0012 00       		.byte	0
 4586 0013 02       		.uleb128 0x2
 4587 0014 24       		.uleb128 0x24
 4588 0015 00       		.byte	0
 4589 0016 0B       		.uleb128 0xb
 4590 0017 0B       		.uleb128 0xb
 4591 0018 3E       		.uleb128 0x3e
 4592 0019 0B       		.uleb128 0xb
 4593 001a 03       		.uleb128 0x3
 4594 001b 0E       		.uleb128 0xe
 4595 001c 00       		.byte	0
 4596 001d 00       		.byte	0
 4597 001e 03       		.uleb128 0x3
 4598 001f 16       		.uleb128 0x16
 4599 0020 00       		.byte	0
 4600 0021 03       		.uleb128 0x3
 4601 0022 0E       		.uleb128 0xe
 4602 0023 3A       		.uleb128 0x3a
 4603 0024 0B       		.uleb128 0xb
 4604 0025 3B       		.uleb128 0x3b
 4605 0026 0B       		.uleb128 0xb
 4606 0027 49       		.uleb128 0x49
 4607 0028 13       		.uleb128 0x13
 4608 0029 00       		.byte	0
 4609 002a 00       		.byte	0
 4610 002b 04       		.uleb128 0x4
 4611 002c 24       		.uleb128 0x24
 4612 002d 00       		.byte	0
 4613 002e 0B       		.uleb128 0xb
 4614 002f 0B       		.uleb128 0xb
 4615 0030 3E       		.uleb128 0x3e
 4616 0031 0B       		.uleb128 0xb
 4617 0032 03       		.uleb128 0x3
 4618 0033 08       		.uleb128 0x8
 4619 0034 00       		.byte	0
 4620 0035 00       		.byte	0
 4621 0036 05       		.uleb128 0x5
 4622 0037 16       		.uleb128 0x16
 4623 0038 00       		.byte	0
 4624 0039 03       		.uleb128 0x3
 4625 003a 0E       		.uleb128 0xe
 4626 003b 3A       		.uleb128 0x3a
 4627 003c 0B       		.uleb128 0xb
 4628 003d 3B       		.uleb128 0x3b
 4629 003e 05       		.uleb128 0x5
 4630 003f 49       		.uleb128 0x49
 4631 0040 13       		.uleb128 0x13
 4632 0041 00       		.byte	0
 4633 0042 00       		.byte	0
 4634 0043 06       		.uleb128 0x6
 4635 0044 35       		.uleb128 0x35
 4636 0045 00       		.byte	0
 4637 0046 49       		.uleb128 0x49
 4638 0047 13       		.uleb128 0x13
 4639 0048 00       		.byte	0
ARM GAS  C:\Users\austc\AppData\Local\Temp\ccAwGtxE.s 			page 99


 4640 0049 00       		.byte	0
 4641 004a 07       		.uleb128 0x7
 4642 004b 13       		.uleb128 0x13
 4643 004c 01       		.byte	0x1
 4644 004d 03       		.uleb128 0x3
 4645 004e 0E       		.uleb128 0xe
 4646 004f 0B       		.uleb128 0xb
 4647 0050 0B       		.uleb128 0xb
 4648 0051 3A       		.uleb128 0x3a
 4649 0052 0B       		.uleb128 0xb
 4650 0053 3B       		.uleb128 0x3b
 4651 0054 0B       		.uleb128 0xb
 4652 0055 01       		.uleb128 0x1
 4653 0056 13       		.uleb128 0x13
 4654 0057 00       		.byte	0
 4655 0058 00       		.byte	0
 4656 0059 08       		.uleb128 0x8
 4657 005a 0D       		.uleb128 0xd
 4658 005b 00       		.byte	0
 4659 005c 03       		.uleb128 0x3
 4660 005d 08       		.uleb128 0x8
 4661 005e 3A       		.uleb128 0x3a
 4662 005f 0B       		.uleb128 0xb
 4663 0060 3B       		.uleb128 0x3b
 4664 0061 0B       		.uleb128 0xb
 4665 0062 49       		.uleb128 0x49
 4666 0063 13       		.uleb128 0x13
 4667 0064 38       		.uleb128 0x38
 4668 0065 0B       		.uleb128 0xb
 4669 0066 00       		.byte	0
 4670 0067 00       		.byte	0
 4671 0068 09       		.uleb128 0x9
 4672 0069 0D       		.uleb128 0xd
 4673 006a 00       		.byte	0
 4674 006b 03       		.uleb128 0x3
 4675 006c 0E       		.uleb128 0xe
 4676 006d 3A       		.uleb128 0x3a
 4677 006e 0B       		.uleb128 0xb
 4678 006f 3B       		.uleb128 0x3b
 4679 0070 0B       		.uleb128 0xb
 4680 0071 49       		.uleb128 0x49
 4681 0072 13       		.uleb128 0x13
 4682 0073 38       		.uleb128 0x38
 4683 0074 0B       		.uleb128 0xb
 4684 0075 00       		.byte	0
 4685 0076 00       		.byte	0
 4686 0077 0A       		.uleb128 0xa
 4687 0078 13       		.uleb128 0x13
 4688 0079 01       		.byte	0x1
 4689 007a 0B       		.uleb128 0xb
 4690 007b 0B       		.uleb128 0xb
 4691 007c 3A       		.uleb128 0x3a
 4692 007d 0B       		.uleb128 0xb
 4693 007e 3B       		.uleb128 0x3b
 4694 007f 0B       		.uleb128 0xb
 4695 0080 01       		.uleb128 0x1
 4696 0081 13       		.uleb128 0x13
ARM GAS  C:\Users\austc\AppData\Local\Temp\ccAwGtxE.s 			page 100


 4697 0082 00       		.byte	0
 4698 0083 00       		.byte	0
 4699 0084 0B       		.uleb128 0xb
 4700 0085 01       		.uleb128 0x1
 4701 0086 01       		.byte	0x1
 4702 0087 49       		.uleb128 0x49
 4703 0088 13       		.uleb128 0x13
 4704 0089 01       		.uleb128 0x1
 4705 008a 13       		.uleb128 0x13
 4706 008b 00       		.byte	0
 4707 008c 00       		.byte	0
 4708 008d 0C       		.uleb128 0xc
 4709 008e 21       		.uleb128 0x21
 4710 008f 00       		.byte	0
 4711 0090 49       		.uleb128 0x49
 4712 0091 13       		.uleb128 0x13
 4713 0092 2F       		.uleb128 0x2f
 4714 0093 0B       		.uleb128 0xb
 4715 0094 00       		.byte	0
 4716 0095 00       		.byte	0
 4717 0096 0D       		.uleb128 0xd
 4718 0097 0F       		.uleb128 0xf
 4719 0098 00       		.byte	0
 4720 0099 0B       		.uleb128 0xb
 4721 009a 0B       		.uleb128 0xb
 4722 009b 49       		.uleb128 0x49
 4723 009c 13       		.uleb128 0x13
 4724 009d 00       		.byte	0
 4725 009e 00       		.byte	0
 4726 009f 0E       		.uleb128 0xe
 4727 00a0 2E       		.uleb128 0x2e
 4728 00a1 01       		.byte	0x1
 4729 00a2 3F       		.uleb128 0x3f
 4730 00a3 19       		.uleb128 0x19
 4731 00a4 03       		.uleb128 0x3
 4732 00a5 0E       		.uleb128 0xe
 4733 00a6 3A       		.uleb128 0x3a
 4734 00a7 0B       		.uleb128 0xb
 4735 00a8 3B       		.uleb128 0x3b
 4736 00a9 0B       		.uleb128 0xb
 4737 00aa 27       		.uleb128 0x27
 4738 00ab 19       		.uleb128 0x19
 4739 00ac 11       		.uleb128 0x11
 4740 00ad 01       		.uleb128 0x1
 4741 00ae 12       		.uleb128 0x12
 4742 00af 06       		.uleb128 0x6
 4743 00b0 40       		.uleb128 0x40
 4744 00b1 18       		.uleb128 0x18
 4745 00b2 9742     		.uleb128 0x2117
 4746 00b4 19       		.uleb128 0x19
 4747 00b5 01       		.uleb128 0x1
 4748 00b6 13       		.uleb128 0x13
 4749 00b7 00       		.byte	0
 4750 00b8 00       		.byte	0
 4751 00b9 0F       		.uleb128 0xf
 4752 00ba 34       		.uleb128 0x34
 4753 00bb 00       		.byte	0
ARM GAS  C:\Users\austc\AppData\Local\Temp\ccAwGtxE.s 			page 101


 4754 00bc 03       		.uleb128 0x3
 4755 00bd 0E       		.uleb128 0xe
 4756 00be 3A       		.uleb128 0x3a
 4757 00bf 0B       		.uleb128 0xb
 4758 00c0 3B       		.uleb128 0x3b
 4759 00c1 0B       		.uleb128 0xb
 4760 00c2 49       		.uleb128 0x49
 4761 00c3 13       		.uleb128 0x13
 4762 00c4 02       		.uleb128 0x2
 4763 00c5 17       		.uleb128 0x17
 4764 00c6 00       		.byte	0
 4765 00c7 00       		.byte	0
 4766 00c8 10       		.uleb128 0x10
 4767 00c9 0B       		.uleb128 0xb
 4768 00ca 01       		.byte	0x1
 4769 00cb 11       		.uleb128 0x11
 4770 00cc 01       		.uleb128 0x1
 4771 00cd 12       		.uleb128 0x12
 4772 00ce 06       		.uleb128 0x6
 4773 00cf 01       		.uleb128 0x1
 4774 00d0 13       		.uleb128 0x13
 4775 00d1 00       		.byte	0
 4776 00d2 00       		.byte	0
 4777 00d3 11       		.uleb128 0x11
 4778 00d4 2E       		.uleb128 0x2e
 4779 00d5 01       		.byte	0x1
 4780 00d6 3F       		.uleb128 0x3f
 4781 00d7 19       		.uleb128 0x19
 4782 00d8 03       		.uleb128 0x3
 4783 00d9 0E       		.uleb128 0xe
 4784 00da 3A       		.uleb128 0x3a
 4785 00db 0B       		.uleb128 0xb
 4786 00dc 3B       		.uleb128 0x3b
 4787 00dd 0B       		.uleb128 0xb
 4788 00de 49       		.uleb128 0x49
 4789 00df 13       		.uleb128 0x13
 4790 00e0 3C       		.uleb128 0x3c
 4791 00e1 19       		.uleb128 0x19
 4792 00e2 01       		.uleb128 0x1
 4793 00e3 13       		.uleb128 0x13
 4794 00e4 00       		.byte	0
 4795 00e5 00       		.byte	0
 4796 00e6 12       		.uleb128 0x12
 4797 00e7 18       		.uleb128 0x18
 4798 00e8 00       		.byte	0
 4799 00e9 00       		.byte	0
 4800 00ea 00       		.byte	0
 4801 00eb 13       		.uleb128 0x13
 4802 00ec 898201   		.uleb128 0x4109
 4803 00ef 01       		.byte	0x1
 4804 00f0 11       		.uleb128 0x11
 4805 00f1 01       		.uleb128 0x1
 4806 00f2 31       		.uleb128 0x31
 4807 00f3 13       		.uleb128 0x13
 4808 00f4 00       		.byte	0
 4809 00f5 00       		.byte	0
 4810 00f6 14       		.uleb128 0x14
ARM GAS  C:\Users\austc\AppData\Local\Temp\ccAwGtxE.s 			page 102


 4811 00f7 8A8201   		.uleb128 0x410a
 4812 00fa 00       		.byte	0
 4813 00fb 02       		.uleb128 0x2
 4814 00fc 18       		.uleb128 0x18
 4815 00fd 9142     		.uleb128 0x2111
 4816 00ff 18       		.uleb128 0x18
 4817 0100 00       		.byte	0
 4818 0101 00       		.byte	0
 4819 0102 15       		.uleb128 0x15
 4820 0103 898201   		.uleb128 0x4109
 4821 0106 00       		.byte	0
 4822 0107 11       		.uleb128 0x11
 4823 0108 01       		.uleb128 0x1
 4824 0109 31       		.uleb128 0x31
 4825 010a 13       		.uleb128 0x13
 4826 010b 00       		.byte	0
 4827 010c 00       		.byte	0
 4828 010d 16       		.uleb128 0x16
 4829 010e 898201   		.uleb128 0x4109
 4830 0111 01       		.byte	0x1
 4831 0112 11       		.uleb128 0x11
 4832 0113 01       		.uleb128 0x1
 4833 0114 31       		.uleb128 0x31
 4834 0115 13       		.uleb128 0x13
 4835 0116 01       		.uleb128 0x1
 4836 0117 13       		.uleb128 0x13
 4837 0118 00       		.byte	0
 4838 0119 00       		.byte	0
 4839 011a 17       		.uleb128 0x17
 4840 011b 2E       		.uleb128 0x2e
 4841 011c 01       		.byte	0x1
 4842 011d 3F       		.uleb128 0x3f
 4843 011e 19       		.uleb128 0x19
 4844 011f 03       		.uleb128 0x3
 4845 0120 0E       		.uleb128 0xe
 4846 0121 3A       		.uleb128 0x3a
 4847 0122 0B       		.uleb128 0xb
 4848 0123 3B       		.uleb128 0x3b
 4849 0124 05       		.uleb128 0x5
 4850 0125 27       		.uleb128 0x27
 4851 0126 19       		.uleb128 0x19
 4852 0127 20       		.uleb128 0x20
 4853 0128 0B       		.uleb128 0xb
 4854 0129 01       		.uleb128 0x1
 4855 012a 13       		.uleb128 0x13
 4856 012b 00       		.byte	0
 4857 012c 00       		.byte	0
 4858 012d 18       		.uleb128 0x18
 4859 012e 05       		.uleb128 0x5
 4860 012f 00       		.byte	0
 4861 0130 03       		.uleb128 0x3
 4862 0131 0E       		.uleb128 0xe
 4863 0132 3A       		.uleb128 0x3a
 4864 0133 0B       		.uleb128 0xb
 4865 0134 3B       		.uleb128 0x3b
 4866 0135 05       		.uleb128 0x5
 4867 0136 49       		.uleb128 0x49
ARM GAS  C:\Users\austc\AppData\Local\Temp\ccAwGtxE.s 			page 103


 4868 0137 13       		.uleb128 0x13
 4869 0138 00       		.byte	0
 4870 0139 00       		.byte	0
 4871 013a 19       		.uleb128 0x19
 4872 013b 2E       		.uleb128 0x2e
 4873 013c 01       		.byte	0x1
 4874 013d 3F       		.uleb128 0x3f
 4875 013e 19       		.uleb128 0x19
 4876 013f 03       		.uleb128 0x3
 4877 0140 0E       		.uleb128 0xe
 4878 0141 3A       		.uleb128 0x3a
 4879 0142 0B       		.uleb128 0xb
 4880 0143 3B       		.uleb128 0x3b
 4881 0144 05       		.uleb128 0x5
 4882 0145 27       		.uleb128 0x27
 4883 0146 19       		.uleb128 0x19
 4884 0147 11       		.uleb128 0x11
 4885 0148 01       		.uleb128 0x1
 4886 0149 12       		.uleb128 0x12
 4887 014a 06       		.uleb128 0x6
 4888 014b 40       		.uleb128 0x40
 4889 014c 18       		.uleb128 0x18
 4890 014d 9742     		.uleb128 0x2117
 4891 014f 19       		.uleb128 0x19
 4892 0150 01       		.uleb128 0x1
 4893 0151 13       		.uleb128 0x13
 4894 0152 00       		.byte	0
 4895 0153 00       		.byte	0
 4896 0154 1A       		.uleb128 0x1a
 4897 0155 1D       		.uleb128 0x1d
 4898 0156 01       		.byte	0x1
 4899 0157 31       		.uleb128 0x31
 4900 0158 13       		.uleb128 0x13
 4901 0159 11       		.uleb128 0x11
 4902 015a 01       		.uleb128 0x1
 4903 015b 12       		.uleb128 0x12
 4904 015c 06       		.uleb128 0x6
 4905 015d 58       		.uleb128 0x58
 4906 015e 0B       		.uleb128 0xb
 4907 015f 59       		.uleb128 0x59
 4908 0160 05       		.uleb128 0x5
 4909 0161 01       		.uleb128 0x1
 4910 0162 13       		.uleb128 0x13
 4911 0163 00       		.byte	0
 4912 0164 00       		.byte	0
 4913 0165 1B       		.uleb128 0x1b
 4914 0166 05       		.uleb128 0x5
 4915 0167 00       		.byte	0
 4916 0168 31       		.uleb128 0x31
 4917 0169 13       		.uleb128 0x13
 4918 016a 02       		.uleb128 0x2
 4919 016b 17       		.uleb128 0x17
 4920 016c 00       		.byte	0
 4921 016d 00       		.byte	0
 4922 016e 1C       		.uleb128 0x1c
 4923 016f 34       		.uleb128 0x34
 4924 0170 00       		.byte	0
ARM GAS  C:\Users\austc\AppData\Local\Temp\ccAwGtxE.s 			page 104


 4925 0171 03       		.uleb128 0x3
 4926 0172 0E       		.uleb128 0xe
 4927 0173 3A       		.uleb128 0x3a
 4928 0174 0B       		.uleb128 0xb
 4929 0175 3B       		.uleb128 0x3b
 4930 0176 05       		.uleb128 0x5
 4931 0177 49       		.uleb128 0x49
 4932 0178 13       		.uleb128 0x13
 4933 0179 02       		.uleb128 0x2
 4934 017a 17       		.uleb128 0x17
 4935 017b 00       		.byte	0
 4936 017c 00       		.byte	0
 4937 017d 1D       		.uleb128 0x1d
 4938 017e 05       		.uleb128 0x5
 4939 017f 00       		.byte	0
 4940 0180 03       		.uleb128 0x3
 4941 0181 0E       		.uleb128 0xe
 4942 0182 3A       		.uleb128 0x3a
 4943 0183 0B       		.uleb128 0xb
 4944 0184 3B       		.uleb128 0x3b
 4945 0185 05       		.uleb128 0x5
 4946 0186 49       		.uleb128 0x49
 4947 0187 13       		.uleb128 0x13
 4948 0188 02       		.uleb128 0x2
 4949 0189 17       		.uleb128 0x17
 4950 018a 00       		.byte	0
 4951 018b 00       		.byte	0
 4952 018c 1E       		.uleb128 0x1e
 4953 018d 2E       		.uleb128 0x2e
 4954 018e 01       		.byte	0x1
 4955 018f 3F       		.uleb128 0x3f
 4956 0190 19       		.uleb128 0x19
 4957 0191 03       		.uleb128 0x3
 4958 0192 0E       		.uleb128 0xe
 4959 0193 3A       		.uleb128 0x3a
 4960 0194 0B       		.uleb128 0xb
 4961 0195 3B       		.uleb128 0x3b
 4962 0196 05       		.uleb128 0x5
 4963 0197 27       		.uleb128 0x27
 4964 0198 19       		.uleb128 0x19
 4965 0199 11       		.uleb128 0x11
 4966 019a 01       		.uleb128 0x1
 4967 019b 12       		.uleb128 0x12
 4968 019c 06       		.uleb128 0x6
 4969 019d 40       		.uleb128 0x40
 4970 019e 18       		.uleb128 0x18
 4971 019f 9642     		.uleb128 0x2116
 4972 01a1 19       		.uleb128 0x19
 4973 01a2 01       		.uleb128 0x1
 4974 01a3 13       		.uleb128 0x13
 4975 01a4 00       		.byte	0
 4976 01a5 00       		.byte	0
 4977 01a6 1F       		.uleb128 0x1f
 4978 01a7 2E       		.uleb128 0x2e
 4979 01a8 01       		.byte	0x1
 4980 01a9 31       		.uleb128 0x31
 4981 01aa 13       		.uleb128 0x13
ARM GAS  C:\Users\austc\AppData\Local\Temp\ccAwGtxE.s 			page 105


 4982 01ab 11       		.uleb128 0x11
 4983 01ac 01       		.uleb128 0x1
 4984 01ad 12       		.uleb128 0x12
 4985 01ae 06       		.uleb128 0x6
 4986 01af 40       		.uleb128 0x40
 4987 01b0 18       		.uleb128 0x18
 4988 01b1 9742     		.uleb128 0x2117
 4989 01b3 19       		.uleb128 0x19
 4990 01b4 01       		.uleb128 0x1
 4991 01b5 13       		.uleb128 0x13
 4992 01b6 00       		.byte	0
 4993 01b7 00       		.byte	0
 4994 01b8 20       		.uleb128 0x20
 4995 01b9 2E       		.uleb128 0x2e
 4996 01ba 01       		.byte	0x1
 4997 01bb 3F       		.uleb128 0x3f
 4998 01bc 19       		.uleb128 0x19
 4999 01bd 03       		.uleb128 0x3
 5000 01be 0E       		.uleb128 0xe
 5001 01bf 3A       		.uleb128 0x3a
 5002 01c0 0B       		.uleb128 0xb
 5003 01c1 3B       		.uleb128 0x3b
 5004 01c2 05       		.uleb128 0x5
 5005 01c3 27       		.uleb128 0x27
 5006 01c4 19       		.uleb128 0x19
 5007 01c5 49       		.uleb128 0x49
 5008 01c6 13       		.uleb128 0x13
 5009 01c7 11       		.uleb128 0x11
 5010 01c8 01       		.uleb128 0x1
 5011 01c9 12       		.uleb128 0x12
 5012 01ca 06       		.uleb128 0x6
 5013 01cb 40       		.uleb128 0x40
 5014 01cc 18       		.uleb128 0x18
 5015 01cd 9642     		.uleb128 0x2116
 5016 01cf 19       		.uleb128 0x19
 5017 01d0 01       		.uleb128 0x1
 5018 01d1 13       		.uleb128 0x13
 5019 01d2 00       		.byte	0
 5020 01d3 00       		.byte	0
 5021 01d4 21       		.uleb128 0x21
 5022 01d5 34       		.uleb128 0x34
 5023 01d6 00       		.byte	0
 5024 01d7 03       		.uleb128 0x3
 5025 01d8 08       		.uleb128 0x8
 5026 01d9 3A       		.uleb128 0x3a
 5027 01da 0B       		.uleb128 0xb
 5028 01db 3B       		.uleb128 0x3b
 5029 01dc 05       		.uleb128 0x5
 5030 01dd 49       		.uleb128 0x49
 5031 01de 13       		.uleb128 0x13
 5032 01df 02       		.uleb128 0x2
 5033 01e0 17       		.uleb128 0x17
 5034 01e1 00       		.byte	0
 5035 01e2 00       		.byte	0
 5036 01e3 22       		.uleb128 0x22
 5037 01e4 2E       		.uleb128 0x2e
 5038 01e5 01       		.byte	0x1
ARM GAS  C:\Users\austc\AppData\Local\Temp\ccAwGtxE.s 			page 106


 5039 01e6 3F       		.uleb128 0x3f
 5040 01e7 19       		.uleb128 0x19
 5041 01e8 03       		.uleb128 0x3
 5042 01e9 0E       		.uleb128 0xe
 5043 01ea 3A       		.uleb128 0x3a
 5044 01eb 0B       		.uleb128 0xb
 5045 01ec 3B       		.uleb128 0x3b
 5046 01ed 0B       		.uleb128 0xb
 5047 01ee 27       		.uleb128 0x27
 5048 01ef 19       		.uleb128 0x19
 5049 01f0 49       		.uleb128 0x49
 5050 01f1 13       		.uleb128 0x13
 5051 01f2 8701     		.uleb128 0x87
 5052 01f4 19       		.uleb128 0x19
 5053 01f5 11       		.uleb128 0x11
 5054 01f6 01       		.uleb128 0x1
 5055 01f7 12       		.uleb128 0x12
 5056 01f8 06       		.uleb128 0x6
 5057 01f9 40       		.uleb128 0x40
 5058 01fa 18       		.uleb128 0x18
 5059 01fb 9742     		.uleb128 0x2117
 5060 01fd 19       		.uleb128 0x19
 5061 01fe 01       		.uleb128 0x1
 5062 01ff 13       		.uleb128 0x13
 5063 0200 00       		.byte	0
 5064 0201 00       		.byte	0
 5065 0202 23       		.uleb128 0x23
 5066 0203 34       		.uleb128 0x34
 5067 0204 00       		.byte	0
 5068 0205 03       		.uleb128 0x3
 5069 0206 0E       		.uleb128 0xe
 5070 0207 3A       		.uleb128 0x3a
 5071 0208 0B       		.uleb128 0xb
 5072 0209 3B       		.uleb128 0x3b
 5073 020a 0B       		.uleb128 0xb
 5074 020b 49       		.uleb128 0x49
 5075 020c 13       		.uleb128 0x13
 5076 020d 00       		.byte	0
 5077 020e 00       		.byte	0
 5078 020f 24       		.uleb128 0x24
 5079 0210 34       		.uleb128 0x34
 5080 0211 00       		.byte	0
 5081 0212 03       		.uleb128 0x3
 5082 0213 08       		.uleb128 0x8
 5083 0214 3A       		.uleb128 0x3a
 5084 0215 0B       		.uleb128 0xb
 5085 0216 3B       		.uleb128 0x3b
 5086 0217 0B       		.uleb128 0xb
 5087 0218 49       		.uleb128 0x49
 5088 0219 13       		.uleb128 0x13
 5089 021a 1C       		.uleb128 0x1c
 5090 021b 0B       		.uleb128 0xb
 5091 021c 00       		.byte	0
 5092 021d 00       		.byte	0
 5093 021e 25       		.uleb128 0x25
 5094 021f 34       		.uleb128 0x34
 5095 0220 00       		.byte	0
ARM GAS  C:\Users\austc\AppData\Local\Temp\ccAwGtxE.s 			page 107


 5096 0221 03       		.uleb128 0x3
 5097 0222 0E       		.uleb128 0xe
 5098 0223 3A       		.uleb128 0x3a
 5099 0224 0B       		.uleb128 0xb
 5100 0225 3B       		.uleb128 0x3b
 5101 0226 0B       		.uleb128 0xb
 5102 0227 49       		.uleb128 0x49
 5103 0228 13       		.uleb128 0x13
 5104 0229 1C       		.uleb128 0x1c
 5105 022a 0B       		.uleb128 0xb
 5106 022b 00       		.byte	0
 5107 022c 00       		.byte	0
 5108 022d 26       		.uleb128 0x26
 5109 022e 34       		.uleb128 0x34
 5110 022f 00       		.byte	0
 5111 0230 03       		.uleb128 0x3
 5112 0231 0E       		.uleb128 0xe
 5113 0232 3A       		.uleb128 0x3a
 5114 0233 0B       		.uleb128 0xb
 5115 0234 3B       		.uleb128 0x3b
 5116 0235 0B       		.uleb128 0xb
 5117 0236 49       		.uleb128 0x49
 5118 0237 13       		.uleb128 0x13
 5119 0238 3F       		.uleb128 0x3f
 5120 0239 19       		.uleb128 0x19
 5121 023a 02       		.uleb128 0x2
 5122 023b 18       		.uleb128 0x18
 5123 023c 00       		.byte	0
 5124 023d 00       		.byte	0
 5125 023e 27       		.uleb128 0x27
 5126 023f 34       		.uleb128 0x34
 5127 0240 00       		.byte	0
 5128 0241 03       		.uleb128 0x3
 5129 0242 08       		.uleb128 0x8
 5130 0243 3A       		.uleb128 0x3a
 5131 0244 0B       		.uleb128 0xb
 5132 0245 3B       		.uleb128 0x3b
 5133 0246 0B       		.uleb128 0xb
 5134 0247 49       		.uleb128 0x49
 5135 0248 13       		.uleb128 0x13
 5136 0249 3F       		.uleb128 0x3f
 5137 024a 19       		.uleb128 0x19
 5138 024b 02       		.uleb128 0x2
 5139 024c 18       		.uleb128 0x18
 5140 024d 00       		.byte	0
 5141 024e 00       		.byte	0
 5142 024f 28       		.uleb128 0x28
 5143 0250 2E       		.uleb128 0x2e
 5144 0251 00       		.byte	0
 5145 0252 3F       		.uleb128 0x3f
 5146 0253 19       		.uleb128 0x19
 5147 0254 3C       		.uleb128 0x3c
 5148 0255 19       		.uleb128 0x19
 5149 0256 6E       		.uleb128 0x6e
 5150 0257 0E       		.uleb128 0xe
 5151 0258 03       		.uleb128 0x3
 5152 0259 0E       		.uleb128 0xe
ARM GAS  C:\Users\austc\AppData\Local\Temp\ccAwGtxE.s 			page 108


 5153 025a 3A       		.uleb128 0x3a
 5154 025b 0B       		.uleb128 0xb
 5155 025c 3B       		.uleb128 0x3b
 5156 025d 0B       		.uleb128 0xb
 5157 025e 00       		.byte	0
 5158 025f 00       		.byte	0
 5159 0260 29       		.uleb128 0x29
 5160 0261 2E       		.uleb128 0x2e
 5161 0262 00       		.byte	0
 5162 0263 3F       		.uleb128 0x3f
 5163 0264 19       		.uleb128 0x19
 5164 0265 3C       		.uleb128 0x3c
 5165 0266 19       		.uleb128 0x19
 5166 0267 6E       		.uleb128 0x6e
 5167 0268 0E       		.uleb128 0xe
 5168 0269 03       		.uleb128 0x3
 5169 026a 0E       		.uleb128 0xe
 5170 026b 00       		.byte	0
 5171 026c 00       		.byte	0
 5172 026d 2A       		.uleb128 0x2a
 5173 026e 2E       		.uleb128 0x2e
 5174 026f 00       		.byte	0
 5175 0270 3F       		.uleb128 0x3f
 5176 0271 19       		.uleb128 0x19
 5177 0272 3C       		.uleb128 0x3c
 5178 0273 19       		.uleb128 0x19
 5179 0274 6E       		.uleb128 0x6e
 5180 0275 0E       		.uleb128 0xe
 5181 0276 03       		.uleb128 0x3
 5182 0277 0E       		.uleb128 0xe
 5183 0278 3A       		.uleb128 0x3a
 5184 0279 0B       		.uleb128 0xb
 5185 027a 3B       		.uleb128 0x3b
 5186 027b 05       		.uleb128 0x5
 5187 027c 00       		.byte	0
 5188 027d 00       		.byte	0
 5189 027e 00       		.byte	0
 5190              		.section	.debug_loc,"",%progbits
 5191              	.Ldebug_loc0:
 5192              	.LLST0:
 5193 0000 06000000 		.4byte	.LVL0
 5194 0004 14000000 		.4byte	.LVL1
 5195 0008 0100     		.2byte	0x1
 5196 000a 50       		.byte	0x50
 5197 000b 14000000 		.4byte	.LVL1
 5198 000f 17000000 		.4byte	.LVL2-1
 5199 0013 0100     		.2byte	0x1
 5200 0015 52       		.byte	0x52
 5201 0016 00000000 		.4byte	0
 5202 001a 00000000 		.4byte	0
 5203              	.LLST1:
 5204 001e 44000000 		.4byte	.LVL12
 5205 0022 46000000 		.4byte	.LVL13
 5206 0026 0100     		.2byte	0x1
 5207 0028 53       		.byte	0x53
 5208 0029 46000000 		.4byte	.LVL13
 5209 002d 77000000 		.4byte	.LVL14-1
ARM GAS  C:\Users\austc\AppData\Local\Temp\ccAwGtxE.s 			page 109


 5210 0031 0500     		.2byte	0x5
 5211 0033 03       		.byte	0x3
 5212 0034 00000000 		.4byte	CAN_RX_MAILBOX_0
 5213 0038 8A000000 		.4byte	.LVL15
 5214 003c 92000000 		.4byte	.LVL16
 5215 0040 0500     		.2byte	0x5
 5216 0042 03       		.byte	0x3
 5217 0043 00000000 		.4byte	CAN_RX_MAILBOX_0
 5218 0047 9A000000 		.4byte	.LVL17
 5219 004b 12010000 		.4byte	.LVL18
 5220 004f 0500     		.2byte	0x5
 5221 0051 03       		.byte	0x3
 5222 0052 00000000 		.4byte	CAN_RX_MAILBOX_0
 5223 0056 00000000 		.4byte	0
 5224 005a 00000000 		.4byte	0
 5225              	.LLST2:
 5226 005e 50010000 		.4byte	.LVL21
 5227 0062 52010000 		.4byte	.LVL22
 5228 0066 0100     		.2byte	0x1
 5229 0068 53       		.byte	0x53
 5230 0069 52010000 		.4byte	.LVL22
 5231 006d 83010000 		.4byte	.LVL23-1
 5232 0071 0500     		.2byte	0x5
 5233 0073 03       		.byte	0x3
 5234 0074 00000000 		.4byte	CAN_RX_MAILBOX_1
 5235 0078 96010000 		.4byte	.LVL24
 5236 007c 9E010000 		.4byte	.LVL25
 5237 0080 0500     		.2byte	0x5
 5238 0082 03       		.byte	0x3
 5239 0083 00000000 		.4byte	CAN_RX_MAILBOX_1
 5240 0087 A6010000 		.4byte	.LVL26
 5241 008b 1E020000 		.4byte	.LVL27
 5242 008f 0500     		.2byte	0x5
 5243 0091 03       		.byte	0x3
 5244 0092 00000000 		.4byte	CAN_RX_MAILBOX_1
 5245 0096 00000000 		.4byte	0
 5246 009a 00000000 		.4byte	0
 5247              	.LLST3:
 5248 009e 08000000 		.4byte	.LVL30
 5249 00a2 0B000000 		.4byte	.LVL31-1
 5250 00a6 0100     		.2byte	0x1
 5251 00a8 50       		.byte	0x50
 5252 00a9 0B000000 		.4byte	.LVL31-1
 5253 00ad 50000000 		.4byte	.LVL42
 5254 00b1 0100     		.2byte	0x1
 5255 00b3 54       		.byte	0x54
 5256 00b4 00000000 		.4byte	0
 5257 00b8 00000000 		.4byte	0
 5258              	.LLST4:
 5259 00bc 00000000 		.4byte	.LVL43
 5260 00c0 02000000 		.4byte	.LVL44
 5261 00c4 0100     		.2byte	0x1
 5262 00c6 50       		.byte	0x50
 5263 00c7 02000000 		.4byte	.LVL44
 5264 00cb 1C000000 		.4byte	.LFE41
 5265 00cf 0400     		.2byte	0x4
 5266 00d1 F3       		.byte	0xf3
ARM GAS  C:\Users\austc\AppData\Local\Temp\ccAwGtxE.s 			page 110


 5267 00d2 01       		.uleb128 0x1
 5268 00d3 50       		.byte	0x50
 5269 00d4 9F       		.byte	0x9f
 5270 00d5 00000000 		.4byte	0
 5271 00d9 00000000 		.4byte	0
 5272              	.LLST5:
 5273 00dd 0A000000 		.4byte	.LVL46
 5274 00e1 64010000 		.4byte	.LVL68
 5275 00e5 0100     		.2byte	0x1
 5276 00e7 55       		.byte	0x55
 5277 00e8 00000000 		.4byte	0
 5278 00ec 00000000 		.4byte	0
 5279              	.LLST6:
 5280 00f0 0A000000 		.4byte	.LVL46
 5281 00f4 34000000 		.4byte	.LVL48
 5282 00f8 0200     		.2byte	0x2
 5283 00fa 30       		.byte	0x30
 5284 00fb 9F       		.byte	0x9f
 5285 00fc 34000000 		.4byte	.LVL48
 5286 0100 5A000000 		.4byte	.LVL49
 5287 0104 0200     		.2byte	0x2
 5288 0106 31       		.byte	0x31
 5289 0107 9F       		.byte	0x9f
 5290 0108 5A000000 		.4byte	.LVL49
 5291 010c 60000000 		.4byte	.LVL50
 5292 0110 0200     		.2byte	0x2
 5293 0112 30       		.byte	0x30
 5294 0113 9F       		.byte	0x9f
 5295 0114 60000000 		.4byte	.LVL50
 5296 0118 6E000000 		.4byte	.LVL51
 5297 011c 0200     		.2byte	0x2
 5298 011e 32       		.byte	0x32
 5299 011f 9F       		.byte	0x9f
 5300 0120 6E000000 		.4byte	.LVL51
 5301 0124 78000000 		.4byte	.LVL52
 5302 0128 0200     		.2byte	0x2
 5303 012a 30       		.byte	0x30
 5304 012b 9F       		.byte	0x9f
 5305 012c 78000000 		.4byte	.LVL52
 5306 0130 86000000 		.4byte	.LVL53
 5307 0134 0200     		.2byte	0x2
 5308 0136 33       		.byte	0x33
 5309 0137 9F       		.byte	0x9f
 5310 0138 86000000 		.4byte	.LVL53
 5311 013c 90000000 		.4byte	.LVL54
 5312 0140 0200     		.2byte	0x2
 5313 0142 30       		.byte	0x30
 5314 0143 9F       		.byte	0x9f
 5315 0144 90000000 		.4byte	.LVL54
 5316 0148 B4000000 		.4byte	.LVL55
 5317 014c 0200     		.2byte	0x2
 5318 014e 34       		.byte	0x34
 5319 014f 9F       		.byte	0x9f
 5320 0150 B4000000 		.4byte	.LVL55
 5321 0154 C4000000 		.4byte	.LVL56
 5322 0158 0200     		.2byte	0x2
 5323 015a 30       		.byte	0x30
ARM GAS  C:\Users\austc\AppData\Local\Temp\ccAwGtxE.s 			page 111


 5324 015b 9F       		.byte	0x9f
 5325 015c C4000000 		.4byte	.LVL56
 5326 0160 E4000000 		.4byte	.LVL57
 5327 0164 0200     		.2byte	0x2
 5328 0166 35       		.byte	0x35
 5329 0167 9F       		.byte	0x9f
 5330 0168 E4000000 		.4byte	.LVL57
 5331 016c EA000000 		.4byte	.LVL58
 5332 0170 0200     		.2byte	0x2
 5333 0172 30       		.byte	0x30
 5334 0173 9F       		.byte	0x9f
 5335 0174 EA000000 		.4byte	.LVL58
 5336 0178 F8000000 		.4byte	.LVL59
 5337 017c 0200     		.2byte	0x2
 5338 017e 36       		.byte	0x36
 5339 017f 9F       		.byte	0x9f
 5340 0180 F8000000 		.4byte	.LVL59
 5341 0184 FA000000 		.4byte	.LVL60
 5342 0188 0200     		.2byte	0x2
 5343 018a 30       		.byte	0x30
 5344 018b 9F       		.byte	0x9f
 5345 018c FA000000 		.4byte	.LVL60
 5346 0190 64010000 		.4byte	.LVL69
 5347 0194 0100     		.2byte	0x1
 5348 0196 56       		.byte	0x56
 5349 0197 00000000 		.4byte	0
 5350 019b 00000000 		.4byte	0
 5351              	.LLST7:
 5352 019f 08000000 		.4byte	.LVL70
 5353 01a3 0B000000 		.4byte	.LVL71-1
 5354 01a7 0100     		.2byte	0x1
 5355 01a9 50       		.byte	0x50
 5356 01aa 00000000 		.4byte	0
 5357 01ae 00000000 		.4byte	0
 5358              	.LLST8:
 5359 01b2 24000000 		.4byte	.LVL75
 5360 01b6 30000000 		.4byte	.LVL76
 5361 01ba 0100     		.2byte	0x1
 5362 01bc 50       		.byte	0x50
 5363 01bd 00000000 		.4byte	0
 5364 01c1 00000000 		.4byte	0
 5365              	.LLST9:
 5366 01c5 00000000 		.4byte	.LVL87
 5367 01c9 16000000 		.4byte	.LVL88
 5368 01cd 0100     		.2byte	0x1
 5369 01cf 50       		.byte	0x50
 5370 01d0 16000000 		.4byte	.LVL88
 5371 01d4 19000000 		.4byte	.LVL89-1
 5372 01d8 0200     		.2byte	0x2
 5373 01da 73       		.byte	0x73
 5374 01db 01       		.sleb128 1
 5375 01dc 19000000 		.4byte	.LVL89-1
 5376 01e0 54000000 		.4byte	.LFE45
 5377 01e4 0400     		.2byte	0x4
 5378 01e6 F3       		.byte	0xf3
 5379 01e7 01       		.uleb128 0x1
 5380 01e8 50       		.byte	0x50
ARM GAS  C:\Users\austc\AppData\Local\Temp\ccAwGtxE.s 			page 112


 5381 01e9 9F       		.byte	0x9f
 5382 01ea 00000000 		.4byte	0
 5383 01ee 00000000 		.4byte	0
 5384              	.LLST10:
 5385 01f2 00000000 		.4byte	.LVL87
 5386 01f6 19000000 		.4byte	.LVL89-1
 5387 01fa 0100     		.2byte	0x1
 5388 01fc 51       		.byte	0x51
 5389 01fd 19000000 		.4byte	.LVL89-1
 5390 0201 54000000 		.4byte	.LFE45
 5391 0205 0400     		.2byte	0x4
 5392 0207 F3       		.byte	0xf3
 5393 0208 01       		.uleb128 0x1
 5394 0209 51       		.byte	0x51
 5395 020a 9F       		.byte	0x9f
 5396 020b 00000000 		.4byte	0
 5397 020f 00000000 		.4byte	0
 5398              	.LLST11:
 5399 0213 00000000 		.4byte	.LVL92
 5400 0217 04000000 		.4byte	.LVL93
 5401 021b 0100     		.2byte	0x1
 5402 021d 50       		.byte	0x50
 5403 021e 04000000 		.4byte	.LVL93
 5404 0222 EC000000 		.4byte	.LFE47
 5405 0226 0400     		.2byte	0x4
 5406 0228 F3       		.byte	0xf3
 5407 0229 01       		.uleb128 0x1
 5408 022a 50       		.byte	0x50
 5409 022b 9F       		.byte	0x9f
 5410 022c 00000000 		.4byte	0
 5411 0230 00000000 		.4byte	0
 5412              	.LLST12:
 5413 0234 00000000 		.4byte	.LVL95
 5414 0238 07000000 		.4byte	.LVL96-1
 5415 023c 0100     		.2byte	0x1
 5416 023e 50       		.byte	0x50
 5417 023f 07000000 		.4byte	.LVL96-1
 5418 0243 48000000 		.4byte	.LFE49
 5419 0247 0400     		.2byte	0x4
 5420 0249 F3       		.byte	0xf3
 5421 024a 01       		.uleb128 0x1
 5422 024b 50       		.byte	0x50
 5423 024c 9F       		.byte	0x9f
 5424 024d 00000000 		.4byte	0
 5425 0251 00000000 		.4byte	0
 5426              	.LLST13:
 5427 0255 18000000 		.4byte	.LVL99
 5428 0259 2A000000 		.4byte	.LVL100
 5429 025d 0100     		.2byte	0x1
 5430 025f 50       		.byte	0x50
 5431 0260 2A000000 		.4byte	.LVL100
 5432 0264 2D000000 		.4byte	.LVL101-1
 5433 0268 0100     		.2byte	0x1
 5434 026a 53       		.byte	0x53
 5435 026b 2D000000 		.4byte	.LVL101-1
 5436 026f 36000000 		.4byte	.LVL103
 5437 0273 0100     		.2byte	0x1
ARM GAS  C:\Users\austc\AppData\Local\Temp\ccAwGtxE.s 			page 113


 5438 0275 54       		.byte	0x54
 5439 0276 36000000 		.4byte	.LVL103
 5440 027a 48000000 		.4byte	.LFE49
 5441 027e 0100     		.2byte	0x1
 5442 0280 50       		.byte	0x50
 5443 0281 00000000 		.4byte	0
 5444 0285 00000000 		.4byte	0
 5445              	.LLST14:
 5446 0289 00000000 		.4byte	.LVL104
 5447 028d 09000000 		.4byte	.LVL105-1
 5448 0291 0100     		.2byte	0x1
 5449 0293 50       		.byte	0x50
 5450 0294 09000000 		.4byte	.LVL105-1
 5451 0298 16000000 		.4byte	.LVL107
 5452 029c 0100     		.2byte	0x1
 5453 029e 54       		.byte	0x54
 5454 029f 16000000 		.4byte	.LVL107
 5455 02a3 E4000000 		.4byte	.LFE50
 5456 02a7 0400     		.2byte	0x4
 5457 02a9 F3       		.byte	0xf3
 5458 02aa 01       		.uleb128 0x1
 5459 02ab 50       		.byte	0x50
 5460 02ac 9F       		.byte	0x9f
 5461 02ad 00000000 		.4byte	0
 5462 02b1 00000000 		.4byte	0
 5463              	.LLST15:
 5464 02b5 14000000 		.4byte	.LVL106
 5465 02b9 28000000 		.4byte	.LVL108
 5466 02bd 0100     		.2byte	0x1
 5467 02bf 52       		.byte	0x52
 5468 02c0 28000000 		.4byte	.LVL108
 5469 02c4 2C000000 		.4byte	.LVL109
 5470 02c8 0100     		.2byte	0x1
 5471 02ca 50       		.byte	0x50
 5472 02cb 3A000000 		.4byte	.LVL112
 5473 02cf 7A000000 		.4byte	.LVL114
 5474 02d3 0100     		.2byte	0x1
 5475 02d5 52       		.byte	0x52
 5476 02d6 7A000000 		.4byte	.LVL114
 5477 02da 81000000 		.4byte	.LVL115-1
 5478 02de 0200     		.2byte	0x2
 5479 02e0 91       		.byte	0x91
 5480 02e1 6C       		.sleb128 -20
 5481 02e2 B8000000 		.4byte	.LVL121
 5482 02e6 BA000000 		.4byte	.LVL122
 5483 02ea 0100     		.2byte	0x1
 5484 02ec 52       		.byte	0x52
 5485 02ed 00000000 		.4byte	0
 5486 02f1 00000000 		.4byte	0
 5487              	.LLST16:
 5488 02f5 16000000 		.4byte	.LVL107
 5489 02f9 96000000 		.4byte	.LVL118
 5490 02fd 0100     		.2byte	0x1
 5491 02ff 54       		.byte	0x54
 5492 0300 B8000000 		.4byte	.LVL121
 5493 0304 BA000000 		.4byte	.LVL122
 5494 0308 0100     		.2byte	0x1
ARM GAS  C:\Users\austc\AppData\Local\Temp\ccAwGtxE.s 			page 114


 5495 030a 54       		.byte	0x54
 5496 030b 00000000 		.4byte	0
 5497 030f 00000000 		.4byte	0
 5498              	.LLST17:
 5499 0313 64000000 		.4byte	.LVL113
 5500 0317 B8000000 		.4byte	.LVL121
 5501 031b 0100     		.2byte	0x1
 5502 031d 55       		.byte	0x55
 5503 031e 00000000 		.4byte	0
 5504 0322 00000000 		.4byte	0
 5505              	.LLST18:
 5506 0326 00000000 		.4byte	.LVL123
 5507 032a 16000000 		.4byte	.LVL124
 5508 032e 0100     		.2byte	0x1
 5509 0330 50       		.byte	0x50
 5510 0331 16000000 		.4byte	.LVL124
 5511 0335 7C000000 		.4byte	.LFE48
 5512 0339 0400     		.2byte	0x4
 5513 033b F3       		.byte	0xf3
 5514 033c 01       		.uleb128 0x1
 5515 033d 50       		.byte	0x50
 5516 033e 9F       		.byte	0x9f
 5517 033f 00000000 		.4byte	0
 5518 0343 00000000 		.4byte	0
 5519              	.LLST19:
 5520 0347 2C000000 		.4byte	.LVL129
 5521 034b 3C000000 		.4byte	.LVL130
 5522 034f 0100     		.2byte	0x1
 5523 0351 50       		.byte	0x50
 5524 0352 3C000000 		.4byte	.LVL130
 5525 0356 3F000000 		.4byte	.LVL131-1
 5526 035a 0100     		.2byte	0x1
 5527 035c 52       		.byte	0x52
 5528 035d 3F000000 		.4byte	.LVL131-1
 5529 0361 66000000 		.4byte	.LVL136
 5530 0365 0100     		.2byte	0x1
 5531 0367 54       		.byte	0x54
 5532 0368 00000000 		.4byte	0
 5533 036c 00000000 		.4byte	0
 5534              		.section	.debug_aranges,"",%progbits
 5535 0000 94000000 		.4byte	0x94
 5536 0004 0200     		.2byte	0x2
 5537 0006 00000000 		.4byte	.Ldebug_info0
 5538 000a 04       		.byte	0x4
 5539 000b 00       		.byte	0
 5540 000c 0000     		.2byte	0
 5541 000e 0000     		.2byte	0
 5542 0010 00000000 		.4byte	.LFB35
 5543 0014 64000000 		.4byte	.LFE35-.LFB35
 5544 0018 00000000 		.4byte	.LFB36
 5545 001c 3C000000 		.4byte	.LFE36-.LFB36
 5546 0020 00000000 		.4byte	.LFB46
 5547 0024 60020000 		.4byte	.LFE46-.LFB46
 5548 0028 00000000 		.4byte	.LFB38
 5549 002c 14000000 		.4byte	.LFE38-.LFB38
 5550 0030 00000000 		.4byte	.LFB39
 5551 0034 6C000000 		.4byte	.LFE39-.LFB39
ARM GAS  C:\Users\austc\AppData\Local\Temp\ccAwGtxE.s 			page 115


 5552 0038 00000000 		.4byte	.LFB41
 5553 003c 1C000000 		.4byte	.LFE41-.LFB41
 5554 0040 00000000 		.4byte	.LFB40
 5555 0044 AC010000 		.4byte	.LFE40-.LFB40
 5556 0048 00000000 		.4byte	.LFB42
 5557 004c 8C000000 		.4byte	.LFE42-.LFB42
 5558 0050 00000000 		.4byte	.LFB43
 5559 0054 4C000000 		.4byte	.LFE43-.LFB43
 5560 0058 00000000 		.4byte	.LFB44
 5561 005c 4C000000 		.4byte	.LFE44-.LFB44
 5562 0060 00000000 		.4byte	.LFB45
 5563 0064 54000000 		.4byte	.LFE45-.LFB45
 5564 0068 00000000 		.4byte	.LFB47
 5565 006c EC000000 		.4byte	.LFE47-.LFB47
 5566 0070 00000000 		.4byte	.LFB49
 5567 0074 48000000 		.4byte	.LFE49-.LFB49
 5568 0078 00000000 		.4byte	.LFB50
 5569 007c E4000000 		.4byte	.LFE50-.LFB50
 5570 0080 00000000 		.4byte	.LFB48
 5571 0084 7C000000 		.4byte	.LFE48-.LFB48
 5572 0088 00000000 		.4byte	.LFB37
 5573 008c E0010000 		.4byte	.LFE37-.LFB37
 5574 0090 00000000 		.4byte	0
 5575 0094 00000000 		.4byte	0
 5576              		.section	.debug_ranges,"",%progbits
 5577              	.Ldebug_ranges0:
 5578 0000 00000000 		.4byte	.LFB35
 5579 0004 64000000 		.4byte	.LFE35
 5580 0008 00000000 		.4byte	.LFB36
 5581 000c 3C000000 		.4byte	.LFE36
 5582 0010 00000000 		.4byte	.LFB46
 5583 0014 60020000 		.4byte	.LFE46
 5584 0018 00000000 		.4byte	.LFB38
 5585 001c 14000000 		.4byte	.LFE38
 5586 0020 00000000 		.4byte	.LFB39
 5587 0024 6C000000 		.4byte	.LFE39
 5588 0028 00000000 		.4byte	.LFB41
 5589 002c 1C000000 		.4byte	.LFE41
 5590 0030 00000000 		.4byte	.LFB40
 5591 0034 AC010000 		.4byte	.LFE40
 5592 0038 00000000 		.4byte	.LFB42
 5593 003c 8C000000 		.4byte	.LFE42
 5594 0040 00000000 		.4byte	.LFB43
 5595 0044 4C000000 		.4byte	.LFE43
 5596 0048 00000000 		.4byte	.LFB44
 5597 004c 4C000000 		.4byte	.LFE44
 5598 0050 00000000 		.4byte	.LFB45
 5599 0054 54000000 		.4byte	.LFE45
 5600 0058 00000000 		.4byte	.LFB47
 5601 005c EC000000 		.4byte	.LFE47
 5602 0060 00000000 		.4byte	.LFB49
 5603 0064 48000000 		.4byte	.LFE49
 5604 0068 00000000 		.4byte	.LFB50
 5605 006c E4000000 		.4byte	.LFE50
 5606 0070 00000000 		.4byte	.LFB48
 5607 0074 7C000000 		.4byte	.LFE48
 5608 0078 00000000 		.4byte	.LFB37
ARM GAS  C:\Users\austc\AppData\Local\Temp\ccAwGtxE.s 			page 116


 5609 007c E0010000 		.4byte	.LFE37
 5610 0080 00000000 		.4byte	0
 5611 0084 00000000 		.4byte	0
 5612              		.section	.debug_line,"",%progbits
 5613              	.Ldebug_line0:
 5614 0000 F7040000 		.section	.debug_str,"MS",%progbits,1
 5614      02008202 
 5614      00000201 
 5614      FB0E0D00 
 5614      01010101 
 5615              	.LASF122:
 5616 0000 6D61696E 		.ascii	"main.c\000"
 5616      2E6300
 5617              	.LASF71:
 5618 0007 43414E5F 		.ascii	"CAN_RX_MAILBOX_1_SHIFT\000"
 5618      52585F4D 
 5618      41494C42 
 5618      4F585F31 
 5618      5F534849 
 5619              	.LASF51:
 5620 001e 7365745F 		.ascii	"set_CAN_ID\000"
 5620      43414E5F 
 5620      494400
 5621              	.LASF62:
 5622 0029 64656772 		.ascii	"degrees\000"
 5622      65657300 
 5623              	.LASF99:
 5624 0031 6D657373 		.ascii	"message\000"
 5624      61676500 
 5625              	.LASF116:
 5626 0039 6973725F 		.ascii	"isr_period_StartEx\000"
 5626      70657269 
 5626      6F645F53 
 5626      74617274 
 5626      457800
 5627              	.LASF58:
 5628 004c 43414E5F 		.ascii	"CAN_Send_Telemetry\000"
 5628      53656E64 
 5628      5F54656C 
 5628      656D6574 
 5628      727900
 5629              	.LASF8:
 5630 005f 756E7369 		.ascii	"unsigned int\000"
 5630      676E6564 
 5630      20696E74 
 5630      00
 5631              	.LASF37:
 5632 006c 7278616D 		.ascii	"rxamr\000"
 5632      7200
 5633              	.LASF89:
 5634 0072 64697361 		.ascii	"disable_limit\000"
 5634      626C655F 
 5634      6C696D69 
 5634      7400
 5635              	.LASF15:
 5636 0080 696E7431 		.ascii	"int16\000"
 5636      3600
ARM GAS  C:\Users\austc\AppData\Local\Temp\ccAwGtxE.s 			page 117


 5637              	.LASF20:
 5638 0086 72656738 		.ascii	"reg8\000"
 5638      00
 5639              	.LASF63:
 5640 008b 64656772 		.ascii	"degrees_to_tick\000"
 5640      6565735F 
 5640      746F5F74 
 5640      69636B00 
 5641              	.LASF126:
 5642 009b 6572726F 		.ascii	"error\000"
 5642      7200
 5643              	.LASF86:
 5644 00a1 6D6F6465 		.ascii	"mode\000"
 5644      00
 5645              	.LASF33:
 5646 00a6 43414E5F 		.ascii	"CAN_TX_MSG\000"
 5646      54585F4D 
 5646      534700
 5647              	.LASF53:
 5648 00b1 73657474 		.ascii	"setting\000"
 5648      696E6700 
 5649              	.LASF105:
 5650 00b9 51756164 		.ascii	"QuadDec_SetCounter\000"
 5650      4465635F 
 5650      53657443 
 5650      6F756E74 
 5650      657200
 5651              	.LASF107:
 5652 00cc 50574D5F 		.ascii	"PWM_Motor_Stop\000"
 5652      4D6F746F 
 5652      725F5374 
 5652      6F7000
 5653              	.LASF16:
 5654 00db 666C6F61 		.ascii	"float\000"
 5654      7400
 5655              	.LASF54:
 5656 00e1 73686966 		.ascii	"shift\000"
 5656      7400
 5657              	.LASF7:
 5658 00e7 6C6F6E67 		.ascii	"long long unsigned int\000"
 5658      206C6F6E 
 5658      6720756E 
 5658      7369676E 
 5658      65642069 
 5659              	.LASF25:
 5660 00fe 43616E5F 		.ascii	"Can_data\000"
 5660      64617461 
 5660      00
 5661              	.LASF81:
 5662 0107 66696E61 		.ascii	"final_angle\000"
 5662      6C5F616E 
 5662      676C6500 
 5663              	.LASF9:
 5664 0113 5F5F7569 		.ascii	"__uint16_t\000"
 5664      6E743136 
 5664      5F7400
 5665              	.LASF90:
ARM GAS  C:\Users\austc\AppData\Local\Temp\ccAwGtxE.s 			page 118


 5666 011e 43616E5F 		.ascii	"Can_rx_pwm\000"
 5666      72785F70 
 5666      776D00
 5667              	.LASF26:
 5668 0129 4572726F 		.ascii	"Error\000"
 5668      7200
 5669              	.LASF121:
 5670 012f 474E5520 		.ascii	"GNU C11 5.4.1 20160609 (release) [ARM/embedded-5-br"
 5670      43313120 
 5670      352E342E 
 5670      31203230 
 5670      31363036 
 5671 0162 616E6368 		.ascii	"anch revision 237715] -mcpu=cortex-m0 -mthumb -g -O"
 5671      20726576 
 5671      6973696F 
 5671      6E203233 
 5671      37373135 
 5672 0195 67202D66 		.ascii	"g -ffunction-sections -ffat-lto-objects\000"
 5672      66756E63 
 5672      74696F6E 
 5672      2D736563 
 5672      74696F6E 
 5673              	.LASF79:
 5674 01bd 696E7661 		.ascii	"invalidate\000"
 5674      6C696461 
 5674      746500
 5675              	.LASF65:
 5676 01c8 74617267 		.ascii	"target\000"
 5676      657400
 5677              	.LASF48:
 5678 01cf 696E6974 		.ascii	"initialize\000"
 5678      69616C69 
 5678      7A6500
 5679              	.LASF87:
 5680 01da 73656E64 		.ascii	"send_data\000"
 5680      5F646174 
 5680      6100
 5681              	.LASF41:
 5682 01e4 43414E5F 		.ascii	"CAN_RX_STRUCT\000"
 5682      52585F53 
 5682      54525543 
 5682      5400
 5683              	.LASF97:
 5684 01f2 74784461 		.ascii	"txData\000"
 5684      746100
 5685              	.LASF55:
 5686 01f9 43414E5F 		.ascii	"CAN_Send_Encoder\000"
 5686      53656E64 
 5686      5F456E63 
 5686      6F646572 
 5686      00
 5687              	.LASF92:
 5688 020a 7374616C 		.ascii	"stall\000"
 5688      6C00
 5689              	.LASF100:
 5690 0210 64726976 		.ascii	"drive\000"
 5690      6500
ARM GAS  C:\Users\austc\AppData\Local\Temp\ccAwGtxE.s 			page 119


 5691              	.LASF106:
 5692 0216 51756164 		.ascii	"QuadDec_GetCounter\000"
 5692      4465635F 
 5692      47657443 
 5692      6F756E74 
 5692      657200
 5693              	.LASF27:
 5694 0229 636F6465 		.ascii	"code\000"
 5694      00
 5695              	.LASF84:
 5696 022e 636F6D70 		.ascii	"complete\000"
 5696      6C657465 
 5696      00
 5697              	.LASF101:
 5698 0237 54696D65 		.ascii	"Timer_1_ReadStatusRegister\000"
 5698      725F315F 
 5698      52656164 
 5698      53746174 
 5698      75735265 
 5699              	.LASF56:
 5700 0252 7469636B 		.ascii	"ticks\000"
 5700      7300
 5701              	.LASF50:
 5702 0258 63616E5F 		.ascii	"can_start\000"
 5702      73746172 
 5702      7400
 5703              	.LASF42:
 5704 0262 50657269 		.ascii	"Period_Reset_Handler\000"
 5704      6F645F52 
 5704      65736574 
 5704      5F48616E 
 5704      646C6572 
 5705              	.LASF19:
 5706 0277 63686172 		.ascii	"char\000"
 5706      00
 5707              	.LASF30:
 5708 027c 43414E5F 		.ascii	"CAN_DATA_BYTES_MSG\000"
 5708      44415441 
 5708      5F425954 
 5708      45535F4D 
 5708      534700
 5709              	.LASF38:
 5710 028f 72786163 		.ascii	"rxacr\000"
 5710      7200
 5711              	.LASF60:
 5712 0295 43414E5F 		.ascii	"CAN_Send_Error\000"
 5712      53656E64 
 5712      5F457272 
 5712      6F7200
 5713              	.LASF39:
 5714 02a4 7278616D 		.ascii	"rxamrd\000"
 5714      726400
 5715              	.LASF76:
 5716 02ab 75617274 		.ascii	"uart_debug\000"
 5716      5F646562 
 5716      756700
 5717              	.LASF12:
ARM GAS  C:\Users\austc\AppData\Local\Temp\ccAwGtxE.s 			page 120


 5718 02b6 75696E74 		.ascii	"uint16\000"
 5718      313600
 5719              	.LASF98:
 5720 02bd 64617461 		.ascii	"data\000"
 5720      00
 5721              	.LASF14:
 5722 02c2 696E7438 		.ascii	"int8\000"
 5722      00
 5723              	.LASF111:
 5724 02c7 51756164 		.ascii	"QuadDec_Start\000"
 5724      4465635F 
 5724      53746172 
 5724      7400
 5725              	.LASF114:
 5726 02d5 4379496E 		.ascii	"CyIntSetVector\000"
 5726      74536574 
 5726      56656374 
 5726      6F7200
 5727              	.LASF18:
 5728 02e4 63686172 		.ascii	"char8\000"
 5728      3800
 5729              	.LASF69:
 5730 02ea 74696D65 		.ascii	"time_LED\000"
 5730      5F4C4544 
 5730      00
 5731              	.LASF40:
 5732 02f3 72786163 		.ascii	"rxacrd\000"
 5732      726400
 5733              	.LASF78:
 5734 02fa 70776D5F 		.ascii	"pwm_compare\000"
 5734      636F6D70 
 5734      61726500 
 5735              	.LASF119:
 5736 0306 43414E5F 		.ascii	"CAN_SendMsg\000"
 5736      53656E64 
 5736      4D736700 
 5737              	.LASF47:
 5738 0312 656D6572 		.ascii	"emergency_halt\000"
 5738      67656E63 
 5738      795F6861 
 5738      6C7400
 5739              	.LASF6:
 5740 0321 6C6F6E67 		.ascii	"long long int\000"
 5740      206C6F6E 
 5740      6720696E 
 5740      7400
 5741              	.LASF45:
 5742 032f 7365745F 		.ascii	"set_data\000"
 5742      64617461 
 5742      00
 5743              	.LASF109:
 5744 0338 53746174 		.ascii	"Status_Reg_Switches_InterruptEnable\000"
 5744      75735F52 
 5744      65675F53 
 5744      77697463 
 5744      6865735F 
 5745              	.LASF80:
ARM GAS  C:\Users\austc\AppData\Local\Temp\ccAwGtxE.s 			page 121


 5746 035c 666C6970 		.ascii	"flipEncoder\000"
 5746      456E636F 
 5746      64657200 
 5747              	.LASF36:
 5748 0368 72786461 		.ascii	"rxdata\000"
 5748      746100
 5749              	.LASF28:
 5750 036f 70617261 		.ascii	"param\000"
 5750      6D00
 5751              	.LASF75:
 5752 0375 43414E5F 		.ascii	"CAN_TIMEOUT\000"
 5752      54494D45 
 5752      4F555400 
 5753              	.LASF31:
 5754 0381 43414E5F 		.ascii	"CAN_DATA_BYTES\000"
 5754      44415441 
 5754      5F425954 
 5754      455300
 5755              	.LASF64:
 5756 0390 706F7369 		.ascii	"position_PID\000"
 5756      74696F6E 
 5756      5F504944 
 5756      00
 5757              	.LASF13:
 5758 039d 75696E74 		.ascii	"uint32\000"
 5758      333200
 5759              	.LASF88:
 5760 03a4 6D6F6465 		.ascii	"model_req\000"
 5760      6C5F7265 
 5760      7100
 5761              	.LASF24:
 5762 03ae 646F6E65 		.ascii	"done\000"
 5762      00
 5763              	.LASF52:
 5764 03b3 696E6974 		.ascii	"initialize_can_addr\000"
 5764      69616C69 
 5764      7A655F63 
 5764      616E5F61 
 5764      64647200 
 5765              	.LASF82:
 5766 03c7 6C617374 		.ascii	"lastp\000"
 5766      7000
 5767              	.LASF22:
 5768 03cd 6C6F6E67 		.ascii	"long double\000"
 5768      20646F75 
 5768      626C6500 
 5769              	.LASF44:
 5770 03d9 7365745F 		.ascii	"set_PWM\000"
 5770      50574D00 
 5771              	.LASF102:
 5772 03e1 73707269 		.ascii	"sprintf\000"
 5772      6E746600 
 5773              	.LASF10:
 5774 03e9 75696E74 		.ascii	"uint16_t\000"
 5774      31365F74 
 5774      00
 5775              	.LASF21:
ARM GAS  C:\Users\austc\AppData\Local\Temp\ccAwGtxE.s 			page 122


 5776 03f2 72656733 		.ascii	"reg32\000"
 5776      3200
 5777              	.LASF43:
 5778 03f8 50696E5F 		.ascii	"Pin_Limit_Handler\000"
 5778      4C696D69 
 5778      745F4861 
 5778      6E646C65 
 5778      7200
 5779              	.LASF46:
 5780 040a 4953525F 		.ascii	"ISR_CAN\000"
 5780      43414E00 
 5781              	.LASF57:
 5782 0412 616E676C 		.ascii	"angle\000"
 5782      6500
 5783              	.LASF72:
 5784 0418 43414E5F 		.ascii	"CAN_RX_MAILBOX_0_SHIFT\000"
 5784      52585F4D 
 5784      41494C42 
 5784      4F585F30 
 5784      5F534849 
 5785              	.LASF94:
 5786 042f 696E7661 		.ascii	"invalid_arg\000"
 5786      6C69645F 
 5786      61726700 
 5787              	.LASF74:
 5788 043b 43414E5F 		.ascii	"CAN_RX_MAILBOX_0\000"
 5788      52585F4D 
 5788      41494C42 
 5788      4F585F30 
 5788      00
 5789              	.LASF73:
 5790 044c 43414E5F 		.ascii	"CAN_RX_MAILBOX_1\000"
 5790      52585F4D 
 5790      41494C42 
 5790      4F585F31 
 5790      00
 5791              	.LASF2:
 5792 045d 73686F72 		.ascii	"short int\000"
 5792      7420696E 
 5792      7400
 5793              	.LASF103:
 5794 0467 54657374 		.ascii	"Test_LED_Write\000"
 5794      5F4C4544 
 5794      5F577269 
 5794      746500
 5795              	.LASF83:
 5796 0476 72617469 		.ascii	"ratio\000"
 5796      6F00
 5797              	.LASF4:
 5798 047c 6C6F6E67 		.ascii	"long int\000"
 5798      20696E74 
 5798      00
 5799              	.LASF118:
 5800 0485 43616E5F 		.ascii	"Can_addr_Read\000"
 5800      61646472 
 5800      5F526561 
 5800      6400
ARM GAS  C:\Users\austc\AppData\Local\Temp\ccAwGtxE.s 			page 123


 5801              	.LASF113:
 5802 0493 43414E5F 		.ascii	"CAN_GlobalIntEnable\000"
 5802      476C6F62 
 5802      616C496E 
 5802      74456E61 
 5802      626C6500 
 5803              	.LASF67:
 5804 04a7 7365745F 		.ascii	"set_Position\000"
 5804      506F7369 
 5804      74696F6E 
 5804      00
 5805              	.LASF59:
 5806 04b4 43414E5F 		.ascii	"CAN_Send_Model\000"
 5806      53656E64 
 5806      5F4D6F64 
 5806      656C00
 5807              	.LASF61:
 5808 04c3 7072696F 		.ascii	"priority\000"
 5808      72697479 
 5808      00
 5809              	.LASF123:
 5810 04cc 433A5C55 		.ascii	"C:\\Users\\austc\\OneDrive\\Documents\\Altium\\Moto"
 5810      73657273 
 5810      5C617573 
 5810      74635C4F 
 5810      6E654472 
 5811 04f9 722D556E 		.ascii	"r-Unit-Firmware-A-2019-2020\\Motor Unit\\Motor Boar"
 5811      69742D46 
 5811      69726D77 
 5811      6172652D 
 5811      412D3230 
 5812 052a 64205265 		.ascii	"d Rev3.cydsn\000"
 5812      76332E63 
 5812      7964736E 
 5812      00
 5813              	.LASF104:
 5814 0537 55415254 		.ascii	"UART_UartPutString\000"
 5814      5F556172 
 5814      74507574 
 5814      53747269 
 5814      6E6700
 5815              	.LASF96:
 5816 054a 656D6572 		.ascii	"emergency\000"
 5816      67656E63 
 5816      7900
 5817              	.LASF70:
 5818 0554 6D657373 		.ascii	"message_id\000"
 5818      6167655F 
 5818      696400
 5819              	.LASF91:
 5820 055f 43616E5F 		.ascii	"Can_rx_angle\000"
 5820      72785F61 
 5820      6E676C65 
 5820      00
 5821              	.LASF93:
 5822 056c 636F6D6D 		.ascii	"command_failed\000"
 5822      616E645F 
ARM GAS  C:\Users\austc\AppData\Local\Temp\ccAwGtxE.s 			page 124


 5822      6661696C 
 5822      656400
 5823              	.LASF117:
 5824 057b 55415254 		.ascii	"UART_Start\000"
 5824      5F537461 
 5824      727400
 5825              	.LASF23:
 5826 0586 73697A65 		.ascii	"sizetype\000"
 5826      74797065 
 5826      00
 5827              	.LASF5:
 5828 058f 6C6F6E67 		.ascii	"long unsigned int\000"
 5828      20756E73 
 5828      69676E65 
 5828      6420696E 
 5828      7400
 5829              	.LASF32:
 5830 05a1 43414E5F 		.ascii	"CAN_REG_32\000"
 5830      5245475F 
 5830      333200
 5831              	.LASF112:
 5832 05ac 50574D5F 		.ascii	"PWM_Motor_Start\000"
 5832      4D6F746F 
 5832      725F5374 
 5832      61727400 
 5833              	.LASF120:
 5834 05bc 4572726F 		.ascii	"Error_Write\000"
 5834      725F5772 
 5834      69746500 
 5835              	.LASF29:
 5836 05c8 62797465 		.ascii	"byte\000"
 5836      00
 5837              	.LASF35:
 5838 05cd 72786964 		.ascii	"rxid\000"
 5838      00
 5839              	.LASF1:
 5840 05d2 756E7369 		.ascii	"unsigned char\000"
 5840      676E6564 
 5840      20636861 
 5840      7200
 5841              	.LASF68:
 5842 05e0 74657374 		.ascii	"test\000"
 5842      00
 5843              	.LASF77:
 5844 05e5 47454152 		.ascii	"GEAR_RATIO\000"
 5844      5F524154 
 5844      494F00
 5845              	.LASF34:
 5846 05f0 7278636D 		.ascii	"rxcmd\000"
 5846      6400
 5847              	.LASF124:
 5848 05f6 61646472 		.ascii	"addr\000"
 5848      00
 5849              	.LASF85:
 5850 05fb 6D617856 		.ascii	"maxV\000"
 5850      00
 5851              	.LASF110:
ARM GAS  C:\Users\austc\AppData\Local\Temp\ccAwGtxE.s 			page 125


 5852 0600 54696D65 		.ascii	"Timer_1_Start\000"
 5852      725F315F 
 5852      53746172 
 5852      7400
 5853              	.LASF0:
 5854 060e 7369676E 		.ascii	"signed char\000"
 5854      65642063 
 5854      68617200 
 5855              	.LASF3:
 5856 061a 73686F72 		.ascii	"short unsigned int\000"
 5856      7420756E 
 5856      7369676E 
 5856      65642069 
 5856      6E7400
 5857              	.LASF127:
 5858 062d 6D656D63 		.ascii	"memcpy\000"
 5858      707900
 5859              	.LASF125:
 5860 0634 6D61696E 		.ascii	"main\000"
 5860      00
 5861              	.LASF66:
 5862 0639 63757272 		.ascii	"current\000"
 5862      656E7400 
 5863              	.LASF11:
 5864 0641 75696E74 		.ascii	"uint8\000"
 5864      3800
 5865              	.LASF17:
 5866 0647 646F7562 		.ascii	"double\000"
 5866      6C6500
 5867              	.LASF108:
 5868 064e 43414E5F 		.ascii	"CAN_Start\000"
 5868      53746172 
 5868      7400
 5869              	.LASF49:
 5870 0658 74696D65 		.ascii	"timer\000"
 5870      7200
 5871              	.LASF115:
 5872 065e 6973725F 		.ascii	"isr_Limit_1_StartEx\000"
 5872      4C696D69 
 5872      745F315F 
 5872      53746172 
 5872      74457800 
 5873              	.LASF95:
 5874 0672 6D61696C 		.ascii	"mailbox\000"
 5874      626F7800 
 5875              		.ident	"GCC: (GNU Tools for ARM Embedded Processors) 5.4.1 20160609 (release) [ARM/embedded-5-bran
