ARM GAS  C:\Users\austc\AppData\Local\Temp\ccElGaPf.s 			page 1


   1              		.syntax unified
   2              		.cpu cortex-m0
   3              		.fpu softvfp
   4              		.eabi_attribute 20, 1
   5              		.eabi_attribute 21, 1
   6              		.eabi_attribute 23, 3
   7              		.eabi_attribute 24, 1
   8              		.eabi_attribute 25, 1
   9              		.eabi_attribute 26, 1
  10              		.eabi_attribute 30, 1
  11              		.eabi_attribute 34, 0
  12              		.eabi_attribute 18, 4
  13              		.thumb
  14              		.syntax unified
  15              		.file	"CAN_PM.c"
  16              		.text
  17              	.Ltext0:
  18              		.cfi_sections	.debug_frame
  19              		.section	.text.CAN_SaveConfig,"ax",%progbits
  20              		.align	2
  21              		.global	CAN_SaveConfig
  22              		.code	16
  23              		.thumb_func
  24              		.type	CAN_SaveConfig, %function
  25              	CAN_SaveConfig:
  26              	.LFB34:
  27              		.file 1 "Generated_Source\\PSoC4\\CAN_PM.c"
   1:Generated_Source\PSoC4/CAN_PM.c **** /*******************************************************************************
   2:Generated_Source\PSoC4/CAN_PM.c **** * File Name: CAN_PM.c
   3:Generated_Source\PSoC4/CAN_PM.c **** * Version 3.0
   4:Generated_Source\PSoC4/CAN_PM.c **** *
   5:Generated_Source\PSoC4/CAN_PM.c **** * Description:
   6:Generated_Source\PSoC4/CAN_PM.c **** *  This file contains the setup, control and status commands to support
   7:Generated_Source\PSoC4/CAN_PM.c **** *  component operations in the low power mode.
   8:Generated_Source\PSoC4/CAN_PM.c **** *
   9:Generated_Source\PSoC4/CAN_PM.c **** * Note:
  10:Generated_Source\PSoC4/CAN_PM.c **** *
  11:Generated_Source\PSoC4/CAN_PM.c **** ********************************************************************************
  12:Generated_Source\PSoC4/CAN_PM.c **** * Copyright 2008-2015, Cypress Semiconductor Corporation.  All rights reserved.
  13:Generated_Source\PSoC4/CAN_PM.c **** * You may use this file only in accordance with the license, terms, conditions,
  14:Generated_Source\PSoC4/CAN_PM.c **** * disclaimers, and limitations in the end user license agreement accompanying
  15:Generated_Source\PSoC4/CAN_PM.c **** * the software package with which this file was provided.
  16:Generated_Source\PSoC4/CAN_PM.c **** *******************************************************************************/
  17:Generated_Source\PSoC4/CAN_PM.c **** 
  18:Generated_Source\PSoC4/CAN_PM.c **** #include "CAN.h"
  19:Generated_Source\PSoC4/CAN_PM.c **** 
  20:Generated_Source\PSoC4/CAN_PM.c **** static CAN_BACKUP_STRUCT CAN_backup =
  21:Generated_Source\PSoC4/CAN_PM.c **** {
  22:Generated_Source\PSoC4/CAN_PM.c ****     0u,
  23:Generated_Source\PSoC4/CAN_PM.c ****     #if (CY_PSOC3 || CY_PSOC5)
  24:Generated_Source\PSoC4/CAN_PM.c ****         0u,
  25:Generated_Source\PSoC4/CAN_PM.c ****         CAN_INIT_INTERRUPT_MASK,
  26:Generated_Source\PSoC4/CAN_PM.c ****         CAN_MODE_MASK,
  27:Generated_Source\PSoC4/CAN_PM.c ****         (((uint32) ((uint32) CAN_SYNC_EDGE    << CAN_EDGE_MODE_SHIFT))     |
  28:Generated_Source\PSoC4/CAN_PM.c ****         ((uint32) ((uint32) CAN_SAMPLING_MODE << CAN_SAMPLE_MODE_SHIFT))   |
  29:Generated_Source\PSoC4/CAN_PM.c ****         ((uint32) ((uint32) CAN_CFG_REG_SJW   << CAN_CFG_REG_SJW_SHIFT))   |
  30:Generated_Source\PSoC4/CAN_PM.c ****         ((uint32) ((uint32) CAN_RESET_TYPE    << CAN_RESET_SHIFT))         |
ARM GAS  C:\Users\austc\AppData\Local\Temp\ccElGaPf.s 			page 2


  31:Generated_Source\PSoC4/CAN_PM.c ****         ((uint32) ((uint32) CAN_CFG_REG_TSEG2 << CAN_CFG_REG_TSEG2_SHIFT)) |
  32:Generated_Source\PSoC4/CAN_PM.c ****         ((uint32) ((uint32) CAN_CFG_REG_TSEG1 << CAN_CFG_REG_TSEG1_SHIFT)) |
  33:Generated_Source\PSoC4/CAN_PM.c ****         ((uint32) ((uint32) CAN_ARBITER       << CAN_ARBITER_SHIFT))       |
  34:Generated_Source\PSoC4/CAN_PM.c ****         ((uint32) ((uint32) CAN_BITRATE       << CAN_BITRATE_SHIFT)))
  35:Generated_Source\PSoC4/CAN_PM.c ****     #endif /* CY_PSOC3 || CY_PSOC5 */
  36:Generated_Source\PSoC4/CAN_PM.c **** };
  37:Generated_Source\PSoC4/CAN_PM.c **** 
  38:Generated_Source\PSoC4/CAN_PM.c **** 
  39:Generated_Source\PSoC4/CAN_PM.c **** /*******************************************************************************
  40:Generated_Source\PSoC4/CAN_PM.c **** * Function Name: CAN_SaveConfig
  41:Generated_Source\PSoC4/CAN_PM.c **** ********************************************************************************
  42:Generated_Source\PSoC4/CAN_PM.c **** *
  43:Generated_Source\PSoC4/CAN_PM.c **** * Summary:
  44:Generated_Source\PSoC4/CAN_PM.c **** *  Save the CAN configuration.
  45:Generated_Source\PSoC4/CAN_PM.c **** *
  46:Generated_Source\PSoC4/CAN_PM.c **** * Parameters:
  47:Generated_Source\PSoC4/CAN_PM.c **** *  None.
  48:Generated_Source\PSoC4/CAN_PM.c **** *
  49:Generated_Source\PSoC4/CAN_PM.c **** * Return:
  50:Generated_Source\PSoC4/CAN_PM.c **** *  None.
  51:Generated_Source\PSoC4/CAN_PM.c **** *
  52:Generated_Source\PSoC4/CAN_PM.c **** * Global Variables:
  53:Generated_Source\PSoC4/CAN_PM.c **** *  CAN_backup - Modified when non-retention registers are saved.
  54:Generated_Source\PSoC4/CAN_PM.c **** *
  55:Generated_Source\PSoC4/CAN_PM.c **** * Reentrant:
  56:Generated_Source\PSoC4/CAN_PM.c **** *  No.
  57:Generated_Source\PSoC4/CAN_PM.c **** *
  58:Generated_Source\PSoC4/CAN_PM.c **** *******************************************************************************/
  59:Generated_Source\PSoC4/CAN_PM.c **** void CAN_SaveConfig(void) 
  60:Generated_Source\PSoC4/CAN_PM.c **** {
  28              		.loc 1 60 0
  29              		.cfi_startproc
  30              		@ args = 0, pretend = 0, frame = 0
  31              		@ frame_needed = 0, uses_anonymous_args = 0
  32              		@ link register save eliminated.
  61:Generated_Source\PSoC4/CAN_PM.c ****     #if (CY_PSOC3 || CY_PSOC5)
  62:Generated_Source\PSoC4/CAN_PM.c ****         CAN_backup.intSr = (CY_GET_REG32(CAN_INT_SR_PTR));
  63:Generated_Source\PSoC4/CAN_PM.c ****         CAN_backup.intEn = (CY_GET_REG32(CAN_INT_EN_PTR));
  64:Generated_Source\PSoC4/CAN_PM.c ****         CAN_backup.cmd = (CY_GET_REG32(CAN_CMD_PTR));
  65:Generated_Source\PSoC4/CAN_PM.c ****         CAN_backup.cfg = (CY_GET_REG32(CAN_CFG_PTR));
  66:Generated_Source\PSoC4/CAN_PM.c ****     #endif /* CY_PSOC3 || CY_PSOC5 */
  67:Generated_Source\PSoC4/CAN_PM.c **** }
  33              		.loc 1 67 0
  34              		@ sp needed
  35 0000 7047     		bx	lr
  36              		.cfi_endproc
  37              	.LFE34:
  38              		.size	CAN_SaveConfig, .-CAN_SaveConfig
  39 0002 C046     		.section	.text.CAN_RestoreConfig,"ax",%progbits
  40              		.align	2
  41              		.global	CAN_RestoreConfig
  42              		.code	16
  43              		.thumb_func
  44              		.type	CAN_RestoreConfig, %function
  45              	CAN_RestoreConfig:
  46              	.LFB35:
  68:Generated_Source\PSoC4/CAN_PM.c **** 
ARM GAS  C:\Users\austc\AppData\Local\Temp\ccElGaPf.s 			page 3


  69:Generated_Source\PSoC4/CAN_PM.c **** 
  70:Generated_Source\PSoC4/CAN_PM.c **** /*******************************************************************************
  71:Generated_Source\PSoC4/CAN_PM.c **** * Function Name: CAN_RestoreConfig
  72:Generated_Source\PSoC4/CAN_PM.c **** ********************************************************************************
  73:Generated_Source\PSoC4/CAN_PM.c **** *
  74:Generated_Source\PSoC4/CAN_PM.c **** * Summary:
  75:Generated_Source\PSoC4/CAN_PM.c **** *  Restore the CAN configuration.
  76:Generated_Source\PSoC4/CAN_PM.c **** *
  77:Generated_Source\PSoC4/CAN_PM.c **** * Parameters:
  78:Generated_Source\PSoC4/CAN_PM.c **** *  None.
  79:Generated_Source\PSoC4/CAN_PM.c **** *
  80:Generated_Source\PSoC4/CAN_PM.c **** * Return:
  81:Generated_Source\PSoC4/CAN_PM.c **** *  None.
  82:Generated_Source\PSoC4/CAN_PM.c **** *
  83:Generated_Source\PSoC4/CAN_PM.c **** * Global Variables:
  84:Generated_Source\PSoC4/CAN_PM.c **** *  CAN_backup - Used when non-retention registers are restored.
  85:Generated_Source\PSoC4/CAN_PM.c **** *
  86:Generated_Source\PSoC4/CAN_PM.c **** * Side Effects:
  87:Generated_Source\PSoC4/CAN_PM.c **** *  If this API is called without first calling SaveConfig then default values
  88:Generated_Source\PSoC4/CAN_PM.c **** *  from Customizer will be in the following registers: CAN_INT_SR,
  89:Generated_Source\PSoC4/CAN_PM.c **** *  CAN_INT_EN, CAN_CMD, CAN_CFG.
  90:Generated_Source\PSoC4/CAN_PM.c **** *
  91:Generated_Source\PSoC4/CAN_PM.c **** *******************************************************************************/
  92:Generated_Source\PSoC4/CAN_PM.c **** void CAN_RestoreConfig(void) 
  93:Generated_Source\PSoC4/CAN_PM.c **** {
  47              		.loc 1 93 0
  48              		.cfi_startproc
  49              		@ args = 0, pretend = 0, frame = 0
  50              		@ frame_needed = 0, uses_anonymous_args = 0
  51              		@ link register save eliminated.
  94:Generated_Source\PSoC4/CAN_PM.c ****     #if (CY_PSOC3 || CY_PSOC5)
  95:Generated_Source\PSoC4/CAN_PM.c ****         CY_SET_REG32(CAN_INT_SR_PTR, CAN_backup.intSr);
  96:Generated_Source\PSoC4/CAN_PM.c ****         CY_SET_REG32(CAN_INT_EN_PTR, CAN_backup.intEn);
  97:Generated_Source\PSoC4/CAN_PM.c ****         CY_SET_REG32(CAN_CMD_PTR, CAN_backup.cmd);
  98:Generated_Source\PSoC4/CAN_PM.c ****         CY_SET_REG32(CAN_CFG_PTR, CAN_backup.cfg);
  99:Generated_Source\PSoC4/CAN_PM.c ****     #endif /* CY_PSOC3 || CY_PSOC5 */
 100:Generated_Source\PSoC4/CAN_PM.c **** }
  52              		.loc 1 100 0
  53              		@ sp needed
  54 0000 7047     		bx	lr
  55              		.cfi_endproc
  56              	.LFE35:
  57              		.size	CAN_RestoreConfig, .-CAN_RestoreConfig
  58 0002 C046     		.section	.text.CAN_Sleep,"ax",%progbits
  59              		.align	2
  60              		.global	CAN_Sleep
  61              		.code	16
  62              		.thumb_func
  63              		.type	CAN_Sleep, %function
  64              	CAN_Sleep:
  65              	.LFB36:
 101:Generated_Source\PSoC4/CAN_PM.c **** 
 102:Generated_Source\PSoC4/CAN_PM.c **** 
 103:Generated_Source\PSoC4/CAN_PM.c **** /*******************************************************************************
 104:Generated_Source\PSoC4/CAN_PM.c **** * Function Name: CAN_Sleep
 105:Generated_Source\PSoC4/CAN_PM.c **** ********************************************************************************
 106:Generated_Source\PSoC4/CAN_PM.c **** *
ARM GAS  C:\Users\austc\AppData\Local\Temp\ccElGaPf.s 			page 4


 107:Generated_Source\PSoC4/CAN_PM.c **** * Summary:
 108:Generated_Source\PSoC4/CAN_PM.c **** *  Prepares CAN Component to go to sleep.
 109:Generated_Source\PSoC4/CAN_PM.c **** *
 110:Generated_Source\PSoC4/CAN_PM.c **** * Parameters:
 111:Generated_Source\PSoC4/CAN_PM.c **** *  None.
 112:Generated_Source\PSoC4/CAN_PM.c **** *
 113:Generated_Source\PSoC4/CAN_PM.c **** * Return:
 114:Generated_Source\PSoC4/CAN_PM.c **** *  None.
 115:Generated_Source\PSoC4/CAN_PM.c **** *
 116:Generated_Source\PSoC4/CAN_PM.c **** * Global Variables:
 117:Generated_Source\PSoC4/CAN_PM.c **** *  CAN_backup - Modified when non-retention registers are saved.
 118:Generated_Source\PSoC4/CAN_PM.c **** *
 119:Generated_Source\PSoC4/CAN_PM.c **** * Reentrant:
 120:Generated_Source\PSoC4/CAN_PM.c **** *  No.
 121:Generated_Source\PSoC4/CAN_PM.c **** *
 122:Generated_Source\PSoC4/CAN_PM.c **** *******************************************************************************/
 123:Generated_Source\PSoC4/CAN_PM.c **** void CAN_Sleep(void) 
 124:Generated_Source\PSoC4/CAN_PM.c **** {
  66              		.loc 1 124 0
  67              		.cfi_startproc
  68              		@ args = 0, pretend = 0, frame = 0
  69              		@ frame_needed = 0, uses_anonymous_args = 0
  70 0000 10B5     		push	{r4, lr}
  71              		.cfi_def_cfa_offset 8
  72              		.cfi_offset 4, -8
  73              		.cfi_offset 14, -4
 125:Generated_Source\PSoC4/CAN_PM.c ****     #if (!(CY_PSOC3 || CY_PSOC5))
 126:Generated_Source\PSoC4/CAN_PM.c ****         uint8 i;
 127:Generated_Source\PSoC4/CAN_PM.c ****     #endif /* (!(CY_PSOC3 || CY_PSOC5)) */
 128:Generated_Source\PSoC4/CAN_PM.c **** 
 129:Generated_Source\PSoC4/CAN_PM.c ****     if (0u != (CY_GET_REG32(CAN_CMD_PTR) & CAN_MODE_MASK))
  74              		.loc 1 129 0
  75 0002 104B     		ldr	r3, .L8
  76 0004 1B68     		ldr	r3, [r3]
  77 0006 DB07     		lsls	r3, r3, #31
  78 0008 04D5     		bpl	.L4
 130:Generated_Source\PSoC4/CAN_PM.c ****     {
 131:Generated_Source\PSoC4/CAN_PM.c ****         CAN_backup.enableState = 1u;
  79              		.loc 1 131 0
  80 000a 0122     		movs	r2, #1
  81 000c 0E4B     		ldr	r3, .L8+4
  82 000e 1A70     		strb	r2, [r3]
  83              	.L6:
 124:Generated_Source\PSoC4/CAN_PM.c ****     #if (!(CY_PSOC3 || CY_PSOC5))
  84              		.loc 1 124 0 discriminator 1
  85 0010 0023     		movs	r3, #0
  86 0012 0FE0     		b	.L5
  87              	.L4:
 132:Generated_Source\PSoC4/CAN_PM.c ****     }
 133:Generated_Source\PSoC4/CAN_PM.c ****     else /* CAN block is disabled */
 134:Generated_Source\PSoC4/CAN_PM.c ****     {
 135:Generated_Source\PSoC4/CAN_PM.c ****         CAN_backup.enableState = 0u;
  88              		.loc 1 135 0
  89 0014 0022     		movs	r2, #0
  90 0016 0C4B     		ldr	r3, .L8+4
  91 0018 1A70     		strb	r2, [r3]
  92 001a F9E7     		b	.L6
ARM GAS  C:\Users\austc\AppData\Local\Temp\ccElGaPf.s 			page 5


  93              	.LVL0:
  94              	.L7:
 136:Generated_Source\PSoC4/CAN_PM.c ****     }
 137:Generated_Source\PSoC4/CAN_PM.c **** 
 138:Generated_Source\PSoC4/CAN_PM.c ****     #if (CY_PSOC3 || CY_PSOC5)
 139:Generated_Source\PSoC4/CAN_PM.c ****         CAN_SaveConfig();
 140:Generated_Source\PSoC4/CAN_PM.c ****         (void) CAN_Stop();
 141:Generated_Source\PSoC4/CAN_PM.c ****     #else /* CY_PSOC4 */
 142:Generated_Source\PSoC4/CAN_PM.c ****         /* Abort respective pending TX message requests */
 143:Generated_Source\PSoC4/CAN_PM.c ****         for (i = 0u; i < CAN_NUMBER_OF_TX_MAILBOXES; i++)
 144:Generated_Source\PSoC4/CAN_PM.c ****         {
 145:Generated_Source\PSoC4/CAN_PM.c ****             CAN_TX_ABORT_MESSAGE(i);
  95              		.loc 1 145 0 discriminator 3
  96 001c 1A01     		lsls	r2, r3, #4
  97 001e 0B49     		ldr	r1, .L8+8
  98 0020 8C46     		mov	ip, r1
  99 0022 6244     		add	r2, r2, ip
 100 0024 1168     		ldr	r1, [r2]
 101 0026 0320     		movs	r0, #3
 102 0028 8143     		bics	r1, r0
 103 002a 0138     		subs	r0, r0, #1
 104 002c 0143     		orrs	r1, r0
 105 002e 1160     		str	r1, [r2]
 143:Generated_Source\PSoC4/CAN_PM.c ****         {
 106              		.loc 1 143 0 discriminator 3
 107 0030 0133     		adds	r3, r3, #1
 108              	.LVL1:
 109 0032 DBB2     		uxtb	r3, r3
 110              	.LVL2:
 111              	.L5:
 143:Generated_Source\PSoC4/CAN_PM.c ****         {
 112              		.loc 1 143 0 is_stmt 0 discriminator 1
 113 0034 072B     		cmp	r3, #7
 114 0036 F1D9     		bls	.L7
 146:Generated_Source\PSoC4/CAN_PM.c ****         }
 147:Generated_Source\PSoC4/CAN_PM.c **** 
 148:Generated_Source\PSoC4/CAN_PM.c ****         /* Sets CAN controller to Stop mode */
 149:Generated_Source\PSoC4/CAN_PM.c ****         (void) CAN_Stop();
 115              		.loc 1 149 0 is_stmt 1
 116 0038 FFF7FEFF 		bl	CAN_Stop
 117              	.LVL3:
 150:Generated_Source\PSoC4/CAN_PM.c **** 
 151:Generated_Source\PSoC4/CAN_PM.c ****         /* Clear Global Interrupt enable Flag */
 152:Generated_Source\PSoC4/CAN_PM.c ****         (void) CAN_GlobalIntDisable();
 118              		.loc 1 152 0
 119 003c FFF7FEFF 		bl	CAN_GlobalIntDisable
 120              	.LVL4:
 153:Generated_Source\PSoC4/CAN_PM.c ****     #endif /* CY_PSOC3 || CY_PSOC5 */
 154:Generated_Source\PSoC4/CAN_PM.c **** }
 121              		.loc 1 154 0
 122              		@ sp needed
 123 0040 10BD     		pop	{r4, pc}
 124              	.L9:
 125 0042 C046     		.align	2
 126              	.L8:
 127 0044 10002F40 		.word	1076822032
 128 0048 00000000 		.word	.LANCHOR0
ARM GAS  C:\Users\austc\AppData\Local\Temp\ccElGaPf.s 			page 6


 129 004c 20002F40 		.word	1076822048
 130              		.cfi_endproc
 131              	.LFE36:
 132              		.size	CAN_Sleep, .-CAN_Sleep
 133              		.section	.text.CAN_Wakeup,"ax",%progbits
 134              		.align	2
 135              		.global	CAN_Wakeup
 136              		.code	16
 137              		.thumb_func
 138              		.type	CAN_Wakeup, %function
 139              	CAN_Wakeup:
 140              	.LFB37:
 155:Generated_Source\PSoC4/CAN_PM.c **** 
 156:Generated_Source\PSoC4/CAN_PM.c **** 
 157:Generated_Source\PSoC4/CAN_PM.c **** /*******************************************************************************
 158:Generated_Source\PSoC4/CAN_PM.c **** * Function Name: CAN_Wakeup
 159:Generated_Source\PSoC4/CAN_PM.c **** ********************************************************************************
 160:Generated_Source\PSoC4/CAN_PM.c **** *
 161:Generated_Source\PSoC4/CAN_PM.c **** * Summary:
 162:Generated_Source\PSoC4/CAN_PM.c **** *  Prepares CAN Component to wake up.
 163:Generated_Source\PSoC4/CAN_PM.c **** *
 164:Generated_Source\PSoC4/CAN_PM.c **** * Parameters:
 165:Generated_Source\PSoC4/CAN_PM.c **** *  None.
 166:Generated_Source\PSoC4/CAN_PM.c **** *
 167:Generated_Source\PSoC4/CAN_PM.c **** * Return:
 168:Generated_Source\PSoC4/CAN_PM.c **** *  None.
 169:Generated_Source\PSoC4/CAN_PM.c **** *
 170:Generated_Source\PSoC4/CAN_PM.c **** * Global Variables:
 171:Generated_Source\PSoC4/CAN_PM.c **** *  CAN_backup - Used when non-retention registers are restored.
 172:Generated_Source\PSoC4/CAN_PM.c **** *
 173:Generated_Source\PSoC4/CAN_PM.c **** * Reentrant:
 174:Generated_Source\PSoC4/CAN_PM.c **** *  No.
 175:Generated_Source\PSoC4/CAN_PM.c **** *
 176:Generated_Source\PSoC4/CAN_PM.c **** *******************************************************************************/
 177:Generated_Source\PSoC4/CAN_PM.c **** void CAN_Wakeup(void) 
 178:Generated_Source\PSoC4/CAN_PM.c **** {
 141              		.loc 1 178 0
 142              		.cfi_startproc
 143              		@ args = 0, pretend = 0, frame = 0
 144              		@ frame_needed = 0, uses_anonymous_args = 0
 145 0000 10B5     		push	{r4, lr}
 146              		.cfi_def_cfa_offset 8
 147              		.cfi_offset 4, -8
 148              		.cfi_offset 14, -4
 179:Generated_Source\PSoC4/CAN_PM.c ****     #if (CY_PSOC3 || CY_PSOC5)
 180:Generated_Source\PSoC4/CAN_PM.c ****         /* Enable CAN block in Active mode */
 181:Generated_Source\PSoC4/CAN_PM.c ****         CAN_PM_ACT_CFG_REG |= CAN_ACT_PWR_EN;
 182:Generated_Source\PSoC4/CAN_PM.c ****         /* Enable CAN block in Alternate Active (Standby) mode */
 183:Generated_Source\PSoC4/CAN_PM.c ****         CAN_PM_STBY_CFG_REG |= CAN_STBY_PWR_EN;
 184:Generated_Source\PSoC4/CAN_PM.c **** 
 185:Generated_Source\PSoC4/CAN_PM.c ****         CAN_RestoreConfig();
 186:Generated_Source\PSoC4/CAN_PM.c **** 
 187:Generated_Source\PSoC4/CAN_PM.c ****         /* Reconfigure Rx and Tx Buffers control registers */
 188:Generated_Source\PSoC4/CAN_PM.c ****         (void) CAN_RxTxBuffersConfig();
 189:Generated_Source\PSoC4/CAN_PM.c **** 
 190:Generated_Source\PSoC4/CAN_PM.c ****         if (CAN_backup.enableState != 0u)
 191:Generated_Source\PSoC4/CAN_PM.c ****         {
ARM GAS  C:\Users\austc\AppData\Local\Temp\ccElGaPf.s 			page 7


 192:Generated_Source\PSoC4/CAN_PM.c ****             /* Enable component's operation */
 193:Generated_Source\PSoC4/CAN_PM.c ****             (void) CAN_Enable();
 194:Generated_Source\PSoC4/CAN_PM.c ****         } /* Do nothing if component's block was disabled before */
 195:Generated_Source\PSoC4/CAN_PM.c ****     #else /* CY_PSOC4 */
 196:Generated_Source\PSoC4/CAN_PM.c ****         /* Clear all INT_STATUS bits */
 197:Generated_Source\PSoC4/CAN_PM.c ****         CAN_INT_SR_REG = CAN_INT_STATUS_MASK;
 149              		.loc 1 197 0
 150 0002 064A     		ldr	r2, .L12
 151 0004 064B     		ldr	r3, .L12+4
 152 0006 1A60     		str	r2, [r3]
 198:Generated_Source\PSoC4/CAN_PM.c **** 
 199:Generated_Source\PSoC4/CAN_PM.c ****         /* Set Global Interrupt enable Flag */
 200:Generated_Source\PSoC4/CAN_PM.c ****         (void) CAN_GlobalIntEnable();
 153              		.loc 1 200 0
 154 0008 FFF7FEFF 		bl	CAN_GlobalIntEnable
 155              	.LVL5:
 201:Generated_Source\PSoC4/CAN_PM.c **** 
 202:Generated_Source\PSoC4/CAN_PM.c ****         if (CAN_backup.enableState != 0u)
 156              		.loc 1 202 0
 157 000c 054B     		ldr	r3, .L12+8
 158 000e 1B78     		ldrb	r3, [r3]
 159 0010 002B     		cmp	r3, #0
 160 0012 01D0     		beq	.L10
 203:Generated_Source\PSoC4/CAN_PM.c ****         {
 204:Generated_Source\PSoC4/CAN_PM.c ****             (void) CAN_Enable();
 161              		.loc 1 204 0
 162 0014 FFF7FEFF 		bl	CAN_Enable
 163              	.LVL6:
 164              	.L10:
 205:Generated_Source\PSoC4/CAN_PM.c ****         } /* Do nothing if component's block was disabled before */
 206:Generated_Source\PSoC4/CAN_PM.c ****     #endif /* CY_PSOC3 || CY_PSOC5 */
 207:Generated_Source\PSoC4/CAN_PM.c **** }
 165              		.loc 1 207 0
 166              		@ sp needed
 167 0018 10BD     		pop	{r4, pc}
 168              	.L13:
 169 001a C046     		.align	2
 170              	.L12:
 171 001c FC1F0000 		.word	8188
 172 0020 00002F40 		.word	1076822016
 173 0024 00000000 		.word	.LANCHOR0
 174              		.cfi_endproc
 175              	.LFE37:
 176              		.size	CAN_Wakeup, .-CAN_Wakeup
 177              		.bss
 178              		.align	2
 179              		.set	.LANCHOR0,. + 0
 180              		.type	CAN_backup, %object
 181              		.size	CAN_backup, 1
 182              	CAN_backup:
 183 0000 00       		.space	1
 184              		.text
 185              	.Letext0:
 186              		.file 2 "Generated_Source\\PSoC4\\cytypes.h"
 187              		.file 3 "Generated_Source\\PSoC4\\CAN.h"