ARM GAS  C:\Users\austc\AppData\Local\Temp\ccKSAcZi.s 			page 1


   1              		.syntax unified
   2              		.cpu cortex-m0
   3              		.fpu softvfp
   4              		.eabi_attribute 20, 1
   5              		.eabi_attribute 21, 1
   6              		.eabi_attribute 23, 3
   7              		.eabi_attribute 24, 1
   8              		.eabi_attribute 25, 1
   9              		.eabi_attribute 26, 1
  10              		.eabi_attribute 30, 1
  11              		.eabi_attribute 34, 0
  12              		.eabi_attribute 18, 4
  13              		.thumb
  14              		.syntax unified
  15              		.file	"cyfitter_cfg.c"
  16              		.text
  17              	.Ltext0:
  18              		.cfi_sections	.debug_frame
  19              		.section	.text.cfg_write_bytes32,"ax",%progbits
  20              		.align	2
  21              		.code	16
  22              		.thumb_func
  23              		.type	cfg_write_bytes32, %function
  24              	cfg_write_bytes32:
  25              	.LFB37:
  26              		.file 1 "Generated_Source\\PSoC4\\cyfitter_cfg.c"
   1:Generated_Source\PSoC4/cyfitter_cfg.c **** 
   2:Generated_Source\PSoC4/cyfitter_cfg.c **** /*******************************************************************************
   3:Generated_Source\PSoC4/cyfitter_cfg.c **** * File Name: cyfitter_cfg.c
   4:Generated_Source\PSoC4/cyfitter_cfg.c **** * 
   5:Generated_Source\PSoC4/cyfitter_cfg.c **** * PSoC Creator  4.2
   6:Generated_Source\PSoC4/cyfitter_cfg.c **** *
   7:Generated_Source\PSoC4/cyfitter_cfg.c **** * Description:
   8:Generated_Source\PSoC4/cyfitter_cfg.c **** * This file contains device initialization code.
   9:Generated_Source\PSoC4/cyfitter_cfg.c **** * Except for the user defined sections in CyClockStartupError(), this file should not be modified.
  10:Generated_Source\PSoC4/cyfitter_cfg.c **** * This file is automatically generated by PSoC Creator.
  11:Generated_Source\PSoC4/cyfitter_cfg.c **** *
  12:Generated_Source\PSoC4/cyfitter_cfg.c **** ********************************************************************************
  13:Generated_Source\PSoC4/cyfitter_cfg.c **** * Copyright (c) 2007-2018 Cypress Semiconductor.  All rights reserved.
  14:Generated_Source\PSoC4/cyfitter_cfg.c **** * You may use this file only in accordance with the license, terms, conditions, 
  15:Generated_Source\PSoC4/cyfitter_cfg.c **** * disclaimers, and limitations in the end user license agreement accompanying 
  16:Generated_Source\PSoC4/cyfitter_cfg.c **** * the software package with which this file was provided.
  17:Generated_Source\PSoC4/cyfitter_cfg.c **** ********************************************************************************/
  18:Generated_Source\PSoC4/cyfitter_cfg.c **** 
  19:Generated_Source\PSoC4/cyfitter_cfg.c **** #include <string.h>
  20:Generated_Source\PSoC4/cyfitter_cfg.c **** #include "cytypes.h"
  21:Generated_Source\PSoC4/cyfitter_cfg.c **** #include "cydevice_trm.h"
  22:Generated_Source\PSoC4/cyfitter_cfg.c **** #include "cyfitter.h"
  23:Generated_Source\PSoC4/cyfitter_cfg.c **** #include "CyLib.h"
  24:Generated_Source\PSoC4/cyfitter_cfg.c **** #include "CyLFClk.h"
  25:Generated_Source\PSoC4/cyfitter_cfg.c **** #include "cyfitter_cfg.h"
  26:Generated_Source\PSoC4/cyfitter_cfg.c **** #include "cyapicallbacks.h"
  27:Generated_Source\PSoC4/cyfitter_cfg.c **** 
  28:Generated_Source\PSoC4/cyfitter_cfg.c **** 
  29:Generated_Source\PSoC4/cyfitter_cfg.c **** #if defined(__GNUC__) || defined(__ARMCC_VERSION)
  30:Generated_Source\PSoC4/cyfitter_cfg.c ****     #define CYPACKED 
  31:Generated_Source\PSoC4/cyfitter_cfg.c ****     #define CYPACKED_ATTR __attribute__ ((packed))
ARM GAS  C:\Users\austc\AppData\Local\Temp\ccKSAcZi.s 			page 2


  32:Generated_Source\PSoC4/cyfitter_cfg.c ****     #define CYALIGNED __attribute__ ((aligned))
  33:Generated_Source\PSoC4/cyfitter_cfg.c ****     #define CY_CFG_UNUSED __attribute__ ((unused))
  34:Generated_Source\PSoC4/cyfitter_cfg.c ****     #ifndef CY_CFG_SECTION
  35:Generated_Source\PSoC4/cyfitter_cfg.c ****         #define CY_CFG_SECTION __attribute__ ((section(".psocinit")))
  36:Generated_Source\PSoC4/cyfitter_cfg.c ****     #endif
  37:Generated_Source\PSoC4/cyfitter_cfg.c ****     
  38:Generated_Source\PSoC4/cyfitter_cfg.c ****     #if defined(__ARMCC_VERSION)
  39:Generated_Source\PSoC4/cyfitter_cfg.c ****         #define CY_CFG_MEMORY_BARRIER() __memory_changed()
  40:Generated_Source\PSoC4/cyfitter_cfg.c ****     #else
  41:Generated_Source\PSoC4/cyfitter_cfg.c ****         #define CY_CFG_MEMORY_BARRIER() __sync_synchronize()
  42:Generated_Source\PSoC4/cyfitter_cfg.c ****     #endif
  43:Generated_Source\PSoC4/cyfitter_cfg.c ****     
  44:Generated_Source\PSoC4/cyfitter_cfg.c **** #elif defined(__ICCARM__)
  45:Generated_Source\PSoC4/cyfitter_cfg.c ****     #include <intrinsics.h>
  46:Generated_Source\PSoC4/cyfitter_cfg.c **** 
  47:Generated_Source\PSoC4/cyfitter_cfg.c ****     #define CYPACKED __packed
  48:Generated_Source\PSoC4/cyfitter_cfg.c ****     #define CYPACKED_ATTR 
  49:Generated_Source\PSoC4/cyfitter_cfg.c ****     #define CYALIGNED _Pragma("data_alignment=4")
  50:Generated_Source\PSoC4/cyfitter_cfg.c ****     #define CY_CFG_UNUSED _Pragma("diag_suppress=Pe177")
  51:Generated_Source\PSoC4/cyfitter_cfg.c ****     #define CY_CFG_SECTION _Pragma("location=\".psocinit\"")
  52:Generated_Source\PSoC4/cyfitter_cfg.c ****     
  53:Generated_Source\PSoC4/cyfitter_cfg.c ****     #define CY_CFG_MEMORY_BARRIER() __DMB()
  54:Generated_Source\PSoC4/cyfitter_cfg.c ****     
  55:Generated_Source\PSoC4/cyfitter_cfg.c **** #else
  56:Generated_Source\PSoC4/cyfitter_cfg.c ****     #error Unsupported toolchain
  57:Generated_Source\PSoC4/cyfitter_cfg.c **** #endif
  58:Generated_Source\PSoC4/cyfitter_cfg.c **** 
  59:Generated_Source\PSoC4/cyfitter_cfg.c **** #ifndef CYCODE
  60:Generated_Source\PSoC4/cyfitter_cfg.c ****     #define CYCODE
  61:Generated_Source\PSoC4/cyfitter_cfg.c **** #endif
  62:Generated_Source\PSoC4/cyfitter_cfg.c **** #ifndef CYDATA
  63:Generated_Source\PSoC4/cyfitter_cfg.c ****     #define CYDATA
  64:Generated_Source\PSoC4/cyfitter_cfg.c **** #endif
  65:Generated_Source\PSoC4/cyfitter_cfg.c **** #ifndef CYFAR
  66:Generated_Source\PSoC4/cyfitter_cfg.c ****     #define CYFAR
  67:Generated_Source\PSoC4/cyfitter_cfg.c **** #endif
  68:Generated_Source\PSoC4/cyfitter_cfg.c **** #ifndef CYXDATA
  69:Generated_Source\PSoC4/cyfitter_cfg.c ****     #define CYXDATA
  70:Generated_Source\PSoC4/cyfitter_cfg.c **** #endif
  71:Generated_Source\PSoC4/cyfitter_cfg.c **** 
  72:Generated_Source\PSoC4/cyfitter_cfg.c **** 
  73:Generated_Source\PSoC4/cyfitter_cfg.c **** CY_CFG_UNUSED
  74:Generated_Source\PSoC4/cyfitter_cfg.c **** static void CYMEMZERO(void *s, size_t n);
  75:Generated_Source\PSoC4/cyfitter_cfg.c **** CY_CFG_UNUSED
  76:Generated_Source\PSoC4/cyfitter_cfg.c **** static void CYMEMZERO(void *s, size_t n)
  77:Generated_Source\PSoC4/cyfitter_cfg.c **** {
  78:Generated_Source\PSoC4/cyfitter_cfg.c **** 	(void)memset(s, 0, n);
  79:Generated_Source\PSoC4/cyfitter_cfg.c **** }
  80:Generated_Source\PSoC4/cyfitter_cfg.c **** CY_CFG_UNUSED
  81:Generated_Source\PSoC4/cyfitter_cfg.c **** static void CYCONFIGCPY(void *dest, const void *src, size_t n);
  82:Generated_Source\PSoC4/cyfitter_cfg.c **** CY_CFG_UNUSED
  83:Generated_Source\PSoC4/cyfitter_cfg.c **** static void CYCONFIGCPY(void *dest, const void *src, size_t n)
  84:Generated_Source\PSoC4/cyfitter_cfg.c **** {
  85:Generated_Source\PSoC4/cyfitter_cfg.c **** 	(void)memcpy(dest, src, n);
  86:Generated_Source\PSoC4/cyfitter_cfg.c **** }
  87:Generated_Source\PSoC4/cyfitter_cfg.c **** CY_CFG_UNUSED
  88:Generated_Source\PSoC4/cyfitter_cfg.c **** static void CYCONFIGCPYCODE(void *dest, const void *src, size_t n);
ARM GAS  C:\Users\austc\AppData\Local\Temp\ccKSAcZi.s 			page 3


  89:Generated_Source\PSoC4/cyfitter_cfg.c **** CY_CFG_UNUSED
  90:Generated_Source\PSoC4/cyfitter_cfg.c **** static void CYCONFIGCPYCODE(void *dest, const void *src, size_t n)
  91:Generated_Source\PSoC4/cyfitter_cfg.c **** {
  92:Generated_Source\PSoC4/cyfitter_cfg.c **** 	(void)memcpy(dest, src, n);
  93:Generated_Source\PSoC4/cyfitter_cfg.c **** }
  94:Generated_Source\PSoC4/cyfitter_cfg.c **** 
  95:Generated_Source\PSoC4/cyfitter_cfg.c **** 
  96:Generated_Source\PSoC4/cyfitter_cfg.c **** 
  97:Generated_Source\PSoC4/cyfitter_cfg.c **** 
  98:Generated_Source\PSoC4/cyfitter_cfg.c **** /* Clock startup error codes                                                   */
  99:Generated_Source\PSoC4/cyfitter_cfg.c **** #define CYCLOCKSTART_NO_ERROR    0u
 100:Generated_Source\PSoC4/cyfitter_cfg.c **** #define CYCLOCKSTART_XTAL_ERROR  1u
 101:Generated_Source\PSoC4/cyfitter_cfg.c **** #define CYCLOCKSTART_32KHZ_ERROR 2u
 102:Generated_Source\PSoC4/cyfitter_cfg.c **** #define CYCLOCKSTART_PLL_ERROR   3u
 103:Generated_Source\PSoC4/cyfitter_cfg.c **** #define CYCLOCKSTART_FLL_ERROR   4u
 104:Generated_Source\PSoC4/cyfitter_cfg.c **** #define CYCLOCKSTART_WCO_ERROR   5u
 105:Generated_Source\PSoC4/cyfitter_cfg.c **** 
 106:Generated_Source\PSoC4/cyfitter_cfg.c **** 
 107:Generated_Source\PSoC4/cyfitter_cfg.c **** #ifdef CY_NEED_CYCLOCKSTARTUPERROR
 108:Generated_Source\PSoC4/cyfitter_cfg.c **** /*******************************************************************************
 109:Generated_Source\PSoC4/cyfitter_cfg.c **** * Function Name: CyClockStartupError
 110:Generated_Source\PSoC4/cyfitter_cfg.c **** ********************************************************************************
 111:Generated_Source\PSoC4/cyfitter_cfg.c **** * Summary:
 112:Generated_Source\PSoC4/cyfitter_cfg.c **** *  If an error is encountered during clock configuration (crystal startup error,
 113:Generated_Source\PSoC4/cyfitter_cfg.c **** *  PLL lock error, etc.), the system will end up here.  Unless reimplemented by
 114:Generated_Source\PSoC4/cyfitter_cfg.c **** *  the customer, this function will stop in an infinite loop.
 115:Generated_Source\PSoC4/cyfitter_cfg.c **** *
 116:Generated_Source\PSoC4/cyfitter_cfg.c **** * Parameters:
 117:Generated_Source\PSoC4/cyfitter_cfg.c **** *   void
 118:Generated_Source\PSoC4/cyfitter_cfg.c **** *
 119:Generated_Source\PSoC4/cyfitter_cfg.c **** * Return:
 120:Generated_Source\PSoC4/cyfitter_cfg.c **** *   void
 121:Generated_Source\PSoC4/cyfitter_cfg.c **** *
 122:Generated_Source\PSoC4/cyfitter_cfg.c **** *******************************************************************************/
 123:Generated_Source\PSoC4/cyfitter_cfg.c **** CY_CFG_UNUSED
 124:Generated_Source\PSoC4/cyfitter_cfg.c **** static void CyClockStartupError(uint8 errorCode);
 125:Generated_Source\PSoC4/cyfitter_cfg.c **** CY_CFG_UNUSED
 126:Generated_Source\PSoC4/cyfitter_cfg.c **** static void CyClockStartupError(uint8 errorCode)
 127:Generated_Source\PSoC4/cyfitter_cfg.c **** {
 128:Generated_Source\PSoC4/cyfitter_cfg.c ****     /* To remove the compiler warning if errorCode not used.                */
 129:Generated_Source\PSoC4/cyfitter_cfg.c ****     errorCode = errorCode;
 130:Generated_Source\PSoC4/cyfitter_cfg.c **** 
 131:Generated_Source\PSoC4/cyfitter_cfg.c ****     /* If we have a clock startup error (bad MHz crystal, PLL lock, etc.),  */
 132:Generated_Source\PSoC4/cyfitter_cfg.c ****     /* we will end up here to allow the customer to implement something to  */
 133:Generated_Source\PSoC4/cyfitter_cfg.c ****     /* deal with the clock condition.                                       */
 134:Generated_Source\PSoC4/cyfitter_cfg.c **** 
 135:Generated_Source\PSoC4/cyfitter_cfg.c **** #ifdef CY_CFG_CLOCK_STARTUP_ERROR_CALLBACK
 136:Generated_Source\PSoC4/cyfitter_cfg.c ****     CY_CFG_Clock_Startup_ErrorCallback();
 137:Generated_Source\PSoC4/cyfitter_cfg.c **** #else
 138:Generated_Source\PSoC4/cyfitter_cfg.c ****     /*  If not using CY_CFG_CLOCK_STARTUP_ERROR_CALLBACK, place your clock startup code here. */
 139:Generated_Source\PSoC4/cyfitter_cfg.c ****     /* `#START CyClockStartupError` */
 140:Generated_Source\PSoC4/cyfitter_cfg.c **** 
 141:Generated_Source\PSoC4/cyfitter_cfg.c **** 
 142:Generated_Source\PSoC4/cyfitter_cfg.c **** 
 143:Generated_Source\PSoC4/cyfitter_cfg.c ****     /* `#END` */
 144:Generated_Source\PSoC4/cyfitter_cfg.c **** 
 145:Generated_Source\PSoC4/cyfitter_cfg.c ****     while(1) {}
ARM GAS  C:\Users\austc\AppData\Local\Temp\ccKSAcZi.s 			page 4


 146:Generated_Source\PSoC4/cyfitter_cfg.c **** #endif /* CY_CFG_CLOCK_STARTUP_ERROR_CALLBACK */
 147:Generated_Source\PSoC4/cyfitter_cfg.c **** }
 148:Generated_Source\PSoC4/cyfitter_cfg.c **** #endif
 149:Generated_Source\PSoC4/cyfitter_cfg.c **** 
 150:Generated_Source\PSoC4/cyfitter_cfg.c **** #define CY_CFG_BASE_ADDR_COUNT 16u
 151:Generated_Source\PSoC4/cyfitter_cfg.c **** CYPACKED typedef struct
 152:Generated_Source\PSoC4/cyfitter_cfg.c **** {
 153:Generated_Source\PSoC4/cyfitter_cfg.c **** 	uint8 offset;
 154:Generated_Source\PSoC4/cyfitter_cfg.c **** 	uint8 value;
 155:Generated_Source\PSoC4/cyfitter_cfg.c **** } CYPACKED_ATTR cy_cfg_addrvalue_t;
 156:Generated_Source\PSoC4/cyfitter_cfg.c **** 
 157:Generated_Source\PSoC4/cyfitter_cfg.c **** 
 158:Generated_Source\PSoC4/cyfitter_cfg.c **** 
 159:Generated_Source\PSoC4/cyfitter_cfg.c **** /*******************************************************************************
 160:Generated_Source\PSoC4/cyfitter_cfg.c **** * Function Name: cfg_write_bytes32
 161:Generated_Source\PSoC4/cyfitter_cfg.c **** ********************************************************************************
 162:Generated_Source\PSoC4/cyfitter_cfg.c **** * Summary:
 163:Generated_Source\PSoC4/cyfitter_cfg.c **** *  This function is used for setting up the chip configuration areas that
 164:Generated_Source\PSoC4/cyfitter_cfg.c **** *  contain relatively sparse data.
 165:Generated_Source\PSoC4/cyfitter_cfg.c **** *
 166:Generated_Source\PSoC4/cyfitter_cfg.c **** * Parameters:
 167:Generated_Source\PSoC4/cyfitter_cfg.c **** *   void
 168:Generated_Source\PSoC4/cyfitter_cfg.c **** *
 169:Generated_Source\PSoC4/cyfitter_cfg.c **** * Return:
 170:Generated_Source\PSoC4/cyfitter_cfg.c **** *   void
 171:Generated_Source\PSoC4/cyfitter_cfg.c **** *
 172:Generated_Source\PSoC4/cyfitter_cfg.c **** *******************************************************************************/
 173:Generated_Source\PSoC4/cyfitter_cfg.c **** static void cfg_write_bytes32(const uint32 addr_table[], const cy_cfg_addrvalue_t data_table[]);
 174:Generated_Source\PSoC4/cyfitter_cfg.c **** static void cfg_write_bytes32(const uint32 addr_table[], const cy_cfg_addrvalue_t data_table[])
 175:Generated_Source\PSoC4/cyfitter_cfg.c **** {
  27              		.loc 1 175 0
  28              		.cfi_startproc
  29              		@ args = 0, pretend = 0, frame = 0
  30              		@ frame_needed = 0, uses_anonymous_args = 0
  31              	.LVL0:
  32 0000 F0B5     		push	{r4, r5, r6, r7, lr}
  33              		.cfi_def_cfa_offset 20
  34              		.cfi_offset 4, -20
  35              		.cfi_offset 5, -16
  36              		.cfi_offset 6, -12
  37              		.cfi_offset 7, -8
  38              		.cfi_offset 14, -4
  39              	.LVL1:
 176:Generated_Source\PSoC4/cyfitter_cfg.c **** 	/* For 32-bit little-endian architectures */
 177:Generated_Source\PSoC4/cyfitter_cfg.c **** 	uint32 i, j = 0u;
  40              		.loc 1 177 0
  41 0002 0025     		movs	r5, #0
 178:Generated_Source\PSoC4/cyfitter_cfg.c **** 	for (i = 0u; i < CY_CFG_BASE_ADDR_COUNT; i++)
  42              		.loc 1 178 0
  43 0004 0027     		movs	r7, #0
  44 0006 11E0     		b	.L2
  45              	.LVL2:
  46              	.L5:
  47              	.LBB2:
 179:Generated_Source\PSoC4/cyfitter_cfg.c **** 	{
 180:Generated_Source\PSoC4/cyfitter_cfg.c **** 		uint32 baseAddr = addr_table[i];
  48              		.loc 1 180 0
ARM GAS  C:\Users\austc\AppData\Local\Temp\ccKSAcZi.s 			page 5


  49 0008 BB00     		lsls	r3, r7, #2
  50 000a C658     		ldr	r6, [r0, r3]
  51              	.LVL3:
 181:Generated_Source\PSoC4/cyfitter_cfg.c **** 		uint8 count = (uint8)baseAddr;
  52              		.loc 1 181 0
  53 000c F3B2     		uxtb	r3, r6
  54              	.LVL4:
 182:Generated_Source\PSoC4/cyfitter_cfg.c **** 		baseAddr &= 0xFFFFFF00u;
  55              		.loc 1 182 0
  56 000e FF22     		movs	r2, #255
  57 0010 9643     		bics	r6, r2
  58              	.LVL5:
 183:Generated_Source\PSoC4/cyfitter_cfg.c **** 		while (count != 0u)
  59              		.loc 1 183 0
  60 0012 08E0     		b	.L3
  61              	.L4:
 184:Generated_Source\PSoC4/cyfitter_cfg.c **** 		{
 185:Generated_Source\PSoC4/cyfitter_cfg.c **** 			CY_SET_REG8((void *)(baseAddr + data_table[j].offset), data_table[j].value);
  62              		.loc 1 185 0
  63 0014 6A00     		lsls	r2, r5, #1
  64 0016 8A18     		adds	r2, r1, r2
  65 0018 1478     		ldrb	r4, [r2]
  66 001a A419     		adds	r4, r4, r6
  67 001c 5278     		ldrb	r2, [r2, #1]
  68 001e 2270     		strb	r2, [r4]
 186:Generated_Source\PSoC4/cyfitter_cfg.c **** 			j++;
  69              		.loc 1 186 0
  70 0020 0135     		adds	r5, r5, #1
  71              	.LVL6:
 187:Generated_Source\PSoC4/cyfitter_cfg.c **** 			count--;
  72              		.loc 1 187 0
  73 0022 013B     		subs	r3, r3, #1
  74              	.LVL7:
  75 0024 DBB2     		uxtb	r3, r3
  76              	.LVL8:
  77              	.L3:
 183:Generated_Source\PSoC4/cyfitter_cfg.c **** 		{
  78              		.loc 1 183 0
  79 0026 002B     		cmp	r3, #0
  80 0028 F4D1     		bne	.L4
  81              	.LBE2:
 178:Generated_Source\PSoC4/cyfitter_cfg.c **** 	{
  82              		.loc 1 178 0 discriminator 2
  83 002a 0137     		adds	r7, r7, #1
  84              	.LVL9:
  85              	.L2:
 178:Generated_Source\PSoC4/cyfitter_cfg.c **** 	{
  86              		.loc 1 178 0 is_stmt 0 discriminator 1
  87 002c 0F2F     		cmp	r7, #15
  88 002e EBD9     		bls	.L5
 188:Generated_Source\PSoC4/cyfitter_cfg.c **** 		}
 189:Generated_Source\PSoC4/cyfitter_cfg.c **** 	}
 190:Generated_Source\PSoC4/cyfitter_cfg.c **** }
  89              		.loc 1 190 0 is_stmt 1
  90              		@ sp needed
  91              	.LVL10:
  92              	.LVL11:
ARM GAS  C:\Users\austc\AppData\Local\Temp\ccKSAcZi.s 			page 6


  93 0030 F0BD     		pop	{r4, r5, r6, r7, pc}
  94              		.cfi_endproc
  95              	.LFE37:
  96              		.size	cfg_write_bytes32, .-cfg_write_bytes32
  97 0032 C046     		.section	.text.AnalogSetDefault,"ax",%progbits
  98              		.align	2
  99              		.code	16
 100              		.thumb_func
 101              		.type	AnalogSetDefault, %function
 102              	AnalogSetDefault:
 103              	.LFB39:
 191:Generated_Source\PSoC4/cyfitter_cfg.c **** 
 192:Generated_Source\PSoC4/cyfitter_cfg.c **** 
 193:Generated_Source\PSoC4/cyfitter_cfg.c **** /*******************************************************************************
 194:Generated_Source\PSoC4/cyfitter_cfg.c **** * Function Name: ClockSetup
 195:Generated_Source\PSoC4/cyfitter_cfg.c **** ********************************************************************************
 196:Generated_Source\PSoC4/cyfitter_cfg.c **** *
 197:Generated_Source\PSoC4/cyfitter_cfg.c **** * Summary:
 198:Generated_Source\PSoC4/cyfitter_cfg.c **** *   Performs the initialization of all of the clocks in the device based on the
 199:Generated_Source\PSoC4/cyfitter_cfg.c **** *   settings in the Clock tab of the DWR.  This includes enabling the requested
 200:Generated_Source\PSoC4/cyfitter_cfg.c **** *   clocks and setting the necessary dividers to produce the desired frequency. 
 201:Generated_Source\PSoC4/cyfitter_cfg.c **** *
 202:Generated_Source\PSoC4/cyfitter_cfg.c **** * Parameters:
 203:Generated_Source\PSoC4/cyfitter_cfg.c **** *   void
 204:Generated_Source\PSoC4/cyfitter_cfg.c **** *
 205:Generated_Source\PSoC4/cyfitter_cfg.c **** * Return:
 206:Generated_Source\PSoC4/cyfitter_cfg.c **** *   void
 207:Generated_Source\PSoC4/cyfitter_cfg.c **** *
 208:Generated_Source\PSoC4/cyfitter_cfg.c **** *******************************************************************************/
 209:Generated_Source\PSoC4/cyfitter_cfg.c **** static void ClockSetup(void);
 210:Generated_Source\PSoC4/cyfitter_cfg.c **** CY_CFG_SECTION
 211:Generated_Source\PSoC4/cyfitter_cfg.c **** static void ClockSetup(void)
 212:Generated_Source\PSoC4/cyfitter_cfg.c **** {
 213:Generated_Source\PSoC4/cyfitter_cfg.c **** 
 214:Generated_Source\PSoC4/cyfitter_cfg.c **** 	/* Set Flash Cycles based on max possible frequency in case a glitch occurs during ClockSetup(). *
 215:Generated_Source\PSoC4/cyfitter_cfg.c **** 	CY_SET_REG32((void CYXDATA *)(CYREG_CPUSS_FLASH_CTL), (0x0012u));
 216:Generated_Source\PSoC4/cyfitter_cfg.c **** 	/* Setup and trim IMO based on desired frequency. */
 217:Generated_Source\PSoC4/cyfitter_cfg.c **** 	CySysClkWriteImoFreq(48u);
 218:Generated_Source\PSoC4/cyfitter_cfg.c **** 	/* CYDEV_WDT_CONFIG Starting address: CYDEV_WDT_CONFIG */
 219:Generated_Source\PSoC4/cyfitter_cfg.c **** 	CY_SET_REG32((void *)(CYREG_WDT_CONFIG), 0x40000000u);
 220:Generated_Source\PSoC4/cyfitter_cfg.c **** 
 221:Generated_Source\PSoC4/cyfitter_cfg.c **** 
 222:Generated_Source\PSoC4/cyfitter_cfg.c **** 	/* Setup phase aligned clocks */
 223:Generated_Source\PSoC4/cyfitter_cfg.c **** 	CY_SET_REG32((void *)CYREG_PERI_DIV_16_CTL0, 0x00000000u);
 224:Generated_Source\PSoC4/cyfitter_cfg.c **** 	CY_SET_REG32((void *)CYREG_PERI_DIV_CMD, 0x8000FF40u);
 225:Generated_Source\PSoC4/cyfitter_cfg.c **** 	CY_SET_REG32((void *)CYREG_PERI_DIV_16_CTL2, 0x00000100u);
 226:Generated_Source\PSoC4/cyfitter_cfg.c **** 	CY_SET_REG32((void *)CYREG_PERI_DIV_CMD, 0x8000FF42u);
 227:Generated_Source\PSoC4/cyfitter_cfg.c **** 	CY_SET_REG32((void *)CYREG_PERI_DIV_24_5_CTL, 0x061A7F00u);
 228:Generated_Source\PSoC4/cyfitter_cfg.c **** 	CY_SET_REG32((void *)CYREG_PERI_DIV_CMD, 0x8000FFC0u);
 229:Generated_Source\PSoC4/cyfitter_cfg.c **** 	CY_SET_REG32((void *)CYREG_PERI_DIV_16_CTL1, 0x00000100u);
 230:Generated_Source\PSoC4/cyfitter_cfg.c **** 	CY_SET_REG32((void *)CYREG_PERI_DIV_CMD, 0x8000FF41u);
 231:Generated_Source\PSoC4/cyfitter_cfg.c **** 	CY_SET_REG32((void *)CYREG_PERI_DIV_16_CTL3, 0x00000300u);
 232:Generated_Source\PSoC4/cyfitter_cfg.c **** 	CY_SET_REG32((void *)CYREG_PERI_DIV_CMD, 0x8000FF43u);
 233:Generated_Source\PSoC4/cyfitter_cfg.c **** 	CY_SET_REG32((void *)CYREG_PERI_DIV_16_CTL5, 0x00001C00u);
 234:Generated_Source\PSoC4/cyfitter_cfg.c **** 	CY_SET_REG32((void *)CYREG_PERI_DIV_CMD, 0x8000FF45u);
 235:Generated_Source\PSoC4/cyfitter_cfg.c **** 	CY_SET_REG32((void *)CYREG_PERI_DIV_16_CTL4, 0x00001800u);
 236:Generated_Source\PSoC4/cyfitter_cfg.c **** 	CY_SET_REG32((void *)CYREG_PERI_DIV_CMD, 0x8000FF44u);
ARM GAS  C:\Users\austc\AppData\Local\Temp\ccKSAcZi.s 			page 7


 237:Generated_Source\PSoC4/cyfitter_cfg.c **** 
 238:Generated_Source\PSoC4/cyfitter_cfg.c **** 	/* CYDEV_CLK_IMO_CONFIG Starting address: CYDEV_CLK_IMO_CONFIG */
 239:Generated_Source\PSoC4/cyfitter_cfg.c **** 	CY_SET_REG32((void *)(CYREG_CLK_IMO_CONFIG), 0x80000000u);
 240:Generated_Source\PSoC4/cyfitter_cfg.c **** 
 241:Generated_Source\PSoC4/cyfitter_cfg.c **** 	/* CYDEV_CLK_SELECT Starting address: CYDEV_CLK_SELECT */
 242:Generated_Source\PSoC4/cyfitter_cfg.c **** 	CY_SET_REG32((void *)(CYREG_CLK_SELECT), 0x00060249u);
 243:Generated_Source\PSoC4/cyfitter_cfg.c **** 
 244:Generated_Source\PSoC4/cyfitter_cfg.c **** 	/* CYDEV_PERI_PCLK_CTL22 Starting address: CYDEV_PERI_PCLK_CTL22 */
 245:Generated_Source\PSoC4/cyfitter_cfg.c **** 	CY_SET_REG32((void *)(CYREG_PERI_PCLK_CTL22), 0x00000042u);
 246:Generated_Source\PSoC4/cyfitter_cfg.c **** 
 247:Generated_Source\PSoC4/cyfitter_cfg.c **** 	/* CYDEV_PERI_PCLK_CTL21 Starting address: CYDEV_PERI_PCLK_CTL21 */
 248:Generated_Source\PSoC4/cyfitter_cfg.c **** 	CY_SET_REG32((void *)(CYREG_PERI_PCLK_CTL21), 0x000000C0u);
 249:Generated_Source\PSoC4/cyfitter_cfg.c **** 
 250:Generated_Source\PSoC4/cyfitter_cfg.c **** 	/* CYDEV_PERI_PCLK_CTL20 Starting address: CYDEV_PERI_PCLK_CTL20 */
 251:Generated_Source\PSoC4/cyfitter_cfg.c **** 	CY_SET_REG32((void *)(CYREG_PERI_PCLK_CTL20), 0x00000041u);
 252:Generated_Source\PSoC4/cyfitter_cfg.c **** 
 253:Generated_Source\PSoC4/cyfitter_cfg.c **** 	/* CYDEV_PERI_PCLK_CTL11 Starting address: CYDEV_PERI_PCLK_CTL11 */
 254:Generated_Source\PSoC4/cyfitter_cfg.c **** 	CY_SET_REG32((void *)(CYREG_PERI_PCLK_CTL11), 0x00000043u);
 255:Generated_Source\PSoC4/cyfitter_cfg.c **** 
 256:Generated_Source\PSoC4/cyfitter_cfg.c **** 	/* CYDEV_PERI_PCLK_CTL3 Starting address: CYDEV_PERI_PCLK_CTL3 */
 257:Generated_Source\PSoC4/cyfitter_cfg.c **** 	CY_SET_REG32((void *)(CYREG_PERI_PCLK_CTL3), 0x00000045u);
 258:Generated_Source\PSoC4/cyfitter_cfg.c **** 
 259:Generated_Source\PSoC4/cyfitter_cfg.c **** 	/* CYDEV_PERI_PCLK_CTL2 Starting address: CYDEV_PERI_PCLK_CTL2 */
 260:Generated_Source\PSoC4/cyfitter_cfg.c **** 	CY_SET_REG32((void *)(CYREG_PERI_PCLK_CTL2), 0x00000044u);
 261:Generated_Source\PSoC4/cyfitter_cfg.c **** 
 262:Generated_Source\PSoC4/cyfitter_cfg.c **** 	(void)CyIntSetVector(8u, &CySysWdtIsr);
 263:Generated_Source\PSoC4/cyfitter_cfg.c **** 	CyIntEnable(8u);
 264:Generated_Source\PSoC4/cyfitter_cfg.c **** 	CY_SET_REG32((void *)(CYREG_WDT_CONFIG), 0x40000000u);
 265:Generated_Source\PSoC4/cyfitter_cfg.c **** }
 266:Generated_Source\PSoC4/cyfitter_cfg.c **** 
 267:Generated_Source\PSoC4/cyfitter_cfg.c **** 
 268:Generated_Source\PSoC4/cyfitter_cfg.c **** /* Analog API Functions */
 269:Generated_Source\PSoC4/cyfitter_cfg.c **** 
 270:Generated_Source\PSoC4/cyfitter_cfg.c **** 
 271:Generated_Source\PSoC4/cyfitter_cfg.c **** /*******************************************************************************
 272:Generated_Source\PSoC4/cyfitter_cfg.c **** * Function Name: AnalogSetDefault
 273:Generated_Source\PSoC4/cyfitter_cfg.c **** ********************************************************************************
 274:Generated_Source\PSoC4/cyfitter_cfg.c **** *
 275:Generated_Source\PSoC4/cyfitter_cfg.c **** * Summary:
 276:Generated_Source\PSoC4/cyfitter_cfg.c **** *  Sets up the analog portions of the chip to default values based on chip
 277:Generated_Source\PSoC4/cyfitter_cfg.c **** *  configuration options from the project.
 278:Generated_Source\PSoC4/cyfitter_cfg.c **** *
 279:Generated_Source\PSoC4/cyfitter_cfg.c **** * Parameters:
 280:Generated_Source\PSoC4/cyfitter_cfg.c **** *  void
 281:Generated_Source\PSoC4/cyfitter_cfg.c **** *
 282:Generated_Source\PSoC4/cyfitter_cfg.c **** * Return:
 283:Generated_Source\PSoC4/cyfitter_cfg.c **** *  void
 284:Generated_Source\PSoC4/cyfitter_cfg.c **** *
 285:Generated_Source\PSoC4/cyfitter_cfg.c **** *******************************************************************************/
 286:Generated_Source\PSoC4/cyfitter_cfg.c **** static void AnalogSetDefault(void);
 287:Generated_Source\PSoC4/cyfitter_cfg.c **** static void AnalogSetDefault(void)
 288:Generated_Source\PSoC4/cyfitter_cfg.c **** {
 104              		.loc 1 288 0
 105              		.cfi_startproc
 106              		@ args = 0, pretend = 0, frame = 0
 107              		@ frame_needed = 0, uses_anonymous_args = 0
 108              		@ link register save eliminated.
ARM GAS  C:\Users\austc\AppData\Local\Temp\ccKSAcZi.s 			page 8


 289:Generated_Source\PSoC4/cyfitter_cfg.c **** 	CY_SET_XTND_REG32((void CYFAR *)CYREG_CTBM0_DFT_CTRL, 0x00000003u);
 109              		.loc 1 289 0
 110 0000 0323     		movs	r3, #3
 111 0002 044A     		ldr	r2, .L7
 112 0004 1360     		str	r3, [r2]
 290:Generated_Source\PSoC4/cyfitter_cfg.c **** 	CY_SET_XTND_REG32((void CYFAR *)CYREG_CTBM1_DFT_CTRL, 0x00000003u);
 113              		.loc 1 290 0
 114 0006 044A     		ldr	r2, .L7+4
 115 0008 1360     		str	r3, [r2]
 291:Generated_Source\PSoC4/cyfitter_cfg.c **** 	CY_SET_XTND_REG32((void CYFAR *)CYREG_PASS_DSAB_DSAB_CTRL, 0x00000000u);
 116              		.loc 1 291 0
 117 000a 0022     		movs	r2, #0
 118 000c 034B     		ldr	r3, .L7+8
 119 000e 1A60     		str	r2, [r3]
 292:Generated_Source\PSoC4/cyfitter_cfg.c **** }
 120              		.loc 1 292 0
 121              		@ sp needed
 122 0010 7047     		bx	lr
 123              	.L8:
 124 0012 C046     		.align	2
 125              	.L7:
 126 0014 30003040 		.word	1076887600
 127 0018 30003140 		.word	1076953136
 128 001c 000E3F40 		.word	1077874176
 129              		.cfi_endproc
 130              	.LFE39:
 131              		.size	AnalogSetDefault, .-AnalogSetDefault
 132              		.section	.text.CYMEMZERO,"ax",%progbits
 133              		.align	2
 134              		.code	16
 135              		.thumb_func
 136              		.type	CYMEMZERO, %function
 137              	CYMEMZERO:
 138              	.LFB34:
  77:Generated_Source\PSoC4/cyfitter_cfg.c **** 	(void)memset(s, 0, n);
 139              		.loc 1 77 0
 140              		.cfi_startproc
 141              		@ args = 0, pretend = 0, frame = 0
 142              		@ frame_needed = 0, uses_anonymous_args = 0
 143              	.LVL12:
 144 0000 10B5     		push	{r4, lr}
 145              		.cfi_def_cfa_offset 8
 146              		.cfi_offset 4, -8
 147              		.cfi_offset 14, -4
 148 0002 0A00     		movs	r2, r1
  78:Generated_Source\PSoC4/cyfitter_cfg.c **** }
 149              		.loc 1 78 0
 150 0004 0021     		movs	r1, #0
 151              	.LVL13:
 152 0006 FFF7FEFF 		bl	memset
 153              	.LVL14:
  79:Generated_Source\PSoC4/cyfitter_cfg.c **** CY_CFG_UNUSED
 154              		.loc 1 79 0
 155              		@ sp needed
 156 000a 10BD     		pop	{r4, pc}
 157              		.cfi_endproc
 158              	.LFE34:
ARM GAS  C:\Users\austc\AppData\Local\Temp\ccKSAcZi.s 			page 9


 159              		.size	CYMEMZERO, .-CYMEMZERO
 160              		.section	.psocinit,"ax",%progbits
 161              		.align	2
 162              		.code	16
 163              		.thumb_func
 164              		.type	ClockSetup, %function
 165              	ClockSetup:
 166              	.LFB38:
 212:Generated_Source\PSoC4/cyfitter_cfg.c **** 
 167              		.loc 1 212 0
 168              		.cfi_startproc
 169              		@ args = 0, pretend = 0, frame = 0
 170              		@ frame_needed = 0, uses_anonymous_args = 0
 171 0000 70B5     		push	{r4, r5, r6, lr}
 172              		.cfi_def_cfa_offset 16
 173              		.cfi_offset 4, -16
 174              		.cfi_offset 5, -12
 175              		.cfi_offset 6, -8
 176              		.cfi_offset 14, -4
 215:Generated_Source\PSoC4/cyfitter_cfg.c **** 	/* Setup and trim IMO based on desired frequency. */
 177              		.loc 1 215 0
 178 0002 1222     		movs	r2, #18
 179 0004 284B     		ldr	r3, .L11
 180 0006 1A60     		str	r2, [r3]
 217:Generated_Source\PSoC4/cyfitter_cfg.c **** 	/* CYDEV_WDT_CONFIG Starting address: CYDEV_WDT_CONFIG */
 181              		.loc 1 217 0
 182 0008 3020     		movs	r0, #48
 183 000a FFF7FEFF 		bl	CySysClkWriteImoFreq
 184              	.LVL15:
 219:Generated_Source\PSoC4/cyfitter_cfg.c **** 
 185              		.loc 1 219 0
 186 000e 274C     		ldr	r4, .L11+4
 187 0010 8025     		movs	r5, #128
 188 0012 ED05     		lsls	r5, r5, #23
 189 0014 2560     		str	r5, [r4]
 223:Generated_Source\PSoC4/cyfitter_cfg.c **** 	CY_SET_REG32((void *)CYREG_PERI_DIV_CMD, 0x8000FF40u);
 190              		.loc 1 223 0
 191 0016 0022     		movs	r2, #0
 192 0018 254B     		ldr	r3, .L11+8
 193 001a 1A60     		str	r2, [r3]
 224:Generated_Source\PSoC4/cyfitter_cfg.c **** 	CY_SET_REG32((void *)CYREG_PERI_DIV_16_CTL2, 0x00000100u);
 194              		.loc 1 224 0
 195 001c 254B     		ldr	r3, .L11+12
 196 001e 264A     		ldr	r2, .L11+16
 197 0020 1A60     		str	r2, [r3]
 225:Generated_Source\PSoC4/cyfitter_cfg.c **** 	CY_SET_REG32((void *)CYREG_PERI_DIV_CMD, 0x8000FF42u);
 198              		.loc 1 225 0
 199 0022 8022     		movs	r2, #128
 200 0024 5200     		lsls	r2, r2, #1
 201 0026 2549     		ldr	r1, .L11+20
 202 0028 0A60     		str	r2, [r1]
 226:Generated_Source\PSoC4/cyfitter_cfg.c **** 	CY_SET_REG32((void *)CYREG_PERI_DIV_24_5_CTL, 0x061A7F00u);
 203              		.loc 1 226 0
 204 002a 2549     		ldr	r1, .L11+24
 205 002c 1960     		str	r1, [r3]
 227:Generated_Source\PSoC4/cyfitter_cfg.c **** 	CY_SET_REG32((void *)CYREG_PERI_DIV_CMD, 0x8000FFC0u);
 206              		.loc 1 227 0
ARM GAS  C:\Users\austc\AppData\Local\Temp\ccKSAcZi.s 			page 10


 207 002e 2548     		ldr	r0, .L11+28
 208 0030 2549     		ldr	r1, .L11+32
 209 0032 0860     		str	r0, [r1]
 228:Generated_Source\PSoC4/cyfitter_cfg.c **** 	CY_SET_REG32((void *)CYREG_PERI_DIV_16_CTL1, 0x00000100u);
 210              		.loc 1 228 0
 211 0034 2549     		ldr	r1, .L11+36
 212 0036 1960     		str	r1, [r3]
 229:Generated_Source\PSoC4/cyfitter_cfg.c **** 	CY_SET_REG32((void *)CYREG_PERI_DIV_CMD, 0x8000FF41u);
 213              		.loc 1 229 0
 214 0038 2549     		ldr	r1, .L11+40
 215 003a 0A60     		str	r2, [r1]
 230:Generated_Source\PSoC4/cyfitter_cfg.c **** 	CY_SET_REG32((void *)CYREG_PERI_DIV_16_CTL3, 0x00000300u);
 216              		.loc 1 230 0
 217 003c 254A     		ldr	r2, .L11+44
 218 003e 1A60     		str	r2, [r3]
 231:Generated_Source\PSoC4/cyfitter_cfg.c **** 	CY_SET_REG32((void *)CYREG_PERI_DIV_CMD, 0x8000FF43u);
 219              		.loc 1 231 0
 220 0040 C021     		movs	r1, #192
 221 0042 8900     		lsls	r1, r1, #2
 222 0044 244A     		ldr	r2, .L11+48
 223 0046 1160     		str	r1, [r2]
 232:Generated_Source\PSoC4/cyfitter_cfg.c **** 	CY_SET_REG32((void *)CYREG_PERI_DIV_16_CTL5, 0x00001C00u);
 224              		.loc 1 232 0
 225 0048 244A     		ldr	r2, .L11+52
 226 004a 1A60     		str	r2, [r3]
 233:Generated_Source\PSoC4/cyfitter_cfg.c **** 	CY_SET_REG32((void *)CYREG_PERI_DIV_CMD, 0x8000FF45u);
 227              		.loc 1 233 0
 228 004c E021     		movs	r1, #224
 229 004e 4901     		lsls	r1, r1, #5
 230 0050 234A     		ldr	r2, .L11+56
 231 0052 1160     		str	r1, [r2]
 234:Generated_Source\PSoC4/cyfitter_cfg.c **** 	CY_SET_REG32((void *)CYREG_PERI_DIV_16_CTL4, 0x00001800u);
 232              		.loc 1 234 0
 233 0054 234A     		ldr	r2, .L11+60
 234 0056 1A60     		str	r2, [r3]
 235:Generated_Source\PSoC4/cyfitter_cfg.c **** 	CY_SET_REG32((void *)CYREG_PERI_DIV_CMD, 0x8000FF44u);
 235              		.loc 1 235 0
 236 0058 C021     		movs	r1, #192
 237 005a 4901     		lsls	r1, r1, #5
 238 005c 224A     		ldr	r2, .L11+64
 239 005e 1160     		str	r1, [r2]
 236:Generated_Source\PSoC4/cyfitter_cfg.c **** 
 240              		.loc 1 236 0
 241 0060 224A     		ldr	r2, .L11+68
 242 0062 1A60     		str	r2, [r3]
 239:Generated_Source\PSoC4/cyfitter_cfg.c **** 
 243              		.loc 1 239 0
 244 0064 8022     		movs	r2, #128
 245 0066 1206     		lsls	r2, r2, #24
 246 0068 214B     		ldr	r3, .L11+72
 247 006a 1A60     		str	r2, [r3]
 242:Generated_Source\PSoC4/cyfitter_cfg.c **** 
 248              		.loc 1 242 0
 249 006c 214A     		ldr	r2, .L11+76
 250 006e 224B     		ldr	r3, .L11+80
 251 0070 1A60     		str	r2, [r3]
 245:Generated_Source\PSoC4/cyfitter_cfg.c **** 
ARM GAS  C:\Users\austc\AppData\Local\Temp\ccKSAcZi.s 			page 11


 252              		.loc 1 245 0
 253 0072 4222     		movs	r2, #66
 254 0074 214B     		ldr	r3, .L11+84
 255 0076 1A60     		str	r2, [r3]
 248:Generated_Source\PSoC4/cyfitter_cfg.c **** 
 256              		.loc 1 248 0
 257 0078 7E32     		adds	r2, r2, #126
 258 007a 214B     		ldr	r3, .L11+88
 259 007c 1A60     		str	r2, [r3]
 251:Generated_Source\PSoC4/cyfitter_cfg.c **** 
 260              		.loc 1 251 0
 261 007e 7F3A     		subs	r2, r2, #127
 262 0080 204B     		ldr	r3, .L11+92
 263 0082 1A60     		str	r2, [r3]
 254:Generated_Source\PSoC4/cyfitter_cfg.c **** 
 264              		.loc 1 254 0
 265 0084 0232     		adds	r2, r2, #2
 266 0086 204B     		ldr	r3, .L11+96
 267 0088 1A60     		str	r2, [r3]
 257:Generated_Source\PSoC4/cyfitter_cfg.c **** 
 268              		.loc 1 257 0
 269 008a 0232     		adds	r2, r2, #2
 270 008c 1F4B     		ldr	r3, .L11+100
 271 008e 1A60     		str	r2, [r3]
 260:Generated_Source\PSoC4/cyfitter_cfg.c **** 
 272              		.loc 1 260 0
 273 0090 013A     		subs	r2, r2, #1
 274 0092 1F4B     		ldr	r3, .L11+104
 275 0094 1A60     		str	r2, [r3]
 262:Generated_Source\PSoC4/cyfitter_cfg.c **** 	CyIntEnable(8u);
 276              		.loc 1 262 0
 277 0096 1F49     		ldr	r1, .L11+108
 278 0098 0820     		movs	r0, #8
 279 009a FFF7FEFF 		bl	CyIntSetVector
 280              	.LVL16:
 263:Generated_Source\PSoC4/cyfitter_cfg.c **** 	CY_SET_REG32((void *)(CYREG_WDT_CONFIG), 0x40000000u);
 281              		.loc 1 263 0
 282 009e 0820     		movs	r0, #8
 283 00a0 FFF7FEFF 		bl	CyIntEnable
 284              	.LVL17:
 264:Generated_Source\PSoC4/cyfitter_cfg.c **** }
 285              		.loc 1 264 0
 286 00a4 2560     		str	r5, [r4]
 265:Generated_Source\PSoC4/cyfitter_cfg.c **** 
 287              		.loc 1 265 0
 288              		@ sp needed
 289 00a6 70BD     		pop	{r4, r5, r6, pc}
 290              	.L12:
 291              		.align	2
 292              	.L11:
 293 00a8 30001040 		.word	1074790448
 294 00ac 0C020B40 		.word	1074463244
 295 00b0 00030140 		.word	1073808128
 296 00b4 00000140 		.word	1073807360
 297 00b8 40FF0080 		.word	-2147418304
 298 00bc 08030140 		.word	1073808136
 299 00c0 42FF0080 		.word	-2147418302
ARM GAS  C:\Users\austc\AppData\Local\Temp\ccKSAcZi.s 			page 12


 300 00c4 007F1A06 		.word	102399744
 301 00c8 00050140 		.word	1073808640
 302 00cc C0FF0080 		.word	-2147418176
 303 00d0 04030140 		.word	1073808132
 304 00d4 41FF0080 		.word	-2147418303
 305 00d8 0C030140 		.word	1073808140
 306 00dc 43FF0080 		.word	-2147418301
 307 00e0 14030140 		.word	1073808148
 308 00e4 45FF0080 		.word	-2147418299
 309 00e8 10030140 		.word	1073808144
 310 00ec 44FF0080 		.word	-2147418300
 311 00f0 08010B40 		.word	1074462984
 312 00f4 49020600 		.word	393801
 313 00f8 00010B40 		.word	1074462976
 314 00fc 58010140 		.word	1073807704
 315 0100 54010140 		.word	1073807700
 316 0104 50010140 		.word	1073807696
 317 0108 2C010140 		.word	1073807660
 318 010c 0C010140 		.word	1073807628
 319 0110 08010140 		.word	1073807624
 320 0114 00000000 		.word	CySysWdtIsr
 321              		.cfi_endproc
 322              	.LFE38:
 323              		.size	ClockSetup, .-ClockSetup
 324              		.align	2
 325              		.global	cyfitter_cfg
 326              		.code	16
 327              		.thumb_func
 328              		.type	cyfitter_cfg, %function
 329              	cyfitter_cfg:
 330              	.LFB40:
 293:Generated_Source\PSoC4/cyfitter_cfg.c **** 
 294:Generated_Source\PSoC4/cyfitter_cfg.c **** 
 295:Generated_Source\PSoC4/cyfitter_cfg.c **** 
 296:Generated_Source\PSoC4/cyfitter_cfg.c **** 
 297:Generated_Source\PSoC4/cyfitter_cfg.c **** /*******************************************************************************
 298:Generated_Source\PSoC4/cyfitter_cfg.c **** * Function Name: cyfitter_cfg
 299:Generated_Source\PSoC4/cyfitter_cfg.c **** ********************************************************************************
 300:Generated_Source\PSoC4/cyfitter_cfg.c **** * Summary:
 301:Generated_Source\PSoC4/cyfitter_cfg.c **** *  This function is called by the start-up code for the selected device. It
 302:Generated_Source\PSoC4/cyfitter_cfg.c **** *  performs all of the necessary device configuration based on the design
 303:Generated_Source\PSoC4/cyfitter_cfg.c **** *  settings.  This includes settings from the Design Wide Resources (DWR) such
 304:Generated_Source\PSoC4/cyfitter_cfg.c **** *  as Clocks and Pins as well as any component configuration that is necessary.
 305:Generated_Source\PSoC4/cyfitter_cfg.c **** *
 306:Generated_Source\PSoC4/cyfitter_cfg.c **** * Parameters:
 307:Generated_Source\PSoC4/cyfitter_cfg.c **** *   void
 308:Generated_Source\PSoC4/cyfitter_cfg.c **** *
 309:Generated_Source\PSoC4/cyfitter_cfg.c **** * Return:
 310:Generated_Source\PSoC4/cyfitter_cfg.c **** *   void
 311:Generated_Source\PSoC4/cyfitter_cfg.c **** *
 312:Generated_Source\PSoC4/cyfitter_cfg.c **** *******************************************************************************/
 313:Generated_Source\PSoC4/cyfitter_cfg.c **** CY_CFG_SECTION
 314:Generated_Source\PSoC4/cyfitter_cfg.c **** void cyfitter_cfg(void)
 315:Generated_Source\PSoC4/cyfitter_cfg.c **** {
 331              		.loc 1 315 0
 332              		.cfi_startproc
 333              		@ args = 0, pretend = 0, frame = 0
ARM GAS  C:\Users\austc\AppData\Local\Temp\ccKSAcZi.s 			page 13


 334              		@ frame_needed = 0, uses_anonymous_args = 0
 335 0118 10B5     		push	{r4, lr}
 336              		.cfi_def_cfa_offset 8
 337              		.cfi_offset 4, -8
 338              		.cfi_offset 14, -4
 316:Generated_Source\PSoC4/cyfitter_cfg.c **** 	/* Disable interrupts by default. Let user enable if/when they want. */
 317:Generated_Source\PSoC4/cyfitter_cfg.c **** 	CyGlobalIntDisable;
 339              		.loc 1 317 0
 340              		.syntax divided
 341              	@ 317 "Generated_Source\PSoC4\cyfitter_cfg.c" 1
 342 011a 72B6     		CPSID   i
 343              	@ 0 "" 2
 318:Generated_Source\PSoC4/cyfitter_cfg.c **** 
 319:Generated_Source\PSoC4/cyfitter_cfg.c **** 	/* Enable the clock in the interrupt controller for the routed interrupts */
 320:Generated_Source\PSoC4/cyfitter_cfg.c **** 	CY_SET_REG8((void *)CYREG_UDB_UDB_INT_CLK_CTL, 0x01u);
 344              		.loc 1 320 0
 345              		.thumb
 346              		.syntax unified
 347 011c 0122     		movs	r2, #1
 348 011e 3D4B     		ldr	r3, .L16
 349 0120 1A70     		strb	r2, [r3]
 350              	.LVL18:
 351              	.LBB3:
 321:Generated_Source\PSoC4/cyfitter_cfg.c **** 	{
 322:Generated_Source\PSoC4/cyfitter_cfg.c **** 		static const uint32 CYCODE cy_cfg_addr_table[] = {
 323:Generated_Source\PSoC4/cyfitter_cfg.c **** 			0x400F0004u, /* Base address: 0x400F0000 Count: 4 */
 324:Generated_Source\PSoC4/cyfitter_cfg.c **** 			0x400F303Bu, /* Base address: 0x400F3000 Count: 59 */
 325:Generated_Source\PSoC4/cyfitter_cfg.c **** 			0x400F312Au, /* Base address: 0x400F3100 Count: 42 */
 326:Generated_Source\PSoC4/cyfitter_cfg.c **** 			0x400F3254u, /* Base address: 0x400F3200 Count: 84 */
 327:Generated_Source\PSoC4/cyfitter_cfg.c **** 			0x400F333Eu, /* Base address: 0x400F3300 Count: 62 */
 328:Generated_Source\PSoC4/cyfitter_cfg.c **** 			0x400F3450u, /* Base address: 0x400F3400 Count: 80 */
 329:Generated_Source\PSoC4/cyfitter_cfg.c **** 			0x400F353Eu, /* Base address: 0x400F3500 Count: 62 */
 330:Generated_Source\PSoC4/cyfitter_cfg.c **** 			0x400F3639u, /* Base address: 0x400F3600 Count: 57 */
 331:Generated_Source\PSoC4/cyfitter_cfg.c **** 			0x400F3726u, /* Base address: 0x400F3700 Count: 38 */
 332:Generated_Source\PSoC4/cyfitter_cfg.c **** 			0x400F4003u, /* Base address: 0x400F4000 Count: 3 */
 333:Generated_Source\PSoC4/cyfitter_cfg.c **** 			0x400F4105u, /* Base address: 0x400F4100 Count: 5 */
 334:Generated_Source\PSoC4/cyfitter_cfg.c **** 			0x400F420Bu, /* Base address: 0x400F4200 Count: 11 */
 335:Generated_Source\PSoC4/cyfitter_cfg.c **** 			0x400F4305u, /* Base address: 0x400F4300 Count: 5 */
 336:Generated_Source\PSoC4/cyfitter_cfg.c **** 			0x400F4507u, /* Base address: 0x400F4500 Count: 7 */
 337:Generated_Source\PSoC4/cyfitter_cfg.c **** 			0x400F4604u, /* Base address: 0x400F4600 Count: 4 */
 338:Generated_Source\PSoC4/cyfitter_cfg.c **** 			0x400F6003u, /* Base address: 0x400F6000 Count: 3 */
 339:Generated_Source\PSoC4/cyfitter_cfg.c **** 		};
 340:Generated_Source\PSoC4/cyfitter_cfg.c **** 
 341:Generated_Source\PSoC4/cyfitter_cfg.c **** 		static const cy_cfg_addrvalue_t CYCODE cy_cfg_data_table[] = {
 342:Generated_Source\PSoC4/cyfitter_cfg.c **** 			{0x81u, 0x0Fu},
 343:Generated_Source\PSoC4/cyfitter_cfg.c **** 			{0x82u, 0x6Fu},
 344:Generated_Source\PSoC4/cyfitter_cfg.c **** 			{0x85u, 0x03u},
 345:Generated_Source\PSoC4/cyfitter_cfg.c **** 			{0x86u, 0x0Du},
 346:Generated_Source\PSoC4/cyfitter_cfg.c **** 			{0x01u, 0xFDu},
 347:Generated_Source\PSoC4/cyfitter_cfg.c **** 			{0x03u, 0x02u},
 348:Generated_Source\PSoC4/cyfitter_cfg.c **** 			{0x06u, 0x08u},
 349:Generated_Source\PSoC4/cyfitter_cfg.c **** 			{0x08u, 0x01u},
 350:Generated_Source\PSoC4/cyfitter_cfg.c **** 			{0x09u, 0xCFu},
 351:Generated_Source\PSoC4/cyfitter_cfg.c **** 			{0x0Au, 0x02u},
 352:Generated_Source\PSoC4/cyfitter_cfg.c **** 			{0x0Bu, 0x30u},
 353:Generated_Source\PSoC4/cyfitter_cfg.c **** 			{0x0Cu, 0x04u},
 354:Generated_Source\PSoC4/cyfitter_cfg.c **** 			{0x0Du, 0x94u},
ARM GAS  C:\Users\austc\AppData\Local\Temp\ccKSAcZi.s 			page 14


 355:Generated_Source\PSoC4/cyfitter_cfg.c **** 			{0x0Fu, 0x60u},
 356:Generated_Source\PSoC4/cyfitter_cfg.c **** 			{0x11u, 0x30u},
 357:Generated_Source\PSoC4/cyfitter_cfg.c **** 			{0x13u, 0xC9u},
 358:Generated_Source\PSoC4/cyfitter_cfg.c **** 			{0x15u, 0x73u},
 359:Generated_Source\PSoC4/cyfitter_cfg.c **** 			{0x16u, 0x04u},
 360:Generated_Source\PSoC4/cyfitter_cfg.c **** 			{0x1Au, 0x07u},
 361:Generated_Source\PSoC4/cyfitter_cfg.c **** 			{0x1Bu, 0x0Fu},
 362:Generated_Source\PSoC4/cyfitter_cfg.c **** 			{0x20u, 0x01u},
 363:Generated_Source\PSoC4/cyfitter_cfg.c **** 			{0x22u, 0x02u},
 364:Generated_Source\PSoC4/cyfitter_cfg.c **** 			{0x24u, 0x07u},
 365:Generated_Source\PSoC4/cyfitter_cfg.c **** 			{0x29u, 0x9Eu},
 366:Generated_Source\PSoC4/cyfitter_cfg.c **** 			{0x2Bu, 0x60u},
 367:Generated_Source\PSoC4/cyfitter_cfg.c **** 			{0x2Cu, 0x07u},
 368:Generated_Source\PSoC4/cyfitter_cfg.c **** 			{0x34u, 0x0Fu},
 369:Generated_Source\PSoC4/cyfitter_cfg.c **** 			{0x35u, 0xFFu},
 370:Generated_Source\PSoC4/cyfitter_cfg.c **** 			{0x3Fu, 0x10u},
 371:Generated_Source\PSoC4/cyfitter_cfg.c **** 			{0x58u, 0x04u},
 372:Generated_Source\PSoC4/cyfitter_cfg.c **** 			{0x59u, 0x04u},
 373:Generated_Source\PSoC4/cyfitter_cfg.c **** 			{0x5Cu, 0x01u},
 374:Generated_Source\PSoC4/cyfitter_cfg.c **** 			{0x5Fu, 0x01u},
 375:Generated_Source\PSoC4/cyfitter_cfg.c **** 			{0x86u, 0x10u},
 376:Generated_Source\PSoC4/cyfitter_cfg.c **** 			{0x8Au, 0x10u},
 377:Generated_Source\PSoC4/cyfitter_cfg.c **** 			{0x8Eu, 0x0Fu},
 378:Generated_Source\PSoC4/cyfitter_cfg.c **** 			{0x93u, 0x01u},
 379:Generated_Source\PSoC4/cyfitter_cfg.c **** 			{0x97u, 0x02u},
 380:Generated_Source\PSoC4/cyfitter_cfg.c **** 			{0x98u, 0x0Cu},
 381:Generated_Source\PSoC4/cyfitter_cfg.c **** 			{0x9Au, 0x02u},
 382:Generated_Source\PSoC4/cyfitter_cfg.c **** 			{0x9Cu, 0x08u},
 383:Generated_Source\PSoC4/cyfitter_cfg.c **** 			{0x9Du, 0x02u},
 384:Generated_Source\PSoC4/cyfitter_cfg.c **** 			{0x9Eu, 0x01u},
 385:Generated_Source\PSoC4/cyfitter_cfg.c **** 			{0xA0u, 0x10u},
 386:Generated_Source\PSoC4/cyfitter_cfg.c **** 			{0xA4u, 0x07u},
 387:Generated_Source\PSoC4/cyfitter_cfg.c **** 			{0xA5u, 0x02u},
 388:Generated_Source\PSoC4/cyfitter_cfg.c **** 			{0xA8u, 0x0Cu},
 389:Generated_Source\PSoC4/cyfitter_cfg.c **** 			{0xAAu, 0x01u},
 390:Generated_Source\PSoC4/cyfitter_cfg.c **** 			{0xACu, 0x0Bu},
 391:Generated_Source\PSoC4/cyfitter_cfg.c **** 			{0xAEu, 0x04u},
 392:Generated_Source\PSoC4/cyfitter_cfg.c **** 			{0xB0u, 0x10u},
 393:Generated_Source\PSoC4/cyfitter_cfg.c **** 			{0xB2u, 0x0Fu},
 394:Generated_Source\PSoC4/cyfitter_cfg.c **** 			{0xB3u, 0x02u},
 395:Generated_Source\PSoC4/cyfitter_cfg.c **** 			{0xB7u, 0x01u},
 396:Generated_Source\PSoC4/cyfitter_cfg.c **** 			{0xBEu, 0x01u},
 397:Generated_Source\PSoC4/cyfitter_cfg.c **** 			{0xBFu, 0x04u},
 398:Generated_Source\PSoC4/cyfitter_cfg.c **** 			{0xD4u, 0x0Fu},
 399:Generated_Source\PSoC4/cyfitter_cfg.c **** 			{0xD8u, 0x04u},
 400:Generated_Source\PSoC4/cyfitter_cfg.c **** 			{0xD9u, 0x04u},
 401:Generated_Source\PSoC4/cyfitter_cfg.c **** 			{0xDBu, 0x04u},
 402:Generated_Source\PSoC4/cyfitter_cfg.c **** 			{0xDCu, 0x11u},
 403:Generated_Source\PSoC4/cyfitter_cfg.c **** 			{0xDDu, 0x10u},
 404:Generated_Source\PSoC4/cyfitter_cfg.c **** 			{0xDFu, 0x01u},
 405:Generated_Source\PSoC4/cyfitter_cfg.c **** 			{0x00u, 0x04u},
 406:Generated_Source\PSoC4/cyfitter_cfg.c **** 			{0x03u, 0x09u},
 407:Generated_Source\PSoC4/cyfitter_cfg.c **** 			{0x05u, 0x14u},
 408:Generated_Source\PSoC4/cyfitter_cfg.c **** 			{0x07u, 0x01u},
 409:Generated_Source\PSoC4/cyfitter_cfg.c **** 			{0x0Au, 0x08u},
 410:Generated_Source\PSoC4/cyfitter_cfg.c **** 			{0x0Bu, 0x20u},
 411:Generated_Source\PSoC4/cyfitter_cfg.c **** 			{0x0Du, 0x40u},
ARM GAS  C:\Users\austc\AppData\Local\Temp\ccKSAcZi.s 			page 15


 412:Generated_Source\PSoC4/cyfitter_cfg.c **** 			{0x0Fu, 0x08u},
 413:Generated_Source\PSoC4/cyfitter_cfg.c **** 			{0x12u, 0x41u},
 414:Generated_Source\PSoC4/cyfitter_cfg.c **** 			{0x13u, 0x08u},
 415:Generated_Source\PSoC4/cyfitter_cfg.c **** 			{0x15u, 0x20u},
 416:Generated_Source\PSoC4/cyfitter_cfg.c **** 			{0x16u, 0x01u},
 417:Generated_Source\PSoC4/cyfitter_cfg.c **** 			{0x17u, 0x0Au},
 418:Generated_Source\PSoC4/cyfitter_cfg.c **** 			{0x19u, 0x10u},
 419:Generated_Source\PSoC4/cyfitter_cfg.c **** 			{0x1Au, 0x08u},
 420:Generated_Source\PSoC4/cyfitter_cfg.c **** 			{0x1Bu, 0x20u},
 421:Generated_Source\PSoC4/cyfitter_cfg.c **** 			{0x1Eu, 0x40u},
 422:Generated_Source\PSoC4/cyfitter_cfg.c **** 			{0x1Fu, 0x08u},
 423:Generated_Source\PSoC4/cyfitter_cfg.c **** 			{0x20u, 0x04u},
 424:Generated_Source\PSoC4/cyfitter_cfg.c **** 			{0x24u, 0x10u},
 425:Generated_Source\PSoC4/cyfitter_cfg.c **** 			{0x26u, 0x80u},
 426:Generated_Source\PSoC4/cyfitter_cfg.c **** 			{0x27u, 0x02u},
 427:Generated_Source\PSoC4/cyfitter_cfg.c **** 			{0x2Bu, 0x0Cu},
 428:Generated_Source\PSoC4/cyfitter_cfg.c **** 			{0x2Fu, 0x20u},
 429:Generated_Source\PSoC4/cyfitter_cfg.c **** 			{0x31u, 0x10u},
 430:Generated_Source\PSoC4/cyfitter_cfg.c **** 			{0x33u, 0x05u},
 431:Generated_Source\PSoC4/cyfitter_cfg.c **** 			{0x35u, 0x05u},
 432:Generated_Source\PSoC4/cyfitter_cfg.c **** 			{0x36u, 0x80u},
 433:Generated_Source\PSoC4/cyfitter_cfg.c **** 			{0x38u, 0x82u},
 434:Generated_Source\PSoC4/cyfitter_cfg.c **** 			{0x39u, 0xA0u},
 435:Generated_Source\PSoC4/cyfitter_cfg.c **** 			{0x3Au, 0x41u},
 436:Generated_Source\PSoC4/cyfitter_cfg.c **** 			{0x3Bu, 0x21u},
 437:Generated_Source\PSoC4/cyfitter_cfg.c **** 			{0x5Cu, 0x10u},
 438:Generated_Source\PSoC4/cyfitter_cfg.c **** 			{0x5Eu, 0x40u},
 439:Generated_Source\PSoC4/cyfitter_cfg.c **** 			{0x5Fu, 0x09u},
 440:Generated_Source\PSoC4/cyfitter_cfg.c **** 			{0xC0u, 0xE7u},
 441:Generated_Source\PSoC4/cyfitter_cfg.c **** 			{0xC2u, 0xC6u},
 442:Generated_Source\PSoC4/cyfitter_cfg.c **** 			{0xC4u, 0xFDu},
 443:Generated_Source\PSoC4/cyfitter_cfg.c **** 			{0xCAu, 0x44u},
 444:Generated_Source\PSoC4/cyfitter_cfg.c **** 			{0xCCu, 0xD7u},
 445:Generated_Source\PSoC4/cyfitter_cfg.c **** 			{0xCEu, 0x0Du},
 446:Generated_Source\PSoC4/cyfitter_cfg.c **** 			{0xD6u, 0xF0u},
 447:Generated_Source\PSoC4/cyfitter_cfg.c **** 			{0x02u, 0x04u},
 448:Generated_Source\PSoC4/cyfitter_cfg.c **** 			{0x05u, 0x06u},
 449:Generated_Source\PSoC4/cyfitter_cfg.c **** 			{0x09u, 0x03u},
 450:Generated_Source\PSoC4/cyfitter_cfg.c **** 			{0x0Cu, 0x04u},
 451:Generated_Source\PSoC4/cyfitter_cfg.c **** 			{0x1Bu, 0x08u},
 452:Generated_Source\PSoC4/cyfitter_cfg.c **** 			{0x1Cu, 0x03u},
 453:Generated_Source\PSoC4/cyfitter_cfg.c **** 			{0x20u, 0x03u},
 454:Generated_Source\PSoC4/cyfitter_cfg.c **** 			{0x24u, 0x01u},
 455:Generated_Source\PSoC4/cyfitter_cfg.c **** 			{0x29u, 0x06u},
 456:Generated_Source\PSoC4/cyfitter_cfg.c **** 			{0x2Du, 0x05u},
 457:Generated_Source\PSoC4/cyfitter_cfg.c **** 			{0x30u, 0x04u},
 458:Generated_Source\PSoC4/cyfitter_cfg.c **** 			{0x31u, 0x08u},
 459:Generated_Source\PSoC4/cyfitter_cfg.c **** 			{0x32u, 0x02u},
 460:Generated_Source\PSoC4/cyfitter_cfg.c **** 			{0x35u, 0x07u},
 461:Generated_Source\PSoC4/cyfitter_cfg.c **** 			{0x36u, 0x01u},
 462:Generated_Source\PSoC4/cyfitter_cfg.c **** 			{0x38u, 0x88u},
 463:Generated_Source\PSoC4/cyfitter_cfg.c **** 			{0x39u, 0x20u},
 464:Generated_Source\PSoC4/cyfitter_cfg.c **** 			{0x3Eu, 0x41u},
 465:Generated_Source\PSoC4/cyfitter_cfg.c **** 			{0x40u, 0x51u},
 466:Generated_Source\PSoC4/cyfitter_cfg.c **** 			{0x41u, 0x06u},
 467:Generated_Source\PSoC4/cyfitter_cfg.c **** 			{0x49u, 0xFFu},
 468:Generated_Source\PSoC4/cyfitter_cfg.c **** 			{0x4Au, 0xFFu},
ARM GAS  C:\Users\austc\AppData\Local\Temp\ccKSAcZi.s 			page 16


 469:Generated_Source\PSoC4/cyfitter_cfg.c **** 			{0x4Bu, 0xFFu},
 470:Generated_Source\PSoC4/cyfitter_cfg.c **** 			{0x4Du, 0xA0u},
 471:Generated_Source\PSoC4/cyfitter_cfg.c **** 			{0x4Fu, 0x01u},
 472:Generated_Source\PSoC4/cyfitter_cfg.c **** 			{0x50u, 0x18u},
 473:Generated_Source\PSoC4/cyfitter_cfg.c **** 			{0x54u, 0x0Fu},
 474:Generated_Source\PSoC4/cyfitter_cfg.c **** 			{0x58u, 0x04u},
 475:Generated_Source\PSoC4/cyfitter_cfg.c **** 			{0x59u, 0x04u},
 476:Generated_Source\PSoC4/cyfitter_cfg.c **** 			{0x5Au, 0x04u},
 477:Generated_Source\PSoC4/cyfitter_cfg.c **** 			{0x5Bu, 0x04u},
 478:Generated_Source\PSoC4/cyfitter_cfg.c **** 			{0x5Cu, 0x11u},
 479:Generated_Source\PSoC4/cyfitter_cfg.c **** 			{0x5Du, 0x11u},
 480:Generated_Source\PSoC4/cyfitter_cfg.c **** 			{0x5Fu, 0x05u},
 481:Generated_Source\PSoC4/cyfitter_cfg.c **** 			{0x60u, 0x40u},
 482:Generated_Source\PSoC4/cyfitter_cfg.c **** 			{0x62u, 0x80u},
 483:Generated_Source\PSoC4/cyfitter_cfg.c **** 			{0x64u, 0x40u},
 484:Generated_Source\PSoC4/cyfitter_cfg.c **** 			{0x65u, 0x40u},
 485:Generated_Source\PSoC4/cyfitter_cfg.c **** 			{0x66u, 0x80u},
 486:Generated_Source\PSoC4/cyfitter_cfg.c **** 			{0x68u, 0x40u},
 487:Generated_Source\PSoC4/cyfitter_cfg.c **** 			{0x6Au, 0x80u},
 488:Generated_Source\PSoC4/cyfitter_cfg.c **** 			{0x6Cu, 0x40u},
 489:Generated_Source\PSoC4/cyfitter_cfg.c **** 			{0x6Du, 0x20u},
 490:Generated_Source\PSoC4/cyfitter_cfg.c **** 			{0x6Eu, 0x80u},
 491:Generated_Source\PSoC4/cyfitter_cfg.c **** 			{0x86u, 0x03u},
 492:Generated_Source\PSoC4/cyfitter_cfg.c **** 			{0x92u, 0x01u},
 493:Generated_Source\PSoC4/cyfitter_cfg.c **** 			{0x94u, 0x08u},
 494:Generated_Source\PSoC4/cyfitter_cfg.c **** 			{0x98u, 0x01u},
 495:Generated_Source\PSoC4/cyfitter_cfg.c **** 			{0xA2u, 0x0Cu},
 496:Generated_Source\PSoC4/cyfitter_cfg.c **** 			{0xB0u, 0x08u},
 497:Generated_Source\PSoC4/cyfitter_cfg.c **** 			{0xB2u, 0x04u},
 498:Generated_Source\PSoC4/cyfitter_cfg.c **** 			{0xB4u, 0x02u},
 499:Generated_Source\PSoC4/cyfitter_cfg.c **** 			{0xB6u, 0x01u},
 500:Generated_Source\PSoC4/cyfitter_cfg.c **** 			{0xBEu, 0x41u},
 501:Generated_Source\PSoC4/cyfitter_cfg.c **** 			{0xC0u, 0x15u},
 502:Generated_Source\PSoC4/cyfitter_cfg.c **** 			{0xC1u, 0x06u},
 503:Generated_Source\PSoC4/cyfitter_cfg.c **** 			{0xC5u, 0x4Eu},
 504:Generated_Source\PSoC4/cyfitter_cfg.c **** 			{0xC6u, 0x02u},
 505:Generated_Source\PSoC4/cyfitter_cfg.c **** 			{0xC7u, 0x3Cu},
 506:Generated_Source\PSoC4/cyfitter_cfg.c **** 			{0xC8u, 0x37u},
 507:Generated_Source\PSoC4/cyfitter_cfg.c **** 			{0xC9u, 0xFFu},
 508:Generated_Source\PSoC4/cyfitter_cfg.c **** 			{0xCAu, 0xFFu},
 509:Generated_Source\PSoC4/cyfitter_cfg.c **** 			{0xCBu, 0xFFu},
 510:Generated_Source\PSoC4/cyfitter_cfg.c **** 			{0xCDu, 0xAFu},
 511:Generated_Source\PSoC4/cyfitter_cfg.c **** 			{0xCEu, 0x07u},
 512:Generated_Source\PSoC4/cyfitter_cfg.c **** 			{0xCFu, 0x01u},
 513:Generated_Source\PSoC4/cyfitter_cfg.c **** 			{0xD0u, 0x18u},
 514:Generated_Source\PSoC4/cyfitter_cfg.c **** 			{0xD2u, 0x80u},
 515:Generated_Source\PSoC4/cyfitter_cfg.c **** 			{0xD8u, 0x04u},
 516:Generated_Source\PSoC4/cyfitter_cfg.c **** 			{0xDAu, 0x04u},
 517:Generated_Source\PSoC4/cyfitter_cfg.c **** 			{0xDBu, 0x04u},
 518:Generated_Source\PSoC4/cyfitter_cfg.c **** 			{0xDCu, 0x01u},
 519:Generated_Source\PSoC4/cyfitter_cfg.c **** 			{0xDDu, 0x11u},
 520:Generated_Source\PSoC4/cyfitter_cfg.c **** 			{0xDFu, 0x01u},
 521:Generated_Source\PSoC4/cyfitter_cfg.c **** 			{0xE0u, 0x40u},
 522:Generated_Source\PSoC4/cyfitter_cfg.c **** 			{0xE2u, 0x80u},
 523:Generated_Source\PSoC4/cyfitter_cfg.c **** 			{0xE4u, 0x40u},
 524:Generated_Source\PSoC4/cyfitter_cfg.c **** 			{0xE5u, 0x40u},
 525:Generated_Source\PSoC4/cyfitter_cfg.c **** 			{0xE6u, 0x80u},
ARM GAS  C:\Users\austc\AppData\Local\Temp\ccKSAcZi.s 			page 17


 526:Generated_Source\PSoC4/cyfitter_cfg.c **** 			{0xE8u, 0x40u},
 527:Generated_Source\PSoC4/cyfitter_cfg.c **** 			{0xEAu, 0x80u},
 528:Generated_Source\PSoC4/cyfitter_cfg.c **** 			{0xECu, 0x40u},
 529:Generated_Source\PSoC4/cyfitter_cfg.c **** 			{0xEDu, 0x20u},
 530:Generated_Source\PSoC4/cyfitter_cfg.c **** 			{0xEEu, 0x80u},
 531:Generated_Source\PSoC4/cyfitter_cfg.c **** 			{0x00u, 0x04u},
 532:Generated_Source\PSoC4/cyfitter_cfg.c **** 			{0x05u, 0x01u},
 533:Generated_Source\PSoC4/cyfitter_cfg.c **** 			{0x07u, 0x02u},
 534:Generated_Source\PSoC4/cyfitter_cfg.c **** 			{0x09u, 0x02u},
 535:Generated_Source\PSoC4/cyfitter_cfg.c **** 			{0x0Au, 0x24u},
 536:Generated_Source\PSoC4/cyfitter_cfg.c **** 			{0x0Du, 0x40u},
 537:Generated_Source\PSoC4/cyfitter_cfg.c **** 			{0x10u, 0x80u},
 538:Generated_Source\PSoC4/cyfitter_cfg.c **** 			{0x15u, 0x02u},
 539:Generated_Source\PSoC4/cyfitter_cfg.c **** 			{0x17u, 0x08u},
 540:Generated_Source\PSoC4/cyfitter_cfg.c **** 			{0x19u, 0x02u},
 541:Generated_Source\PSoC4/cyfitter_cfg.c **** 			{0x1Au, 0x24u},
 542:Generated_Source\PSoC4/cyfitter_cfg.c **** 			{0x1Bu, 0xC0u},
 543:Generated_Source\PSoC4/cyfitter_cfg.c **** 			{0x1Cu, 0x02u},
 544:Generated_Source\PSoC4/cyfitter_cfg.c **** 			{0x1Du, 0x84u},
 545:Generated_Source\PSoC4/cyfitter_cfg.c **** 			{0x1Eu, 0x40u},
 546:Generated_Source\PSoC4/cyfitter_cfg.c **** 			{0x24u, 0x80u},
 547:Generated_Source\PSoC4/cyfitter_cfg.c **** 			{0x25u, 0x10u},
 548:Generated_Source\PSoC4/cyfitter_cfg.c **** 			{0x27u, 0x0Cu},
 549:Generated_Source\PSoC4/cyfitter_cfg.c **** 			{0x2Fu, 0x09u},
 550:Generated_Source\PSoC4/cyfitter_cfg.c **** 			{0x34u, 0x20u},
 551:Generated_Source\PSoC4/cyfitter_cfg.c **** 			{0x3Du, 0x28u},
 552:Generated_Source\PSoC4/cyfitter_cfg.c **** 			{0x43u, 0x80u},
 553:Generated_Source\PSoC4/cyfitter_cfg.c **** 			{0x45u, 0x80u},
 554:Generated_Source\PSoC4/cyfitter_cfg.c **** 			{0x48u, 0x01u},
 555:Generated_Source\PSoC4/cyfitter_cfg.c **** 			{0x49u, 0x19u},
 556:Generated_Source\PSoC4/cyfitter_cfg.c **** 			{0x4Eu, 0x04u},
 557:Generated_Source\PSoC4/cyfitter_cfg.c **** 			{0x4Fu, 0x80u},
 558:Generated_Source\PSoC4/cyfitter_cfg.c **** 			{0x50u, 0x80u},
 559:Generated_Source\PSoC4/cyfitter_cfg.c **** 			{0x51u, 0x41u},
 560:Generated_Source\PSoC4/cyfitter_cfg.c **** 			{0x52u, 0x02u},
 561:Generated_Source\PSoC4/cyfitter_cfg.c **** 			{0x53u, 0x04u},
 562:Generated_Source\PSoC4/cyfitter_cfg.c **** 			{0x58u, 0x86u},
 563:Generated_Source\PSoC4/cyfitter_cfg.c **** 			{0x5Bu, 0x10u},
 564:Generated_Source\PSoC4/cyfitter_cfg.c **** 			{0x5Du, 0x02u},
 565:Generated_Source\PSoC4/cyfitter_cfg.c **** 			{0x5Eu, 0x58u},
 566:Generated_Source\PSoC4/cyfitter_cfg.c **** 			{0x65u, 0x08u},
 567:Generated_Source\PSoC4/cyfitter_cfg.c **** 			{0x67u, 0x08u},
 568:Generated_Source\PSoC4/cyfitter_cfg.c **** 			{0x71u, 0x02u},
 569:Generated_Source\PSoC4/cyfitter_cfg.c **** 			{0x7Du, 0x28u},
 570:Generated_Source\PSoC4/cyfitter_cfg.c **** 			{0x7Fu, 0x10u},
 571:Generated_Source\PSoC4/cyfitter_cfg.c **** 			{0x88u, 0x04u},
 572:Generated_Source\PSoC4/cyfitter_cfg.c **** 			{0x8Du, 0x40u},
 573:Generated_Source\PSoC4/cyfitter_cfg.c **** 			{0x8Eu, 0x10u},
 574:Generated_Source\PSoC4/cyfitter_cfg.c **** 			{0x92u, 0x08u},
 575:Generated_Source\PSoC4/cyfitter_cfg.c **** 			{0x94u, 0x82u},
 576:Generated_Source\PSoC4/cyfitter_cfg.c **** 			{0x97u, 0x20u},
 577:Generated_Source\PSoC4/cyfitter_cfg.c **** 			{0x99u, 0x10u},
 578:Generated_Source\PSoC4/cyfitter_cfg.c **** 			{0x9Bu, 0x02u},
 579:Generated_Source\PSoC4/cyfitter_cfg.c **** 			{0x9Du, 0x05u},
 580:Generated_Source\PSoC4/cyfitter_cfg.c **** 			{0x9Fu, 0x0Du},
 581:Generated_Source\PSoC4/cyfitter_cfg.c **** 			{0xA3u, 0x08u},
 582:Generated_Source\PSoC4/cyfitter_cfg.c **** 			{0xC0u, 0x94u},
ARM GAS  C:\Users\austc\AppData\Local\Temp\ccKSAcZi.s 			page 18


 583:Generated_Source\PSoC4/cyfitter_cfg.c **** 			{0xC2u, 0x8Eu},
 584:Generated_Source\PSoC4/cyfitter_cfg.c **** 			{0xC4u, 0x38u},
 585:Generated_Source\PSoC4/cyfitter_cfg.c **** 			{0xCAu, 0x30u},
 586:Generated_Source\PSoC4/cyfitter_cfg.c **** 			{0xCCu, 0x20u},
 587:Generated_Source\PSoC4/cyfitter_cfg.c **** 			{0xCEu, 0x60u},
 588:Generated_Source\PSoC4/cyfitter_cfg.c **** 			{0xD0u, 0x18u},
 589:Generated_Source\PSoC4/cyfitter_cfg.c **** 			{0xD2u, 0x3Cu},
 590:Generated_Source\PSoC4/cyfitter_cfg.c **** 			{0xD6u, 0xFFu},
 591:Generated_Source\PSoC4/cyfitter_cfg.c **** 			{0xD8u, 0x60u},
 592:Generated_Source\PSoC4/cyfitter_cfg.c **** 			{0xDEu, 0x20u},
 593:Generated_Source\PSoC4/cyfitter_cfg.c **** 			{0x01u, 0xFEu},
 594:Generated_Source\PSoC4/cyfitter_cfg.c **** 			{0x03u, 0x01u},
 595:Generated_Source\PSoC4/cyfitter_cfg.c **** 			{0x04u, 0x01u},
 596:Generated_Source\PSoC4/cyfitter_cfg.c **** 			{0x07u, 0x01u},
 597:Generated_Source\PSoC4/cyfitter_cfg.c **** 			{0x08u, 0x01u},
 598:Generated_Source\PSoC4/cyfitter_cfg.c **** 			{0x09u, 0xA3u},
 599:Generated_Source\PSoC4/cyfitter_cfg.c **** 			{0x0Bu, 0x5Cu},
 600:Generated_Source\PSoC4/cyfitter_cfg.c **** 			{0x0Du, 0x0Eu},
 601:Generated_Source\PSoC4/cyfitter_cfg.c **** 			{0x0Eu, 0x01u},
 602:Generated_Source\PSoC4/cyfitter_cfg.c **** 			{0x0Fu, 0xF0u},
 603:Generated_Source\PSoC4/cyfitter_cfg.c **** 			{0x11u, 0x96u},
 604:Generated_Source\PSoC4/cyfitter_cfg.c **** 			{0x13u, 0x68u},
 605:Generated_Source\PSoC4/cyfitter_cfg.c **** 			{0x15u, 0x7Fu},
 606:Generated_Source\PSoC4/cyfitter_cfg.c **** 			{0x16u, 0x02u},
 607:Generated_Source\PSoC4/cyfitter_cfg.c **** 			{0x1Cu, 0x01u},
 608:Generated_Source\PSoC4/cyfitter_cfg.c **** 			{0x20u, 0x01u},
 609:Generated_Source\PSoC4/cyfitter_cfg.c **** 			{0x29u, 0xC5u},
 610:Generated_Source\PSoC4/cyfitter_cfg.c **** 			{0x2Bu, 0x3Au},
 611:Generated_Source\PSoC4/cyfitter_cfg.c **** 			{0x33u, 0xFFu},
 612:Generated_Source\PSoC4/cyfitter_cfg.c **** 			{0x34u, 0x03u},
 613:Generated_Source\PSoC4/cyfitter_cfg.c **** 			{0x3Fu, 0x04u},
 614:Generated_Source\PSoC4/cyfitter_cfg.c **** 			{0x40u, 0x52u},
 615:Generated_Source\PSoC4/cyfitter_cfg.c **** 			{0x49u, 0xFFu},
 616:Generated_Source\PSoC4/cyfitter_cfg.c **** 			{0x4Au, 0xFFu},
 617:Generated_Source\PSoC4/cyfitter_cfg.c **** 			{0x4Bu, 0xFFu},
 618:Generated_Source\PSoC4/cyfitter_cfg.c **** 			{0x4Fu, 0x01u},
 619:Generated_Source\PSoC4/cyfitter_cfg.c **** 			{0x50u, 0x18u},
 620:Generated_Source\PSoC4/cyfitter_cfg.c **** 			{0x58u, 0x04u},
 621:Generated_Source\PSoC4/cyfitter_cfg.c **** 			{0x59u, 0x04u},
 622:Generated_Source\PSoC4/cyfitter_cfg.c **** 			{0x5Au, 0x04u},
 623:Generated_Source\PSoC4/cyfitter_cfg.c **** 			{0x5Cu, 0x01u},
 624:Generated_Source\PSoC4/cyfitter_cfg.c **** 			{0x5Du, 0x03u},
 625:Generated_Source\PSoC4/cyfitter_cfg.c **** 			{0x5Fu, 0x01u},
 626:Generated_Source\PSoC4/cyfitter_cfg.c **** 			{0x60u, 0x40u},
 627:Generated_Source\PSoC4/cyfitter_cfg.c **** 			{0x62u, 0x40u},
 628:Generated_Source\PSoC4/cyfitter_cfg.c **** 			{0x64u, 0x40u},
 629:Generated_Source\PSoC4/cyfitter_cfg.c **** 			{0x65u, 0x40u},
 630:Generated_Source\PSoC4/cyfitter_cfg.c **** 			{0x66u, 0x80u},
 631:Generated_Source\PSoC4/cyfitter_cfg.c **** 			{0x68u, 0x80u},
 632:Generated_Source\PSoC4/cyfitter_cfg.c **** 			{0x6Au, 0x80u},
 633:Generated_Source\PSoC4/cyfitter_cfg.c **** 			{0x6Cu, 0x80u},
 634:Generated_Source\PSoC4/cyfitter_cfg.c **** 			{0x6Eu, 0x80u},
 635:Generated_Source\PSoC4/cyfitter_cfg.c **** 			{0x84u, 0x04u},
 636:Generated_Source\PSoC4/cyfitter_cfg.c **** 			{0x8Bu, 0x01u},
 637:Generated_Source\PSoC4/cyfitter_cfg.c **** 			{0x93u, 0x02u},
 638:Generated_Source\PSoC4/cyfitter_cfg.c **** 			{0x9Cu, 0x01u},
 639:Generated_Source\PSoC4/cyfitter_cfg.c **** 			{0xA2u, 0x04u},
ARM GAS  C:\Users\austc\AppData\Local\Temp\ccKSAcZi.s 			page 19


 640:Generated_Source\PSoC4/cyfitter_cfg.c **** 			{0xA4u, 0x02u},
 641:Generated_Source\PSoC4/cyfitter_cfg.c **** 			{0xB0u, 0x02u},
 642:Generated_Source\PSoC4/cyfitter_cfg.c **** 			{0xB2u, 0x01u},
 643:Generated_Source\PSoC4/cyfitter_cfg.c **** 			{0xB3u, 0x02u},
 644:Generated_Source\PSoC4/cyfitter_cfg.c **** 			{0xB4u, 0x04u},
 645:Generated_Source\PSoC4/cyfitter_cfg.c **** 			{0xB7u, 0x01u},
 646:Generated_Source\PSoC4/cyfitter_cfg.c **** 			{0xBEu, 0x10u},
 647:Generated_Source\PSoC4/cyfitter_cfg.c **** 			{0xC0u, 0x42u},
 648:Generated_Source\PSoC4/cyfitter_cfg.c **** 			{0xC9u, 0xFFu},
 649:Generated_Source\PSoC4/cyfitter_cfg.c **** 			{0xCAu, 0xFFu},
 650:Generated_Source\PSoC4/cyfitter_cfg.c **** 			{0xCBu, 0xFFu},
 651:Generated_Source\PSoC4/cyfitter_cfg.c **** 			{0xCDu, 0x83u},
 652:Generated_Source\PSoC4/cyfitter_cfg.c **** 			{0xCEu, 0x03u},
 653:Generated_Source\PSoC4/cyfitter_cfg.c **** 			{0xCFu, 0x01u},
 654:Generated_Source\PSoC4/cyfitter_cfg.c **** 			{0xD0u, 0x18u},
 655:Generated_Source\PSoC4/cyfitter_cfg.c **** 			{0xD2u, 0x80u},
 656:Generated_Source\PSoC4/cyfitter_cfg.c **** 			{0xD6u, 0x04u},
 657:Generated_Source\PSoC4/cyfitter_cfg.c **** 			{0xD8u, 0x04u},
 658:Generated_Source\PSoC4/cyfitter_cfg.c **** 			{0xD9u, 0x04u},
 659:Generated_Source\PSoC4/cyfitter_cfg.c **** 			{0xDAu, 0x04u},
 660:Generated_Source\PSoC4/cyfitter_cfg.c **** 			{0xDBu, 0x04u},
 661:Generated_Source\PSoC4/cyfitter_cfg.c **** 			{0xDCu, 0x12u},
 662:Generated_Source\PSoC4/cyfitter_cfg.c **** 			{0xDDu, 0x33u},
 663:Generated_Source\PSoC4/cyfitter_cfg.c **** 			{0xDFu, 0x01u},
 664:Generated_Source\PSoC4/cyfitter_cfg.c **** 			{0xE0u, 0x40u},
 665:Generated_Source\PSoC4/cyfitter_cfg.c **** 			{0xE2u, 0x40u},
 666:Generated_Source\PSoC4/cyfitter_cfg.c **** 			{0xE4u, 0x40u},
 667:Generated_Source\PSoC4/cyfitter_cfg.c **** 			{0xE5u, 0x40u},
 668:Generated_Source\PSoC4/cyfitter_cfg.c **** 			{0xE6u, 0x80u},
 669:Generated_Source\PSoC4/cyfitter_cfg.c **** 			{0xE8u, 0x80u},
 670:Generated_Source\PSoC4/cyfitter_cfg.c **** 			{0xEAu, 0x80u},
 671:Generated_Source\PSoC4/cyfitter_cfg.c **** 			{0xECu, 0x80u},
 672:Generated_Source\PSoC4/cyfitter_cfg.c **** 			{0xEEu, 0x80u},
 673:Generated_Source\PSoC4/cyfitter_cfg.c **** 			{0x00u, 0x10u},
 674:Generated_Source\PSoC4/cyfitter_cfg.c **** 			{0x02u, 0x10u},
 675:Generated_Source\PSoC4/cyfitter_cfg.c **** 			{0x03u, 0x01u},
 676:Generated_Source\PSoC4/cyfitter_cfg.c **** 			{0x07u, 0x20u},
 677:Generated_Source\PSoC4/cyfitter_cfg.c **** 			{0x09u, 0x08u},
 678:Generated_Source\PSoC4/cyfitter_cfg.c **** 			{0x0Bu, 0x02u},
 679:Generated_Source\PSoC4/cyfitter_cfg.c **** 			{0x0Fu, 0x01u},
 680:Generated_Source\PSoC4/cyfitter_cfg.c **** 			{0x12u, 0x40u},
 681:Generated_Source\PSoC4/cyfitter_cfg.c **** 			{0x15u, 0x02u},
 682:Generated_Source\PSoC4/cyfitter_cfg.c **** 			{0x17u, 0x08u},
 683:Generated_Source\PSoC4/cyfitter_cfg.c **** 			{0x18u, 0x04u},
 684:Generated_Source\PSoC4/cyfitter_cfg.c **** 			{0x1Eu, 0x68u},
 685:Generated_Source\PSoC4/cyfitter_cfg.c **** 			{0x21u, 0x08u},
 686:Generated_Source\PSoC4/cyfitter_cfg.c **** 			{0x27u, 0x21u},
 687:Generated_Source\PSoC4/cyfitter_cfg.c **** 			{0x28u, 0x04u},
 688:Generated_Source\PSoC4/cyfitter_cfg.c **** 			{0x2Au, 0x10u},
 689:Generated_Source\PSoC4/cyfitter_cfg.c **** 			{0x2Bu, 0x08u},
 690:Generated_Source\PSoC4/cyfitter_cfg.c **** 			{0x32u, 0x04u},
 691:Generated_Source\PSoC4/cyfitter_cfg.c **** 			{0x33u, 0x05u},
 692:Generated_Source\PSoC4/cyfitter_cfg.c **** 			{0x36u, 0x02u},
 693:Generated_Source\PSoC4/cyfitter_cfg.c **** 			{0x38u, 0x96u},
 694:Generated_Source\PSoC4/cyfitter_cfg.c **** 			{0x3Au, 0x40u},
 695:Generated_Source\PSoC4/cyfitter_cfg.c **** 			{0x3Bu, 0x22u},
 696:Generated_Source\PSoC4/cyfitter_cfg.c **** 			{0x3Fu, 0x10u},
ARM GAS  C:\Users\austc\AppData\Local\Temp\ccKSAcZi.s 			page 20


 697:Generated_Source\PSoC4/cyfitter_cfg.c **** 			{0x42u, 0x08u},
 698:Generated_Source\PSoC4/cyfitter_cfg.c **** 			{0x46u, 0x88u},
 699:Generated_Source\PSoC4/cyfitter_cfg.c **** 			{0x48u, 0x01u},
 700:Generated_Source\PSoC4/cyfitter_cfg.c **** 			{0x5Eu, 0x60u},
 701:Generated_Source\PSoC4/cyfitter_cfg.c **** 			{0x67u, 0x40u},
 702:Generated_Source\PSoC4/cyfitter_cfg.c **** 			{0x74u, 0x01u},
 703:Generated_Source\PSoC4/cyfitter_cfg.c **** 			{0x76u, 0x80u},
 704:Generated_Source\PSoC4/cyfitter_cfg.c **** 			{0x87u, 0x40u},
 705:Generated_Source\PSoC4/cyfitter_cfg.c **** 			{0x8Fu, 0x01u},
 706:Generated_Source\PSoC4/cyfitter_cfg.c **** 			{0x90u, 0x80u},
 707:Generated_Source\PSoC4/cyfitter_cfg.c **** 			{0x91u, 0x02u},
 708:Generated_Source\PSoC4/cyfitter_cfg.c **** 			{0x93u, 0x10u},
 709:Generated_Source\PSoC4/cyfitter_cfg.c **** 			{0x94u, 0x06u},
 710:Generated_Source\PSoC4/cyfitter_cfg.c **** 			{0x97u, 0x22u},
 711:Generated_Source\PSoC4/cyfitter_cfg.c **** 			{0x9Bu, 0x04u},
 712:Generated_Source\PSoC4/cyfitter_cfg.c **** 			{0x9Fu, 0x01u},
 713:Generated_Source\PSoC4/cyfitter_cfg.c **** 			{0xA2u, 0x02u},
 714:Generated_Source\PSoC4/cyfitter_cfg.c **** 			{0xA3u, 0x08u},
 715:Generated_Source\PSoC4/cyfitter_cfg.c **** 			{0xA6u, 0x04u},
 716:Generated_Source\PSoC4/cyfitter_cfg.c **** 			{0xABu, 0x10u},
 717:Generated_Source\PSoC4/cyfitter_cfg.c **** 			{0xACu, 0x02u},
 718:Generated_Source\PSoC4/cyfitter_cfg.c **** 			{0xAFu, 0x10u},
 719:Generated_Source\PSoC4/cyfitter_cfg.c **** 			{0xB0u, 0x20u},
 720:Generated_Source\PSoC4/cyfitter_cfg.c **** 			{0xB4u, 0x80u},
 721:Generated_Source\PSoC4/cyfitter_cfg.c **** 			{0xC0u, 0x27u},
 722:Generated_Source\PSoC4/cyfitter_cfg.c **** 			{0xC2u, 0x85u},
 723:Generated_Source\PSoC4/cyfitter_cfg.c **** 			{0xC4u, 0x38u},
 724:Generated_Source\PSoC4/cyfitter_cfg.c **** 			{0xCAu, 0x04u},
 725:Generated_Source\PSoC4/cyfitter_cfg.c **** 			{0xCCu, 0x83u},
 726:Generated_Source\PSoC4/cyfitter_cfg.c **** 			{0xCEu, 0x2Fu},
 727:Generated_Source\PSoC4/cyfitter_cfg.c **** 			{0xD0u, 0xA4u},
 728:Generated_Source\PSoC4/cyfitter_cfg.c **** 			{0xD2u, 0x08u},
 729:Generated_Source\PSoC4/cyfitter_cfg.c **** 			{0xD6u, 0x30u},
 730:Generated_Source\PSoC4/cyfitter_cfg.c **** 			{0xD8u, 0x80u},
 731:Generated_Source\PSoC4/cyfitter_cfg.c **** 			{0xE4u, 0x10u},
 732:Generated_Source\PSoC4/cyfitter_cfg.c **** 			{0xE8u, 0x80u},
 733:Generated_Source\PSoC4/cyfitter_cfg.c **** 			{0xEAu, 0x04u},
 734:Generated_Source\PSoC4/cyfitter_cfg.c **** 			{0xEEu, 0x02u},
 735:Generated_Source\PSoC4/cyfitter_cfg.c **** 			{0x02u, 0x01u},
 736:Generated_Source\PSoC4/cyfitter_cfg.c **** 			{0x08u, 0x0Eu},
 737:Generated_Source\PSoC4/cyfitter_cfg.c **** 			{0x0Cu, 0x10u},
 738:Generated_Source\PSoC4/cyfitter_cfg.c **** 			{0x0Eu, 0x02u},
 739:Generated_Source\PSoC4/cyfitter_cfg.c **** 			{0x14u, 0x18u},
 740:Generated_Source\PSoC4/cyfitter_cfg.c **** 			{0x16u, 0x02u},
 741:Generated_Source\PSoC4/cyfitter_cfg.c **** 			{0x18u, 0x18u},
 742:Generated_Source\PSoC4/cyfitter_cfg.c **** 			{0x1Au, 0x04u},
 743:Generated_Source\PSoC4/cyfitter_cfg.c **** 			{0x1Cu, 0x16u},
 744:Generated_Source\PSoC4/cyfitter_cfg.c **** 			{0x1Eu, 0x08u},
 745:Generated_Source\PSoC4/cyfitter_cfg.c **** 			{0x22u, 0x1Eu},
 746:Generated_Source\PSoC4/cyfitter_cfg.c **** 			{0x2Au, 0x01u},
 747:Generated_Source\PSoC4/cyfitter_cfg.c **** 			{0x30u, 0x01u},
 748:Generated_Source\PSoC4/cyfitter_cfg.c **** 			{0x34u, 0x1Eu},
 749:Generated_Source\PSoC4/cyfitter_cfg.c **** 			{0x3Eu, 0x01u},
 750:Generated_Source\PSoC4/cyfitter_cfg.c **** 			{0x40u, 0x42u},
 751:Generated_Source\PSoC4/cyfitter_cfg.c **** 			{0x45u, 0xECu},
 752:Generated_Source\PSoC4/cyfitter_cfg.c **** 			{0x47u, 0x02u},
 753:Generated_Source\PSoC4/cyfitter_cfg.c **** 			{0x48u, 0x13u},
ARM GAS  C:\Users\austc\AppData\Local\Temp\ccKSAcZi.s 			page 21


 754:Generated_Source\PSoC4/cyfitter_cfg.c **** 			{0x49u, 0xFFu},
 755:Generated_Source\PSoC4/cyfitter_cfg.c **** 			{0x4Au, 0xFFu},
 756:Generated_Source\PSoC4/cyfitter_cfg.c **** 			{0x4Bu, 0xFFu},
 757:Generated_Source\PSoC4/cyfitter_cfg.c **** 			{0x4Du, 0x83u},
 758:Generated_Source\PSoC4/cyfitter_cfg.c **** 			{0x4Eu, 0x03u},
 759:Generated_Source\PSoC4/cyfitter_cfg.c **** 			{0x4Fu, 0x01u},
 760:Generated_Source\PSoC4/cyfitter_cfg.c **** 			{0x50u, 0x18u},
 761:Generated_Source\PSoC4/cyfitter_cfg.c **** 			{0x54u, 0x01u},
 762:Generated_Source\PSoC4/cyfitter_cfg.c **** 			{0x56u, 0x04u},
 763:Generated_Source\PSoC4/cyfitter_cfg.c **** 			{0x58u, 0x04u},
 764:Generated_Source\PSoC4/cyfitter_cfg.c **** 			{0x5Au, 0x04u},
 765:Generated_Source\PSoC4/cyfitter_cfg.c **** 			{0x5Bu, 0x04u},
 766:Generated_Source\PSoC4/cyfitter_cfg.c **** 			{0x5Cu, 0x01u},
 767:Generated_Source\PSoC4/cyfitter_cfg.c **** 			{0x5Du, 0x33u},
 768:Generated_Source\PSoC4/cyfitter_cfg.c **** 			{0x5Fu, 0x01u},
 769:Generated_Source\PSoC4/cyfitter_cfg.c **** 			{0x60u, 0x40u},
 770:Generated_Source\PSoC4/cyfitter_cfg.c **** 			{0x62u, 0x40u},
 771:Generated_Source\PSoC4/cyfitter_cfg.c **** 			{0x64u, 0x40u},
 772:Generated_Source\PSoC4/cyfitter_cfg.c **** 			{0x65u, 0x40u},
 773:Generated_Source\PSoC4/cyfitter_cfg.c **** 			{0x66u, 0x80u},
 774:Generated_Source\PSoC4/cyfitter_cfg.c **** 			{0x68u, 0x80u},
 775:Generated_Source\PSoC4/cyfitter_cfg.c **** 			{0x6Au, 0x80u},
 776:Generated_Source\PSoC4/cyfitter_cfg.c **** 			{0x6Cu, 0x80u},
 777:Generated_Source\PSoC4/cyfitter_cfg.c **** 			{0x6Eu, 0x80u},
 778:Generated_Source\PSoC4/cyfitter_cfg.c **** 			{0x80u, 0x0Fu},
 779:Generated_Source\PSoC4/cyfitter_cfg.c **** 			{0x8Cu, 0x05u},
 780:Generated_Source\PSoC4/cyfitter_cfg.c **** 			{0x8Eu, 0x0Au},
 781:Generated_Source\PSoC4/cyfitter_cfg.c **** 			{0x94u, 0x0Cu},
 782:Generated_Source\PSoC4/cyfitter_cfg.c **** 			{0x96u, 0x03u},
 783:Generated_Source\PSoC4/cyfitter_cfg.c **** 			{0x98u, 0x07u},
 784:Generated_Source\PSoC4/cyfitter_cfg.c **** 			{0xA0u, 0x03u},
 785:Generated_Source\PSoC4/cyfitter_cfg.c **** 			{0xA2u, 0x0Cu},
 786:Generated_Source\PSoC4/cyfitter_cfg.c **** 			{0xA8u, 0x0Au},
 787:Generated_Source\PSoC4/cyfitter_cfg.c **** 			{0xAAu, 0x05u},
 788:Generated_Source\PSoC4/cyfitter_cfg.c **** 			{0xB6u, 0x0Fu},
 789:Generated_Source\PSoC4/cyfitter_cfg.c **** 			{0xD8u, 0x04u},
 790:Generated_Source\PSoC4/cyfitter_cfg.c **** 			{0xDCu, 0x01u},
 791:Generated_Source\PSoC4/cyfitter_cfg.c **** 			{0xDFu, 0x01u},
 792:Generated_Source\PSoC4/cyfitter_cfg.c **** 			{0x03u, 0x81u},
 793:Generated_Source\PSoC4/cyfitter_cfg.c **** 			{0x06u, 0x80u},
 794:Generated_Source\PSoC4/cyfitter_cfg.c **** 			{0x07u, 0x05u},
 795:Generated_Source\PSoC4/cyfitter_cfg.c **** 			{0x0Au, 0x08u},
 796:Generated_Source\PSoC4/cyfitter_cfg.c **** 			{0x0Bu, 0x20u},
 797:Generated_Source\PSoC4/cyfitter_cfg.c **** 			{0x0Cu, 0x04u},
 798:Generated_Source\PSoC4/cyfitter_cfg.c **** 			{0x0Eu, 0x09u},
 799:Generated_Source\PSoC4/cyfitter_cfg.c **** 			{0x10u, 0x04u},
 800:Generated_Source\PSoC4/cyfitter_cfg.c **** 			{0x12u, 0x40u},
 801:Generated_Source\PSoC4/cyfitter_cfg.c **** 			{0x16u, 0x48u},
 802:Generated_Source\PSoC4/cyfitter_cfg.c **** 			{0x18u, 0x02u},
 803:Generated_Source\PSoC4/cyfitter_cfg.c **** 			{0x1Au, 0x01u},
 804:Generated_Source\PSoC4/cyfitter_cfg.c **** 			{0x1Bu, 0x80u},
 805:Generated_Source\PSoC4/cyfitter_cfg.c **** 			{0x1Eu, 0x48u},
 806:Generated_Source\PSoC4/cyfitter_cfg.c **** 			{0x1Fu, 0x10u},
 807:Generated_Source\PSoC4/cyfitter_cfg.c **** 			{0x46u, 0x88u},
 808:Generated_Source\PSoC4/cyfitter_cfg.c **** 			{0x4Du, 0x04u},
 809:Generated_Source\PSoC4/cyfitter_cfg.c **** 			{0x4Fu, 0x01u},
 810:Generated_Source\PSoC4/cyfitter_cfg.c **** 			{0x56u, 0x08u},
ARM GAS  C:\Users\austc\AppData\Local\Temp\ccKSAcZi.s 			page 22


 811:Generated_Source\PSoC4/cyfitter_cfg.c **** 			{0x5Du, 0x04u},
 812:Generated_Source\PSoC4/cyfitter_cfg.c **** 			{0x5Eu, 0x40u},
 813:Generated_Source\PSoC4/cyfitter_cfg.c **** 			{0x5Fu, 0x01u},
 814:Generated_Source\PSoC4/cyfitter_cfg.c **** 			{0x67u, 0x80u},
 815:Generated_Source\PSoC4/cyfitter_cfg.c **** 			{0x87u, 0x40u},
 816:Generated_Source\PSoC4/cyfitter_cfg.c **** 			{0x92u, 0x08u},
 817:Generated_Source\PSoC4/cyfitter_cfg.c **** 			{0x94u, 0x02u},
 818:Generated_Source\PSoC4/cyfitter_cfg.c **** 			{0x97u, 0x20u},
 819:Generated_Source\PSoC4/cyfitter_cfg.c **** 			{0x98u, 0x04u},
 820:Generated_Source\PSoC4/cyfitter_cfg.c **** 			{0x9Au, 0xC0u},
 821:Generated_Source\PSoC4/cyfitter_cfg.c **** 			{0x9Bu, 0x05u},
 822:Generated_Source\PSoC4/cyfitter_cfg.c **** 			{0x9Eu, 0x08u},
 823:Generated_Source\PSoC4/cyfitter_cfg.c **** 			{0xAFu, 0x08u},
 824:Generated_Source\PSoC4/cyfitter_cfg.c **** 			{0xC0u, 0xD9u},
 825:Generated_Source\PSoC4/cyfitter_cfg.c **** 			{0xC2u, 0xE6u},
 826:Generated_Source\PSoC4/cyfitter_cfg.c **** 			{0xC4u, 0x5Au},
 827:Generated_Source\PSoC4/cyfitter_cfg.c **** 			{0xD0u, 0xA0u},
 828:Generated_Source\PSoC4/cyfitter_cfg.c **** 			{0xD6u, 0xD0u},
 829:Generated_Source\PSoC4/cyfitter_cfg.c **** 			{0xD8u, 0x80u},
 830:Generated_Source\PSoC4/cyfitter_cfg.c **** 			{0x6Bu, 0x02u},
 831:Generated_Source\PSoC4/cyfitter_cfg.c **** 			{0x6Fu, 0x02u},
 832:Generated_Source\PSoC4/cyfitter_cfg.c **** 			{0xDAu, 0xC0u},
 833:Generated_Source\PSoC4/cyfitter_cfg.c **** 			{0x03u, 0x20u},
 834:Generated_Source\PSoC4/cyfitter_cfg.c **** 			{0x06u, 0x20u},
 835:Generated_Source\PSoC4/cyfitter_cfg.c **** 			{0x9Fu, 0x02u},
 836:Generated_Source\PSoC4/cyfitter_cfg.c **** 			{0xA7u, 0x02u},
 837:Generated_Source\PSoC4/cyfitter_cfg.c **** 			{0xC0u, 0x30u},
 838:Generated_Source\PSoC4/cyfitter_cfg.c **** 			{0x0Bu, 0x10u},
 839:Generated_Source\PSoC4/cyfitter_cfg.c **** 			{0x0Eu, 0x10u},
 840:Generated_Source\PSoC4/cyfitter_cfg.c **** 			{0x87u, 0x02u},
 841:Generated_Source\PSoC4/cyfitter_cfg.c **** 			{0x8Eu, 0x10u},
 842:Generated_Source\PSoC4/cyfitter_cfg.c **** 			{0x9Fu, 0x02u},
 843:Generated_Source\PSoC4/cyfitter_cfg.c **** 			{0xA7u, 0x02u},
 844:Generated_Source\PSoC4/cyfitter_cfg.c **** 			{0xAEu, 0x20u},
 845:Generated_Source\PSoC4/cyfitter_cfg.c **** 			{0xB3u, 0x20u},
 846:Generated_Source\PSoC4/cyfitter_cfg.c **** 			{0xC2u, 0x30u},
 847:Generated_Source\PSoC4/cyfitter_cfg.c **** 			{0xE6u, 0x40u},
 848:Generated_Source\PSoC4/cyfitter_cfg.c **** 			{0xE8u, 0x10u},
 849:Generated_Source\PSoC4/cyfitter_cfg.c **** 			{0x87u, 0x02u},
 850:Generated_Source\PSoC4/cyfitter_cfg.c **** 			{0xA7u, 0x02u},
 851:Generated_Source\PSoC4/cyfitter_cfg.c **** 			{0xAFu, 0x10u},
 852:Generated_Source\PSoC4/cyfitter_cfg.c **** 			{0xE2u, 0x10u},
 853:Generated_Source\PSoC4/cyfitter_cfg.c **** 			{0xE8u, 0x10u},
 854:Generated_Source\PSoC4/cyfitter_cfg.c **** 			{0x00u, 0x08u},
 855:Generated_Source\PSoC4/cyfitter_cfg.c **** 			{0x01u, 0x80u},
 856:Generated_Source\PSoC4/cyfitter_cfg.c **** 			{0x04u, 0x10u},
 857:Generated_Source\PSoC4/cyfitter_cfg.c **** 			{0x06u, 0x20u},
 858:Generated_Source\PSoC4/cyfitter_cfg.c **** 			{0x8Au, 0x20u},
 859:Generated_Source\PSoC4/cyfitter_cfg.c **** 			{0xC0u, 0x0Fu},
 860:Generated_Source\PSoC4/cyfitter_cfg.c **** 			{0xE6u, 0x01u},
 861:Generated_Source\PSoC4/cyfitter_cfg.c **** 			{0xA9u, 0x80u},
 862:Generated_Source\PSoC4/cyfitter_cfg.c **** 			{0xACu, 0x04u},
 863:Generated_Source\PSoC4/cyfitter_cfg.c **** 			{0xB4u, 0x10u},
 864:Generated_Source\PSoC4/cyfitter_cfg.c **** 			{0xEAu, 0x08u},
 865:Generated_Source\PSoC4/cyfitter_cfg.c **** 			{0x01u, 0x0Eu},
 866:Generated_Source\PSoC4/cyfitter_cfg.c **** 			{0x10u, 0x02u},
 867:Generated_Source\PSoC4/cyfitter_cfg.c **** 			{0x12u, 0x0Eu},
ARM GAS  C:\Users\austc\AppData\Local\Temp\ccKSAcZi.s 			page 23


 868:Generated_Source\PSoC4/cyfitter_cfg.c **** 		};
 869:Generated_Source\PSoC4/cyfitter_cfg.c **** 
 870:Generated_Source\PSoC4/cyfitter_cfg.c **** 
 871:Generated_Source\PSoC4/cyfitter_cfg.c **** 
 872:Generated_Source\PSoC4/cyfitter_cfg.c **** 		CYPACKED typedef struct {
 873:Generated_Source\PSoC4/cyfitter_cfg.c **** 			void CYFAR *address;
 874:Generated_Source\PSoC4/cyfitter_cfg.c **** 			uint16 size;
 875:Generated_Source\PSoC4/cyfitter_cfg.c **** 		} CYPACKED_ATTR cfg_memset_t;
 876:Generated_Source\PSoC4/cyfitter_cfg.c **** 
 877:Generated_Source\PSoC4/cyfitter_cfg.c **** 		static const cfg_memset_t CYCODE cfg_memset_list[] = {
 878:Generated_Source\PSoC4/cyfitter_cfg.c **** 			/* address, size */
 879:Generated_Source\PSoC4/cyfitter_cfg.c **** 			{(void CYFAR *)(CYDEV_UDB_P0_U0_BASE), 2048u},
 880:Generated_Source\PSoC4/cyfitter_cfg.c **** 			{(void CYFAR *)(CYDEV_UDB_DSI0_BASE), 2048u},
 881:Generated_Source\PSoC4/cyfitter_cfg.c **** 		};
 882:Generated_Source\PSoC4/cyfitter_cfg.c **** 
 883:Generated_Source\PSoC4/cyfitter_cfg.c **** 		uint8 CYDATA i;
 884:Generated_Source\PSoC4/cyfitter_cfg.c **** 
 885:Generated_Source\PSoC4/cyfitter_cfg.c **** 		/* Zero out critical memory blocks before beginning configuration */
 886:Generated_Source\PSoC4/cyfitter_cfg.c **** 		for (i = 0u; i < (sizeof(cfg_memset_list)/sizeof(cfg_memset_list[0])); i++)
 352              		.loc 1 886 0
 353 0122 0024     		movs	r4, #0
 354 0124 0FE0     		b	.L14
 355              	.LVL19:
 356              	.L15:
 357              	.LBB4:
 887:Generated_Source\PSoC4/cyfitter_cfg.c **** 		{
 888:Generated_Source\PSoC4/cyfitter_cfg.c **** 			const cfg_memset_t CYCODE * CYDATA ms = &cfg_memset_list[i];
 889:Generated_Source\PSoC4/cyfitter_cfg.c **** 			CYMEMZERO(ms->address, (size_t)(uint32)(ms->size));
 358              		.loc 1 889 0 discriminator 3
 359 0126 3C48     		ldr	r0, .L16+4
 360 0128 6200     		lsls	r2, r4, #1
 361 012a 1319     		adds	r3, r2, r4
 362 012c 5900     		lsls	r1, r3, #1
 363 012e 0B00     		movs	r3, r1
 364 0130 4118     		adds	r1, r0, r1
 365 0132 8988     		ldrh	r1, [r1, #4]
 366 0134 1A5A     		ldrh	r2, [r3, r0]
 367 0136 C318     		adds	r3, r0, r3
 368 0138 5888     		ldrh	r0, [r3, #2]
 369 013a 0004     		lsls	r0, r0, #16
 370 013c 1043     		orrs	r0, r2
 371 013e FFF7FEFF 		bl	CYMEMZERO
 372              	.LVL20:
 373              	.LBE4:
 886:Generated_Source\PSoC4/cyfitter_cfg.c **** 		{
 374              		.loc 1 886 0 discriminator 3
 375 0142 0134     		adds	r4, r4, #1
 376              	.LVL21:
 377 0144 E4B2     		uxtb	r4, r4
 378              	.LVL22:
 379              	.L14:
 886:Generated_Source\PSoC4/cyfitter_cfg.c **** 		{
 380              		.loc 1 886 0 is_stmt 0 discriminator 1
 381 0146 012C     		cmp	r4, #1
 382 0148 EDD9     		bls	.L15
 890:Generated_Source\PSoC4/cyfitter_cfg.c **** 		}
 891:Generated_Source\PSoC4/cyfitter_cfg.c **** 
ARM GAS  C:\Users\austc\AppData\Local\Temp\ccKSAcZi.s 			page 24


 892:Generated_Source\PSoC4/cyfitter_cfg.c **** 		cfg_write_bytes32(cy_cfg_addr_table, cy_cfg_data_table);
 383              		.loc 1 892 0 is_stmt 1
 384 014a 3349     		ldr	r1, .L16+4
 385 014c 0C31     		adds	r1, r1, #12
 386 014e 3348     		ldr	r0, .L16+8
 387 0150 2830     		adds	r0, r0, #40
 388 0152 FFF7FEFF 		bl	cfg_write_bytes32
 389              	.LVL23:
 893:Generated_Source\PSoC4/cyfitter_cfg.c **** 
 894:Generated_Source\PSoC4/cyfitter_cfg.c **** 		/* HSIOM Starting address: CYDEV_HSIOM_BASE */
 895:Generated_Source\PSoC4/cyfitter_cfg.c **** 		CY_SET_REG32((void *)(CYDEV_HSIOM_BASE), 0x080000AAu);
 390              		.loc 1 895 0
 391 0156 324A     		ldr	r2, .L16+12
 392 0158 324B     		ldr	r3, .L16+16
 393 015a 1A60     		str	r2, [r3]
 896:Generated_Source\PSoC4/cyfitter_cfg.c **** 		CY_SET_REG32((void *)(CYREG_HSIOM_PORT_SEL2), 0x00000099u);
 394              		.loc 1 896 0
 395 015c 9922     		movs	r2, #153
 396 015e 324B     		ldr	r3, .L16+20
 397 0160 1A60     		str	r2, [r3]
 897:Generated_Source\PSoC4/cyfitter_cfg.c **** 		CY_SET_REG32((void *)(CYREG_HSIOM_PORT_SEL3), 0x0000EE00u);
 398              		.loc 1 897 0
 399 0162 EE22     		movs	r2, #238
 400 0164 1202     		lsls	r2, r2, #8
 401 0166 314B     		ldr	r3, .L16+24
 402 0168 1A60     		str	r2, [r3]
 898:Generated_Source\PSoC4/cyfitter_cfg.c **** 		CY_SET_REG32((void *)(CYREG_HSIOM_PORT_SEL6), 0x00EE0000u);
 403              		.loc 1 898 0
 404 016a EE22     		movs	r2, #238
 405 016c 1204     		lsls	r2, r2, #16
 406 016e 304B     		ldr	r3, .L16+28
 407 0170 1A60     		str	r2, [r3]
 899:Generated_Source\PSoC4/cyfitter_cfg.c **** 		CY_SET_REG32((void *)(CYREG_HSIOM_PORT_SEL7), 0x00000008u);
 408              		.loc 1 899 0
 409 0172 0822     		movs	r2, #8
 410 0174 2F4B     		ldr	r3, .L16+32
 411 0176 1A60     		str	r2, [r3]
 900:Generated_Source\PSoC4/cyfitter_cfg.c **** 
 901:Generated_Source\PSoC4/cyfitter_cfg.c **** 		/* UDB_PA_1 Starting address: CYDEV_UDB_PA1_BASE */
 902:Generated_Source\PSoC4/cyfitter_cfg.c **** 		CY_SET_REG32((void *)(CYDEV_UDB_PA1_BASE), 0x00990000u);
 412              		.loc 1 902 0
 413 0178 9923     		movs	r3, #153
 414 017a 1B04     		lsls	r3, r3, #16
 415 017c 2E4A     		ldr	r2, .L16+36
 416 017e 1360     		str	r3, [r2]
 903:Generated_Source\PSoC4/cyfitter_cfg.c **** 
 904:Generated_Source\PSoC4/cyfitter_cfg.c **** 		/* UDB_PA_2 Starting address: CYDEV_UDB_PA2_BASE */
 905:Generated_Source\PSoC4/cyfitter_cfg.c **** 		CY_SET_REG32((void *)(CYDEV_UDB_PA2_BASE), 0x00990000u);
 417              		.loc 1 905 0
 418 0180 2E4A     		ldr	r2, .L16+40
 419 0182 1360     		str	r3, [r2]
 906:Generated_Source\PSoC4/cyfitter_cfg.c **** 
 907:Generated_Source\PSoC4/cyfitter_cfg.c **** 		/* UDB_PA_4 Starting address: CYDEV_UDB_PA4_BASE */
 908:Generated_Source\PSoC4/cyfitter_cfg.c **** 		CY_SET_REG32((void *)(CYDEV_UDB_PA4_BASE), 0x00990000u);
 420              		.loc 1 908 0
 421 0184 2E4A     		ldr	r2, .L16+44
 422 0186 1360     		str	r3, [r2]
ARM GAS  C:\Users\austc\AppData\Local\Temp\ccKSAcZi.s 			page 25


 909:Generated_Source\PSoC4/cyfitter_cfg.c **** 
 910:Generated_Source\PSoC4/cyfitter_cfg.c **** 		/* UDB_PA_5 Starting address: CYDEV_UDB_PA5_BASE */
 911:Generated_Source\PSoC4/cyfitter_cfg.c **** 		CY_SET_REG32((void *)(CYDEV_UDB_PA5_BASE), 0x00990000u);
 423              		.loc 1 911 0
 424 0188 2E4A     		ldr	r2, .L16+48
 425 018a 1360     		str	r3, [r2]
 912:Generated_Source\PSoC4/cyfitter_cfg.c **** 
 913:Generated_Source\PSoC4/cyfitter_cfg.c **** 		/* UDB_PA_7 Starting address: CYDEV_UDB_PA7_BASE */
 914:Generated_Source\PSoC4/cyfitter_cfg.c **** 		CY_SET_REG32((void *)(CYDEV_UDB_PA7_BASE), 0x00990000u);
 426              		.loc 1 914 0
 427 018c 2E4A     		ldr	r2, .L16+52
 428 018e 1360     		str	r3, [r2]
 915:Generated_Source\PSoC4/cyfitter_cfg.c **** 
 916:Generated_Source\PSoC4/cyfitter_cfg.c **** 		/* UDB_P1_U0_CFG24 Starting address: CYDEV_UDB_P1_U0_CFG24 */
 917:Generated_Source\PSoC4/cyfitter_cfg.c **** 		CY_SET_REG32((void *)(CYREG_UDB_P1_U0_CFG24), 0x44040404u);
 429              		.loc 1 917 0
 430 0190 2E4A     		ldr	r2, .L16+56
 431 0192 2F4B     		ldr	r3, .L16+60
 432 0194 1A60     		str	r2, [r3]
 918:Generated_Source\PSoC4/cyfitter_cfg.c **** 
 919:Generated_Source\PSoC4/cyfitter_cfg.c **** 		/* INT_SELECT Starting address: CYDEV_CPUSS_INT_SEL */
 920:Generated_Source\PSoC4/cyfitter_cfg.c **** 		CY_SET_REG32((void *)(CYREG_CPUSS_INT_SEL), 0x00000003u);
 433              		.loc 1 920 0
 434 0196 0323     		movs	r3, #3
 435 0198 2E4A     		ldr	r2, .L16+64
 436 019a 1360     		str	r3, [r2]
 921:Generated_Source\PSoC4/cyfitter_cfg.c **** 
 922:Generated_Source\PSoC4/cyfitter_cfg.c **** 		/* INT_CONFIG Starting address: CYDEV_UDB_INT_CFG */
 923:Generated_Source\PSoC4/cyfitter_cfg.c **** 		CY_SET_REG32((void *)(CYREG_UDB_INT_CFG), 0x00000003u);
 437              		.loc 1 923 0
 438 019c 2E4A     		ldr	r2, .L16+68
 439 019e 1360     		str	r3, [r2]
 924:Generated_Source\PSoC4/cyfitter_cfg.c **** 
 925:Generated_Source\PSoC4/cyfitter_cfg.c **** 		/* Enable UDB array and digital routing */
 926:Generated_Source\PSoC4/cyfitter_cfg.c **** 		CY_SET_XTND_REG8((void *)CYREG_UDB_UDB_WAIT_CFG, (uint8)((CY_GET_XTND_REG8((void *)CYREG_UDB_UDB_
 440              		.loc 1 926 0
 441 01a0 2E49     		ldr	r1, .L16+72
 442 01a2 0B78     		ldrb	r3, [r1]
 443 01a4 3C22     		movs	r2, #60
 444 01a6 9343     		bics	r3, r2
 445 01a8 1422     		movs	r2, #20
 446 01aa 1343     		orrs	r3, r2
 447 01ac DBB2     		uxtb	r3, r3
 448 01ae 0B70     		strb	r3, [r1]
 927:Generated_Source\PSoC4/cyfitter_cfg.c **** 		CY_SET_XTND_REG8((void *)CYREG_UDB_UDB_BANK_CTL, (uint8)(CY_GET_XTND_REG8((void *)CYREG_UDB_UDB_B
 449              		.loc 1 927 0
 450 01b0 2B4A     		ldr	r2, .L16+76
 451 01b2 1178     		ldrb	r1, [r2]
 452 01b4 1623     		movs	r3, #22
 453 01b6 0B43     		orrs	r3, r1
 454 01b8 DBB2     		uxtb	r3, r3
 455 01ba 1370     		strb	r3, [r2]
 456              	.LBE3:
 928:Generated_Source\PSoC4/cyfitter_cfg.c **** 	}
 929:Generated_Source\PSoC4/cyfitter_cfg.c **** 
 930:Generated_Source\PSoC4/cyfitter_cfg.c **** 	/* Perform second pass device configuration. These items must be configured in specific order afte
 931:Generated_Source\PSoC4/cyfitter_cfg.c **** 	/* IOPINS0_0 Starting address: CYDEV_GPIO_PRT0_BASE */
ARM GAS  C:\Users\austc\AppData\Local\Temp\ccKSAcZi.s 			page 26


 932:Generated_Source\PSoC4/cyfitter_cfg.c **** 	CY_SET_REG32((void *)(CYDEV_GPIO_PRT0_BASE), 0x00000002u);
 457              		.loc 1 932 0
 458 01bc 0223     		movs	r3, #2
 459 01be 294A     		ldr	r2, .L16+80
 460 01c0 1360     		str	r3, [r2]
 933:Generated_Source\PSoC4/cyfitter_cfg.c **** 	CY_SET_REG32((void *)(CYREG_GPIO_PRT0_PC), 0x00040031u);
 461              		.loc 1 933 0
 462 01c2 2949     		ldr	r1, .L16+84
 463 01c4 294A     		ldr	r2, .L16+88
 464 01c6 1160     		str	r1, [r2]
 934:Generated_Source\PSoC4/cyfitter_cfg.c **** 
 935:Generated_Source\PSoC4/cyfitter_cfg.c **** 	/* IOPINS0_1 Starting address: CYDEV_GPIO_PRT1_BASE */
 936:Generated_Source\PSoC4/cyfitter_cfg.c **** 	CY_SET_REG32((void *)(CYREG_GPIO_PRT1_PC), 0x00000009u);
 465              		.loc 1 936 0
 466 01c8 0921     		movs	r1, #9
 467 01ca 294A     		ldr	r2, .L16+92
 468 01cc 1160     		str	r1, [r2]
 937:Generated_Source\PSoC4/cyfitter_cfg.c **** 
 938:Generated_Source\PSoC4/cyfitter_cfg.c **** 	/* IOPINS0_2 Starting address: CYDEV_GPIO_PRT2_BASE */
 939:Generated_Source\PSoC4/cyfitter_cfg.c **** 	CY_SET_REG32((void *)(CYDEV_GPIO_PRT2_BASE), 0x00000032u);
 469              		.loc 1 939 0
 470 01ce 2931     		adds	r1, r1, #41
 471 01d0 284A     		ldr	r2, .L16+96
 472 01d2 1160     		str	r1, [r2]
 940:Generated_Source\PSoC4/cyfitter_cfg.c **** 	CY_SET_REG32((void *)(CYREG_GPIO_PRT2_PC), 0x00C12031u);
 473              		.loc 1 940 0
 474 01d4 2849     		ldr	r1, .L16+100
 475 01d6 294A     		ldr	r2, .L16+104
 476 01d8 1160     		str	r1, [r2]
 941:Generated_Source\PSoC4/cyfitter_cfg.c **** 	CY_SET_REG32((void *)(CYREG_GPIO_PRT2_PC2), 0x00000002u);
 477              		.loc 1 941 0
 478 01da 294A     		ldr	r2, .L16+108
 479 01dc 1360     		str	r3, [r2]
 942:Generated_Source\PSoC4/cyfitter_cfg.c **** 
 943:Generated_Source\PSoC4/cyfitter_cfg.c **** 	/* IOPINS0_3 Starting address: CYDEV_GPIO_PRT3_BASE */
 944:Generated_Source\PSoC4/cyfitter_cfg.c **** 	CY_SET_REG32((void *)(CYREG_GPIO_PRT3_PC), 0x00000D80u);
 480              		.loc 1 944 0
 481 01de D822     		movs	r2, #216
 482 01e0 1201     		lsls	r2, r2, #4
 483 01e2 284B     		ldr	r3, .L16+112
 484 01e4 1A60     		str	r2, [r3]
 945:Generated_Source\PSoC4/cyfitter_cfg.c **** 
 946:Generated_Source\PSoC4/cyfitter_cfg.c **** 	/* IOPINS0_4 Starting address: CYDEV_GPIO_PRT4_BASE */
 947:Generated_Source\PSoC4/cyfitter_cfg.c **** 	CY_SET_REG32((void *)(CYDEV_GPIO_PRT4_BASE), 0x0000004Fu);
 485              		.loc 1 947 0
 486 01e6 4F22     		movs	r2, #79
 487 01e8 274B     		ldr	r3, .L16+116
 488 01ea 1A60     		str	r2, [r3]
 948:Generated_Source\PSoC4/cyfitter_cfg.c **** 	CY_SET_REG32((void *)(CYREG_GPIO_PRT4_PC), 0x00080492u);
 489              		.loc 1 948 0
 490 01ec 274A     		ldr	r2, .L16+120
 491 01ee 284B     		ldr	r3, .L16+124
 492 01f0 1A60     		str	r2, [r3]
 949:Generated_Source\PSoC4/cyfitter_cfg.c **** 
 950:Generated_Source\PSoC4/cyfitter_cfg.c **** 	/* IOPINS0_6 Starting address: CYDEV_GPIO_PRT6_BASE */
 951:Generated_Source\PSoC4/cyfitter_cfg.c **** 	CY_SET_REG32((void *)(CYDEV_GPIO_PRT6_BASE), 0x00000033u);
 493              		.loc 1 951 0
ARM GAS  C:\Users\austc\AppData\Local\Temp\ccKSAcZi.s 			page 27


 494 01f2 3322     		movs	r2, #51
 495 01f4 274B     		ldr	r3, .L16+128
 496 01f6 1A60     		str	r2, [r3]
 952:Generated_Source\PSoC4/cyfitter_cfg.c **** 	CY_SET_REG32((void *)(CYREG_GPIO_PRT6_PC), 0x00024012u);
 497              		.loc 1 952 0
 498 01f8 274A     		ldr	r2, .L16+132
 499 01fa 284B     		ldr	r3, .L16+136
 500 01fc 1A60     		str	r2, [r3]
 953:Generated_Source\PSoC4/cyfitter_cfg.c **** 
 954:Generated_Source\PSoC4/cyfitter_cfg.c **** 	/* IOPINS0_7 Starting address: CYDEV_GPIO_PRT7_BASE */
 955:Generated_Source\PSoC4/cyfitter_cfg.c **** 	CY_SET_REG32((void *)(CYDEV_GPIO_PRT7_BASE), 0x00000001u);
 501              		.loc 1 955 0
 502 01fe 0122     		movs	r2, #1
 503 0200 274B     		ldr	r3, .L16+140
 504 0202 1A60     		str	r2, [r3]
 956:Generated_Source\PSoC4/cyfitter_cfg.c **** 	CY_SET_REG32((void *)(CYREG_GPIO_PRT7_PC), 0x00000036u);
 505              		.loc 1 956 0
 506 0204 3532     		adds	r2, r2, #53
 507 0206 274B     		ldr	r3, .L16+144
 508 0208 1A60     		str	r2, [r3]
 957:Generated_Source\PSoC4/cyfitter_cfg.c **** 
 958:Generated_Source\PSoC4/cyfitter_cfg.c **** 
 959:Generated_Source\PSoC4/cyfitter_cfg.c **** 	/* Setup clocks based on selections from Clock DWR */
 960:Generated_Source\PSoC4/cyfitter_cfg.c **** 	ClockSetup();
 509              		.loc 1 960 0
 510 020a FFF7F9FE 		bl	ClockSetup
 511              	.LVL24:
 961:Generated_Source\PSoC4/cyfitter_cfg.c **** 
 962:Generated_Source\PSoC4/cyfitter_cfg.c **** 	/* Perform basic analog initialization to defaults */
 963:Generated_Source\PSoC4/cyfitter_cfg.c **** 	AnalogSetDefault();
 512              		.loc 1 963 0
 513 020e FFF7FEFF 		bl	AnalogSetDefault
 514              	.LVL25:
 964:Generated_Source\PSoC4/cyfitter_cfg.c **** 
 965:Generated_Source\PSoC4/cyfitter_cfg.c **** }
 515              		.loc 1 965 0
 516              		@ sp needed
 517              	.LVL26:
 518 0212 10BD     		pop	{r4, pc}
 519              	.L17:
 520              		.align	2
 521              	.L16:
 522 0214 1C700F40 		.word	1074753564
 523 0218 00000000 		.word	.LANCHOR0
 524 021c 00040000 		.word	.LANCHOR1
 525 0220 AA000008 		.word	134217898
 526 0224 00000240 		.word	1073872896
 527 0228 00020240 		.word	1073873408
 528 022c 00030240 		.word	1073873664
 529 0230 00060240 		.word	1073874432
 530 0234 00070240 		.word	1073874688
 531 0238 10500F40 		.word	1074745360
 532 023c 20500F40 		.word	1074745376
 533 0240 40500F40 		.word	1074745408
 534 0244 50500F40 		.word	1074745424
 535 0248 70500F40 		.word	1074745456
 536 024c 04040444 		.word	1141113860
ARM GAS  C:\Users\austc\AppData\Local\Temp\ccKSAcZi.s 			page 28


 537 0250 58320F40 		.word	1074737752
 538 0254 20001040 		.word	1074790432
 539 0258 00800F40 		.word	1074757632
 540 025c 01700F40 		.word	1074753537
 541 0260 00700F40 		.word	1074753536
 542 0264 00000440 		.word	1074003968
 543 0268 31000400 		.word	262193
 544 026c 08000440 		.word	1074003976
 545 0270 08010440 		.word	1074004232
 546 0274 00020440 		.word	1074004480
 547 0278 3120C100 		.word	12656689
 548 027c 08020440 		.word	1074004488
 549 0280 18020440 		.word	1074004504
 550 0284 08030440 		.word	1074004744
 551 0288 00040440 		.word	1074004992
 552 028c 92040800 		.word	525458
 553 0290 08040440 		.word	1074005000
 554 0294 00060440 		.word	1074005504
 555 0298 12400200 		.word	147474
 556 029c 08060440 		.word	1074005512
 557 02a0 00070440 		.word	1074005760
 558 02a4 08070440 		.word	1074005768
 559              		.cfi_endproc
 560              	.LFE40:
 561              		.size	cyfitter_cfg, .-cyfitter_cfg
 562              		.section	.rodata
 563              		.align	2
 564              		.set	.LANCHOR0,. + 0
 565              		.set	.LANCHOR1,. + 1024
 566              		.type	cfg_memset_list.6687, %object
 567              		.size	cfg_memset_list.6687, 12
 568              	cfg_memset_list.6687:
 569 0000 00300F40 		.word	1074737152
 570 0004 0008     		.short	2048
 571 0006 00400F40 		.4byte	1074741248
 572 000a 0008     		.short	2048
 573              		.type	cy_cfg_data_table.6682, %object
 574              		.size	cy_cfg_data_table.6682, 1052
 575              	cy_cfg_data_table.6682:
 576 000c 81       		.byte	-127
 577 000d 0F       		.byte	15
 578 000e 82       		.byte	-126
 579 000f 6F       		.byte	111
 580 0010 85       		.byte	-123
 581 0011 03       		.byte	3
 582 0012 86       		.byte	-122
 583 0013 0D       		.byte	13
 584 0014 01       		.byte	1
 585 0015 FD       		.byte	-3
 586 0016 03       		.byte	3
 587 0017 02       		.byte	2
 588 0018 06       		.byte	6
 589 0019 08       		.byte	8
 590 001a 08       		.byte	8
 591 001b 01       		.byte	1
 592 001c 09       		.byte	9
 593 001d CF       		.byte	-49
ARM GAS  C:\Users\austc\AppData\Local\Temp\ccKSAcZi.s 			page 29


 594 001e 0A       		.byte	10
 595 001f 02       		.byte	2
 596 0020 0B       		.byte	11
 597 0021 30       		.byte	48
 598 0022 0C       		.byte	12
 599 0023 04       		.byte	4
 600 0024 0D       		.byte	13
 601 0025 94       		.byte	-108
 602 0026 0F       		.byte	15
 603 0027 60       		.byte	96
 604 0028 11       		.byte	17
 605 0029 30       		.byte	48
 606 002a 13       		.byte	19
 607 002b C9       		.byte	-55
 608 002c 15       		.byte	21
 609 002d 73       		.byte	115
 610 002e 16       		.byte	22
 611 002f 04       		.byte	4
 612 0030 1A       		.byte	26
 613 0031 07       		.byte	7
 614 0032 1B       		.byte	27
 615 0033 0F       		.byte	15
 616 0034 20       		.byte	32
 617 0035 01       		.byte	1
 618 0036 22       		.byte	34
 619 0037 02       		.byte	2
 620 0038 24       		.byte	36
 621 0039 07       		.byte	7
 622 003a 29       		.byte	41
 623 003b 9E       		.byte	-98
 624 003c 2B       		.byte	43
 625 003d 60       		.byte	96
 626 003e 2C       		.byte	44
 627 003f 07       		.byte	7
 628 0040 34       		.byte	52
 629 0041 0F       		.byte	15
 630 0042 35       		.byte	53
 631 0043 FF       		.byte	-1
 632 0044 3F       		.byte	63
 633 0045 10       		.byte	16
 634 0046 58       		.byte	88
 635 0047 04       		.byte	4
 636 0048 59       		.byte	89
 637 0049 04       		.byte	4
 638 004a 5C       		.byte	92
 639 004b 01       		.byte	1
 640 004c 5F       		.byte	95
 641 004d 01       		.byte	1
 642 004e 86       		.byte	-122
 643 004f 10       		.byte	16
 644 0050 8A       		.byte	-118
 645 0051 10       		.byte	16
 646 0052 8E       		.byte	-114
 647 0053 0F       		.byte	15
 648 0054 93       		.byte	-109
 649 0055 01       		.byte	1
 650 0056 97       		.byte	-105
ARM GAS  C:\Users\austc\AppData\Local\Temp\ccKSAcZi.s 			page 30


 651 0057 02       		.byte	2
 652 0058 98       		.byte	-104
 653 0059 0C       		.byte	12
 654 005a 9A       		.byte	-102
 655 005b 02       		.byte	2
 656 005c 9C       		.byte	-100
 657 005d 08       		.byte	8
 658 005e 9D       		.byte	-99
 659 005f 02       		.byte	2
 660 0060 9E       		.byte	-98
 661 0061 01       		.byte	1
 662 0062 A0       		.byte	-96
 663 0063 10       		.byte	16
 664 0064 A4       		.byte	-92
 665 0065 07       		.byte	7
 666 0066 A5       		.byte	-91
 667 0067 02       		.byte	2
 668 0068 A8       		.byte	-88
 669 0069 0C       		.byte	12
 670 006a AA       		.byte	-86
 671 006b 01       		.byte	1
 672 006c AC       		.byte	-84
 673 006d 0B       		.byte	11
 674 006e AE       		.byte	-82
 675 006f 04       		.byte	4
 676 0070 B0       		.byte	-80
 677 0071 10       		.byte	16
 678 0072 B2       		.byte	-78
 679 0073 0F       		.byte	15
 680 0074 B3       		.byte	-77
 681 0075 02       		.byte	2
 682 0076 B7       		.byte	-73
 683 0077 01       		.byte	1
 684 0078 BE       		.byte	-66
 685 0079 01       		.byte	1
 686 007a BF       		.byte	-65
 687 007b 04       		.byte	4
 688 007c D4       		.byte	-44
 689 007d 0F       		.byte	15
 690 007e D8       		.byte	-40
 691 007f 04       		.byte	4
 692 0080 D9       		.byte	-39
 693 0081 04       		.byte	4
 694 0082 DB       		.byte	-37
 695 0083 04       		.byte	4
 696 0084 DC       		.byte	-36
 697 0085 11       		.byte	17
 698 0086 DD       		.byte	-35
 699 0087 10       		.byte	16
 700 0088 DF       		.byte	-33
 701 0089 01       		.byte	1
 702 008a 00       		.byte	0
 703 008b 04       		.byte	4
 704 008c 03       		.byte	3
 705 008d 09       		.byte	9
 706 008e 05       		.byte	5
 707 008f 14       		.byte	20
ARM GAS  C:\Users\austc\AppData\Local\Temp\ccKSAcZi.s 			page 31


 708 0090 07       		.byte	7
 709 0091 01       		.byte	1
 710 0092 0A       		.byte	10
 711 0093 08       		.byte	8
 712 0094 0B       		.byte	11
 713 0095 20       		.byte	32
 714 0096 0D       		.byte	13
 715 0097 40       		.byte	64
 716 0098 0F       		.byte	15
 717 0099 08       		.byte	8
 718 009a 12       		.byte	18
 719 009b 41       		.byte	65
 720 009c 13       		.byte	19
 721 009d 08       		.byte	8
 722 009e 15       		.byte	21
 723 009f 20       		.byte	32
 724 00a0 16       		.byte	22
 725 00a1 01       		.byte	1
 726 00a2 17       		.byte	23
 727 00a3 0A       		.byte	10
 728 00a4 19       		.byte	25
 729 00a5 10       		.byte	16
 730 00a6 1A       		.byte	26
 731 00a7 08       		.byte	8
 732 00a8 1B       		.byte	27
 733 00a9 20       		.byte	32
 734 00aa 1E       		.byte	30
 735 00ab 40       		.byte	64
 736 00ac 1F       		.byte	31
 737 00ad 08       		.byte	8
 738 00ae 20       		.byte	32
 739 00af 04       		.byte	4
 740 00b0 24       		.byte	36
 741 00b1 10       		.byte	16
 742 00b2 26       		.byte	38
 743 00b3 80       		.byte	-128
 744 00b4 27       		.byte	39
 745 00b5 02       		.byte	2
 746 00b6 2B       		.byte	43
 747 00b7 0C       		.byte	12
 748 00b8 2F       		.byte	47
 749 00b9 20       		.byte	32
 750 00ba 31       		.byte	49
 751 00bb 10       		.byte	16
 752 00bc 33       		.byte	51
 753 00bd 05       		.byte	5
 754 00be 35       		.byte	53
 755 00bf 05       		.byte	5
 756 00c0 36       		.byte	54
 757 00c1 80       		.byte	-128
 758 00c2 38       		.byte	56
 759 00c3 82       		.byte	-126
 760 00c4 39       		.byte	57
 761 00c5 A0       		.byte	-96
 762 00c6 3A       		.byte	58
 763 00c7 41       		.byte	65
 764 00c8 3B       		.byte	59
ARM GAS  C:\Users\austc\AppData\Local\Temp\ccKSAcZi.s 			page 32


 765 00c9 21       		.byte	33
 766 00ca 5C       		.byte	92
 767 00cb 10       		.byte	16
 768 00cc 5E       		.byte	94
 769 00cd 40       		.byte	64
 770 00ce 5F       		.byte	95
 771 00cf 09       		.byte	9
 772 00d0 C0       		.byte	-64
 773 00d1 E7       		.byte	-25
 774 00d2 C2       		.byte	-62
 775 00d3 C6       		.byte	-58
 776 00d4 C4       		.byte	-60
 777 00d5 FD       		.byte	-3
 778 00d6 CA       		.byte	-54
 779 00d7 44       		.byte	68
 780 00d8 CC       		.byte	-52
 781 00d9 D7       		.byte	-41
 782 00da CE       		.byte	-50
 783 00db 0D       		.byte	13
 784 00dc D6       		.byte	-42
 785 00dd F0       		.byte	-16
 786 00de 02       		.byte	2
 787 00df 04       		.byte	4
 788 00e0 05       		.byte	5
 789 00e1 06       		.byte	6
 790 00e2 09       		.byte	9
 791 00e3 03       		.byte	3
 792 00e4 0C       		.byte	12
 793 00e5 04       		.byte	4
 794 00e6 1B       		.byte	27
 795 00e7 08       		.byte	8
 796 00e8 1C       		.byte	28
 797 00e9 03       		.byte	3
 798 00ea 20       		.byte	32
 799 00eb 03       		.byte	3
 800 00ec 24       		.byte	36
 801 00ed 01       		.byte	1
 802 00ee 29       		.byte	41
 803 00ef 06       		.byte	6
 804 00f0 2D       		.byte	45
 805 00f1 05       		.byte	5
 806 00f2 30       		.byte	48
 807 00f3 04       		.byte	4
 808 00f4 31       		.byte	49
 809 00f5 08       		.byte	8
 810 00f6 32       		.byte	50
 811 00f7 02       		.byte	2
 812 00f8 35       		.byte	53
 813 00f9 07       		.byte	7
 814 00fa 36       		.byte	54
 815 00fb 01       		.byte	1
 816 00fc 38       		.byte	56
 817 00fd 88       		.byte	-120
 818 00fe 39       		.byte	57
 819 00ff 20       		.byte	32
 820 0100 3E       		.byte	62
 821 0101 41       		.byte	65
ARM GAS  C:\Users\austc\AppData\Local\Temp\ccKSAcZi.s 			page 33


 822 0102 40       		.byte	64
 823 0103 51       		.byte	81
 824 0104 41       		.byte	65
 825 0105 06       		.byte	6
 826 0106 49       		.byte	73
 827 0107 FF       		.byte	-1
 828 0108 4A       		.byte	74
 829 0109 FF       		.byte	-1
 830 010a 4B       		.byte	75
 831 010b FF       		.byte	-1
 832 010c 4D       		.byte	77
 833 010d A0       		.byte	-96
 834 010e 4F       		.byte	79
 835 010f 01       		.byte	1
 836 0110 50       		.byte	80
 837 0111 18       		.byte	24
 838 0112 54       		.byte	84
 839 0113 0F       		.byte	15
 840 0114 58       		.byte	88
 841 0115 04       		.byte	4
 842 0116 59       		.byte	89
 843 0117 04       		.byte	4
 844 0118 5A       		.byte	90
 845 0119 04       		.byte	4
 846 011a 5B       		.byte	91
 847 011b 04       		.byte	4
 848 011c 5C       		.byte	92
 849 011d 11       		.byte	17
 850 011e 5D       		.byte	93
 851 011f 11       		.byte	17
 852 0120 5F       		.byte	95
 853 0121 05       		.byte	5
 854 0122 60       		.byte	96
 855 0123 40       		.byte	64
 856 0124 62       		.byte	98
 857 0125 80       		.byte	-128
 858 0126 64       		.byte	100
 859 0127 40       		.byte	64
 860 0128 65       		.byte	101
 861 0129 40       		.byte	64
 862 012a 66       		.byte	102
 863 012b 80       		.byte	-128
 864 012c 68       		.byte	104
 865 012d 40       		.byte	64
 866 012e 6A       		.byte	106
 867 012f 80       		.byte	-128
 868 0130 6C       		.byte	108
 869 0131 40       		.byte	64
 870 0132 6D       		.byte	109
 871 0133 20       		.byte	32
 872 0134 6E       		.byte	110
 873 0135 80       		.byte	-128
 874 0136 86       		.byte	-122
 875 0137 03       		.byte	3
 876 0138 92       		.byte	-110
 877 0139 01       		.byte	1
 878 013a 94       		.byte	-108
ARM GAS  C:\Users\austc\AppData\Local\Temp\ccKSAcZi.s 			page 34


 879 013b 08       		.byte	8
 880 013c 98       		.byte	-104
 881 013d 01       		.byte	1
 882 013e A2       		.byte	-94
 883 013f 0C       		.byte	12
 884 0140 B0       		.byte	-80
 885 0141 08       		.byte	8
 886 0142 B2       		.byte	-78
 887 0143 04       		.byte	4
 888 0144 B4       		.byte	-76
 889 0145 02       		.byte	2
 890 0146 B6       		.byte	-74
 891 0147 01       		.byte	1
 892 0148 BE       		.byte	-66
 893 0149 41       		.byte	65
 894 014a C0       		.byte	-64
 895 014b 15       		.byte	21
 896 014c C1       		.byte	-63
 897 014d 06       		.byte	6
 898 014e C5       		.byte	-59
 899 014f 4E       		.byte	78
 900 0150 C6       		.byte	-58
 901 0151 02       		.byte	2
 902 0152 C7       		.byte	-57
 903 0153 3C       		.byte	60
 904 0154 C8       		.byte	-56
 905 0155 37       		.byte	55
 906 0156 C9       		.byte	-55
 907 0157 FF       		.byte	-1
 908 0158 CA       		.byte	-54
 909 0159 FF       		.byte	-1
 910 015a CB       		.byte	-53
 911 015b FF       		.byte	-1
 912 015c CD       		.byte	-51
 913 015d AF       		.byte	-81
 914 015e CE       		.byte	-50
 915 015f 07       		.byte	7
 916 0160 CF       		.byte	-49
 917 0161 01       		.byte	1
 918 0162 D0       		.byte	-48
 919 0163 18       		.byte	24
 920 0164 D2       		.byte	-46
 921 0165 80       		.byte	-128
 922 0166 D8       		.byte	-40
 923 0167 04       		.byte	4
 924 0168 DA       		.byte	-38
 925 0169 04       		.byte	4
 926 016a DB       		.byte	-37
 927 016b 04       		.byte	4
 928 016c DC       		.byte	-36
 929 016d 01       		.byte	1
 930 016e DD       		.byte	-35
 931 016f 11       		.byte	17
 932 0170 DF       		.byte	-33
 933 0171 01       		.byte	1
 934 0172 E0       		.byte	-32
 935 0173 40       		.byte	64
ARM GAS  C:\Users\austc\AppData\Local\Temp\ccKSAcZi.s 			page 35


 936 0174 E2       		.byte	-30
 937 0175 80       		.byte	-128
 938 0176 E4       		.byte	-28
 939 0177 40       		.byte	64
 940 0178 E5       		.byte	-27
 941 0179 40       		.byte	64
 942 017a E6       		.byte	-26
 943 017b 80       		.byte	-128
 944 017c E8       		.byte	-24
 945 017d 40       		.byte	64
 946 017e EA       		.byte	-22
 947 017f 80       		.byte	-128
 948 0180 EC       		.byte	-20
 949 0181 40       		.byte	64
 950 0182 ED       		.byte	-19
 951 0183 20       		.byte	32
 952 0184 EE       		.byte	-18
 953 0185 80       		.byte	-128
 954 0186 00       		.byte	0
 955 0187 04       		.byte	4
 956 0188 05       		.byte	5
 957 0189 01       		.byte	1
 958 018a 07       		.byte	7
 959 018b 02       		.byte	2
 960 018c 09       		.byte	9
 961 018d 02       		.byte	2
 962 018e 0A       		.byte	10
 963 018f 24       		.byte	36
 964 0190 0D       		.byte	13
 965 0191 40       		.byte	64
 966 0192 10       		.byte	16
 967 0193 80       		.byte	-128
 968 0194 15       		.byte	21
 969 0195 02       		.byte	2
 970 0196 17       		.byte	23
 971 0197 08       		.byte	8
 972 0198 19       		.byte	25
 973 0199 02       		.byte	2
 974 019a 1A       		.byte	26
 975 019b 24       		.byte	36
 976 019c 1B       		.byte	27
 977 019d C0       		.byte	-64
 978 019e 1C       		.byte	28
 979 019f 02       		.byte	2
 980 01a0 1D       		.byte	29
 981 01a1 84       		.byte	-124
 982 01a2 1E       		.byte	30
 983 01a3 40       		.byte	64
 984 01a4 24       		.byte	36
 985 01a5 80       		.byte	-128
 986 01a6 25       		.byte	37
 987 01a7 10       		.byte	16
 988 01a8 27       		.byte	39
 989 01a9 0C       		.byte	12
 990 01aa 2F       		.byte	47
 991 01ab 09       		.byte	9
 992 01ac 34       		.byte	52
ARM GAS  C:\Users\austc\AppData\Local\Temp\ccKSAcZi.s 			page 36


 993 01ad 20       		.byte	32
 994 01ae 3D       		.byte	61
 995 01af 28       		.byte	40
 996 01b0 43       		.byte	67
 997 01b1 80       		.byte	-128
 998 01b2 45       		.byte	69
 999 01b3 80       		.byte	-128
 1000 01b4 48       		.byte	72
 1001 01b5 01       		.byte	1
 1002 01b6 49       		.byte	73
 1003 01b7 19       		.byte	25
 1004 01b8 4E       		.byte	78
 1005 01b9 04       		.byte	4
 1006 01ba 4F       		.byte	79
 1007 01bb 80       		.byte	-128
 1008 01bc 50       		.byte	80
 1009 01bd 80       		.byte	-128
 1010 01be 51       		.byte	81
 1011 01bf 41       		.byte	65
 1012 01c0 52       		.byte	82
 1013 01c1 02       		.byte	2
 1014 01c2 53       		.byte	83
 1015 01c3 04       		.byte	4
 1016 01c4 58       		.byte	88
 1017 01c5 86       		.byte	-122
 1018 01c6 5B       		.byte	91
 1019 01c7 10       		.byte	16
 1020 01c8 5D       		.byte	93
 1021 01c9 02       		.byte	2
 1022 01ca 5E       		.byte	94
 1023 01cb 58       		.byte	88
 1024 01cc 65       		.byte	101
 1025 01cd 08       		.byte	8
 1026 01ce 67       		.byte	103
 1027 01cf 08       		.byte	8
 1028 01d0 71       		.byte	113
 1029 01d1 02       		.byte	2
 1030 01d2 7D       		.byte	125
 1031 01d3 28       		.byte	40
 1032 01d4 7F       		.byte	127
 1033 01d5 10       		.byte	16
 1034 01d6 88       		.byte	-120
 1035 01d7 04       		.byte	4
 1036 01d8 8D       		.byte	-115
 1037 01d9 40       		.byte	64
 1038 01da 8E       		.byte	-114
 1039 01db 10       		.byte	16
 1040 01dc 92       		.byte	-110
 1041 01dd 08       		.byte	8
 1042 01de 94       		.byte	-108
 1043 01df 82       		.byte	-126
 1044 01e0 97       		.byte	-105
 1045 01e1 20       		.byte	32
 1046 01e2 99       		.byte	-103
 1047 01e3 10       		.byte	16
 1048 01e4 9B       		.byte	-101
 1049 01e5 02       		.byte	2
ARM GAS  C:\Users\austc\AppData\Local\Temp\ccKSAcZi.s 			page 37


 1050 01e6 9D       		.byte	-99
 1051 01e7 05       		.byte	5
 1052 01e8 9F       		.byte	-97
 1053 01e9 0D       		.byte	13
 1054 01ea A3       		.byte	-93
 1055 01eb 08       		.byte	8
 1056 01ec C0       		.byte	-64
 1057 01ed 94       		.byte	-108
 1058 01ee C2       		.byte	-62
 1059 01ef 8E       		.byte	-114
 1060 01f0 C4       		.byte	-60
 1061 01f1 38       		.byte	56
 1062 01f2 CA       		.byte	-54
 1063 01f3 30       		.byte	48
 1064 01f4 CC       		.byte	-52
 1065 01f5 20       		.byte	32
 1066 01f6 CE       		.byte	-50
 1067 01f7 60       		.byte	96
 1068 01f8 D0       		.byte	-48
 1069 01f9 18       		.byte	24
 1070 01fa D2       		.byte	-46
 1071 01fb 3C       		.byte	60
 1072 01fc D6       		.byte	-42
 1073 01fd FF       		.byte	-1
 1074 01fe D8       		.byte	-40
 1075 01ff 60       		.byte	96
 1076 0200 DE       		.byte	-34
 1077 0201 20       		.byte	32
 1078 0202 01       		.byte	1
 1079 0203 FE       		.byte	-2
 1080 0204 03       		.byte	3
 1081 0205 01       		.byte	1
 1082 0206 04       		.byte	4
 1083 0207 01       		.byte	1
 1084 0208 07       		.byte	7
 1085 0209 01       		.byte	1
 1086 020a 08       		.byte	8
 1087 020b 01       		.byte	1
 1088 020c 09       		.byte	9
 1089 020d A3       		.byte	-93
 1090 020e 0B       		.byte	11
 1091 020f 5C       		.byte	92
 1092 0210 0D       		.byte	13
 1093 0211 0E       		.byte	14
 1094 0212 0E       		.byte	14
 1095 0213 01       		.byte	1
 1096 0214 0F       		.byte	15
 1097 0215 F0       		.byte	-16
 1098 0216 11       		.byte	17
 1099 0217 96       		.byte	-106
 1100 0218 13       		.byte	19
 1101 0219 68       		.byte	104
 1102 021a 15       		.byte	21
 1103 021b 7F       		.byte	127
 1104 021c 16       		.byte	22
 1105 021d 02       		.byte	2
 1106 021e 1C       		.byte	28
ARM GAS  C:\Users\austc\AppData\Local\Temp\ccKSAcZi.s 			page 38


 1107 021f 01       		.byte	1
 1108 0220 20       		.byte	32
 1109 0221 01       		.byte	1
 1110 0222 29       		.byte	41
 1111 0223 C5       		.byte	-59
 1112 0224 2B       		.byte	43
 1113 0225 3A       		.byte	58
 1114 0226 33       		.byte	51
 1115 0227 FF       		.byte	-1
 1116 0228 34       		.byte	52
 1117 0229 03       		.byte	3
 1118 022a 3F       		.byte	63
 1119 022b 04       		.byte	4
 1120 022c 40       		.byte	64
 1121 022d 52       		.byte	82
 1122 022e 49       		.byte	73
 1123 022f FF       		.byte	-1
 1124 0230 4A       		.byte	74
 1125 0231 FF       		.byte	-1
 1126 0232 4B       		.byte	75
 1127 0233 FF       		.byte	-1
 1128 0234 4F       		.byte	79
 1129 0235 01       		.byte	1
 1130 0236 50       		.byte	80
 1131 0237 18       		.byte	24
 1132 0238 58       		.byte	88
 1133 0239 04       		.byte	4
 1134 023a 59       		.byte	89
 1135 023b 04       		.byte	4
 1136 023c 5A       		.byte	90
 1137 023d 04       		.byte	4
 1138 023e 5C       		.byte	92
 1139 023f 01       		.byte	1
 1140 0240 5D       		.byte	93
 1141 0241 03       		.byte	3
 1142 0242 5F       		.byte	95
 1143 0243 01       		.byte	1
 1144 0244 60       		.byte	96
 1145 0245 40       		.byte	64
 1146 0246 62       		.byte	98
 1147 0247 40       		.byte	64
 1148 0248 64       		.byte	100
 1149 0249 40       		.byte	64
 1150 024a 65       		.byte	101
 1151 024b 40       		.byte	64
 1152 024c 66       		.byte	102
 1153 024d 80       		.byte	-128
 1154 024e 68       		.byte	104
 1155 024f 80       		.byte	-128
 1156 0250 6A       		.byte	106
 1157 0251 80       		.byte	-128
 1158 0252 6C       		.byte	108
 1159 0253 80       		.byte	-128
 1160 0254 6E       		.byte	110
 1161 0255 80       		.byte	-128
 1162 0256 84       		.byte	-124
 1163 0257 04       		.byte	4
ARM GAS  C:\Users\austc\AppData\Local\Temp\ccKSAcZi.s 			page 39


 1164 0258 8B       		.byte	-117
 1165 0259 01       		.byte	1
 1166 025a 93       		.byte	-109
 1167 025b 02       		.byte	2
 1168 025c 9C       		.byte	-100
 1169 025d 01       		.byte	1
 1170 025e A2       		.byte	-94
 1171 025f 04       		.byte	4
 1172 0260 A4       		.byte	-92
 1173 0261 02       		.byte	2
 1174 0262 B0       		.byte	-80
 1175 0263 02       		.byte	2
 1176 0264 B2       		.byte	-78
 1177 0265 01       		.byte	1
 1178 0266 B3       		.byte	-77
 1179 0267 02       		.byte	2
 1180 0268 B4       		.byte	-76
 1181 0269 04       		.byte	4
 1182 026a B7       		.byte	-73
 1183 026b 01       		.byte	1
 1184 026c BE       		.byte	-66
 1185 026d 10       		.byte	16
 1186 026e C0       		.byte	-64
 1187 026f 42       		.byte	66
 1188 0270 C9       		.byte	-55
 1189 0271 FF       		.byte	-1
 1190 0272 CA       		.byte	-54
 1191 0273 FF       		.byte	-1
 1192 0274 CB       		.byte	-53
 1193 0275 FF       		.byte	-1
 1194 0276 CD       		.byte	-51
 1195 0277 83       		.byte	-125
 1196 0278 CE       		.byte	-50
 1197 0279 03       		.byte	3
 1198 027a CF       		.byte	-49
 1199 027b 01       		.byte	1
 1200 027c D0       		.byte	-48
 1201 027d 18       		.byte	24
 1202 027e D2       		.byte	-46
 1203 027f 80       		.byte	-128
 1204 0280 D6       		.byte	-42
 1205 0281 04       		.byte	4
 1206 0282 D8       		.byte	-40
 1207 0283 04       		.byte	4
 1208 0284 D9       		.byte	-39
 1209 0285 04       		.byte	4
 1210 0286 DA       		.byte	-38
 1211 0287 04       		.byte	4
 1212 0288 DB       		.byte	-37
 1213 0289 04       		.byte	4
 1214 028a DC       		.byte	-36
 1215 028b 12       		.byte	18
 1216 028c DD       		.byte	-35
 1217 028d 33       		.byte	51
 1218 028e DF       		.byte	-33
 1219 028f 01       		.byte	1
 1220 0290 E0       		.byte	-32
ARM GAS  C:\Users\austc\AppData\Local\Temp\ccKSAcZi.s 			page 40


 1221 0291 40       		.byte	64
 1222 0292 E2       		.byte	-30
 1223 0293 40       		.byte	64
 1224 0294 E4       		.byte	-28
 1225 0295 40       		.byte	64
 1226 0296 E5       		.byte	-27
 1227 0297 40       		.byte	64
 1228 0298 E6       		.byte	-26
 1229 0299 80       		.byte	-128
 1230 029a E8       		.byte	-24
 1231 029b 80       		.byte	-128
 1232 029c EA       		.byte	-22
 1233 029d 80       		.byte	-128
 1234 029e EC       		.byte	-20
 1235 029f 80       		.byte	-128
 1236 02a0 EE       		.byte	-18
 1237 02a1 80       		.byte	-128
 1238 02a2 00       		.byte	0
 1239 02a3 10       		.byte	16
 1240 02a4 02       		.byte	2
 1241 02a5 10       		.byte	16
 1242 02a6 03       		.byte	3
 1243 02a7 01       		.byte	1
 1244 02a8 07       		.byte	7
 1245 02a9 20       		.byte	32
 1246 02aa 09       		.byte	9
 1247 02ab 08       		.byte	8
 1248 02ac 0B       		.byte	11
 1249 02ad 02       		.byte	2
 1250 02ae 0F       		.byte	15
 1251 02af 01       		.byte	1
 1252 02b0 12       		.byte	18
 1253 02b1 40       		.byte	64
 1254 02b2 15       		.byte	21
 1255 02b3 02       		.byte	2
 1256 02b4 17       		.byte	23
 1257 02b5 08       		.byte	8
 1258 02b6 18       		.byte	24
 1259 02b7 04       		.byte	4
 1260 02b8 1E       		.byte	30
 1261 02b9 68       		.byte	104
 1262 02ba 21       		.byte	33
 1263 02bb 08       		.byte	8
 1264 02bc 27       		.byte	39
 1265 02bd 21       		.byte	33
 1266 02be 28       		.byte	40
 1267 02bf 04       		.byte	4
 1268 02c0 2A       		.byte	42
 1269 02c1 10       		.byte	16
 1270 02c2 2B       		.byte	43
 1271 02c3 08       		.byte	8
 1272 02c4 32       		.byte	50
 1273 02c5 04       		.byte	4
 1274 02c6 33       		.byte	51
 1275 02c7 05       		.byte	5
 1276 02c8 36       		.byte	54
 1277 02c9 02       		.byte	2
ARM GAS  C:\Users\austc\AppData\Local\Temp\ccKSAcZi.s 			page 41


 1278 02ca 38       		.byte	56
 1279 02cb 96       		.byte	-106
 1280 02cc 3A       		.byte	58
 1281 02cd 40       		.byte	64
 1282 02ce 3B       		.byte	59
 1283 02cf 22       		.byte	34
 1284 02d0 3F       		.byte	63
 1285 02d1 10       		.byte	16
 1286 02d2 42       		.byte	66
 1287 02d3 08       		.byte	8
 1288 02d4 46       		.byte	70
 1289 02d5 88       		.byte	-120
 1290 02d6 48       		.byte	72
 1291 02d7 01       		.byte	1
 1292 02d8 5E       		.byte	94
 1293 02d9 60       		.byte	96
 1294 02da 67       		.byte	103
 1295 02db 40       		.byte	64
 1296 02dc 74       		.byte	116
 1297 02dd 01       		.byte	1
 1298 02de 76       		.byte	118
 1299 02df 80       		.byte	-128
 1300 02e0 87       		.byte	-121
 1301 02e1 40       		.byte	64
 1302 02e2 8F       		.byte	-113
 1303 02e3 01       		.byte	1
 1304 02e4 90       		.byte	-112
 1305 02e5 80       		.byte	-128
 1306 02e6 91       		.byte	-111
 1307 02e7 02       		.byte	2
 1308 02e8 93       		.byte	-109
 1309 02e9 10       		.byte	16
 1310 02ea 94       		.byte	-108
 1311 02eb 06       		.byte	6
 1312 02ec 97       		.byte	-105
 1313 02ed 22       		.byte	34
 1314 02ee 9B       		.byte	-101
 1315 02ef 04       		.byte	4
 1316 02f0 9F       		.byte	-97
 1317 02f1 01       		.byte	1
 1318 02f2 A2       		.byte	-94
 1319 02f3 02       		.byte	2
 1320 02f4 A3       		.byte	-93
 1321 02f5 08       		.byte	8
 1322 02f6 A6       		.byte	-90
 1323 02f7 04       		.byte	4
 1324 02f8 AB       		.byte	-85
 1325 02f9 10       		.byte	16
 1326 02fa AC       		.byte	-84
 1327 02fb 02       		.byte	2
 1328 02fc AF       		.byte	-81
 1329 02fd 10       		.byte	16
 1330 02fe B0       		.byte	-80
 1331 02ff 20       		.byte	32
 1332 0300 B4       		.byte	-76
 1333 0301 80       		.byte	-128
 1334 0302 C0       		.byte	-64
ARM GAS  C:\Users\austc\AppData\Local\Temp\ccKSAcZi.s 			page 42


 1335 0303 27       		.byte	39
 1336 0304 C2       		.byte	-62
 1337 0305 85       		.byte	-123
 1338 0306 C4       		.byte	-60
 1339 0307 38       		.byte	56
 1340 0308 CA       		.byte	-54
 1341 0309 04       		.byte	4
 1342 030a CC       		.byte	-52
 1343 030b 83       		.byte	-125
 1344 030c CE       		.byte	-50
 1345 030d 2F       		.byte	47
 1346 030e D0       		.byte	-48
 1347 030f A4       		.byte	-92
 1348 0310 D2       		.byte	-46
 1349 0311 08       		.byte	8
 1350 0312 D6       		.byte	-42
 1351 0313 30       		.byte	48
 1352 0314 D8       		.byte	-40
 1353 0315 80       		.byte	-128
 1354 0316 E4       		.byte	-28
 1355 0317 10       		.byte	16
 1356 0318 E8       		.byte	-24
 1357 0319 80       		.byte	-128
 1358 031a EA       		.byte	-22
 1359 031b 04       		.byte	4
 1360 031c EE       		.byte	-18
 1361 031d 02       		.byte	2
 1362 031e 02       		.byte	2
 1363 031f 01       		.byte	1
 1364 0320 08       		.byte	8
 1365 0321 0E       		.byte	14
 1366 0322 0C       		.byte	12
 1367 0323 10       		.byte	16
 1368 0324 0E       		.byte	14
 1369 0325 02       		.byte	2
 1370 0326 14       		.byte	20
 1371 0327 18       		.byte	24
 1372 0328 16       		.byte	22
 1373 0329 02       		.byte	2
 1374 032a 18       		.byte	24
 1375 032b 18       		.byte	24
 1376 032c 1A       		.byte	26
 1377 032d 04       		.byte	4
 1378 032e 1C       		.byte	28
 1379 032f 16       		.byte	22
 1380 0330 1E       		.byte	30
 1381 0331 08       		.byte	8
 1382 0332 22       		.byte	34
 1383 0333 1E       		.byte	30
 1384 0334 2A       		.byte	42
 1385 0335 01       		.byte	1
 1386 0336 30       		.byte	48
 1387 0337 01       		.byte	1
 1388 0338 34       		.byte	52
 1389 0339 1E       		.byte	30
 1390 033a 3E       		.byte	62
 1391 033b 01       		.byte	1
ARM GAS  C:\Users\austc\AppData\Local\Temp\ccKSAcZi.s 			page 43


 1392 033c 40       		.byte	64
 1393 033d 42       		.byte	66
 1394 033e 45       		.byte	69
 1395 033f EC       		.byte	-20
 1396 0340 47       		.byte	71
 1397 0341 02       		.byte	2
 1398 0342 48       		.byte	72
 1399 0343 13       		.byte	19
 1400 0344 49       		.byte	73
 1401 0345 FF       		.byte	-1
 1402 0346 4A       		.byte	74
 1403 0347 FF       		.byte	-1
 1404 0348 4B       		.byte	75
 1405 0349 FF       		.byte	-1
 1406 034a 4D       		.byte	77
 1407 034b 83       		.byte	-125
 1408 034c 4E       		.byte	78
 1409 034d 03       		.byte	3
 1410 034e 4F       		.byte	79
 1411 034f 01       		.byte	1
 1412 0350 50       		.byte	80
 1413 0351 18       		.byte	24
 1414 0352 54       		.byte	84
 1415 0353 01       		.byte	1
 1416 0354 56       		.byte	86
 1417 0355 04       		.byte	4
 1418 0356 58       		.byte	88
 1419 0357 04       		.byte	4
 1420 0358 5A       		.byte	90
 1421 0359 04       		.byte	4
 1422 035a 5B       		.byte	91
 1423 035b 04       		.byte	4
 1424 035c 5C       		.byte	92
 1425 035d 01       		.byte	1
 1426 035e 5D       		.byte	93
 1427 035f 33       		.byte	51
 1428 0360 5F       		.byte	95
 1429 0361 01       		.byte	1
 1430 0362 60       		.byte	96
 1431 0363 40       		.byte	64
 1432 0364 62       		.byte	98
 1433 0365 40       		.byte	64
 1434 0366 64       		.byte	100
 1435 0367 40       		.byte	64
 1436 0368 65       		.byte	101
 1437 0369 40       		.byte	64
 1438 036a 66       		.byte	102
 1439 036b 80       		.byte	-128
 1440 036c 68       		.byte	104
 1441 036d 80       		.byte	-128
 1442 036e 6A       		.byte	106
 1443 036f 80       		.byte	-128
 1444 0370 6C       		.byte	108
 1445 0371 80       		.byte	-128
 1446 0372 6E       		.byte	110
 1447 0373 80       		.byte	-128
 1448 0374 80       		.byte	-128
ARM GAS  C:\Users\austc\AppData\Local\Temp\ccKSAcZi.s 			page 44


 1449 0375 0F       		.byte	15
 1450 0376 8C       		.byte	-116
 1451 0377 05       		.byte	5
 1452 0378 8E       		.byte	-114
 1453 0379 0A       		.byte	10
 1454 037a 94       		.byte	-108
 1455 037b 0C       		.byte	12
 1456 037c 96       		.byte	-106
 1457 037d 03       		.byte	3
 1458 037e 98       		.byte	-104
 1459 037f 07       		.byte	7
 1460 0380 A0       		.byte	-96
 1461 0381 03       		.byte	3
 1462 0382 A2       		.byte	-94
 1463 0383 0C       		.byte	12
 1464 0384 A8       		.byte	-88
 1465 0385 0A       		.byte	10
 1466 0386 AA       		.byte	-86
 1467 0387 05       		.byte	5
 1468 0388 B6       		.byte	-74
 1469 0389 0F       		.byte	15
 1470 038a D8       		.byte	-40
 1471 038b 04       		.byte	4
 1472 038c DC       		.byte	-36
 1473 038d 01       		.byte	1
 1474 038e DF       		.byte	-33
 1475 038f 01       		.byte	1
 1476 0390 03       		.byte	3
 1477 0391 81       		.byte	-127
 1478 0392 06       		.byte	6
 1479 0393 80       		.byte	-128
 1480 0394 07       		.byte	7
 1481 0395 05       		.byte	5
 1482 0396 0A       		.byte	10
 1483 0397 08       		.byte	8
 1484 0398 0B       		.byte	11
 1485 0399 20       		.byte	32
 1486 039a 0C       		.byte	12
 1487 039b 04       		.byte	4
 1488 039c 0E       		.byte	14
 1489 039d 09       		.byte	9
 1490 039e 10       		.byte	16
 1491 039f 04       		.byte	4
 1492 03a0 12       		.byte	18
 1493 03a1 40       		.byte	64
 1494 03a2 16       		.byte	22
 1495 03a3 48       		.byte	72
 1496 03a4 18       		.byte	24
 1497 03a5 02       		.byte	2
 1498 03a6 1A       		.byte	26
 1499 03a7 01       		.byte	1
 1500 03a8 1B       		.byte	27
 1501 03a9 80       		.byte	-128
 1502 03aa 1E       		.byte	30
 1503 03ab 48       		.byte	72
 1504 03ac 1F       		.byte	31
 1505 03ad 10       		.byte	16
ARM GAS  C:\Users\austc\AppData\Local\Temp\ccKSAcZi.s 			page 45


 1506 03ae 46       		.byte	70
 1507 03af 88       		.byte	-120
 1508 03b0 4D       		.byte	77
 1509 03b1 04       		.byte	4
 1510 03b2 4F       		.byte	79
 1511 03b3 01       		.byte	1
 1512 03b4 56       		.byte	86
 1513 03b5 08       		.byte	8
 1514 03b6 5D       		.byte	93
 1515 03b7 04       		.byte	4
 1516 03b8 5E       		.byte	94
 1517 03b9 40       		.byte	64
 1518 03ba 5F       		.byte	95
 1519 03bb 01       		.byte	1
 1520 03bc 67       		.byte	103
 1521 03bd 80       		.byte	-128
 1522 03be 87       		.byte	-121
 1523 03bf 40       		.byte	64
 1524 03c0 92       		.byte	-110
 1525 03c1 08       		.byte	8
 1526 03c2 94       		.byte	-108
 1527 03c3 02       		.byte	2
 1528 03c4 97       		.byte	-105
 1529 03c5 20       		.byte	32
 1530 03c6 98       		.byte	-104
 1531 03c7 04       		.byte	4
 1532 03c8 9A       		.byte	-102
 1533 03c9 C0       		.byte	-64
 1534 03ca 9B       		.byte	-101
 1535 03cb 05       		.byte	5
 1536 03cc 9E       		.byte	-98
 1537 03cd 08       		.byte	8
 1538 03ce AF       		.byte	-81
 1539 03cf 08       		.byte	8
 1540 03d0 C0       		.byte	-64
 1541 03d1 D9       		.byte	-39
 1542 03d2 C2       		.byte	-62
 1543 03d3 E6       		.byte	-26
 1544 03d4 C4       		.byte	-60
 1545 03d5 5A       		.byte	90
 1546 03d6 D0       		.byte	-48
 1547 03d7 A0       		.byte	-96
 1548 03d8 D6       		.byte	-42
 1549 03d9 D0       		.byte	-48
 1550 03da D8       		.byte	-40
 1551 03db 80       		.byte	-128
 1552 03dc 6B       		.byte	107
 1553 03dd 02       		.byte	2
 1554 03de 6F       		.byte	111
 1555 03df 02       		.byte	2
 1556 03e0 DA       		.byte	-38
 1557 03e1 C0       		.byte	-64
 1558 03e2 03       		.byte	3
 1559 03e3 20       		.byte	32
 1560 03e4 06       		.byte	6
 1561 03e5 20       		.byte	32
 1562 03e6 9F       		.byte	-97
ARM GAS  C:\Users\austc\AppData\Local\Temp\ccKSAcZi.s 			page 46


 1563 03e7 02       		.byte	2
 1564 03e8 A7       		.byte	-89
 1565 03e9 02       		.byte	2
 1566 03ea C0       		.byte	-64
 1567 03eb 30       		.byte	48
 1568 03ec 0B       		.byte	11
 1569 03ed 10       		.byte	16
 1570 03ee 0E       		.byte	14
 1571 03ef 10       		.byte	16
 1572 03f0 87       		.byte	-121
 1573 03f1 02       		.byte	2
 1574 03f2 8E       		.byte	-114
 1575 03f3 10       		.byte	16
 1576 03f4 9F       		.byte	-97
 1577 03f5 02       		.byte	2
 1578 03f6 A7       		.byte	-89
 1579 03f7 02       		.byte	2
 1580 03f8 AE       		.byte	-82
 1581 03f9 20       		.byte	32
 1582 03fa B3       		.byte	-77
 1583 03fb 20       		.byte	32
 1584 03fc C2       		.byte	-62
 1585 03fd 30       		.byte	48
 1586 03fe E6       		.byte	-26
 1587 03ff 40       		.byte	64
 1588 0400 E8       		.byte	-24
 1589 0401 10       		.byte	16
 1590 0402 87       		.byte	-121
 1591 0403 02       		.byte	2
 1592 0404 A7       		.byte	-89
 1593 0405 02       		.byte	2
 1594 0406 AF       		.byte	-81
 1595 0407 10       		.byte	16
 1596 0408 E2       		.byte	-30
 1597 0409 10       		.byte	16
 1598 040a E8       		.byte	-24
 1599 040b 10       		.byte	16
 1600 040c 00       		.byte	0
 1601 040d 08       		.byte	8
 1602 040e 01       		.byte	1
 1603 040f 80       		.byte	-128
 1604 0410 04       		.byte	4
 1605 0411 10       		.byte	16
 1606 0412 06       		.byte	6
 1607 0413 20       		.byte	32
 1608 0414 8A       		.byte	-118
 1609 0415 20       		.byte	32
 1610 0416 C0       		.byte	-64
 1611 0417 0F       		.byte	15
 1612 0418 E6       		.byte	-26
 1613 0419 01       		.byte	1
 1614 041a A9       		.byte	-87
 1615 041b 80       		.byte	-128
 1616 041c AC       		.byte	-84
 1617 041d 04       		.byte	4
 1618 041e B4       		.byte	-76
 1619 041f 10       		.byte	16
ARM GAS  C:\Users\austc\AppData\Local\Temp\ccKSAcZi.s 			page 47


 1620 0420 EA       		.byte	-22
 1621 0421 08       		.byte	8
 1622 0422 01       		.byte	1
 1623 0423 0E       		.byte	14
 1624 0424 10       		.byte	16
 1625 0425 02       		.byte	2
 1626 0426 12       		.byte	18
 1627 0427 0E       		.byte	14
 1628              		.type	cy_cfg_addr_table.6681, %object
 1629              		.size	cy_cfg_addr_table.6681, 64
 1630              	cy_cfg_addr_table.6681:
 1631 0428 04000F40 		.word	1074724868
 1632 042c 3B300F40 		.word	1074737211
 1633 0430 2A310F40 		.word	1074737450
 1634 0434 54320F40 		.word	1074737748
 1635 0438 3E330F40 		.word	1074737982
 1636 043c 50340F40 		.word	1074738256
 1637 0440 3E350F40 		.word	1074738494
 1638 0444 39360F40 		.word	1074738745
 1639 0448 26370F40 		.word	1074738982
 1640 044c 03400F40 		.word	1074741251
 1641 0450 05410F40 		.word	1074741509
 1642 0454 0B420F40 		.word	1074741771
 1643 0458 05430F40 		.word	1074742021
 1644 045c 07450F40 		.word	1074742535
 1645 0460 04460F40 		.word	1074742788
 1646 0464 03600F40 		.word	1074749443
 1647              		.text
 1648              	.Letext0:
 1649              		.file 2 "c:\\program files (x86)\\cypress\\psoc creator\\4.2\\psoc creator\\import\\gnu\\arm\\5.4.
 1650              		.file 3 "Generated_Source\\PSoC4\\cytypes.h"
 1651              		.file 4 "Generated_Source\\PSoC4\\CyLib.h"