ARM GAS  C:\Users\austc\AppData\Local\Temp\ccjGCJ7Y.s 			page 1


   1              		.syntax unified
   2              		.cpu cortex-m0
   3              		.fpu softvfp
   4              		.eabi_attribute 20, 1
   5              		.eabi_attribute 21, 1
   6              		.eabi_attribute 23, 3
   7              		.eabi_attribute 24, 1
   8              		.eabi_attribute 25, 1
   9              		.eabi_attribute 26, 1
  10              		.eabi_attribute 30, 1
  11              		.eabi_attribute 34, 0
  12              		.eabi_attribute 18, 4
  13              		.thumb
  14              		.syntax unified
  15              		.file	"CyLib.c"
  16              		.text
  17              	.Ltext0:
  18              		.cfi_sections	.debug_frame
  19              		.section	.text.CySysClkImoStart,"ax",%progbits
  20              		.align	2
  21              		.global	CySysClkImoStart
  22              		.code	16
  23              		.thumb_func
  24              		.type	CySysClkImoStart, %function
  25              	CySysClkImoStart:
  26              	.LFB1:
  27              		.file 1 "Generated_Source\\PSoC4\\CyLib.c"
   1:Generated_Source\PSoC4/CyLib.c **** /***************************************************************************//**
   2:Generated_Source\PSoC4/CyLib.c **** * \file CyLib.c
   3:Generated_Source\PSoC4/CyLib.c **** * \version 5.70
   4:Generated_Source\PSoC4/CyLib.c **** *
   5:Generated_Source\PSoC4/CyLib.c **** * \brief Provides a system API for the Clocking, Interrupts, SysTick, and
   6:Generated_Source\PSoC4/CyLib.c **** * Voltage Detect.
   7:Generated_Source\PSoC4/CyLib.c **** *
   8:Generated_Source\PSoC4/CyLib.c **** * \note Documentation of the API's in this file is located in the PSoC 4 System
   9:Generated_Source\PSoC4/CyLib.c **** * Reference Guide provided with PSoC Creator.
  10:Generated_Source\PSoC4/CyLib.c **** *
  11:Generated_Source\PSoC4/CyLib.c **** ********************************************************************************
  12:Generated_Source\PSoC4/CyLib.c **** * \copyright
  13:Generated_Source\PSoC4/CyLib.c **** * Copyright 2010-2018, Cypress Semiconductor Corporation.  All rights reserved.
  14:Generated_Source\PSoC4/CyLib.c **** * You may use this file only in accordance with the license, terms, conditions,
  15:Generated_Source\PSoC4/CyLib.c **** * disclaimers, and limitations in the end user license agreement accompanying
  16:Generated_Source\PSoC4/CyLib.c **** * the software package with which this file was provided.
  17:Generated_Source\PSoC4/CyLib.c **** *******************************************************************************/
  18:Generated_Source\PSoC4/CyLib.c **** 
  19:Generated_Source\PSoC4/CyLib.c **** #include "CyLib.h"
  20:Generated_Source\PSoC4/CyLib.c **** 
  21:Generated_Source\PSoC4/CyLib.c **** /* CySysClkWriteImoFreq() || CySysClkImoEnableWcoLock() */
  22:Generated_Source\PSoC4/CyLib.c **** #if ((CY_IP_SRSSV2 && CY_IP_FMLT) || CY_IP_IMO_TRIMMABLE_BY_WCO)
  23:Generated_Source\PSoC4/CyLib.c ****     #include "CyFlash.h"
  24:Generated_Source\PSoC4/CyLib.c **** #endif /* (CY_IP_SRSSV2 && CY_IP_FMLT) */
  25:Generated_Source\PSoC4/CyLib.c **** 
  26:Generated_Source\PSoC4/CyLib.c **** /* Do not use these definitions directly in your application */
  27:Generated_Source\PSoC4/CyLib.c **** uint32 cydelayFreqHz  = CYDEV_BCLK__SYSCLK__HZ;
  28:Generated_Source\PSoC4/CyLib.c **** uint32 cydelayFreqKhz = (CYDEV_BCLK__SYSCLK__HZ + CY_DELAY_1K_MINUS_1_THRESHOLD) / CY_DELAY_1K_THRE
  29:Generated_Source\PSoC4/CyLib.c **** uint8  cydelayFreqMhz = (uint8)((CYDEV_BCLK__SYSCLK__HZ + CY_DELAY_1M_MINUS_1_THRESHOLD) / CY_DELAY
  30:Generated_Source\PSoC4/CyLib.c **** uint32 cydelay32kMs   = CY_DELAY_MS_OVERFLOW * ((CYDEV_BCLK__SYSCLK__HZ + CY_DELAY_1K_MINUS_1_THRES
ARM GAS  C:\Users\austc\AppData\Local\Temp\ccjGCJ7Y.s 			page 2


  31:Generated_Source\PSoC4/CyLib.c ****                         CY_DELAY_1K_THRESHOLD);
  32:Generated_Source\PSoC4/CyLib.c **** 
  33:Generated_Source\PSoC4/CyLib.c **** 
  34:Generated_Source\PSoC4/CyLib.c **** static cySysTickCallback CySysTickCallbacks[CY_SYS_SYST_NUM_OF_CALLBACKS];
  35:Generated_Source\PSoC4/CyLib.c **** static void CySysTickServiceCallbacks(void);
  36:Generated_Source\PSoC4/CyLib.c **** 
  37:Generated_Source\PSoC4/CyLib.c **** #if (CY_IP_PLL)
  38:Generated_Source\PSoC4/CyLib.c ****     static uint32 CySysClkPllGetBypassMode(uint32 pll);
  39:Generated_Source\PSoC4/CyLib.c ****     static cystatus CySysClkPllConfigChangeAllowed(uint32 pll);
  40:Generated_Source\PSoC4/CyLib.c **** #endif /* (CY_IP_PLL) */
  41:Generated_Source\PSoC4/CyLib.c **** 
  42:Generated_Source\PSoC4/CyLib.c **** 
  43:Generated_Source\PSoC4/CyLib.c **** /***************************************************************************//**
  44:Generated_Source\PSoC4/CyLib.c **** * Indicates whether or not the SysTick has been initialized. The variable is
  45:Generated_Source\PSoC4/CyLib.c **** * initialized to 0 and set to 1 the first time CySysTickStart() is called.
  46:Generated_Source\PSoC4/CyLib.c **** *
  47:Generated_Source\PSoC4/CyLib.c **** * This allows the component to restart without reinitialization after the first
  48:Generated_Source\PSoC4/CyLib.c **** * call to the CySysTickStart() routine.
  49:Generated_Source\PSoC4/CyLib.c **** *
  50:Generated_Source\PSoC4/CyLib.c **** * If reinitialization of the SysTick is required, call CySysTickInit() before
  51:Generated_Source\PSoC4/CyLib.c **** * calling CySysTickStart(). Alternatively, the SysTick can be reinitialized by
  52:Generated_Source\PSoC4/CyLib.c **** * calling the CySysTickInit() and CySysTickEnable() functions.
  53:Generated_Source\PSoC4/CyLib.c **** *******************************************************************************/
  54:Generated_Source\PSoC4/CyLib.c **** uint32 CySysTickInitVar = 0u;
  55:Generated_Source\PSoC4/CyLib.c **** 
  56:Generated_Source\PSoC4/CyLib.c **** 
  57:Generated_Source\PSoC4/CyLib.c **** #if(CY_IP_SRSSV2)
  58:Generated_Source\PSoC4/CyLib.c ****         /* Conversion between CySysClkWriteImoFreq() parameter and register's value */
  59:Generated_Source\PSoC4/CyLib.c ****         const uint8 cyImoFreqMhz2Reg[CY_SYS_CLK_IMO_FREQ_TABLE_SIZE] = {
  60:Generated_Source\PSoC4/CyLib.c ****             /*  3 MHz */ 0x03u,  /*  4 MHz */ 0x04u,  /*  5 MHz */ 0x05u,  /*  6 MHz */ 0x06u,
  61:Generated_Source\PSoC4/CyLib.c ****             /*  7 MHz */ 0x07u,  /*  8 MHz */ 0x08u,  /*  9 MHz */ 0x09u,  /* 10 MHz */ 0x0Au,
  62:Generated_Source\PSoC4/CyLib.c ****             /* 11 MHz */ 0x0Bu,  /* 12 MHz */ 0x0Cu,  /* 13 MHz */ 0x0Eu,  /* 14 MHz */ 0x0Fu,
  63:Generated_Source\PSoC4/CyLib.c ****             /* 15 MHz */ 0x10u,  /* 16 MHz */ 0x11u,  /* 17 MHz */ 0x12u,  /* 18 MHz */ 0x13u,
  64:Generated_Source\PSoC4/CyLib.c ****             /* 19 MHz */ 0x14u,  /* 20 MHz */ 0x15u,  /* 21 MHz */ 0x16u,  /* 22 MHz */ 0x17u,
  65:Generated_Source\PSoC4/CyLib.c ****             /* 23 MHz */ 0x18u,  /* 24 MHz */ 0x19u,  /* 25 MHz */ 0x1Bu,  /* 26 MHz */ 0x1Cu,
  66:Generated_Source\PSoC4/CyLib.c ****             /* 27 MHz */ 0x1Du,  /* 28 MHz */ 0x1Eu,  /* 29 MHz */ 0x1Fu,  /* 30 MHz */ 0x20u,
  67:Generated_Source\PSoC4/CyLib.c ****             /* 31 MHz */ 0x21u,  /* 32 MHz */ 0x22u,  /* 33 MHz */ 0x23u,  /* 34 MHz */ 0x25u,
  68:Generated_Source\PSoC4/CyLib.c ****             /* 35 MHz */ 0x26u,  /* 36 MHz */ 0x27u,  /* 37 MHz */ 0x28u,  /* 38 MHz */ 0x29u,
  69:Generated_Source\PSoC4/CyLib.c ****             /* 39 MHz */ 0x2Au,  /* 40 MHz */ 0x2Bu,  /* 41 MHz */ 0x2Eu,  /* 42 MHz */ 0x2Fu,
  70:Generated_Source\PSoC4/CyLib.c ****             /* 43 MHz */ 0x30u,  /* 44 MHz */ 0x31u,  /* 45 MHz */ 0x32u,  /* 46 MHz */ 0x33u,
  71:Generated_Source\PSoC4/CyLib.c ****             /* 47 MHz */ 0x34u,  /* 48 MHz */ 0x35u };
  72:Generated_Source\PSoC4/CyLib.c **** #endif /* (CY_IP_SRSSV2) */
  73:Generated_Source\PSoC4/CyLib.c **** 
  74:Generated_Source\PSoC4/CyLib.c **** #if (CY_IP_IMO_TRIMMABLE_BY_WCO)
  75:Generated_Source\PSoC4/CyLib.c ****         /* Conversion between IMO frequency and WCO DPLL max offset steps */
  76:Generated_Source\PSoC4/CyLib.c ****         const uint8 cyImoFreqMhz2DpllOffset[CY_SYS_CLK_IMO_FREQ_WCO_DPLL_TABLE_SIZE] = {
  77:Generated_Source\PSoC4/CyLib.c ****             /* 26 MHz */  238u, /* 27 MHz */  219u, /* 28 MHz */  201u, /* 29 MHz */  185u,
  78:Generated_Source\PSoC4/CyLib.c ****             /* 30 MHz */  170u, /* 31 MHz */  155u, /* 32 MHz */  142u, /* 33 MHz */  130u,
  79:Generated_Source\PSoC4/CyLib.c ****             /* 34 MHz */  118u, /* 35 MHz */  107u, /* 36 MHz */   96u, /* 37 MHz */  86u,
  80:Generated_Source\PSoC4/CyLib.c ****             /* 38 MHz */   77u, /* 39 MHz */   68u, /* 40 MHz */   59u, /* 41 MHz */  51u,
  81:Generated_Source\PSoC4/CyLib.c ****             /* 42 MHz */   44u, /* 43 MHz */   36u, /* 44 MHz */   29u, /* 45 MHz */  23u,
  82:Generated_Source\PSoC4/CyLib.c ****             /* 46 MHz */   16u, /* 47 MHz */   10u, /* 48 MHz */   4u };
  83:Generated_Source\PSoC4/CyLib.c **** #endif /* (CY_IP_IMO_TRIMMABLE_BY_WCO) */
  84:Generated_Source\PSoC4/CyLib.c **** 
  85:Generated_Source\PSoC4/CyLib.c **** /* Stored CY_SYS_CLK_IMO_TRIM4_REG when modified for USB lock */
  86:Generated_Source\PSoC4/CyLib.c **** #if (CY_IP_IMO_TRIMMABLE_BY_USB && CY_IP_SRSSV2)
  87:Generated_Source\PSoC4/CyLib.c ****     uint32 CySysClkImoTrim4 = 0u;
ARM GAS  C:\Users\austc\AppData\Local\Temp\ccjGCJ7Y.s 			page 3


  88:Generated_Source\PSoC4/CyLib.c ****     uint32 CySysClkImoTrim5 = 0u;
  89:Generated_Source\PSoC4/CyLib.c **** #endif /* (CY_IP_IMO_TRIMMABLE_BY_USB && CY_IP_SRSSV2) */
  90:Generated_Source\PSoC4/CyLib.c **** 
  91:Generated_Source\PSoC4/CyLib.c **** /* Stored PUMP_SEL configuration during disable (IMO output by default) */
  92:Generated_Source\PSoC4/CyLib.c **** uint32 CySysClkPumpConfig = CY_SYS_CLK_PUMP_ENABLE;
  93:Generated_Source\PSoC4/CyLib.c **** 
  94:Generated_Source\PSoC4/CyLib.c **** /*******************************************************************************
  95:Generated_Source\PSoC4/CyLib.c **** * Function Name: CySysClkImoStart
  96:Generated_Source\PSoC4/CyLib.c **** ****************************************************************************//**
  97:Generated_Source\PSoC4/CyLib.c **** *
  98:Generated_Source\PSoC4/CyLib.c **** * Enables the IMO.
  99:Generated_Source\PSoC4/CyLib.c **** *
 100:Generated_Source\PSoC4/CyLib.c **** * For PSoC 4100M / PSoC 4200M / PSoC 4000S / PSoC 4100S / PSoC Analog 
 101:Generated_Source\PSoC4/CyLib.c **** * Coprocessor devices, this function will also enable WCO lock if selected in 
 102:Generated_Source\PSoC4/CyLib.c **** * the Design Wide Resources tab.
 103:Generated_Source\PSoC4/CyLib.c **** *
 104:Generated_Source\PSoC4/CyLib.c **** * For PSoC 4200L devices, this function will also enable USB lock if selected
 105:Generated_Source\PSoC4/CyLib.c **** * in the Design Wide Resources tab.
 106:Generated_Source\PSoC4/CyLib.c **** *
 107:Generated_Source\PSoC4/CyLib.c **** *******************************************************************************/
 108:Generated_Source\PSoC4/CyLib.c **** void CySysClkImoStart(void)
 109:Generated_Source\PSoC4/CyLib.c **** {
  28              		.loc 1 109 0
  29              		.cfi_startproc
  30              		@ args = 0, pretend = 0, frame = 0
  31              		@ frame_needed = 0, uses_anonymous_args = 0
  32              		@ link register save eliminated.
 110:Generated_Source\PSoC4/CyLib.c ****     CY_SYS_CLK_IMO_CONFIG_REG |= CY_SYS_CLK_IMO_CONFIG_ENABLE;
  33              		.loc 1 110 0
  34 0000 034A     		ldr	r2, .L2
  35 0002 1368     		ldr	r3, [r2]
  36 0004 8021     		movs	r1, #128
  37 0006 0906     		lsls	r1, r1, #24
  38 0008 0B43     		orrs	r3, r1
  39 000a 1360     		str	r3, [r2]
 111:Generated_Source\PSoC4/CyLib.c **** 
 112:Generated_Source\PSoC4/CyLib.c ****     #if (CY_IP_IMO_TRIMMABLE_BY_WCO)
 113:Generated_Source\PSoC4/CyLib.c ****         #if (CYDEV_IMO_TRIMMED_BY_WCO == 1u)
 114:Generated_Source\PSoC4/CyLib.c ****             CySysClkImoEnableWcoLock();
 115:Generated_Source\PSoC4/CyLib.c ****         #endif  /* (CYDEV_IMO_TRIMMED_BY_WCO == 1u) */
 116:Generated_Source\PSoC4/CyLib.c ****     #endif  /* (CY_IP_IMO_TRIMMABLE_BY_WCO) */
 117:Generated_Source\PSoC4/CyLib.c **** 
 118:Generated_Source\PSoC4/CyLib.c **** 
 119:Generated_Source\PSoC4/CyLib.c ****     #if (CY_IP_IMO_TRIMMABLE_BY_USB)
 120:Generated_Source\PSoC4/CyLib.c ****         #if (CYDEV_IMO_TRIMMED_BY_USB == 1u)
 121:Generated_Source\PSoC4/CyLib.c ****             CySysClkImoEnableUsbLock();
 122:Generated_Source\PSoC4/CyLib.c ****         #endif  /* (CYDEV_IMO_TRIMMED_BY_USB == 1u) */
 123:Generated_Source\PSoC4/CyLib.c ****     #endif  /* (CY_IP_IMO_TRIMMABLE_BY_USB) */
 124:Generated_Source\PSoC4/CyLib.c **** 
 125:Generated_Source\PSoC4/CyLib.c **** }
  40              		.loc 1 125 0
  41              		@ sp needed
  42 000c 7047     		bx	lr
  43              	.L3:
  44 000e C046     		.align	2
  45              	.L2:
  46 0010 08010B40 		.word	1074462984
ARM GAS  C:\Users\austc\AppData\Local\Temp\ccjGCJ7Y.s 			page 4


  47              		.cfi_endproc
  48              	.LFE1:
  49              		.size	CySysClkImoStart, .-CySysClkImoStart
  50              		.section	.text.CySysClkImoDisableWcoLock,"ax",%progbits
  51              		.align	2
  52              		.global	CySysClkImoDisableWcoLock
  53              		.code	16
  54              		.thumb_func
  55              		.type	CySysClkImoDisableWcoLock, %function
  56              	CySysClkImoDisableWcoLock:
  57              	.LFB4:
 126:Generated_Source\PSoC4/CyLib.c **** 
 127:Generated_Source\PSoC4/CyLib.c **** 
 128:Generated_Source\PSoC4/CyLib.c **** /*******************************************************************************
 129:Generated_Source\PSoC4/CyLib.c **** * Function Name: CySysClkImoStop
 130:Generated_Source\PSoC4/CyLib.c **** ****************************************************************************//**
 131:Generated_Source\PSoC4/CyLib.c **** *
 132:Generated_Source\PSoC4/CyLib.c **** * Disables the IMO.
 133:Generated_Source\PSoC4/CyLib.c **** *
 134:Generated_Source\PSoC4/CyLib.c **** * For PSoC 4100M / PSoC 4200M / PSoC 4200L / PSoC 4000S / PSoC 4100S / 
 135:Generated_Source\PSoC4/CyLib.c **** * PSoC Analog Coprocessor devices, this function will also disable WCO lock.
 136:Generated_Source\PSoC4/CyLib.c **** *
 137:Generated_Source\PSoC4/CyLib.c **** * For PSoC PSoC 4200L devices, this function will also disable USB lock.
 138:Generated_Source\PSoC4/CyLib.c **** *
 139:Generated_Source\PSoC4/CyLib.c **** *******************************************************************************/
 140:Generated_Source\PSoC4/CyLib.c **** void CySysClkImoStop(void)
 141:Generated_Source\PSoC4/CyLib.c **** {
 142:Generated_Source\PSoC4/CyLib.c ****     #if (CY_IP_IMO_TRIMMABLE_BY_WCO)
 143:Generated_Source\PSoC4/CyLib.c ****         CySysClkImoDisableWcoLock();
 144:Generated_Source\PSoC4/CyLib.c ****     #endif  /* (CY_IP_IMO_TRIMMABLE_BY_WCO) */
 145:Generated_Source\PSoC4/CyLib.c **** 
 146:Generated_Source\PSoC4/CyLib.c ****     #if (CY_IP_IMO_TRIMMABLE_BY_USB)
 147:Generated_Source\PSoC4/CyLib.c ****         CySysClkImoDisableUsbLock();
 148:Generated_Source\PSoC4/CyLib.c ****     #endif  /* (CY_IP_IMO_TRIMMABLE_BY_USB) */
 149:Generated_Source\PSoC4/CyLib.c **** 
 150:Generated_Source\PSoC4/CyLib.c ****     CY_SYS_CLK_IMO_CONFIG_REG &= ( uint32 ) ( ~( uint32 )CY_SYS_CLK_IMO_CONFIG_ENABLE);
 151:Generated_Source\PSoC4/CyLib.c **** }
 152:Generated_Source\PSoC4/CyLib.c **** 
 153:Generated_Source\PSoC4/CyLib.c **** #if (CY_IP_IMO_TRIMMABLE_BY_WCO)
 154:Generated_Source\PSoC4/CyLib.c **** 
 155:Generated_Source\PSoC4/CyLib.c ****     /*******************************************************************************
 156:Generated_Source\PSoC4/CyLib.c ****     * Function Name: CySysClkImoEnableWcoLock
 157:Generated_Source\PSoC4/CyLib.c ****     ****************************************************************************//**
 158:Generated_Source\PSoC4/CyLib.c ****     *
 159:Generated_Source\PSoC4/CyLib.c ****     * Enables the IMO to WCO lock feature. This function works only if the WCO is
 160:Generated_Source\PSoC4/CyLib.c ****     * already enabled. If the WCO is not enabled then this function returns
 161:Generated_Source\PSoC4/CyLib.c ****     * without enabling the lock feature.
 162:Generated_Source\PSoC4/CyLib.c ****     *
 163:Generated_Source\PSoC4/CyLib.c ****     * It takes up to 20 ms for the IMO to stabilize. The delay is implemented with
 164:Generated_Source\PSoC4/CyLib.c ****     * CyDelay() function. The delay interval is measured based on the system
 165:Generated_Source\PSoC4/CyLib.c ****     * frequency defined by PSoC Creator at build time. If System clock frequency
 166:Generated_Source\PSoC4/CyLib.c ****     * is changed in runtime, the CyDelayFreq() with the appropriate parameter
 167:Generated_Source\PSoC4/CyLib.c ****     * should be called.
 168:Generated_Source\PSoC4/CyLib.c ****     *
 169:Generated_Source\PSoC4/CyLib.c ****     * For PSoC 4200L devices, note that the IMO can lock to either WCO or USB
 170:Generated_Source\PSoC4/CyLib.c ****     * but not both.
 171:Generated_Source\PSoC4/CyLib.c ****     *
ARM GAS  C:\Users\austc\AppData\Local\Temp\ccjGCJ7Y.s 			page 5


 172:Generated_Source\PSoC4/CyLib.c ****     * This function is applicable for PSoC 4100M / PSoC 4200M / PSoC 4000S /
 173:Generated_Source\PSoC4/CyLib.c ****     * PSoC 4100S / PSoC Analog Coprocessor / PSoC 4200L.
 174:Generated_Source\PSoC4/CyLib.c ****     *
 175:Generated_Source\PSoC4/CyLib.c ****     *******************************************************************************/
 176:Generated_Source\PSoC4/CyLib.c ****     void CySysClkImoEnableWcoLock(void)
 177:Generated_Source\PSoC4/CyLib.c ****     {
 178:Generated_Source\PSoC4/CyLib.c ****         #if(CY_IP_SRSSV2)
 179:Generated_Source\PSoC4/CyLib.c ****             uint32 i;
 180:Generated_Source\PSoC4/CyLib.c ****         #endif  /* (CY_IP_SRSSV2) */
 181:Generated_Source\PSoC4/CyLib.c **** 
 182:Generated_Source\PSoC4/CyLib.c ****         uint32 freq;
 183:Generated_Source\PSoC4/CyLib.c ****         uint8  interruptState;
 184:Generated_Source\PSoC4/CyLib.c ****         uint32 regTmp;
 185:Generated_Source\PSoC4/CyLib.c ****         uint32 lfLimit = 0u;
 186:Generated_Source\PSoC4/CyLib.c ****         volatile uint32 flashCtlReg;
 187:Generated_Source\PSoC4/CyLib.c **** 
 188:Generated_Source\PSoC4/CyLib.c ****         if (0u != CySysClkWcoEnabled())
 189:Generated_Source\PSoC4/CyLib.c ****         {
 190:Generated_Source\PSoC4/CyLib.c ****             interruptState = CyEnterCriticalSection();
 191:Generated_Source\PSoC4/CyLib.c **** 
 192:Generated_Source\PSoC4/CyLib.c ****             /* Set oscillator interface control port to WCO */
 193:Generated_Source\PSoC4/CyLib.c ****             #if (CY_IP_IMO_TRIMMABLE_BY_WCO && CY_IP_IMO_TRIMMABLE_BY_USB)
 194:Generated_Source\PSoC4/CyLib.c ****                 CY_SYS_CLK_OSCINTF_CTL_REG =
 195:Generated_Source\PSoC4/CyLib.c ****                     (CY_SYS_CLK_OSCINTF_CTL_REG & (uint32) ~CY_SYS_CLK_OSCINTF_CTL_PORT_SEL_MASK) |
 196:Generated_Source\PSoC4/CyLib.c ****                     CY_SYS_CLK_OSCINTF_CTL_PORT_SEL_WCO;
 197:Generated_Source\PSoC4/CyLib.c ****             #endif /* (CY_IP_IMO_TRIMMABLE_BY_WCO && CY_IP_IMO_TRIMMABLE_BY_USB) */
 198:Generated_Source\PSoC4/CyLib.c **** 
 199:Generated_Source\PSoC4/CyLib.c ****             /* Get current IMO frequency based on the register value */
 200:Generated_Source\PSoC4/CyLib.c ****             #if(CY_IP_SRSSV2)
 201:Generated_Source\PSoC4/CyLib.c ****                 freq = CY_SYS_CLK_IMO_MIN_FREQ_MHZ;
 202:Generated_Source\PSoC4/CyLib.c ****                 for(i = 0u; i < CY_SYS_CLK_IMO_FREQ_TABLE_SIZE; i++)
 203:Generated_Source\PSoC4/CyLib.c ****                 {
 204:Generated_Source\PSoC4/CyLib.c ****                     if ((uint8) (CY_SYS_CLK_IMO_TRIM2_REG & CY_SYS_CLK_IMO_FREQ_BITS_MASK) == cyImo
 205:Generated_Source\PSoC4/CyLib.c ****                     {
 206:Generated_Source\PSoC4/CyLib.c ****                         freq = i + CY_SYS_CLK_IMO_FREQ_TABLE_OFFSET;
 207:Generated_Source\PSoC4/CyLib.c ****                         break;
 208:Generated_Source\PSoC4/CyLib.c ****                     }
 209:Generated_Source\PSoC4/CyLib.c ****                 }
 210:Generated_Source\PSoC4/CyLib.c ****             #else
 211:Generated_Source\PSoC4/CyLib.c ****                 /* Calculate frequency by shifting register field value and adding constant. */
 212:Generated_Source\PSoC4/CyLib.c ****                 #if(CY_IP_SRSSLT)
 213:Generated_Source\PSoC4/CyLib.c ****                     freq = (((uint32) ((CY_SYS_CLK_IMO_SELECT_REG & ((uint32) CY_SYS_CLK_IMO_SELECT
 214:Generated_Source\PSoC4/CyLib.c ****                                         CY_SYS_CLK_IMO_SELECT_FREQ_SHIFT) + CY_SYS_CLK_IMO_MIN_FREQ
 215:Generated_Source\PSoC4/CyLib.c ****                                       ((CY_SYS_CLK_SELECT_REG >> CY_SYS_CLK_SELECT_HFCLK_DIV_SHIFT)
 216:Generated_Source\PSoC4/CyLib.c ****                                        (uint32) CY_SYS_CLK_SELECT_HFCLK_DIV_MASK));
 217:Generated_Source\PSoC4/CyLib.c ****                 #else
 218:Generated_Source\PSoC4/CyLib.c ****                     freq = ((uint32) ((CY_SYS_CLK_IMO_SELECT_REG & ((uint32) CY_SYS_CLK_IMO_SELECT_
 219:Generated_Source\PSoC4/CyLib.c ****                                        CY_SYS_CLK_IMO_SELECT_FREQ_SHIFT) + CY_SYS_CLK_IMO_MIN_FREQ_
 220:Generated_Source\PSoC4/CyLib.c ****                 #endif  /* (CY_IP_SRSSLT) */
 221:Generated_Source\PSoC4/CyLib.c **** 
 222:Generated_Source\PSoC4/CyLib.c ****             #endif  /* (CY_IP_SRSSV2) */
 223:Generated_Source\PSoC4/CyLib.c **** 
 224:Generated_Source\PSoC4/CyLib.c ****             /* For the WCO locking mode, the IMO gain needs to be CY_SYS_CLK_IMO_TRIM4_GAIN */
 225:Generated_Source\PSoC4/CyLib.c ****             #if(CY_IP_SRSSV2)
 226:Generated_Source\PSoC4/CyLib.c ****                 if ((CY_SYS_CLK_IMO_TRIM4_REG & CY_SYS_CLK_IMO_TRIM4_GAIN_MASK) == 0u)
 227:Generated_Source\PSoC4/CyLib.c ****                 {
 228:Generated_Source\PSoC4/CyLib.c **** 			         CY_SYS_CLK_IMO_TRIM4_REG = (CY_SYS_CLK_IMO_TRIM4_REG & (uint32) ~CY_SYS_CLK_IMO_TRIM4_G
ARM GAS  C:\Users\austc\AppData\Local\Temp\ccjGCJ7Y.s 			page 6


 229:Generated_Source\PSoC4/CyLib.c **** 			                  				     CY_SYS_CLK_IMO_TRIM4_WCO_GAIN;
 230:Generated_Source\PSoC4/CyLib.c ****                 }
 231:Generated_Source\PSoC4/CyLib.c ****             #endif /* (CY_IP_SRSSV2) */
 232:Generated_Source\PSoC4/CyLib.c **** 
 233:Generated_Source\PSoC4/CyLib.c ****             regTmp  = CY_SYS_CLK_WCO_DPLL_REG & ~(CY_SYS_CLK_WCO_DPLL_MULT_MASK |
 234:Generated_Source\PSoC4/CyLib.c ****                                                   CY_SYS_CLK_WCO_CONFIG_DPLL_LF_IGAIN_MASK |
 235:Generated_Source\PSoC4/CyLib.c ****                                                   CY_SYS_CLK_WCO_CONFIG_DPLL_LF_PGAIN_MASK |
 236:Generated_Source\PSoC4/CyLib.c ****                                                   CY_SYS_CLK_WCO_CONFIG_DPLL_LF_LIMIT_MASK);
 237:Generated_Source\PSoC4/CyLib.c **** 
 238:Generated_Source\PSoC4/CyLib.c ****             /* Set multiplier to determine IMO frequency in multiples of the WCO frequency */
 239:Generated_Source\PSoC4/CyLib.c ****             regTmp |= (CY_SYS_CLK_WCO_DPLL_MULT_VALUE(freq) & CY_SYS_CLK_WCO_DPLL_MULT_MASK);
 240:Generated_Source\PSoC4/CyLib.c **** 
 241:Generated_Source\PSoC4/CyLib.c ****             /* Set DPLL Loop Filter Integral and Proportional Gains Setting */
 242:Generated_Source\PSoC4/CyLib.c ****             regTmp |= (CY_SYS_CLK_WCO_CONFIG_DPLL_LF_IGAIN | CY_SYS_CLK_WCO_CONFIG_DPLL_LF_PGAIN);
 243:Generated_Source\PSoC4/CyLib.c **** 
 244:Generated_Source\PSoC4/CyLib.c ****             /* Set maximum allowed IMO offset */
 245:Generated_Source\PSoC4/CyLib.c ****             if (freq < CY_SYS_CLK_IMO_FREQ_WCO_DPLL_SAFE_POINT)
 246:Generated_Source\PSoC4/CyLib.c ****             {
 247:Generated_Source\PSoC4/CyLib.c ****                 regTmp |= (CY_SYS_CLK_WCO_CONFIG_DPLL_LF_LIMIT_MAX << CY_SYS_CLK_WCO_CONFIG_DPLL_LF
 248:Generated_Source\PSoC4/CyLib.c ****             }
 249:Generated_Source\PSoC4/CyLib.c ****             else
 250:Generated_Source\PSoC4/CyLib.c ****             {
 251:Generated_Source\PSoC4/CyLib.c ****                 lfLimit = (uint32) CY_SFLASH_IMO_TRIM_REG(freq - CY_SYS_CLK_IMO_MIN_FREQ_MHZ) +
 252:Generated_Source\PSoC4/CyLib.c ****                     cyImoFreqMhz2DpllOffset[freq - CY_SYS_CLK_IMO_FREQ_WCO_DPLL_TABLE_OFFSET];
 253:Generated_Source\PSoC4/CyLib.c **** 
 254:Generated_Source\PSoC4/CyLib.c ****                 lfLimit = (lfLimit > CY_SYS_CLK_WCO_CONFIG_DPLL_LF_LIMIT_MAX) ?
 255:Generated_Source\PSoC4/CyLib.c ****                     CY_SYS_CLK_WCO_CONFIG_DPLL_LF_LIMIT_MAX : lfLimit;
 256:Generated_Source\PSoC4/CyLib.c **** 
 257:Generated_Source\PSoC4/CyLib.c ****                 regTmp |= (lfLimit << CY_SYS_CLK_WCO_CONFIG_DPLL_LF_LIMIT_SHIFT);
 258:Generated_Source\PSoC4/CyLib.c ****             }
 259:Generated_Source\PSoC4/CyLib.c **** 
 260:Generated_Source\PSoC4/CyLib.c ****             CY_SYS_CLK_WCO_DPLL_REG = regTmp;
 261:Generated_Source\PSoC4/CyLib.c **** 
 262:Generated_Source\PSoC4/CyLib.c ****             flashCtlReg = CY_FLASH_CTL_REG;
 263:Generated_Source\PSoC4/CyLib.c ****             CySysFlashSetWaitCycles(CY_SYS_CLK_IMO_MAX_FREQ_MHZ);
 264:Generated_Source\PSoC4/CyLib.c ****             CY_SYS_CLK_WCO_CONFIG_REG |= CY_SYS_CLK_WCO_CONFIG_DPLL_ENABLE;
 265:Generated_Source\PSoC4/CyLib.c ****             CyDelay(CY_SYS_CLK_WCO_IMO_TIMEOUT_MS);
 266:Generated_Source\PSoC4/CyLib.c ****             CY_FLASH_CTL_REG = flashCtlReg;
 267:Generated_Source\PSoC4/CyLib.c **** 
 268:Generated_Source\PSoC4/CyLib.c ****             CyExitCriticalSection(interruptState);
 269:Generated_Source\PSoC4/CyLib.c ****         }
 270:Generated_Source\PSoC4/CyLib.c ****     }
 271:Generated_Source\PSoC4/CyLib.c **** 
 272:Generated_Source\PSoC4/CyLib.c **** 
 273:Generated_Source\PSoC4/CyLib.c ****     /*******************************************************************************
 274:Generated_Source\PSoC4/CyLib.c ****     * Function Name: CySysClkImoDisableWcoLock
 275:Generated_Source\PSoC4/CyLib.c ****     ****************************************************************************//**
 276:Generated_Source\PSoC4/CyLib.c ****     *
 277:Generated_Source\PSoC4/CyLib.c ****     * Disables the IMO to WCO lock feature.
 278:Generated_Source\PSoC4/CyLib.c ****     *
 279:Generated_Source\PSoC4/CyLib.c ****     * For PSoC 4200L devices, note that the IMO can lock to either WCO or USB
 280:Generated_Source\PSoC4/CyLib.c ****     * but not both.
 281:Generated_Source\PSoC4/CyLib.c ****     *
 282:Generated_Source\PSoC4/CyLib.c ****     * This function is applicable for PSoC 4100M / PSoC 4200M / PSoC 4000S /
 283:Generated_Source\PSoC4/CyLib.c ****     * PSoC 4100S / PSoC Analog Coprocessor / PSoC 4200L.
 284:Generated_Source\PSoC4/CyLib.c ****     *
 285:Generated_Source\PSoC4/CyLib.c ****     *******************************************************************************/
ARM GAS  C:\Users\austc\AppData\Local\Temp\ccjGCJ7Y.s 			page 7


 286:Generated_Source\PSoC4/CyLib.c ****     void CySysClkImoDisableWcoLock(void)
 287:Generated_Source\PSoC4/CyLib.c ****     {
  58              		.loc 1 287 0
  59              		.cfi_startproc
  60              		@ args = 0, pretend = 0, frame = 0
  61              		@ frame_needed = 0, uses_anonymous_args = 0
  62              		@ link register save eliminated.
 288:Generated_Source\PSoC4/CyLib.c ****         CY_SYS_CLK_WCO_CONFIG_REG &= (uint32) ~CY_SYS_CLK_WCO_CONFIG_DPLL_ENABLE;
  63              		.loc 1 288 0
  64 0000 024A     		ldr	r2, .L5
  65 0002 1168     		ldr	r1, [r2]
  66 0004 024B     		ldr	r3, .L5+4
  67 0006 0B40     		ands	r3, r1
  68 0008 1360     		str	r3, [r2]
 289:Generated_Source\PSoC4/CyLib.c ****     }
  69              		.loc 1 289 0
  70              		@ sp needed
  71 000a 7047     		bx	lr
  72              	.L6:
  73              		.align	2
  74              	.L5:
  75 000c 00002240 		.word	1075970048
  76 0010 FFFFFFBF 		.word	-1073741825
  77              		.cfi_endproc
  78              	.LFE4:
  79              		.size	CySysClkImoDisableWcoLock, .-CySysClkImoDisableWcoLock
  80              		.section	.text.CySysClkImoGetWcoLock,"ax",%progbits
  81              		.align	2
  82              		.global	CySysClkImoGetWcoLock
  83              		.code	16
  84              		.thumb_func
  85              		.type	CySysClkImoGetWcoLock, %function
  86              	CySysClkImoGetWcoLock:
  87              	.LFB5:
 290:Generated_Source\PSoC4/CyLib.c **** 
 291:Generated_Source\PSoC4/CyLib.c **** 
 292:Generated_Source\PSoC4/CyLib.c ****     /*******************************************************************************
 293:Generated_Source\PSoC4/CyLib.c ****     * Function Name: CySysClkImoGetWcoLock
 294:Generated_Source\PSoC4/CyLib.c ****     ****************************************************************************//**
 295:Generated_Source\PSoC4/CyLib.c ****     *
 296:Generated_Source\PSoC4/CyLib.c ****     * Reports the IMO to WCO lock enable state.
 297:Generated_Source\PSoC4/CyLib.c ****     *
 298:Generated_Source\PSoC4/CyLib.c ****     * This function is applicable for PSoC 4100M / PSoC 4200M / PSoC 4000S /
 299:Generated_Source\PSoC4/CyLib.c ****     * PSoC 4100S / PSoC Analog Coprocessor / PSoC 4200L.
 300:Generated_Source\PSoC4/CyLib.c ****     *
 301:Generated_Source\PSoC4/CyLib.c ****     * \return 1 if IMO to WCO lock is enabled.
 302:Generated_Source\PSoC4/CyLib.c ****     * \return 0 if IMO to WCO lock is disabled.
 303:Generated_Source\PSoC4/CyLib.c ****     *
 304:Generated_Source\PSoC4/CyLib.c ****     *******************************************************************************/
 305:Generated_Source\PSoC4/CyLib.c ****     uint32 CySysClkImoGetWcoLock(void)
 306:Generated_Source\PSoC4/CyLib.c ****     {
  88              		.loc 1 306 0
  89              		.cfi_startproc
  90              		@ args = 0, pretend = 0, frame = 0
  91              		@ frame_needed = 0, uses_anonymous_args = 0
  92              		@ link register save eliminated.
 307:Generated_Source\PSoC4/CyLib.c ****         return ((0u != (CY_SYS_CLK_WCO_CONFIG_REG & CY_SYS_CLK_WCO_CONFIG_DPLL_ENABLE)) ?
ARM GAS  C:\Users\austc\AppData\Local\Temp\ccjGCJ7Y.s 			page 8


  93              		.loc 1 307 0
  94 0000 034B     		ldr	r3, .L9
  95 0002 1868     		ldr	r0, [r3]
  96 0004 8023     		movs	r3, #128
  97 0006 DB05     		lsls	r3, r3, #23
  98 0008 1840     		ands	r0, r3
 308:Generated_Source\PSoC4/CyLib.c ****                 (uint32) 1u :
  99              		.loc 1 308 0
 100 000a 00D0     		beq	.L8
 101 000c 0120     		movs	r0, #1
 102              	.L8:
 309:Generated_Source\PSoC4/CyLib.c ****                 (uint32) 0u);
 310:Generated_Source\PSoC4/CyLib.c ****     }
 103              		.loc 1 310 0
 104              		@ sp needed
 105 000e 7047     		bx	lr
 106              	.L10:
 107              		.align	2
 108              	.L9:
 109 0010 00002240 		.word	1075970048
 110              		.cfi_endproc
 111              	.LFE5:
 112              		.size	CySysClkImoGetWcoLock, .-CySysClkImoGetWcoLock
 113              		.section	.text.CySysClkImoEnableUsbLock,"ax",%progbits
 114              		.align	2
 115              		.global	CySysClkImoEnableUsbLock
 116              		.code	16
 117              		.thumb_func
 118              		.type	CySysClkImoEnableUsbLock, %function
 119              	CySysClkImoEnableUsbLock:
 120              	.LFB6:
 311:Generated_Source\PSoC4/CyLib.c **** 
 312:Generated_Source\PSoC4/CyLib.c **** #endif /* (CY_IP_IMO_TRIMMABLE_BY_WCO) */
 313:Generated_Source\PSoC4/CyLib.c **** 
 314:Generated_Source\PSoC4/CyLib.c **** 
 315:Generated_Source\PSoC4/CyLib.c **** #if (CY_IP_IMO_TRIMMABLE_BY_USB)
 316:Generated_Source\PSoC4/CyLib.c **** 
 317:Generated_Source\PSoC4/CyLib.c ****     /*******************************************************************************
 318:Generated_Source\PSoC4/CyLib.c ****     * Function Name: CySysClkImoEnableUsbLock
 319:Generated_Source\PSoC4/CyLib.c ****     ****************************************************************************//**
 320:Generated_Source\PSoC4/CyLib.c ****     *
 321:Generated_Source\PSoC4/CyLib.c ****     * Enables the IMO to USB lock feature.
 322:Generated_Source\PSoC4/CyLib.c ****     *
 323:Generated_Source\PSoC4/CyLib.c ****     * This function must be called before CySysClkWriteImoFreq().
 324:Generated_Source\PSoC4/CyLib.c ****     *
 325:Generated_Source\PSoC4/CyLib.c ****     * This function is called from CySysClkImoStart() function if USB lock
 326:Generated_Source\PSoC4/CyLib.c ****     * selected in the Design Wide Resources tab.
 327:Generated_Source\PSoC4/CyLib.c ****     *
 328:Generated_Source\PSoC4/CyLib.c ****     * This is applicable for PSoC 4200L family of devices only. For PSoC 4200L
 329:Generated_Source\PSoC4/CyLib.c ****     * devices, the IMO can lock to either WCO or USB, but not both.
 330:Generated_Source\PSoC4/CyLib.c ****     *
 331:Generated_Source\PSoC4/CyLib.c ****     *******************************************************************************/
 332:Generated_Source\PSoC4/CyLib.c ****     void CySysClkImoEnableUsbLock(void)
 333:Generated_Source\PSoC4/CyLib.c ****     {
 121              		.loc 1 333 0
 122              		.cfi_startproc
 123              		@ args = 0, pretend = 0, frame = 0
ARM GAS  C:\Users\austc\AppData\Local\Temp\ccjGCJ7Y.s 			page 9


 124              		@ frame_needed = 0, uses_anonymous_args = 0
 125 0000 30B5     		push	{r4, r5, lr}
 126              		.cfi_def_cfa_offset 12
 127              		.cfi_offset 4, -12
 128              		.cfi_offset 5, -8
 129              		.cfi_offset 14, -4
 334:Generated_Source\PSoC4/CyLib.c ****         #if(CY_IP_SRSSV2)
 335:Generated_Source\PSoC4/CyLib.c ****             uint32 i;
 336:Generated_Source\PSoC4/CyLib.c ****             
 337:Generated_Source\PSoC4/CyLib.c ****             /* Check for new trim algorithm */
 338:Generated_Source\PSoC4/CyLib.c ****             uint32 CySysClkUsbCuSortTrim = ((CY_SFLASH_S1_TESTPGM_OLD_REV < (CY_SFLASH_S1_TESTPGM_R
 130              		.loc 1 338 0
 131 0002 2D4B     		ldr	r3, .L26
 132 0004 1A78     		ldrb	r2, [r3]
 133 0006 3F23     		movs	r3, #63
 134 0008 1340     		ands	r3, r2
 135 000a 042B     		cmp	r3, #4
 136 000c 01D9     		bls	.L25
 137 000e 0120     		movs	r0, #1
 138 0010 00E0     		b	.L12
 139              	.L25:
 140 0012 0020     		movs	r0, #0
 141              	.L12:
 142              	.LVL0:
 339:Generated_Source\PSoC4/CyLib.c ****                                                                             CY_SFLASH_S1_TESTPGM_RE
 340:Generated_Source\PSoC4/CyLib.c **** 
 341:Generated_Source\PSoC4/CyLib.c ****             /* Get current IMO frequency based on the register value */
 342:Generated_Source\PSoC4/CyLib.c ****             uint32 freq = CY_SYS_CLK_IMO_MIN_FREQ_MHZ;
 343:Generated_Source\PSoC4/CyLib.c **** 
 344:Generated_Source\PSoC4/CyLib.c ****             for(i = 0u; i < CY_SYS_CLK_IMO_FREQ_TABLE_SIZE; i++)
 143              		.loc 1 344 0 discriminator 4
 144 0014 0023     		movs	r3, #0
 145 0016 0AE0     		b	.L13
 146              	.LVL1:
 147              	.L16:
 345:Generated_Source\PSoC4/CyLib.c ****             {
 346:Generated_Source\PSoC4/CyLib.c ****                 if ((uint8) (CY_SYS_CLK_IMO_TRIM2_REG & CY_SYS_CLK_IMO_FREQ_BITS_MASK) == cyImoFreq
 148              		.loc 1 346 0
 149 0018 284A     		ldr	r2, .L26+4
 150 001a 1268     		ldr	r2, [r2]
 151 001c 3F21     		movs	r1, #63
 152 001e 0A40     		ands	r2, r1
 153 0020 2749     		ldr	r1, .L26+8
 154 0022 C95C     		ldrb	r1, [r1, r3]
 155 0024 8A42     		cmp	r2, r1
 156 0026 01D1     		bne	.L14
 347:Generated_Source\PSoC4/CyLib.c ****                 {
 348:Generated_Source\PSoC4/CyLib.c ****                     freq = i + CY_SYS_CLK_IMO_FREQ_TABLE_OFFSET;
 157              		.loc 1 348 0
 158 0028 0333     		adds	r3, r3, #3
 159              	.LVL2:
 349:Generated_Source\PSoC4/CyLib.c ****                     break;
 160              		.loc 1 349 0
 161 002a 03E0     		b	.L15
 162              	.LVL3:
 163              	.L14:
 344:Generated_Source\PSoC4/CyLib.c ****             {
ARM GAS  C:\Users\austc\AppData\Local\Temp\ccjGCJ7Y.s 			page 10


 164              		.loc 1 344 0 discriminator 2
 165 002c 0133     		adds	r3, r3, #1
 166              	.LVL4:
 167              	.L13:
 344:Generated_Source\PSoC4/CyLib.c ****             {
 168              		.loc 1 344 0 is_stmt 0 discriminator 1
 169 002e 2D2B     		cmp	r3, #45
 170 0030 F2D9     		bls	.L16
 342:Generated_Source\PSoC4/CyLib.c **** 
 171              		.loc 1 342 0 is_stmt 1
 172 0032 0323     		movs	r3, #3
 173              	.LVL5:
 174              	.L15:
 350:Generated_Source\PSoC4/CyLib.c ****                 }
 351:Generated_Source\PSoC4/CyLib.c ****             }
 352:Generated_Source\PSoC4/CyLib.c ****         #endif  /* (CY_IP_SRSSV2) */
 353:Generated_Source\PSoC4/CyLib.c ****         
 354:Generated_Source\PSoC4/CyLib.c ****         /* Set oscillator interface control port to USB */
 355:Generated_Source\PSoC4/CyLib.c ****         #if (CY_IP_IMO_TRIMMABLE_BY_WCO && CY_IP_IMO_TRIMMABLE_BY_USB)
 356:Generated_Source\PSoC4/CyLib.c ****             CY_SYS_CLK_OSCINTF_CTL_REG = (CY_SYS_CLK_OSCINTF_CTL_REG & (uint32) ~CY_SYS_CLK_OSCINTF
 175              		.loc 1 356 0
 176 0034 2349     		ldr	r1, .L26+12
 177 0036 0A68     		ldr	r2, [r1]
 178 0038 0124     		movs	r4, #1
 179 003a A243     		bics	r2, r4
 180 003c 0A60     		str	r2, [r1]
 357:Generated_Source\PSoC4/CyLib.c ****                                           CY_SYS_CLK_OSCINTF_CTL_PORT_SEL_USB;
 358:Generated_Source\PSoC4/CyLib.c ****         #endif /* (CY_IP_IMO_TRIMMABLE_BY_WCO && CY_IP_IMO_TRIMMABLE_BY_USB) */
 359:Generated_Source\PSoC4/CyLib.c **** 
 360:Generated_Source\PSoC4/CyLib.c ****         #if(CY_IP_SRSSV2)
 361:Generated_Source\PSoC4/CyLib.c ****            
 362:Generated_Source\PSoC4/CyLib.c ****             /* Save CY_SYS_CLK_IMO_TRIM4_REG and set IMO gain for USB lock */
 363:Generated_Source\PSoC4/CyLib.c ****             CySysClkImoTrim4 = CY_SYS_CLK_IMO_TRIM4_REG;
 181              		.loc 1 363 0
 182 003e 224A     		ldr	r2, .L26+16
 183 0040 1268     		ldr	r2, [r2]
 184 0042 2249     		ldr	r1, .L26+20
 185 0044 0A60     		str	r2, [r1]
 364:Generated_Source\PSoC4/CyLib.c ****             
 365:Generated_Source\PSoC4/CyLib.c ****             if(0u != CySysClkUsbCuSortTrim)
 186              		.loc 1 365 0
 187 0046 0028     		cmp	r0, #0
 188 0048 0FD0     		beq	.L17
 366:Generated_Source\PSoC4/CyLib.c ****             {
 367:Generated_Source\PSoC4/CyLib.c ****                 CySysClkImoTrim5 = CY_PWR_BG_TRIM5_REG;
 189              		.loc 1 367 0
 190 004a 2149     		ldr	r1, .L26+24
 191 004c 0D68     		ldr	r5, [r1]
 192 004e 1F4C     		ldr	r4, .L26+20
 193 0050 6560     		str	r5, [r4, #4]
 368:Generated_Source\PSoC4/CyLib.c ****                 
 369:Generated_Source\PSoC4/CyLib.c ****                 CY_SYS_CLK_IMO_TRIM4_REG = (CySysClkImoTrim4 & (uint32) ~CY_SYS_CLK_IMO_TRIM4_GAIN_
 194              		.loc 1 369 0
 195 0052 1F24     		movs	r4, #31
 196 0054 A243     		bics	r2, r4
 370:Generated_Source\PSoC4/CyLib.c ****                                             CY_SFLASH_USBMODE_IMO_GAIN_TRIM_REG;
 197              		.loc 1 370 0
ARM GAS  C:\Users\austc\AppData\Local\Temp\ccjGCJ7Y.s 			page 11


 198 0056 1F4C     		ldr	r4, .L26+28
 199 0058 2478     		ldrb	r4, [r4]
 369:Generated_Source\PSoC4/CyLib.c ****                                             CY_SFLASH_USBMODE_IMO_GAIN_TRIM_REG;
 200              		.loc 1 369 0
 201 005a 2243     		orrs	r2, r4
 202 005c 1A4C     		ldr	r4, .L26+16
 203 005e 2260     		str	r2, [r4]
 371:Generated_Source\PSoC4/CyLib.c ****                 CY_PWR_BG_TRIM5_REG = CY_SFLASH_USBMODE_IMO_TEMPCO_REG;
 204              		.loc 1 371 0
 205 0060 1D4A     		ldr	r2, .L26+32
 206 0062 1278     		ldrb	r2, [r2]
 207 0064 D2B2     		uxtb	r2, r2
 208 0066 0A60     		str	r2, [r1]
 209 0068 05E0     		b	.L18
 210              	.L17:
 372:Generated_Source\PSoC4/CyLib.c ****                 
 373:Generated_Source\PSoC4/CyLib.c ****             }
 374:Generated_Source\PSoC4/CyLib.c ****             else
 375:Generated_Source\PSoC4/CyLib.c ****             {
 376:Generated_Source\PSoC4/CyLib.c ****                 CY_SYS_CLK_IMO_TRIM4_REG = (CySysClkImoTrim4 & (uint32) ~CY_SYS_CLK_IMO_TRIM4_GAIN_
 211              		.loc 1 376 0
 212 006a 1F21     		movs	r1, #31
 213 006c 8A43     		bics	r2, r1
 214 006e 1739     		subs	r1, r1, #23
 215 0070 0A43     		orrs	r2, r1
 216 0072 1549     		ldr	r1, .L26+16
 217 0074 0A60     		str	r2, [r1]
 218              	.L18:
 377:Generated_Source\PSoC4/CyLib.c ****                                             CY_SYS_CLK_IMO_TRIM4_USB_GAIN;
 378:Generated_Source\PSoC4/CyLib.c **** 
 379:Generated_Source\PSoC4/CyLib.c ****             }
 380:Generated_Source\PSoC4/CyLib.c **** 
 381:Generated_Source\PSoC4/CyLib.c ****             if (48u == freq)
 219              		.loc 1 381 0
 220 0076 302B     		cmp	r3, #48
 221 0078 0BD1     		bne	.L19
 382:Generated_Source\PSoC4/CyLib.c ****             {
 383:Generated_Source\PSoC4/CyLib.c ****                 CY_SYS_CLK_IMO_TRIM1_REG = (0u != CySysClkUsbCuSortTrim) ? 
 384:Generated_Source\PSoC4/CyLib.c ****                                            (uint32)CY_SFLASH_CU_IMO_TRIM_USBMODE_48_REG :
 222              		.loc 1 384 0
 223 007a 0028     		cmp	r0, #0
 224 007c 03D0     		beq	.L20
 225              		.loc 1 384 0 is_stmt 0 discriminator 1
 226 007e 174B     		ldr	r3, .L26+36
 227              	.LVL6:
 228 0080 1B78     		ldrb	r3, [r3]
 229 0082 DBB2     		uxtb	r3, r3
 230 0084 02E0     		b	.L21
 231              	.LVL7:
 232              	.L20:
 385:Generated_Source\PSoC4/CyLib.c ****                                            (uint32)CY_SFLASH_IMO_TRIM_USBMODE_48_REG;
 233              		.loc 1 385 0 is_stmt 1 discriminator 2
 234 0086 164B     		ldr	r3, .L26+40
 235              	.LVL8:
 236 0088 1B78     		ldrb	r3, [r3]
 237 008a DBB2     		uxtb	r3, r3
 238              	.L21:
ARM GAS  C:\Users\austc\AppData\Local\Temp\ccjGCJ7Y.s 			page 12


 383:Generated_Source\PSoC4/CyLib.c ****                                            (uint32)CY_SFLASH_CU_IMO_TRIM_USBMODE_48_REG :
 239              		.loc 1 383 0
 240 008c 154A     		ldr	r2, .L26+44
 241 008e 1360     		str	r3, [r2]
 242 0090 0CE0     		b	.L22
 243              	.LVL9:
 244              	.L19:
 386:Generated_Source\PSoC4/CyLib.c ****             }
 387:Generated_Source\PSoC4/CyLib.c ****             else if (24u == freq)
 245              		.loc 1 387 0
 246 0092 182B     		cmp	r3, #24
 247 0094 0AD1     		bne	.L22
 388:Generated_Source\PSoC4/CyLib.c ****             {
 389:Generated_Source\PSoC4/CyLib.c ****                 CY_SYS_CLK_IMO_TRIM1_REG = (0u != CySysClkUsbCuSortTrim) ? 
 390:Generated_Source\PSoC4/CyLib.c ****                                            (uint32)CY_SFLASH_CU_IMO_TRIM_USBMODE_24_REG :
 248              		.loc 1 390 0
 249 0096 0028     		cmp	r0, #0
 250 0098 03D0     		beq	.L23
 251              		.loc 1 390 0 is_stmt 0 discriminator 1
 252 009a 134B     		ldr	r3, .L26+48
 253              	.LVL10:
 254 009c 1B78     		ldrb	r3, [r3]
 255 009e DBB2     		uxtb	r3, r3
 256 00a0 02E0     		b	.L24
 257              	.LVL11:
 258              	.L23:
 391:Generated_Source\PSoC4/CyLib.c ****                                            (uint32)CY_SFLASH_IMO_TRIM_USBMODE_24_REG;
 259              		.loc 1 391 0 is_stmt 1 discriminator 2
 260 00a2 124B     		ldr	r3, .L26+52
 261              	.LVL12:
 262 00a4 1B78     		ldrb	r3, [r3]
 263 00a6 DBB2     		uxtb	r3, r3
 264              	.L24:
 389:Generated_Source\PSoC4/CyLib.c ****                                            (uint32)CY_SFLASH_CU_IMO_TRIM_USBMODE_24_REG :
 265              		.loc 1 389 0
 266 00a8 0E4A     		ldr	r2, .L26+44
 267 00aa 1360     		str	r3, [r2]
 268              	.L22:
 392:Generated_Source\PSoC4/CyLib.c ****             }
 393:Generated_Source\PSoC4/CyLib.c ****             else
 394:Generated_Source\PSoC4/CyLib.c ****             {
 395:Generated_Source\PSoC4/CyLib.c ****                 /* Do nothing */
 396:Generated_Source\PSoC4/CyLib.c ****             }
 397:Generated_Source\PSoC4/CyLib.c ****             
 398:Generated_Source\PSoC4/CyLib.c ****         #endif  /* (CY_IP_SRSSV2) */
 399:Generated_Source\PSoC4/CyLib.c **** 
 400:Generated_Source\PSoC4/CyLib.c ****         CY_SYS_CLK_USBDEVv2_CR1_REG |= CY_SYS_CLK_USBDEVv2_CR1_ENABLE_LOCK;
 269              		.loc 1 400 0
 270 00ac 104A     		ldr	r2, .L26+56
 271 00ae 1168     		ldr	r1, [r2]
 272 00b0 0223     		movs	r3, #2
 273 00b2 0B43     		orrs	r3, r1
 274 00b4 1360     		str	r3, [r2]
 401:Generated_Source\PSoC4/CyLib.c ****     }
 275              		.loc 1 401 0
 276              		@ sp needed
 277 00b6 30BD     		pop	{r4, r5, pc}
ARM GAS  C:\Users\austc\AppData\Local\Temp\ccjGCJ7Y.s 			page 13


 278              	.L27:
 279              		.align	2
 280              	.L26:
 281 00b8 00F3FF0F 		.word	268432128
 282 00bc 2CFF0B40 		.word	1074528044
 283 00c0 00000000 		.word	.LANCHOR0
 284 00c4 50000C40 		.word	1074528336
 285 00c8 34FF0B40 		.word	1074528052
 286 00cc 00000000 		.word	.LANCHOR1
 287 00d0 20FF0B40 		.word	1074528032
 288 00d4 C0F1FF0F 		.word	268431808
 289 00d8 C1F1FF0F 		.word	268431809
 290 00dc C3F1FF0F 		.word	268431811
 291 00e0 3FF3FF0F 		.word	268432191
 292 00e4 28FF0B40 		.word	1074528040
 293 00e8 C2F1FF0F 		.word	268431810
 294 00ec 3EF3FF0F 		.word	268432190
 295 00f0 24002C40 		.word	1076625444
 296              		.cfi_endproc
 297              	.LFE6:
 298              		.size	CySysClkImoEnableUsbLock, .-CySysClkImoEnableUsbLock
 299              		.section	.text.CySysClkImoDisableUsbLock,"ax",%progbits
 300              		.align	2
 301              		.global	CySysClkImoDisableUsbLock
 302              		.code	16
 303              		.thumb_func
 304              		.type	CySysClkImoDisableUsbLock, %function
 305              	CySysClkImoDisableUsbLock:
 306              	.LFB7:
 402:Generated_Source\PSoC4/CyLib.c **** 
 403:Generated_Source\PSoC4/CyLib.c **** 
 404:Generated_Source\PSoC4/CyLib.c ****     /*******************************************************************************
 405:Generated_Source\PSoC4/CyLib.c ****     * Function Name: CySysClkImoDisableUsbLock
 406:Generated_Source\PSoC4/CyLib.c ****     ****************************************************************************//**
 407:Generated_Source\PSoC4/CyLib.c ****     *
 408:Generated_Source\PSoC4/CyLib.c ****     * Disables the IMO to USB lock feature.
 409:Generated_Source\PSoC4/CyLib.c ****     *
 410:Generated_Source\PSoC4/CyLib.c ****     * This function is called from CySysClkImoStop() function if USB lock selected
 411:Generated_Source\PSoC4/CyLib.c ****     * in the Design Wide Resources tab.
 412:Generated_Source\PSoC4/CyLib.c ****     *
 413:Generated_Source\PSoC4/CyLib.c ****     * This is applicable for PSoC 4200L family of devices only. For PSoC 4200L
 414:Generated_Source\PSoC4/CyLib.c ****     * devices, the IMO can lock to either WCO or USB, but not both.
 415:Generated_Source\PSoC4/CyLib.c ****     *
 416:Generated_Source\PSoC4/CyLib.c ****     *******************************************************************************/
 417:Generated_Source\PSoC4/CyLib.c ****     void CySysClkImoDisableUsbLock(void)
 418:Generated_Source\PSoC4/CyLib.c ****     {
 307              		.loc 1 418 0
 308              		.cfi_startproc
 309              		@ args = 0, pretend = 0, frame = 0
 310              		@ frame_needed = 0, uses_anonymous_args = 0
 311 0000 30B5     		push	{r4, r5, lr}
 312              		.cfi_def_cfa_offset 12
 313              		.cfi_offset 4, -12
 314              		.cfi_offset 5, -8
 315              		.cfi_offset 14, -4
 419:Generated_Source\PSoC4/CyLib.c ****         #if(CY_IP_SRSSV2)
 420:Generated_Source\PSoC4/CyLib.c ****             uint32 i;
ARM GAS  C:\Users\austc\AppData\Local\Temp\ccjGCJ7Y.s 			page 14


 421:Generated_Source\PSoC4/CyLib.c ****             
 422:Generated_Source\PSoC4/CyLib.c ****             /* Check for new trim algorithm */
 423:Generated_Source\PSoC4/CyLib.c ****             uint32 CySysClkUsbCuSortTrim = ((CY_SFLASH_S1_TESTPGM_OLD_REV < (CY_SFLASH_S1_TESTPGM_R
 316              		.loc 1 423 0
 317 0002 1A4B     		ldr	r3, .L36
 318 0004 1A78     		ldrb	r2, [r3]
 319 0006 3F23     		movs	r3, #63
 320 0008 1340     		ands	r3, r2
 321 000a 042B     		cmp	r3, #4
 322 000c 01D9     		bls	.L35
 323 000e 0120     		movs	r0, #1
 324 0010 00E0     		b	.L29
 325              	.L35:
 326 0012 0020     		movs	r0, #0
 327              	.L29:
 328              	.LVL13:
 424:Generated_Source\PSoC4/CyLib.c ****                                                                             CY_SFLASH_S1_TESTPGM_RE
 425:Generated_Source\PSoC4/CyLib.c **** 
 426:Generated_Source\PSoC4/CyLib.c ****             /* Get current IMO frequency based on the register value */
 427:Generated_Source\PSoC4/CyLib.c ****             uint32 freq = CY_SYS_CLK_IMO_MIN_FREQ_MHZ;;
 428:Generated_Source\PSoC4/CyLib.c **** 
 429:Generated_Source\PSoC4/CyLib.c ****             for(i = 0u; i < CY_SYS_CLK_IMO_FREQ_TABLE_SIZE; i++)
 329              		.loc 1 429 0 discriminator 4
 330 0014 0023     		movs	r3, #0
 331 0016 0AE0     		b	.L30
 332              	.LVL14:
 333              	.L33:
 430:Generated_Source\PSoC4/CyLib.c ****             {
 431:Generated_Source\PSoC4/CyLib.c ****                 if ((uint8) (CY_SYS_CLK_IMO_TRIM2_REG & CY_SYS_CLK_IMO_FREQ_BITS_MASK) == cyImoFreq
 334              		.loc 1 431 0
 335 0018 154A     		ldr	r2, .L36+4
 336 001a 1268     		ldr	r2, [r2]
 337 001c 3F21     		movs	r1, #63
 338 001e 0A40     		ands	r2, r1
 339 0020 1449     		ldr	r1, .L36+8
 340 0022 C95C     		ldrb	r1, [r1, r3]
 341 0024 8A42     		cmp	r2, r1
 342 0026 01D1     		bne	.L31
 432:Generated_Source\PSoC4/CyLib.c ****                 {
 433:Generated_Source\PSoC4/CyLib.c ****                     freq = i + CY_SYS_CLK_IMO_FREQ_TABLE_OFFSET;
 343              		.loc 1 433 0
 344 0028 0333     		adds	r3, r3, #3
 345              	.LVL15:
 434:Generated_Source\PSoC4/CyLib.c ****                     break;
 346              		.loc 1 434 0
 347 002a 03E0     		b	.L32
 348              	.LVL16:
 349              	.L31:
 429:Generated_Source\PSoC4/CyLib.c ****             {
 350              		.loc 1 429 0 discriminator 2
 351 002c 0133     		adds	r3, r3, #1
 352              	.LVL17:
 353              	.L30:
 429:Generated_Source\PSoC4/CyLib.c ****             {
 354              		.loc 1 429 0 is_stmt 0 discriminator 1
 355 002e 2D2B     		cmp	r3, #45
 356 0030 F2D9     		bls	.L33
ARM GAS  C:\Users\austc\AppData\Local\Temp\ccjGCJ7Y.s 			page 15


 427:Generated_Source\PSoC4/CyLib.c **** 
 357              		.loc 1 427 0 is_stmt 1
 358 0032 0323     		movs	r3, #3
 359              	.LVL18:
 360              	.L32:
 435:Generated_Source\PSoC4/CyLib.c ****                 }
 436:Generated_Source\PSoC4/CyLib.c ****             }           
 437:Generated_Source\PSoC4/CyLib.c ****         #endif  /* (CY_IP_SRSSV2) */
 438:Generated_Source\PSoC4/CyLib.c ****         
 439:Generated_Source\PSoC4/CyLib.c ****         CY_SYS_CLK_USBDEVv2_CR1_REG &= (uint32) ~CY_SYS_CLK_USBDEVv2_CR1_ENABLE_LOCK;
 361              		.loc 1 439 0
 362 0034 1049     		ldr	r1, .L36+12
 363 0036 0A68     		ldr	r2, [r1]
 364 0038 0224     		movs	r4, #2
 365 003a A243     		bics	r2, r4
 366 003c 0A60     		str	r2, [r1]
 440:Generated_Source\PSoC4/CyLib.c **** 
 441:Generated_Source\PSoC4/CyLib.c ****         #if(CY_IP_SRSSV2)
 442:Generated_Source\PSoC4/CyLib.c ****             /* Restore CY_SYS_CLK_IMO_TRIM4_REG */
 443:Generated_Source\PSoC4/CyLib.c ****             CY_SYS_CLK_IMO_TRIM4_REG = ((CY_SYS_CLK_IMO_TRIM4_REG & (uint32) ~CY_SYS_CLK_IMO_TRIM4_
 367              		.loc 1 443 0
 368 003e 0F4C     		ldr	r4, .L36+16
 369 0040 2168     		ldr	r1, [r4]
 370 0042 1F22     		movs	r2, #31
 371 0044 9143     		bics	r1, r2
 444:Generated_Source\PSoC4/CyLib.c ****                                         (CySysClkImoTrim4 & CY_SYS_CLK_IMO_TRIM4_GAIN_MASK));
 372              		.loc 1 444 0
 373 0046 0E4D     		ldr	r5, .L36+20
 374 0048 2D68     		ldr	r5, [r5]
 375 004a 2A40     		ands	r2, r5
 443:Generated_Source\PSoC4/CyLib.c ****                                         (CySysClkImoTrim4 & CY_SYS_CLK_IMO_TRIM4_GAIN_MASK));
 376              		.loc 1 443 0
 377 004c 0A43     		orrs	r2, r1
 378 004e 2260     		str	r2, [r4]
 445:Generated_Source\PSoC4/CyLib.c **** 
 446:Generated_Source\PSoC4/CyLib.c ****             if(0u != CySysClkUsbCuSortTrim)
 379              		.loc 1 446 0
 380 0050 0028     		cmp	r0, #0
 381 0052 03D0     		beq	.L34
 447:Generated_Source\PSoC4/CyLib.c ****             {
 448:Generated_Source\PSoC4/CyLib.c ****                 CY_PWR_BG_TRIM5_REG = CySysClkImoTrim5;
 382              		.loc 1 448 0
 383 0054 0A4A     		ldr	r2, .L36+20
 384 0056 5168     		ldr	r1, [r2, #4]
 385 0058 0A4A     		ldr	r2, .L36+24
 386 005a 1160     		str	r1, [r2]
 387              	.L34:
 449:Generated_Source\PSoC4/CyLib.c ****             }
 450:Generated_Source\PSoC4/CyLib.c ****             
 451:Generated_Source\PSoC4/CyLib.c ****             CY_SYS_CLK_IMO_TRIM1_REG = CY_SFLASH_IMO_TRIM_REG(freq - CY_SYS_CLK_IMO_FREQ_TABLE_OFFS
 388              		.loc 1 451 0
 389 005c 0A4A     		ldr	r2, .L36+28
 390 005e 9446     		mov	ip, r2
 391 0060 6344     		add	r3, r3, ip
 392              	.LVL19:
 393 0062 1B78     		ldrb	r3, [r3]
 394              	.LVL20:
ARM GAS  C:\Users\austc\AppData\Local\Temp\ccjGCJ7Y.s 			page 16


 395 0064 DBB2     		uxtb	r3, r3
 396 0066 094A     		ldr	r2, .L36+32
 397 0068 1360     		str	r3, [r2]
 452:Generated_Source\PSoC4/CyLib.c ****             
 453:Generated_Source\PSoC4/CyLib.c ****         #endif  /* (CY_IP_SRSSV2) */
 454:Generated_Source\PSoC4/CyLib.c ****     }
 398              		.loc 1 454 0
 399              		@ sp needed
 400 006a 30BD     		pop	{r4, r5, pc}
 401              	.L37:
 402              		.align	2
 403              	.L36:
 404 006c 00F3FF0F 		.word	268432128
 405 0070 2CFF0B40 		.word	1074528044
 406 0074 00000000 		.word	.LANCHOR0
 407 0078 24002C40 		.word	1076625444
 408 007c 34FF0B40 		.word	1074528052
 409 0080 00000000 		.word	.LANCHOR1
 410 0084 20FF0B40 		.word	1074528032
 411 0088 4DF3FF0F 		.word	268432205
 412 008c 28FF0B40 		.word	1074528040
 413              		.cfi_endproc
 414              	.LFE7:
 415              		.size	CySysClkImoDisableUsbLock, .-CySysClkImoDisableUsbLock
 416              		.section	.text.CySysClkImoStop,"ax",%progbits
 417              		.align	2
 418              		.global	CySysClkImoStop
 419              		.code	16
 420              		.thumb_func
 421              		.type	CySysClkImoStop, %function
 422              	CySysClkImoStop:
 423              	.LFB2:
 141:Generated_Source\PSoC4/CyLib.c ****     #if (CY_IP_IMO_TRIMMABLE_BY_WCO)
 424              		.loc 1 141 0
 425              		.cfi_startproc
 426              		@ args = 0, pretend = 0, frame = 0
 427              		@ frame_needed = 0, uses_anonymous_args = 0
 428 0000 10B5     		push	{r4, lr}
 429              		.cfi_def_cfa_offset 8
 430              		.cfi_offset 4, -8
 431              		.cfi_offset 14, -4
 143:Generated_Source\PSoC4/CyLib.c ****     #endif  /* (CY_IP_IMO_TRIMMABLE_BY_WCO) */
 432              		.loc 1 143 0
 433 0002 FFF7FEFF 		bl	CySysClkImoDisableWcoLock
 434              	.LVL21:
 147:Generated_Source\PSoC4/CyLib.c ****     #endif  /* (CY_IP_IMO_TRIMMABLE_BY_USB) */
 435              		.loc 1 147 0
 436 0006 FFF7FEFF 		bl	CySysClkImoDisableUsbLock
 437              	.LVL22:
 150:Generated_Source\PSoC4/CyLib.c **** }
 438              		.loc 1 150 0
 439 000a 034A     		ldr	r2, .L39
 440 000c 1368     		ldr	r3, [r2]
 441 000e 5B00     		lsls	r3, r3, #1
 442 0010 5B08     		lsrs	r3, r3, #1
 443 0012 1360     		str	r3, [r2]
 151:Generated_Source\PSoC4/CyLib.c **** 
ARM GAS  C:\Users\austc\AppData\Local\Temp\ccjGCJ7Y.s 			page 17


 444              		.loc 1 151 0
 445              		@ sp needed
 446 0014 10BD     		pop	{r4, pc}
 447              	.L40:
 448 0016 C046     		.align	2
 449              	.L39:
 450 0018 08010B40 		.word	1074462984
 451              		.cfi_endproc
 452              	.LFE2:
 453              		.size	CySysClkImoStop, .-CySysClkImoStop
 454              		.section	.text.CySysClkImoGetUsbLock,"ax",%progbits
 455              		.align	2
 456              		.global	CySysClkImoGetUsbLock
 457              		.code	16
 458              		.thumb_func
 459              		.type	CySysClkImoGetUsbLock, %function
 460              	CySysClkImoGetUsbLock:
 461              	.LFB8:
 455:Generated_Source\PSoC4/CyLib.c **** 
 456:Generated_Source\PSoC4/CyLib.c **** 
 457:Generated_Source\PSoC4/CyLib.c ****     /*******************************************************************************
 458:Generated_Source\PSoC4/CyLib.c ****     * Function Name: CySysClkImoGetUsbLock
 459:Generated_Source\PSoC4/CyLib.c ****     ****************************************************************************//**
 460:Generated_Source\PSoC4/CyLib.c ****     *
 461:Generated_Source\PSoC4/CyLib.c ****     * Reports the IMO to USB lock enable state.
 462:Generated_Source\PSoC4/CyLib.c ****     *
 463:Generated_Source\PSoC4/CyLib.c ****     * This is applicable for PSoC 4200L family of devices only. For PSoC 4200L
 464:Generated_Source\PSoC4/CyLib.c ****     * devices, the IMO can lock to either WCO or USB, but not both.
 465:Generated_Source\PSoC4/CyLib.c ****     *
 466:Generated_Source\PSoC4/CyLib.c ****     * \return 1 if IMO to USB lock is enabled.
 467:Generated_Source\PSoC4/CyLib.c ****     * \return 0 if IMO to USB lock is disabled.
 468:Generated_Source\PSoC4/CyLib.c ****     *
 469:Generated_Source\PSoC4/CyLib.c ****     *******************************************************************************/
 470:Generated_Source\PSoC4/CyLib.c ****     uint32 CySysClkImoGetUsbLock(void)
 471:Generated_Source\PSoC4/CyLib.c ****     {
 462              		.loc 1 471 0
 463              		.cfi_startproc
 464              		@ args = 0, pretend = 0, frame = 0
 465              		@ frame_needed = 0, uses_anonymous_args = 0
 466              		@ link register save eliminated.
 472:Generated_Source\PSoC4/CyLib.c ****         return ((0u != (CY_SYS_CLK_USBDEVv2_CR1_REG & CY_SYS_CLK_USBDEVv2_CR1_ENABLE_LOCK)) ?
 467              		.loc 1 472 0
 468 0000 034B     		ldr	r3, .L43
 469 0002 1B68     		ldr	r3, [r3]
 470 0004 0220     		movs	r0, #2
 471 0006 1840     		ands	r0, r3
 473:Generated_Source\PSoC4/CyLib.c ****                 (uint32) 1u :
 472              		.loc 1 473 0
 473 0008 00D0     		beq	.L42
 474 000a 0120     		movs	r0, #1
 475              	.L42:
 474:Generated_Source\PSoC4/CyLib.c ****                 (uint32) 0u);
 475:Generated_Source\PSoC4/CyLib.c ****     }
 476              		.loc 1 475 0
 477              		@ sp needed
 478 000c 7047     		bx	lr
 479              	.L44:
ARM GAS  C:\Users\austc\AppData\Local\Temp\ccjGCJ7Y.s 			page 18


 480 000e C046     		.align	2
 481              	.L43:
 482 0010 24002C40 		.word	1076625444
 483              		.cfi_endproc
 484              	.LFE8:
 485              		.size	CySysClkImoGetUsbLock, .-CySysClkImoGetUsbLock
 486              		.section	.text.CySysClkWriteHfclkDirect,"ax",%progbits
 487              		.align	2
 488              		.global	CySysClkWriteHfclkDirect
 489              		.code	16
 490              		.thumb_func
 491              		.type	CySysClkWriteHfclkDirect, %function
 492              	CySysClkWriteHfclkDirect:
 493              	.LFB9:
 476:Generated_Source\PSoC4/CyLib.c **** #endif  /* (CY_IP_IMO_TRIMMABLE_BY_USB) */
 477:Generated_Source\PSoC4/CyLib.c **** 
 478:Generated_Source\PSoC4/CyLib.c **** 
 479:Generated_Source\PSoC4/CyLib.c **** 
 480:Generated_Source\PSoC4/CyLib.c **** /*******************************************************************************
 481:Generated_Source\PSoC4/CyLib.c **** * Function Name: CySysClkWriteHfclkDirect
 482:Generated_Source\PSoC4/CyLib.c **** ****************************************************************************//**
 483:Generated_Source\PSoC4/CyLib.c **** *
 484:Generated_Source\PSoC4/CyLib.c **** * Selects the direct source for the HFCLK.
 485:Generated_Source\PSoC4/CyLib.c **** *
 486:Generated_Source\PSoC4/CyLib.c **** * The new source must be running and stable before calling this function.
 487:Generated_Source\PSoC4/CyLib.c **** *
 488:Generated_Source\PSoC4/CyLib.c **** * PSoC 4000:
 489:Generated_Source\PSoC4/CyLib.c **** * The SYSCLK has a maximum speed of 16 MHz, so HFCLK and SYSCLK dividers should
 490:Generated_Source\PSoC4/CyLib.c **** * be selected in a way to not to exceed 16 MHz for the System clock.
 491:Generated_Source\PSoC4/CyLib.c **** *
 492:Generated_Source\PSoC4/CyLib.c **** * If the SYSCLK clock frequency increases during device operation, call
 493:Generated_Source\PSoC4/CyLib.c **** * CySysFlashSetWaitCycles() with the appropriate parameter to adjust the number
 494:Generated_Source\PSoC4/CyLib.c **** * of clock cycles the cache will wait before sampling data comes back from
 495:Generated_Source\PSoC4/CyLib.c **** * Flash. If the SYSCLK clock frequency decreases, you can call
 496:Generated_Source\PSoC4/CyLib.c **** * CySysFlashSetWaitCycles() to improve the CPU performance. See
 497:Generated_Source\PSoC4/CyLib.c **** * CySysFlashSetWaitCycles() description for more information.
 498:Generated_Source\PSoC4/CyLib.c **** *
 499:Generated_Source\PSoC4/CyLib.c **** * Do not select PLL as the source for HFCLK if PLL output frequency exceeds
 500:Generated_Source\PSoC4/CyLib.c **** * maximum permissible value for HFCLK.
 501:Generated_Source\PSoC4/CyLib.c **** *
 502:Generated_Source\PSoC4/CyLib.c **** * \param clkSelect One of the available HFCLK direct sources.
 503:Generated_Source\PSoC4/CyLib.c **** * CY_SYS_CLK_HFCLK_IMO     IMO.
 504:Generated_Source\PSoC4/CyLib.c **** * CY_SYS_CLK_HFCLK_EXTCLK  External clock pin.
 505:Generated_Source\PSoC4/CyLib.c **** * CY_SYS_CLK_HFCLK_ECO     External crystal oscillator. Applicable for
 506:Generated_Source\PSoC4/CyLib.c **** *                          PSoC 4100 BLE / PSoC 4200 BLE / PSoC 4200L /
 507:Generated_Source\PSoC4/CyLib.c **** *                          4100S with ECO.
 508:Generated_Source\PSoC4/CyLib.c **** * CY_SYS_CLK_HFCLK_PLL0    PLL#0. Applicable for PSoC 4200L /
 509:Generated_Source\PSoC4/CyLib.c **** *                          4100S with PLL.
 510:Generated_Source\PSoC4/CyLib.c **** * CY_SYS_CLK_HFCLK_PLL1    PLL#1. Applicable for PSoC 4200L.
 511:Generated_Source\PSoC4/CyLib.c **** *
 512:Generated_Source\PSoC4/CyLib.c **** *******************************************************************************/
 513:Generated_Source\PSoC4/CyLib.c **** void CySysClkWriteHfclkDirect(uint32 clkSelect)
 514:Generated_Source\PSoC4/CyLib.c **** {
 494              		.loc 1 514 0
 495              		.cfi_startproc
 496              		@ args = 0, pretend = 0, frame = 0
 497              		@ frame_needed = 0, uses_anonymous_args = 0
ARM GAS  C:\Users\austc\AppData\Local\Temp\ccjGCJ7Y.s 			page 19


 498              	.LVL23:
 499 0000 10B5     		push	{r4, lr}
 500              		.cfi_def_cfa_offset 8
 501              		.cfi_offset 4, -8
 502              		.cfi_offset 14, -4
 503 0002 0400     		movs	r4, r0
 515:Generated_Source\PSoC4/CyLib.c ****     uint8  interruptState;
 516:Generated_Source\PSoC4/CyLib.c ****     uint32 tmpReg;
 517:Generated_Source\PSoC4/CyLib.c ****     
 518:Generated_Source\PSoC4/CyLib.c ****     #if (CY_IP_SRSSLT && CY_IP_PLL)
 519:Generated_Source\PSoC4/CyLib.c ****         uint8 i = 0u;
 520:Generated_Source\PSoC4/CyLib.c ****     #endif /* (CY_IP_SRSSLT && CY_IP_PLL) */
 521:Generated_Source\PSoC4/CyLib.c **** 
 522:Generated_Source\PSoC4/CyLib.c ****     interruptState = CyEnterCriticalSection();
 504              		.loc 1 522 0
 505 0004 FFF7FEFF 		bl	CyEnterCriticalSection
 506              	.LVL24:
 523:Generated_Source\PSoC4/CyLib.c **** 
 524:Generated_Source\PSoC4/CyLib.c **** #if (CY_IP_SRSSLT && CY_IP_PLL)
 525:Generated_Source\PSoC4/CyLib.c ****     if ((CY_SYS_CLK_HFCLK_PLL0 == clkSelect) || (CY_SYS_CLK_HFCLK_ECO == clkSelect))
 526:Generated_Source\PSoC4/CyLib.c ****     {
 527:Generated_Source\PSoC4/CyLib.c ****         tmpReg = CY_SYS_CLK_SELECT_REG & ~CY_SYS_CLK_SELECT_DIRECT_SEL_MASK;
 528:Generated_Source\PSoC4/CyLib.c ****         tmpReg |= CY_SYS_CLK_HFCLK_IMO;
 529:Generated_Source\PSoC4/CyLib.c ****         CY_SYS_CLK_SELECT_REG = tmpReg;        
 530:Generated_Source\PSoC4/CyLib.c ****         
 531:Generated_Source\PSoC4/CyLib.c ****         /* SRSSLT block does not have registers to select PLL. It is part of EXCO */ 
 532:Generated_Source\PSoC4/CyLib.c ****         tmpReg = CY_SYS_ECO_CLK_SELECT_REG & ~CY_SYS_ECO_CLK_SELECT_ECO_PLL_MASK;
 533:Generated_Source\PSoC4/CyLib.c ****         tmpReg |= ((clkSelect & CY_SYS_CLK_SELECT_HFCLK_SEL_PLL_MASK) >> CY_SYS_CLK_SELECT_HFCLK_PL
 534:Generated_Source\PSoC4/CyLib.c ****         CY_SYS_ECO_CLK_SELECT_REG = tmpReg;
 535:Generated_Source\PSoC4/CyLib.c ****         
 536:Generated_Source\PSoC4/CyLib.c ****         /* Generate clock sequence to change clock source in CY_SYS_ECO_CLK_SELECT_REG */
 537:Generated_Source\PSoC4/CyLib.c ****         CY_SYS_EXCO_PGM_CLK_REG |= CY_SYS_EXCO_PGM_CLK_ENABLE_MASK;
 538:Generated_Source\PSoC4/CyLib.c ****         
 539:Generated_Source\PSoC4/CyLib.c ****         for(i = 0u; i < CY_SYS_EXCO_PGM_CLK_SEQ_GENERATOR; i++)
 540:Generated_Source\PSoC4/CyLib.c ****         {
 541:Generated_Source\PSoC4/CyLib.c ****             CY_SYS_EXCO_PGM_CLK_REG |= CY_SYS_EXCO_PGM_CLK_CLK_ECO_MASK;
 542:Generated_Source\PSoC4/CyLib.c ****             CY_SYS_EXCO_PGM_CLK_REG &= ~CY_SYS_EXCO_PGM_CLK_CLK_ECO_MASK;
 543:Generated_Source\PSoC4/CyLib.c ****         }
 544:Generated_Source\PSoC4/CyLib.c ****         
 545:Generated_Source\PSoC4/CyLib.c ****         CY_SYS_EXCO_PGM_CLK_REG &= ~CY_SYS_EXCO_PGM_CLK_ENABLE_MASK;    
 546:Generated_Source\PSoC4/CyLib.c ****     }
 547:Generated_Source\PSoC4/CyLib.c **** #endif /* (CY_IP_SRSSLT && CY_IP_PLL) */
 548:Generated_Source\PSoC4/CyLib.c **** 
 549:Generated_Source\PSoC4/CyLib.c ****     tmpReg = CY_SYS_CLK_SELECT_REG & ~(CY_SYS_CLK_SELECT_DIRECT_SEL_MASK |
 507              		.loc 1 549 0
 508 0008 0C4B     		ldr	r3, .L49
 509 000a 1A68     		ldr	r2, [r3]
 510 000c 0C4B     		ldr	r3, .L49+4
 511 000e 1340     		ands	r3, r2
 512              	.LVL25:
 550:Generated_Source\PSoC4/CyLib.c ****                                        CY_SYS_CLK_SELECT_HFCLK_SEL_MASK);
 551:Generated_Source\PSoC4/CyLib.c **** 
 552:Generated_Source\PSoC4/CyLib.c **** #if (CY_IP_SRSSV2 && CY_IP_PLL)
 553:Generated_Source\PSoC4/CyLib.c ****     if ((CY_SYS_CLK_HFCLK_PLL0 == clkSelect) || (CY_SYS_CLK_HFCLK_PLL1 == clkSelect))
 513              		.loc 1 553 0
 514 0010 8022     		movs	r2, #128
 515 0012 9202     		lsls	r2, r2, #10
ARM GAS  C:\Users\austc\AppData\Local\Temp\ccjGCJ7Y.s 			page 20


 516 0014 9442     		cmp	r4, r2
 517 0016 03D0     		beq	.L46
 518              		.loc 1 553 0 is_stmt 0 discriminator 1
 519 0018 8022     		movs	r2, #128
 520 001a 5202     		lsls	r2, r2, #9
 521 001c 9442     		cmp	r4, r2
 522 001e 04D1     		bne	.L47
 523              	.L46:
 554:Generated_Source\PSoC4/CyLib.c ****     {
 555:Generated_Source\PSoC4/CyLib.c ****         tmpReg |= (clkSelect & CY_SYS_CLK_SELECT_HFCLK_SEL_MASK);
 524              		.loc 1 555 0 is_stmt 1
 525 0020 C022     		movs	r2, #192
 526 0022 9202     		lsls	r2, r2, #10
 527 0024 1440     		ands	r4, r2
 528              	.LVL26:
 529 0026 2343     		orrs	r3, r4
 530              	.LVL27:
 531 0028 02E0     		b	.L48
 532              	.LVL28:
 533              	.L47:
 556:Generated_Source\PSoC4/CyLib.c ****     }
 557:Generated_Source\PSoC4/CyLib.c ****     else
 558:Generated_Source\PSoC4/CyLib.c **** #endif /* (CY_IP_SRSSV2 && CY_IP_PLL) */
 559:Generated_Source\PSoC4/CyLib.c ****     {
 560:Generated_Source\PSoC4/CyLib.c ****         tmpReg |= (clkSelect & CY_SYS_CLK_SELECT_DIRECT_SEL_MASK);
 534              		.loc 1 560 0
 535 002a 0722     		movs	r2, #7
 536 002c 1440     		ands	r4, r2
 537              	.LVL29:
 538 002e 2343     		orrs	r3, r4
 539              	.LVL30:
 540              	.L48:
 561:Generated_Source\PSoC4/CyLib.c ****     }   
 562:Generated_Source\PSoC4/CyLib.c ****     
 563:Generated_Source\PSoC4/CyLib.c ****     CY_SYS_CLK_SELECT_REG = tmpReg;
 541              		.loc 1 563 0
 542 0030 024A     		ldr	r2, .L49
 543 0032 1360     		str	r3, [r2]
 564:Generated_Source\PSoC4/CyLib.c ****     
 565:Generated_Source\PSoC4/CyLib.c ****     CyExitCriticalSection(interruptState);
 544              		.loc 1 565 0
 545 0034 FFF7FEFF 		bl	CyExitCriticalSection
 546              	.LVL31:
 566:Generated_Source\PSoC4/CyLib.c **** }
 547              		.loc 1 566 0
 548              		@ sp needed
 549 0038 10BD     		pop	{r4, pc}
 550              	.L50:
 551 003a C046     		.align	2
 552              	.L49:
 553 003c 00010B40 		.word	1074462976
 554 0040 F8FFFCFF 		.word	-196616
 555              		.cfi_endproc
 556              	.LFE9:
 557              		.size	CySysClkWriteHfclkDirect, .-CySysClkWriteHfclkDirect
 558              		.section	.text.CySysEnablePumpClock,"ax",%progbits
 559              		.align	2
ARM GAS  C:\Users\austc\AppData\Local\Temp\ccjGCJ7Y.s 			page 21


 560              		.global	CySysEnablePumpClock
 561              		.code	16
 562              		.thumb_func
 563              		.type	CySysEnablePumpClock, %function
 564              	CySysEnablePumpClock:
 565              	.LFB10:
 567:Generated_Source\PSoC4/CyLib.c **** 
 568:Generated_Source\PSoC4/CyLib.c **** 
 569:Generated_Source\PSoC4/CyLib.c **** /*******************************************************************************
 570:Generated_Source\PSoC4/CyLib.c **** * Function Name: CySysEnablePumpClock
 571:Generated_Source\PSoC4/CyLib.c **** ****************************************************************************//**
 572:Generated_Source\PSoC4/CyLib.c **** *
 573:Generated_Source\PSoC4/CyLib.c **** * Enables / disables the pump clock.
 574:Generated_Source\PSoC4/CyLib.c **** *
 575:Generated_Source\PSoC4/CyLib.c **** * \param enable  
 576:Generated_Source\PSoC4/CyLib.c **** * CY_SYS_CLK_PUMP_DISABLE - Disables the pump clock
 577:Generated_Source\PSoC4/CyLib.c **** * CY_SYS_CLK_PUMP_ENABLE - Enables and restores the operating source of 
 578:Generated_Source\PSoC4/CyLib.c **** * the pump clock.
 579:Generated_Source\PSoC4/CyLib.c **** *
 580:Generated_Source\PSoC4/CyLib.c **** * \sideeffect
 581:Generated_Source\PSoC4/CyLib.c **** *  Enabling/disabling the pump clock does not guarantee glitch free operation 
 582:Generated_Source\PSoC4/CyLib.c **** *  when changing the IMO parameters or clock divider settings.
 583:Generated_Source\PSoC4/CyLib.c **** *
 584:Generated_Source\PSoC4/CyLib.c **** *******************************************************************************/
 585:Generated_Source\PSoC4/CyLib.c **** void CySysEnablePumpClock(uint32 enable)
 586:Generated_Source\PSoC4/CyLib.c **** {
 566              		.loc 1 586 0
 567              		.cfi_startproc
 568              		@ args = 0, pretend = 0, frame = 0
 569              		@ frame_needed = 0, uses_anonymous_args = 0
 570              		@ link register save eliminated.
 571              	.LVL32:
 587:Generated_Source\PSoC4/CyLib.c ****     #if(CY_IP_SRSSV2)
 588:Generated_Source\PSoC4/CyLib.c ****         if (0u != (CY_SYS_CLK_PUMP_ENABLE & enable))
 572              		.loc 1 588 0
 573 0000 C307     		lsls	r3, r0, #31
 574 0002 07D5     		bpl	.L52
 589:Generated_Source\PSoC4/CyLib.c ****         {
 590:Generated_Source\PSoC4/CyLib.c ****             CY_SYS_CLK_IMO_CONFIG_REG |= (CySysClkPumpConfig << CY_SYS_CLK_IMO_CONFIG_PUMP_SEL_SHIF
 575              		.loc 1 590 0
 576 0004 094A     		ldr	r2, .L54
 577 0006 1168     		ldr	r1, [r2]
 578 0008 094B     		ldr	r3, .L54+4
 579 000a 1B68     		ldr	r3, [r3]
 580 000c 5B06     		lsls	r3, r3, #25
 581 000e 0B43     		orrs	r3, r1
 582 0010 1360     		str	r3, [r2]
 583 0012 0AE0     		b	.L51
 584              	.L52:
 591:Generated_Source\PSoC4/CyLib.c ****         }
 592:Generated_Source\PSoC4/CyLib.c ****         else
 593:Generated_Source\PSoC4/CyLib.c ****         {
 594:Generated_Source\PSoC4/CyLib.c ****             CySysClkPumpConfig = (CY_SYS_CLK_IMO_CONFIG_REG >> CY_SYS_CLK_IMO_CONFIG_PUMP_SEL_SHIFT
 585              		.loc 1 594 0
 586 0014 054A     		ldr	r2, .L54
 587 0016 1368     		ldr	r3, [r2]
 588 0018 5B0E     		lsrs	r3, r3, #25
ARM GAS  C:\Users\austc\AppData\Local\Temp\ccjGCJ7Y.s 			page 22


 589 001a 0721     		movs	r1, #7
 590 001c 0B40     		ands	r3, r1
 591 001e 0449     		ldr	r1, .L54+4
 592 0020 0B60     		str	r3, [r1]
 595:Generated_Source\PSoC4/CyLib.c ****                                   CY_SYS_CLK_IMO_CONFIG_PUMP_SEL_MASK;
 596:Generated_Source\PSoC4/CyLib.c ****             CY_SYS_CLK_IMO_CONFIG_REG &= ~(CY_SYS_CLK_IMO_CONFIG_PUMP_SEL_MASK << CY_SYS_CLK_IMO_CO
 593              		.loc 1 596 0
 594 0022 1168     		ldr	r1, [r2]
 595 0024 034B     		ldr	r3, .L54+8
 596 0026 0B40     		ands	r3, r1
 597 0028 1360     		str	r3, [r2]
 598              	.L51:
 597:Generated_Source\PSoC4/CyLib.c ****         }
 598:Generated_Source\PSoC4/CyLib.c ****     #else /* CY_IP_SRSSLT */
 599:Generated_Source\PSoC4/CyLib.c ****         if (0u != (CY_SYS_CLK_PUMP_ENABLE & enable))
 600:Generated_Source\PSoC4/CyLib.c ****         {
 601:Generated_Source\PSoC4/CyLib.c ****             CY_SYS_CLK_SELECT_REG |= (CySysClkPumpConfig << CY_SYS_CLK_SELECT_PUMP_SEL_SHIFT);
 602:Generated_Source\PSoC4/CyLib.c ****         }
 603:Generated_Source\PSoC4/CyLib.c ****         else
 604:Generated_Source\PSoC4/CyLib.c ****         {
 605:Generated_Source\PSoC4/CyLib.c ****             CySysClkPumpConfig = (CY_SYS_CLK_SELECT_REG >> CY_SYS_CLK_SELECT_PUMP_SEL_SHIFT) & 
 606:Generated_Source\PSoC4/CyLib.c ****                                   CY_SYS_CLK_SELECT_PUMP_SEL_MASK;
 607:Generated_Source\PSoC4/CyLib.c ****             CY_SYS_CLK_SELECT_REG &= ~(CY_SYS_CLK_SELECT_PUMP_SEL_MASK << CY_SYS_CLK_SELECT_PUMP_SE
 608:Generated_Source\PSoC4/CyLib.c ****         }
 609:Generated_Source\PSoC4/CyLib.c ****     #endif  /* (CY_IP_SRSSV2) */
 610:Generated_Source\PSoC4/CyLib.c **** }
 599              		.loc 1 610 0
 600              		@ sp needed
 601 002a 7047     		bx	lr
 602              	.L55:
 603              		.align	2
 604              	.L54:
 605 002c 08010B40 		.word	1074462984
 606 0030 00000000 		.word	.LANCHOR2
 607 0034 FFFFFFF1 		.word	-234881025
 608              		.cfi_endproc
 609              	.LFE10:
 610              		.size	CySysEnablePumpClock, .-CySysEnablePumpClock
 611              		.section	.text.CySysClkGetSysclkSource,"ax",%progbits
 612              		.align	2
 613              		.global	CySysClkGetSysclkSource
 614              		.code	16
 615              		.thumb_func
 616              		.type	CySysClkGetSysclkSource, %function
 617              	CySysClkGetSysclkSource:
 618              	.LFB11:
 611:Generated_Source\PSoC4/CyLib.c **** 
 612:Generated_Source\PSoC4/CyLib.c **** 
 613:Generated_Source\PSoC4/CyLib.c **** /*******************************************************************************
 614:Generated_Source\PSoC4/CyLib.c **** * Function Name: CySysClkGetSysclkSource
 615:Generated_Source\PSoC4/CyLib.c **** ****************************************************************************//**
 616:Generated_Source\PSoC4/CyLib.c **** *
 617:Generated_Source\PSoC4/CyLib.c **** * Returns the source of the System clock.
 618:Generated_Source\PSoC4/CyLib.c **** *
 619:Generated_Source\PSoC4/CyLib.c **** * \return The same as \ref CySysClkWriteHfclkDirect() function parameters.
 620:Generated_Source\PSoC4/CyLib.c **** *
 621:Generated_Source\PSoC4/CyLib.c **** *******************************************************************************/
ARM GAS  C:\Users\austc\AppData\Local\Temp\ccjGCJ7Y.s 			page 23


 622:Generated_Source\PSoC4/CyLib.c **** uint32 CySysClkGetSysclkSource(void)
 623:Generated_Source\PSoC4/CyLib.c **** {
 619              		.loc 1 623 0
 620              		.cfi_startproc
 621              		@ args = 0, pretend = 0, frame = 0
 622              		@ frame_needed = 0, uses_anonymous_args = 0
 623 0000 10B5     		push	{r4, lr}
 624              		.cfi_def_cfa_offset 8
 625              		.cfi_offset 4, -8
 626              		.cfi_offset 14, -4
 624:Generated_Source\PSoC4/CyLib.c ****     uint8  interruptState;
 625:Generated_Source\PSoC4/CyLib.c ****     uint32 sysclkSource;
 626:Generated_Source\PSoC4/CyLib.c **** 
 627:Generated_Source\PSoC4/CyLib.c ****     interruptState = CyEnterCriticalSection();
 627              		.loc 1 627 0
 628 0002 FFF7FEFF 		bl	CyEnterCriticalSection
 629              	.LVL33:
 628:Generated_Source\PSoC4/CyLib.c **** 
 629:Generated_Source\PSoC4/CyLib.c **** #if (CY_IP_SRSSV2 && CY_IP_PLL)
 630:Generated_Source\PSoC4/CyLib.c ****     if ((CY_SYS_CLK_SELECT_REG & CY_SYS_CLK_SELECT_HFCLK_SEL_MASK) != 0u)
 630              		.loc 1 630 0
 631 0006 0A4B     		ldr	r3, .L59
 632 0008 1A68     		ldr	r2, [r3]
 633 000a C023     		movs	r3, #192
 634 000c 9B02     		lsls	r3, r3, #10
 635 000e 1A42     		tst	r2, r3
 636 0010 05D0     		beq	.L57
 631:Generated_Source\PSoC4/CyLib.c ****     {
 632:Generated_Source\PSoC4/CyLib.c ****         sysclkSource = (CY_SYS_CLK_SELECT_REG & CY_SYS_CLK_SELECT_HFCLK_SEL_MASK);
 637              		.loc 1 632 0
 638 0012 074B     		ldr	r3, .L59
 639 0014 1C68     		ldr	r4, [r3]
 640 0016 C023     		movs	r3, #192
 641 0018 9B02     		lsls	r3, r3, #10
 642 001a 1C40     		ands	r4, r3
 643              	.LVL34:
 644 001c 03E0     		b	.L58
 645              	.LVL35:
 646              	.L57:
 633:Generated_Source\PSoC4/CyLib.c ****     }
 634:Generated_Source\PSoC4/CyLib.c ****     else
 635:Generated_Source\PSoC4/CyLib.c **** #endif /* (CY_IP_SRSSV2 && CY_IP_PLL) */
 636:Generated_Source\PSoC4/CyLib.c ****     {
 637:Generated_Source\PSoC4/CyLib.c ****         sysclkSource = (CY_SYS_CLK_SELECT_REG & CY_SYS_CLK_SELECT_DIRECT_SEL_MASK);
 647              		.loc 1 637 0
 648 001e 044B     		ldr	r3, .L59
 649 0020 1B68     		ldr	r3, [r3]
 650 0022 0724     		movs	r4, #7
 651 0024 1C40     		ands	r4, r3
 652              	.LVL36:
 653              	.L58:
 638:Generated_Source\PSoC4/CyLib.c **** 
 639:Generated_Source\PSoC4/CyLib.c ****     #if (CY_IP_SRSSLT && CY_IP_PLL)
 640:Generated_Source\PSoC4/CyLib.c ****         sysclkSource |= (((uint32)(CY_SYS_ECO_CLK_SELECT_REG & CY_SYS_ECO_CLK_SELECT_ECO_PLL_MASK))
 641:Generated_Source\PSoC4/CyLib.c ****                          CY_SYS_CLK_SELECT_HFCLK_PLL_SHIFT);
 642:Generated_Source\PSoC4/CyLib.c ****     #endif /* (CY_IP_SRSSLT && CY_IP_PLL) */
 643:Generated_Source\PSoC4/CyLib.c ****         
ARM GAS  C:\Users\austc\AppData\Local\Temp\ccjGCJ7Y.s 			page 24


 644:Generated_Source\PSoC4/CyLib.c ****     }
 645:Generated_Source\PSoC4/CyLib.c **** 
 646:Generated_Source\PSoC4/CyLib.c ****     CyExitCriticalSection(interruptState);
 654              		.loc 1 646 0
 655 0026 FFF7FEFF 		bl	CyExitCriticalSection
 656              	.LVL37:
 647:Generated_Source\PSoC4/CyLib.c **** 
 648:Generated_Source\PSoC4/CyLib.c ****     return (sysclkSource);
 649:Generated_Source\PSoC4/CyLib.c **** }
 657              		.loc 1 649 0
 658 002a 2000     		movs	r0, r4
 659              		@ sp needed
 660              	.LVL38:
 661 002c 10BD     		pop	{r4, pc}
 662              	.L60:
 663 002e C046     		.align	2
 664              	.L59:
 665 0030 00010B40 		.word	1074462976
 666              		.cfi_endproc
 667              	.LFE11:
 668              		.size	CySysClkGetSysclkSource, .-CySysClkGetSysclkSource
 669              		.section	.text.CySysClkWriteSysclkDiv,"ax",%progbits
 670              		.align	2
 671              		.global	CySysClkWriteSysclkDiv
 672              		.code	16
 673              		.thumb_func
 674              		.type	CySysClkWriteSysclkDiv, %function
 675              	CySysClkWriteSysclkDiv:
 676              	.LFB12:
 650:Generated_Source\PSoC4/CyLib.c **** 
 651:Generated_Source\PSoC4/CyLib.c **** 
 652:Generated_Source\PSoC4/CyLib.c **** /*******************************************************************************
 653:Generated_Source\PSoC4/CyLib.c **** * Function Name: CySysClkWriteSysclkDiv
 654:Generated_Source\PSoC4/CyLib.c **** ****************************************************************************//**
 655:Generated_Source\PSoC4/CyLib.c **** *
 656:Generated_Source\PSoC4/CyLib.c **** * Selects the prescaler divide amount for SYSCLK from HFCLK.
 657:Generated_Source\PSoC4/CyLib.c **** *
 658:Generated_Source\PSoC4/CyLib.c **** * PSoC 4000: The SYSCLK has the speed of 16 MHz, so HFCLK and SYSCLK dividers
 659:Generated_Source\PSoC4/CyLib.c **** * should be selected in a way, not to exceed 16 MHz for SYSCLK.
 660:Generated_Source\PSoC4/CyLib.c **** *
 661:Generated_Source\PSoC4/CyLib.c **** * PSoC 4100 \ PSoC 4100 BLE \ PSoC 4100M: The SYSCLK has the speed of 24 MHz,
 662:Generated_Source\PSoC4/CyLib.c **** * so HFCLK and SYSCLK dividers should be selected in a way, not to exceed 24 MHz
 663:Generated_Source\PSoC4/CyLib.c **** * for SYSCLK.
 664:Generated_Source\PSoC4/CyLib.c **** *
 665:Generated_Source\PSoC4/CyLib.c **** * If the SYSCLK clock frequency increases during the device operation, call
 666:Generated_Source\PSoC4/CyLib.c **** * \ref CySysFlashSetWaitCycles() with the appropriate parameter to adjust the
 667:Generated_Source\PSoC4/CyLib.c **** * number of clock cycles the cache will wait before sampling data comes back
 668:Generated_Source\PSoC4/CyLib.c **** * from Flash. If the SYSCLK clock frequency decreases, you can call
 669:Generated_Source\PSoC4/CyLib.c **** * \ref CySysFlashSetWaitCycles() to improve the CPU performance. See
 670:Generated_Source\PSoC4/CyLib.c **** * \ref CySysFlashSetWaitCycles() description for more information.
 671:Generated_Source\PSoC4/CyLib.c **** *
 672:Generated_Source\PSoC4/CyLib.c **** * \param divider Power of 2 prescaler selection
 673:Generated_Source\PSoC4/CyLib.c **** *  CY_SYS_CLK_SYSCLK_DIV1        SYSCLK = HFCLK / 1
 674:Generated_Source\PSoC4/CyLib.c **** *  CY_SYS_CLK_SYSCLK_DIV2        SYSCLK = HFCLK / 2
 675:Generated_Source\PSoC4/CyLib.c **** *  CY_SYS_CLK_SYSCLK_DIV4        SYSCLK = HFCLK / 4
 676:Generated_Source\PSoC4/CyLib.c **** *  CY_SYS_CLK_SYSCLK_DIV8        SYSCLK = HFCLK / 8
 677:Generated_Source\PSoC4/CyLib.c **** *  CY_SYS_CLK_SYSCLK_DIV16       SYSCLK = HFCLK / 16  (N/A for 4000 Family)
ARM GAS  C:\Users\austc\AppData\Local\Temp\ccjGCJ7Y.s 			page 25


 678:Generated_Source\PSoC4/CyLib.c **** *  CY_SYS_CLK_SYSCLK_DIV32       SYSCLK = HFCLK / 32  (N/A for 4000 Family)
 679:Generated_Source\PSoC4/CyLib.c **** *  CY_SYS_CLK_SYSCLK_DIV64       SYSCLK = HFCLK / 64  (N/A for 4000 Family)
 680:Generated_Source\PSoC4/CyLib.c **** *  CY_SYS_CLK_SYSCLK_DIV128      SYSCLK = HFCLK / 128 (N/A for 4000 Family)
 681:Generated_Source\PSoC4/CyLib.c **** *
 682:Generated_Source\PSoC4/CyLib.c **** *******************************************************************************/
 683:Generated_Source\PSoC4/CyLib.c **** void CySysClkWriteSysclkDiv(uint32 divider)
 684:Generated_Source\PSoC4/CyLib.c **** {
 677              		.loc 1 684 0
 678              		.cfi_startproc
 679              		@ args = 0, pretend = 0, frame = 0
 680              		@ frame_needed = 0, uses_anonymous_args = 0
 681              	.LVL39:
 682 0000 10B5     		push	{r4, lr}
 683              		.cfi_def_cfa_offset 8
 684              		.cfi_offset 4, -8
 685              		.cfi_offset 14, -4
 686 0002 0400     		movs	r4, r0
 685:Generated_Source\PSoC4/CyLib.c ****     uint8  interruptState;
 686:Generated_Source\PSoC4/CyLib.c **** 
 687:Generated_Source\PSoC4/CyLib.c ****     interruptState = CyEnterCriticalSection();
 687              		.loc 1 687 0
 688 0004 FFF7FEFF 		bl	CyEnterCriticalSection
 689              	.LVL40:
 688:Generated_Source\PSoC4/CyLib.c **** 
 689:Generated_Source\PSoC4/CyLib.c ****     CY_SYS_CLK_SELECT_REG = ((uint32)(((uint32)divider & CY_SYS_CLK_SELECT_SYSCLK_DIV_MASK) <<
 690              		.loc 1 689 0
 691 0008 E304     		lsls	r3, r4, #19
 692 000a E022     		movs	r2, #224
 693 000c 9203     		lsls	r2, r2, #14
 694 000e 1340     		ands	r3, r2
 695 0010 1900     		movs	r1, r3
 690:Generated_Source\PSoC4/CyLib.c ****                                     CY_SYS_CLK_SELECT_SYSCLK_DIV_SHIFT)) |
 691:Generated_Source\PSoC4/CyLib.c ****                             (CY_SYS_CLK_SELECT_REG & ((uint32)(~(uint32)(CY_SYS_CLK_SELECT_SYSCLK_D
 696              		.loc 1 691 0
 697 0012 054C     		ldr	r4, .L62
 698              	.LVL41:
 699 0014 2368     		ldr	r3, [r4]
 700 0016 054A     		ldr	r2, .L62+4
 701 0018 1A40     		ands	r2, r3
 690:Generated_Source\PSoC4/CyLib.c ****                                     CY_SYS_CLK_SELECT_SYSCLK_DIV_SHIFT)) |
 702              		.loc 1 690 0
 703 001a 0B00     		movs	r3, r1
 704 001c 1343     		orrs	r3, r2
 689:Generated_Source\PSoC4/CyLib.c ****                                     CY_SYS_CLK_SELECT_SYSCLK_DIV_SHIFT)) |
 705              		.loc 1 689 0
 706 001e 2360     		str	r3, [r4]
 692:Generated_Source\PSoC4/CyLib.c ****                                     CY_SYS_CLK_SELECT_SYSCLK_DIV_SHIFT))));
 693:Generated_Source\PSoC4/CyLib.c **** 
 694:Generated_Source\PSoC4/CyLib.c ****     CyExitCriticalSection(interruptState);
 707              		.loc 1 694 0
 708 0020 FFF7FEFF 		bl	CyExitCriticalSection
 709              	.LVL42:
 695:Generated_Source\PSoC4/CyLib.c **** }
 710              		.loc 1 695 0
 711              		@ sp needed
 712 0024 10BD     		pop	{r4, pc}
 713              	.L63:
ARM GAS  C:\Users\austc\AppData\Local\Temp\ccjGCJ7Y.s 			page 26


 714 0026 C046     		.align	2
 715              	.L62:
 716 0028 00010B40 		.word	1074462976
 717 002c FFFFC7FF 		.word	-3670017
 718              		.cfi_endproc
 719              	.LFE12:
 720              		.size	CySysClkWriteSysclkDiv, .-CySysClkWriteSysclkDiv
 721              		.section	.text.CySysClkEcoStop,"ax",%progbits
 722              		.align	2
 723              		.global	CySysClkEcoStop
 724              		.code	16
 725              		.thumb_func
 726              		.type	CySysClkEcoStop, %function
 727              	CySysClkEcoStop:
 728              	.LFB15:
 696:Generated_Source\PSoC4/CyLib.c **** 
 697:Generated_Source\PSoC4/CyLib.c **** 
 698:Generated_Source\PSoC4/CyLib.c **** /*******************************************************************************
 699:Generated_Source\PSoC4/CyLib.c **** * Function Name: CySysClkWriteImoFreq
 700:Generated_Source\PSoC4/CyLib.c **** ****************************************************************************//**
 701:Generated_Source\PSoC4/CyLib.c **** *
 702:Generated_Source\PSoC4/CyLib.c **** * Sets the frequency of the IMO.
 703:Generated_Source\PSoC4/CyLib.c **** *
 704:Generated_Source\PSoC4/CyLib.c **** * PSoC 4000: The SYSCLK has the speed of 16 MHz, so HFCLK and SYSCLK dividers
 705:Generated_Source\PSoC4/CyLib.c **** * should be selected in a way, not to exceed 16 MHz for SYSCLK.
 706:Generated_Source\PSoC4/CyLib.c **** *
 707:Generated_Source\PSoC4/CyLib.c **** * PSoC 4100 \ PSoC 4100 BLE \ PSoC 4100M: The SYSCLK has the speed of 24 MHz,
 708:Generated_Source\PSoC4/CyLib.c **** * so HFCLK and SYSCLK dividers should be selected in a way, not to exceed 24 MHz
 709:Generated_Source\PSoC4/CyLib.c **** * for SYSCLK.
 710:Generated_Source\PSoC4/CyLib.c **** *
 711:Generated_Source\PSoC4/CyLib.c **** * For PSoC 4200M and PSoC 4200L device families, if WCO lock feature is enabled
 712:Generated_Source\PSoC4/CyLib.c **** * then this API will disable the lock, write the new IMO frequency and then
 713:Generated_Source\PSoC4/CyLib.c **** * re-enable the lock.
 714:Generated_Source\PSoC4/CyLib.c **** *
 715:Generated_Source\PSoC4/CyLib.c **** * For PSoC 4200L device families, this function enables the USB lock when 24 or
 716:Generated_Source\PSoC4/CyLib.c **** * 48 MHz passed as a parameter if the USB lock option is enabled in Design Wide
 717:Generated_Source\PSoC4/CyLib.c **** * Resources tab or CySysClkImoEnableUsbLock() was called before. Note the USB
 718:Generated_Source\PSoC4/CyLib.c **** * lock is disabled during IMO frequency change.
 719:Generated_Source\PSoC4/CyLib.c **** *
 720:Generated_Source\PSoC4/CyLib.c **** * The CPU is halted if new frequency is invalid and project is compiled
 721:Generated_Source\PSoC4/CyLib.c **** * in debug mode.
 722:Generated_Source\PSoC4/CyLib.c **** *
 723:Generated_Source\PSoC4/CyLib.c **** * If the SYSCLK clock frequency increases during the device operation, call
 724:Generated_Source\PSoC4/CyLib.c **** * \ref CySysFlashSetWaitCycles() with the appropriate parameter to adjust the
 725:Generated_Source\PSoC4/CyLib.c **** * number of clock cycles the cache will wait before sampling data comes back
 726:Generated_Source\PSoC4/CyLib.c **** * from Flash. If the SYSCLK clock frequency decreases, you can call
 727:Generated_Source\PSoC4/CyLib.c **** * \ref CySysFlashSetWaitCycles() to improve the CPU performance. See
 728:Generated_Source\PSoC4/CyLib.c **** * \ref CySysFlashSetWaitCycles() description for more information.
 729:Generated_Source\PSoC4/CyLib.c **** *
 730:Generated_Source\PSoC4/CyLib.c **** * PSoC 4000: The System Clock (SYSCLK) has maximum speed of 16 MHz, so HFCLK
 731:Generated_Source\PSoC4/CyLib.c **** * and SYSCLK dividers should be selected in a way, to not to exceed 16 MHz for
 732:Generated_Source\PSoC4/CyLib.c **** * the System clock.
 733:Generated_Source\PSoC4/CyLib.c **** *
 734:Generated_Source\PSoC4/CyLib.c **** * \param freq All PSoC 4 families excluding the following: Valid range [3-48]
 735:Generated_Source\PSoC4/CyLib.c **** * with step size equals 1. PSoC 4000: Valid values are 24, 32, and 48.
 736:Generated_Source\PSoC4/CyLib.c **** * PSoC 4000S / PSoC 4100S / PSoC Analog Coprocessor: Valid range [24-48] with 
 737:Generated_Source\PSoC4/CyLib.c **** * step size equals 4.
ARM GAS  C:\Users\austc\AppData\Local\Temp\ccjGCJ7Y.s 			page 27


 738:Generated_Source\PSoC4/CyLib.c **** *
 739:Generated_Source\PSoC4/CyLib.c **** *******************************************************************************/
 740:Generated_Source\PSoC4/CyLib.c **** #if(CY_IP_SRSSV2)
 741:Generated_Source\PSoC4/CyLib.c ****     void CySysClkWriteImoFreq(uint32 freq)
 742:Generated_Source\PSoC4/CyLib.c ****     {
 743:Generated_Source\PSoC4/CyLib.c ****         #if (CY_IP_FMLT)
 744:Generated_Source\PSoC4/CyLib.c ****             volatile uint32   parameters[2u];
 745:Generated_Source\PSoC4/CyLib.c ****             volatile uint32   regValues[4u];
 746:Generated_Source\PSoC4/CyLib.c ****         #else
 747:Generated_Source\PSoC4/CyLib.c ****             uint8  bgTrim4;
 748:Generated_Source\PSoC4/CyLib.c ****             uint8  bgTrim5;
 749:Generated_Source\PSoC4/CyLib.c ****             uint8  newImoTrim2Value;
 750:Generated_Source\PSoC4/CyLib.c ****             uint8  currentImoTrim2Value;
 751:Generated_Source\PSoC4/CyLib.c ****         #endif /* (CY_IP_FM) */
 752:Generated_Source\PSoC4/CyLib.c **** 
 753:Generated_Source\PSoC4/CyLib.c ****         #if (CY_IP_IMO_TRIMMABLE_BY_WCO)
 754:Generated_Source\PSoC4/CyLib.c ****             uint32 wcoLock = 0u;
 755:Generated_Source\PSoC4/CyLib.c ****         #endif  /* (CY_IP_IMO_TRIMMABLE_BY_WCO) */
 756:Generated_Source\PSoC4/CyLib.c **** 
 757:Generated_Source\PSoC4/CyLib.c ****         #if (CY_IP_IMO_TRIMMABLE_BY_USB)
 758:Generated_Source\PSoC4/CyLib.c ****             uint32 usbLock = 0u;
 759:Generated_Source\PSoC4/CyLib.c ****         #endif  /* (CY_IP_IMO_TRIMMABLE_BY_USB) */
 760:Generated_Source\PSoC4/CyLib.c **** 
 761:Generated_Source\PSoC4/CyLib.c ****         uint8  interruptState;
 762:Generated_Source\PSoC4/CyLib.c **** 
 763:Generated_Source\PSoC4/CyLib.c **** 
 764:Generated_Source\PSoC4/CyLib.c ****         interruptState = CyEnterCriticalSection();
 765:Generated_Source\PSoC4/CyLib.c **** 
 766:Generated_Source\PSoC4/CyLib.c ****         #if (CY_IP_IMO_TRIMMABLE_BY_WCO)
 767:Generated_Source\PSoC4/CyLib.c ****             if(0u != CySysClkImoGetWcoLock())
 768:Generated_Source\PSoC4/CyLib.c ****             {
 769:Generated_Source\PSoC4/CyLib.c ****                 wcoLock = 1u;
 770:Generated_Source\PSoC4/CyLib.c ****                 CySysClkImoDisableWcoLock();
 771:Generated_Source\PSoC4/CyLib.c ****             }
 772:Generated_Source\PSoC4/CyLib.c ****         #endif  /* (CY_IP_IMO_TRIMMABLE_BY_WCO) */
 773:Generated_Source\PSoC4/CyLib.c **** 
 774:Generated_Source\PSoC4/CyLib.c **** 
 775:Generated_Source\PSoC4/CyLib.c ****         #if (CY_IP_IMO_TRIMMABLE_BY_USB)
 776:Generated_Source\PSoC4/CyLib.c **** 
 777:Generated_Source\PSoC4/CyLib.c ****             #if (CYDEV_IMO_TRIMMED_BY_USB == 0u)
 778:Generated_Source\PSoC4/CyLib.c ****                 if(0u != CySysClkImoGetUsbLock())
 779:Generated_Source\PSoC4/CyLib.c ****                 {
 780:Generated_Source\PSoC4/CyLib.c ****             #endif  /* (CYDEV_IMO_TRIMMED_BY_USB == 0u) */
 781:Generated_Source\PSoC4/CyLib.c **** 
 782:Generated_Source\PSoC4/CyLib.c ****                 if ((24u == freq) || (48u == freq))
 783:Generated_Source\PSoC4/CyLib.c ****                 {
 784:Generated_Source\PSoC4/CyLib.c ****                     usbLock = 1u;
 785:Generated_Source\PSoC4/CyLib.c ****                     CySysClkImoDisableUsbLock();
 786:Generated_Source\PSoC4/CyLib.c ****                 }
 787:Generated_Source\PSoC4/CyLib.c **** 
 788:Generated_Source\PSoC4/CyLib.c ****             #if (CYDEV_IMO_TRIMMED_BY_USB == 0u)
 789:Generated_Source\PSoC4/CyLib.c ****                 }
 790:Generated_Source\PSoC4/CyLib.c ****             #endif  /* (CYDEV_IMO_TRIMMED_BY_USB == 0u) */
 791:Generated_Source\PSoC4/CyLib.c **** 
 792:Generated_Source\PSoC4/CyLib.c ****         #endif  /* (CYDEV_IMO_TRIMMED_BY_USB == 0u) */
 793:Generated_Source\PSoC4/CyLib.c **** 
 794:Generated_Source\PSoC4/CyLib.c **** 
ARM GAS  C:\Users\austc\AppData\Local\Temp\ccjGCJ7Y.s 			page 28


 795:Generated_Source\PSoC4/CyLib.c ****         #if (CY_IP_FMLT)
 796:Generated_Source\PSoC4/CyLib.c **** 
 797:Generated_Source\PSoC4/CyLib.c ****             /* FM-Lite Clock Restore */
 798:Generated_Source\PSoC4/CyLib.c ****             regValues[0u] = CY_SYS_CLK_IMO_CONFIG_REG;
 799:Generated_Source\PSoC4/CyLib.c ****             regValues[1u] = CY_SYS_CLK_SELECT_REG;
 800:Generated_Source\PSoC4/CyLib.c ****             regValues[2u] = cyImoFreqMhz2Reg[freq - CY_SYS_CLK_IMO_FREQ_TABLE_OFFSET];
 801:Generated_Source\PSoC4/CyLib.c ****             regValues[3u] = CY_FLASH_CTL_REG;
 802:Generated_Source\PSoC4/CyLib.c **** 
 803:Generated_Source\PSoC4/CyLib.c ****             parameters[0u] =
 804:Generated_Source\PSoC4/CyLib.c ****                 (uint32) ((CY_FLASH_KEY_TWO(CY_FLASH_API_OPCODE_CLK_RESTORE) <<  CY_FLASH_PARAM_KEY
 805:Generated_Source\PSoC4/CyLib.c ****                             CY_FLASH_KEY_ONE);
 806:Generated_Source\PSoC4/CyLib.c ****             parameters[1u] = (uint32) &regValues[0u];
 807:Generated_Source\PSoC4/CyLib.c **** 
 808:Generated_Source\PSoC4/CyLib.c ****             CY_FLASH_CPUSS_SYSARG_REG = (uint32) &parameters[0u];
 809:Generated_Source\PSoC4/CyLib.c ****             CY_FLASH_CPUSS_SYSREQ_REG = CY_FLASH_CPUSS_REQ_START | CY_FLASH_API_OPCODE_CLK_RESTORE;
 810:Generated_Source\PSoC4/CyLib.c ****             (void) CY_FLASH_CPUSS_SYSARG_REG;
 811:Generated_Source\PSoC4/CyLib.c **** 
 812:Generated_Source\PSoC4/CyLib.c ****         #else /* (CY_IP_FM) */
 813:Generated_Source\PSoC4/CyLib.c **** 
 814:Generated_Source\PSoC4/CyLib.c ****         if ((freq >= CY_SYS_CLK_IMO_MIN_FREQ_MHZ) && (freq <= CY_SYS_CLK_IMO_MAX_FREQ_MHZ))
 815:Generated_Source\PSoC4/CyLib.c ****         {
 816:Generated_Source\PSoC4/CyLib.c ****             if(freq <= CY_SFLASH_IMO_MAXF0_REG)
 817:Generated_Source\PSoC4/CyLib.c ****             {
 818:Generated_Source\PSoC4/CyLib.c ****                 bgTrim4 = CY_SFLASH_IMO_ABS0_REG;
 819:Generated_Source\PSoC4/CyLib.c ****                 bgTrim5 = CY_SFLASH_IMO_TMPCO0_REG;
 820:Generated_Source\PSoC4/CyLib.c ****             }
 821:Generated_Source\PSoC4/CyLib.c ****             else if(freq <= CY_SFLASH_IMO_MAXF1_REG)
 822:Generated_Source\PSoC4/CyLib.c ****             {
 823:Generated_Source\PSoC4/CyLib.c ****                 bgTrim4 = CY_SFLASH_IMO_ABS1_REG;
 824:Generated_Source\PSoC4/CyLib.c ****                 bgTrim5 = CY_SFLASH_IMO_TMPCO1_REG;
 825:Generated_Source\PSoC4/CyLib.c ****             }
 826:Generated_Source\PSoC4/CyLib.c ****             else if(freq <= CY_SFLASH_IMO_MAXF2_REG)
 827:Generated_Source\PSoC4/CyLib.c ****             {
 828:Generated_Source\PSoC4/CyLib.c ****                 bgTrim4 = CY_SFLASH_IMO_ABS2_REG;
 829:Generated_Source\PSoC4/CyLib.c ****                 bgTrim5 = CY_SFLASH_IMO_TMPCO2_REG;
 830:Generated_Source\PSoC4/CyLib.c ****             }
 831:Generated_Source\PSoC4/CyLib.c ****             else if(freq <= CY_SFLASH_IMO_MAXF3_REG)
 832:Generated_Source\PSoC4/CyLib.c ****             {
 833:Generated_Source\PSoC4/CyLib.c ****                 bgTrim4 = CY_SFLASH_IMO_ABS3_REG;
 834:Generated_Source\PSoC4/CyLib.c ****                 bgTrim5 = CY_SFLASH_IMO_TMPCO3_REG;
 835:Generated_Source\PSoC4/CyLib.c ****             }
 836:Generated_Source\PSoC4/CyLib.c ****             else
 837:Generated_Source\PSoC4/CyLib.c ****             {
 838:Generated_Source\PSoC4/CyLib.c ****                 bgTrim4 = CY_SFLASH_IMO_ABS4_REG;
 839:Generated_Source\PSoC4/CyLib.c ****                 bgTrim5 = CY_SFLASH_IMO_TMPCO4_REG;
 840:Generated_Source\PSoC4/CyLib.c ****             }
 841:Generated_Source\PSoC4/CyLib.c **** 
 842:Generated_Source\PSoC4/CyLib.c ****             /* Get IMO_TRIM2 value for the new frequency */
 843:Generated_Source\PSoC4/CyLib.c ****             newImoTrim2Value = cyImoFreqMhz2Reg[freq - CY_SYS_CLK_IMO_FREQ_TABLE_OFFSET];
 844:Generated_Source\PSoC4/CyLib.c **** 
 845:Generated_Source\PSoC4/CyLib.c **** 
 846:Generated_Source\PSoC4/CyLib.c ****             /****************************************************************************
 847:Generated_Source\PSoC4/CyLib.c ****             * The IMO can have a different trim per frequency. To avoid possible corner
 848:Generated_Source\PSoC4/CyLib.c ****             * cases where a trim change can exceed the maximum frequency, the trim must
 849:Generated_Source\PSoC4/CyLib.c ****             * be applied at a frequency that is low enough.
 850:Generated_Source\PSoC4/CyLib.c ****             *
 851:Generated_Source\PSoC4/CyLib.c ****             * Comparing IMO_TRIM2 values for the current and new frequencies, since
ARM GAS  C:\Users\austc\AppData\Local\Temp\ccjGCJ7Y.s 			page 29


 852:Generated_Source\PSoC4/CyLib.c ****             * IMO_TRIM2 value as a function of IMO frequency is a strictly increasing
 853:Generated_Source\PSoC4/CyLib.c ****             * function and is time-invariant.
 854:Generated_Source\PSoC4/CyLib.c ****             ***************************************************************************/
 855:Generated_Source\PSoC4/CyLib.c ****             if ((newImoTrim2Value >= CY_SYS_CLK_IMO_BOUNDARY_FREQ_TRIM2) && (freq >= CY_SYS_CLK_IMO
 856:Generated_Source\PSoC4/CyLib.c ****             {
 857:Generated_Source\PSoC4/CyLib.c ****                 /* Set boundary IMO frequency: safe for IMO above 48 MHZ trimming */
 858:Generated_Source\PSoC4/CyLib.c ****                 CY_SYS_CLK_IMO_TRIM2_REG = (uint32) cyImoFreqMhz2Reg[CY_SYS_CLK_IMO_TEMP_FREQ_MHZ -
 859:Generated_Source\PSoC4/CyLib.c ****                                                                      CY_SYS_CLK_IMO_FREQ_TABLE_OFFS
 860:Generated_Source\PSoC4/CyLib.c **** 
 861:Generated_Source\PSoC4/CyLib.c ****                 CyDelayCycles(CY_SYS_CLK_IMO_FREQ_TIMEOUT_CYCLES);
 862:Generated_Source\PSoC4/CyLib.c **** 
 863:Generated_Source\PSoC4/CyLib.c ****                 currentImoTrim2Value = CY_SYS_CLK_IMO_TEMP_FREQ_TRIM2;
 864:Generated_Source\PSoC4/CyLib.c ****             }
 865:Generated_Source\PSoC4/CyLib.c ****             else
 866:Generated_Source\PSoC4/CyLib.c ****             {
 867:Generated_Source\PSoC4/CyLib.c ****                 currentImoTrim2Value = (uint8) (CY_SYS_CLK_IMO_TRIM2_REG & CY_SYS_CLK_IMO_FREQ_BITS
 868:Generated_Source\PSoC4/CyLib.c ****             }
 869:Generated_Source\PSoC4/CyLib.c **** 
 870:Generated_Source\PSoC4/CyLib.c **** 
 871:Generated_Source\PSoC4/CyLib.c ****             /***************************************************************************
 872:Generated_Source\PSoC4/CyLib.c ****             * A trim change needs to be allowed to settle (within 5us) before the Freq
 873:Generated_Source\PSoC4/CyLib.c ****             * can be changed to a new frequency.
 874:Generated_Source\PSoC4/CyLib.c ****             *
 875:Generated_Source\PSoC4/CyLib.c ****             * Comparing IMO_TRIM2 values for the current and new frequencies, since
 876:Generated_Source\PSoC4/CyLib.c ****             * IMO_TRIM2 value as a function of IMO frequency is a strictly increasing
 877:Generated_Source\PSoC4/CyLib.c ****             * function and is time-invariant.
 878:Generated_Source\PSoC4/CyLib.c ****             ***************************************************************************/
 879:Generated_Source\PSoC4/CyLib.c ****             if (newImoTrim2Value < currentImoTrim2Value)
 880:Generated_Source\PSoC4/CyLib.c ****             {
 881:Generated_Source\PSoC4/CyLib.c ****                 /* Set new IMO frequency */
 882:Generated_Source\PSoC4/CyLib.c ****                 CY_SYS_CLK_IMO_TRIM2_REG = cyImoFreqMhz2Reg[freq - CY_SYS_CLK_IMO_FREQ_TABLE_OFFSET
 883:Generated_Source\PSoC4/CyLib.c ****                 CyDelayCycles(CY_SYS_CLK_IMO_FREQ_TIMEOUT_CYCLES);
 884:Generated_Source\PSoC4/CyLib.c ****             }
 885:Generated_Source\PSoC4/CyLib.c **** 
 886:Generated_Source\PSoC4/CyLib.c ****             /* Set trims for the new IMO frequency */
 887:Generated_Source\PSoC4/CyLib.c ****             CY_SYS_CLK_IMO_TRIM1_REG = (uint32) CY_SFLASH_IMO_TRIM_REG(freq - CY_SYS_CLK_IMO_FREQ_T
 888:Generated_Source\PSoC4/CyLib.c ****             CY_PWR_BG_TRIM4_REG  = bgTrim4;
 889:Generated_Source\PSoC4/CyLib.c ****             CY_PWR_BG_TRIM5_REG  = bgTrim5;
 890:Generated_Source\PSoC4/CyLib.c ****             CyDelayUs(CY_SYS_CLK_IMO_TRIM_TIMEOUT_US);
 891:Generated_Source\PSoC4/CyLib.c **** 
 892:Generated_Source\PSoC4/CyLib.c ****             if (newImoTrim2Value > currentImoTrim2Value)
 893:Generated_Source\PSoC4/CyLib.c ****             {
 894:Generated_Source\PSoC4/CyLib.c ****                 /* Set new IMO frequency */
 895:Generated_Source\PSoC4/CyLib.c ****                 CY_SYS_CLK_IMO_TRIM2_REG = cyImoFreqMhz2Reg[freq - CY_SYS_CLK_IMO_FREQ_TABLE_OFFSET
 896:Generated_Source\PSoC4/CyLib.c ****                 CyDelayCycles(CY_SYS_CLK_IMO_FREQ_TIMEOUT_CYCLES);
 897:Generated_Source\PSoC4/CyLib.c ****             }
 898:Generated_Source\PSoC4/CyLib.c ****         }
 899:Generated_Source\PSoC4/CyLib.c ****         else
 900:Generated_Source\PSoC4/CyLib.c ****         {
 901:Generated_Source\PSoC4/CyLib.c ****             /* Halt CPU in debug mode if new frequency is invalid */
 902:Generated_Source\PSoC4/CyLib.c ****             CYASSERT(0u != 0u);
 903:Generated_Source\PSoC4/CyLib.c ****         }
 904:Generated_Source\PSoC4/CyLib.c **** 
 905:Generated_Source\PSoC4/CyLib.c ****         #endif /* (CY_IP_FMLT) */
 906:Generated_Source\PSoC4/CyLib.c **** 
 907:Generated_Source\PSoC4/CyLib.c ****         #if (CY_IP_IMO_TRIMMABLE_BY_WCO)
 908:Generated_Source\PSoC4/CyLib.c ****             if (1u == wcoLock)
ARM GAS  C:\Users\austc\AppData\Local\Temp\ccjGCJ7Y.s 			page 30


 909:Generated_Source\PSoC4/CyLib.c ****             {
 910:Generated_Source\PSoC4/CyLib.c ****                 CySysClkImoEnableWcoLock();
 911:Generated_Source\PSoC4/CyLib.c ****             }
 912:Generated_Source\PSoC4/CyLib.c ****         #endif  /* (CY_IP_IMO_TRIMMABLE_BY_WCO) */
 913:Generated_Source\PSoC4/CyLib.c **** 
 914:Generated_Source\PSoC4/CyLib.c ****         #if (CY_IP_IMO_TRIMMABLE_BY_USB)
 915:Generated_Source\PSoC4/CyLib.c ****             if (1u == usbLock)
 916:Generated_Source\PSoC4/CyLib.c ****             {
 917:Generated_Source\PSoC4/CyLib.c ****                 CySysClkImoEnableUsbLock();
 918:Generated_Source\PSoC4/CyLib.c ****             }
 919:Generated_Source\PSoC4/CyLib.c ****         #endif  /* (CY_IP_IMO_TRIMMABLE_BY_USB) */
 920:Generated_Source\PSoC4/CyLib.c **** 
 921:Generated_Source\PSoC4/CyLib.c ****         CyExitCriticalSection(interruptState);
 922:Generated_Source\PSoC4/CyLib.c ****     }
 923:Generated_Source\PSoC4/CyLib.c **** 
 924:Generated_Source\PSoC4/CyLib.c **** #else
 925:Generated_Source\PSoC4/CyLib.c **** 
 926:Generated_Source\PSoC4/CyLib.c ****     void CySysClkWriteImoFreq(uint32 freq)
 927:Generated_Source\PSoC4/CyLib.c ****     {
 928:Generated_Source\PSoC4/CyLib.c ****         uint8  interruptState;
 929:Generated_Source\PSoC4/CyLib.c ****         uint8  imoTrim1Value;
 930:Generated_Source\PSoC4/CyLib.c **** 
 931:Generated_Source\PSoC4/CyLib.c ****         #if (CY_IP_IMO_TRIMMABLE_BY_WCO)
 932:Generated_Source\PSoC4/CyLib.c ****             uint32 wcoLock = 0u;
 933:Generated_Source\PSoC4/CyLib.c ****         #endif  /* (CY_IP_IMO_TRIMMABLE_BY_WCO) */        
 934:Generated_Source\PSoC4/CyLib.c ****         
 935:Generated_Source\PSoC4/CyLib.c ****         #if (CY_IP_IMO_TRIMMABLE_BY_USB)
 936:Generated_Source\PSoC4/CyLib.c ****             uint32 usbLock = 0u;
 937:Generated_Source\PSoC4/CyLib.c ****         #endif  /* (CY_IP_IMO_TRIMMABLE_BY_USB) */
 938:Generated_Source\PSoC4/CyLib.c **** 
 939:Generated_Source\PSoC4/CyLib.c ****         #if (CY_PSOC4_4000)
 940:Generated_Source\PSoC4/CyLib.c ****             if ((freq == 24u) || (freq == 32u) || (freq == 48u))
 941:Generated_Source\PSoC4/CyLib.c ****         #elif (CY_CCG3)
 942:Generated_Source\PSoC4/CyLib.c ****             if ((freq == 24u) || (freq == 36u) || (freq == 48u))
 943:Generated_Source\PSoC4/CyLib.c ****         #else
 944:Generated_Source\PSoC4/CyLib.c ****             if ((freq == 24u) || (freq == 28u) || (freq == 32u) ||
 945:Generated_Source\PSoC4/CyLib.c ****                 (freq == 36u) || (freq == 40u) || (freq == 44u) ||
 946:Generated_Source\PSoC4/CyLib.c ****                 (freq == 48u))
 947:Generated_Source\PSoC4/CyLib.c ****         #endif /* (CY_PSOC4_4000) */
 948:Generated_Source\PSoC4/CyLib.c ****         {
 949:Generated_Source\PSoC4/CyLib.c ****             interruptState = CyEnterCriticalSection();
 950:Generated_Source\PSoC4/CyLib.c **** 
 951:Generated_Source\PSoC4/CyLib.c ****             #if (CY_IP_IMO_TRIMMABLE_BY_WCO)
 952:Generated_Source\PSoC4/CyLib.c ****                 if(0u != CySysClkImoGetWcoLock())
 953:Generated_Source\PSoC4/CyLib.c ****                 {
 954:Generated_Source\PSoC4/CyLib.c ****                     wcoLock = 1u;
 955:Generated_Source\PSoC4/CyLib.c ****                     CySysClkImoDisableWcoLock();
 956:Generated_Source\PSoC4/CyLib.c ****                 }
 957:Generated_Source\PSoC4/CyLib.c ****             #endif  /* (CY_IP_IMO_TRIMMABLE_BY_WCO) */
 958:Generated_Source\PSoC4/CyLib.c **** 
 959:Generated_Source\PSoC4/CyLib.c ****             #if (CY_IP_IMO_TRIMMABLE_BY_USB)
 960:Generated_Source\PSoC4/CyLib.c **** 
 961:Generated_Source\PSoC4/CyLib.c ****                 #if (CYDEV_IMO_TRIMMED_BY_USB == 0u)
 962:Generated_Source\PSoC4/CyLib.c ****                     if(0u != CySysClkImoGetUsbLock())
 963:Generated_Source\PSoC4/CyLib.c ****                     {
 964:Generated_Source\PSoC4/CyLib.c ****                 #endif  /* (CYDEV_IMO_TRIMMED_BY_USB == 0u) */
 965:Generated_Source\PSoC4/CyLib.c **** 
ARM GAS  C:\Users\austc\AppData\Local\Temp\ccjGCJ7Y.s 			page 31


 966:Generated_Source\PSoC4/CyLib.c ****                     if (48u == freq)
 967:Generated_Source\PSoC4/CyLib.c ****                     {
 968:Generated_Source\PSoC4/CyLib.c ****                         usbLock = 1u;
 969:Generated_Source\PSoC4/CyLib.c ****                         CySysClkImoDisableUsbLock();
 970:Generated_Source\PSoC4/CyLib.c ****                     }
 971:Generated_Source\PSoC4/CyLib.c **** 
 972:Generated_Source\PSoC4/CyLib.c ****                 #if (CYDEV_IMO_TRIMMED_BY_USB == 0u)
 973:Generated_Source\PSoC4/CyLib.c ****                     }
 974:Generated_Source\PSoC4/CyLib.c ****                 #endif  /* (CYDEV_IMO_TRIMMED_BY_USB == 0u) */
 975:Generated_Source\PSoC4/CyLib.c **** 
 976:Generated_Source\PSoC4/CyLib.c ****             #endif  /* (CYDEV_IMO_TRIMMED_BY_USB == 0u) */
 977:Generated_Source\PSoC4/CyLib.c **** 
 978:Generated_Source\PSoC4/CyLib.c **** 
 979:Generated_Source\PSoC4/CyLib.c ****             /* Set IMO to 24 MHz - CLK_IMO_SELECT.FREQ = 0 */
 980:Generated_Source\PSoC4/CyLib.c ****             CY_SYS_CLK_IMO_SELECT_REG &= ((uint32) ~CY_SYS_CLK_IMO_SELECT_FREQ_MASK);
 981:Generated_Source\PSoC4/CyLib.c **** 
 982:Generated_Source\PSoC4/CyLib.c **** 
 983:Generated_Source\PSoC4/CyLib.c ****             /* Apply coarse trim */
 984:Generated_Source\PSoC4/CyLib.c ****             #if (CY_IP_IMO_TRIMMABLE_BY_USB)
 985:Generated_Source\PSoC4/CyLib.c ****                 if ((1u == usbLock) && (48u == freq))
 986:Generated_Source\PSoC4/CyLib.c ****                 {
 987:Generated_Source\PSoC4/CyLib.c ****                     imoTrim1Value = CY_SFLASH_IMO_TRIM_USBMODE_48_REG;
 988:Generated_Source\PSoC4/CyLib.c ****                 }
 989:Generated_Source\PSoC4/CyLib.c ****                 else if ((1u == usbLock) && (24u == freq))
 990:Generated_Source\PSoC4/CyLib.c ****                 {
 991:Generated_Source\PSoC4/CyLib.c ****                     imoTrim1Value = CY_SFLASH_IMO_TRIM_USBMODE_24_REG;
 992:Generated_Source\PSoC4/CyLib.c ****                 }
 993:Generated_Source\PSoC4/CyLib.c ****                 else
 994:Generated_Source\PSoC4/CyLib.c ****                 {
 995:Generated_Source\PSoC4/CyLib.c ****                     imoTrim1Value = (uint8) CY_SFLASH_IMO_TRIM_REG(freq - CY_SYS_CLK_IMO_MIN_FREQ_M
 996:Generated_Source\PSoC4/CyLib.c ****                 }
 997:Generated_Source\PSoC4/CyLib.c ****             #else
 998:Generated_Source\PSoC4/CyLib.c ****                 imoTrim1Value = (uint8) CY_SFLASH_IMO_TRIM_REG(freq - CY_SYS_CLK_IMO_MIN_FREQ_MHZ);
 999:Generated_Source\PSoC4/CyLib.c ****             #endif  /* (CY_IP_IMO_TRIMMABLE_BY_USB) */
1000:Generated_Source\PSoC4/CyLib.c ****             CY_SYS_CLK_IMO_TRIM1_REG = (uint32) imoTrim1Value;
1001:Generated_Source\PSoC4/CyLib.c **** 
1002:Generated_Source\PSoC4/CyLib.c ****             /* Zero out fine trim */
1003:Generated_Source\PSoC4/CyLib.c ****             CY_SYS_CLK_IMO_TRIM2_REG = CY_SYS_CLK_IMO_TRIM2_REG & ((uint32) ~CY_SYS_CLK_IMO_TRIM2_F
1004:Generated_Source\PSoC4/CyLib.c **** 
1005:Generated_Source\PSoC4/CyLib.c ****             /* Apply TC trim */
1006:Generated_Source\PSoC4/CyLib.c ****             CY_SYS_CLK_IMO_TRIM3_REG = (CY_SYS_CLK_IMO_TRIM3_REG & ((uint32) ~CY_SYS_CLK_IMO_TRIM3_
1007:Generated_Source\PSoC4/CyLib.c ****                 (CY_SFLASH_IMO_TCTRIM_REG(freq - CY_SYS_CLK_IMO_MIN_FREQ_MHZ) & CY_SYS_CLK_IMO_TRIM
1008:Generated_Source\PSoC4/CyLib.c **** 
1009:Generated_Source\PSoC4/CyLib.c ****             CyDelayCycles(CY_SYS_CLK_IMO_TRIM_DELAY_CYCLES);
1010:Generated_Source\PSoC4/CyLib.c **** 
1011:Generated_Source\PSoC4/CyLib.c ****             if (freq > CY_SYS_CLK_IMO_MIN_FREQ_MHZ)
1012:Generated_Source\PSoC4/CyLib.c ****             {
1013:Generated_Source\PSoC4/CyLib.c ****                 /* Select nearby intermediate frequency */
1014:Generated_Source\PSoC4/CyLib.c ****                 CY_SYS_CLK_IMO_SELECT_REG = (CY_SYS_CLK_IMO_SELECT_REG & ((uint32) ~CY_SYS_CLK_IMO_
1015:Generated_Source\PSoC4/CyLib.c ****                     (((freq - 4u - CY_SYS_CLK_IMO_MIN_FREQ_MHZ) >> 2u) & CY_SYS_CLK_IMO_SELECT_FREQ
1016:Generated_Source\PSoC4/CyLib.c **** 
1017:Generated_Source\PSoC4/CyLib.c ****                 CyDelayCycles(CY_SYS_CLK_IMO_TRIM_DELAY_CYCLES);
1018:Generated_Source\PSoC4/CyLib.c **** 
1019:Generated_Source\PSoC4/CyLib.c ****                 /* Make small step to final frequency */
1020:Generated_Source\PSoC4/CyLib.c ****                 /* Select nearby intermediate frequency */
1021:Generated_Source\PSoC4/CyLib.c ****                 CY_SYS_CLK_IMO_SELECT_REG = (CY_SYS_CLK_IMO_SELECT_REG & ((uint32) ~CY_SYS_CLK_IMO_
1022:Generated_Source\PSoC4/CyLib.c ****                     (((freq - CY_SYS_CLK_IMO_MIN_FREQ_MHZ) >> 2u) & CY_SYS_CLK_IMO_SELECT_FREQ_MASK
ARM GAS  C:\Users\austc\AppData\Local\Temp\ccjGCJ7Y.s 			page 32


1023:Generated_Source\PSoC4/CyLib.c ****             }
1024:Generated_Source\PSoC4/CyLib.c **** 
1025:Generated_Source\PSoC4/CyLib.c ****             #if (CY_IP_IMO_TRIMMABLE_BY_WCO)
1026:Generated_Source\PSoC4/CyLib.c ****                 if (1u == wcoLock)
1027:Generated_Source\PSoC4/CyLib.c ****                 {
1028:Generated_Source\PSoC4/CyLib.c ****                     CySysClkImoEnableWcoLock();
1029:Generated_Source\PSoC4/CyLib.c ****                 }
1030:Generated_Source\PSoC4/CyLib.c ****             #endif  /* (CY_IP_IMO_TRIMMABLE_BY_WCO) */
1031:Generated_Source\PSoC4/CyLib.c ****         
1032:Generated_Source\PSoC4/CyLib.c ****         
1033:Generated_Source\PSoC4/CyLib.c ****             #if (CY_IP_IMO_TRIMMABLE_BY_USB)
1034:Generated_Source\PSoC4/CyLib.c ****                 if (1u == usbLock)
1035:Generated_Source\PSoC4/CyLib.c ****                 {
1036:Generated_Source\PSoC4/CyLib.c ****                     CySysClkImoEnableUsbLock();
1037:Generated_Source\PSoC4/CyLib.c ****                 }
1038:Generated_Source\PSoC4/CyLib.c ****             #endif  /* (CY_IP_IMO_TRIMMABLE_BY_USB) */
1039:Generated_Source\PSoC4/CyLib.c **** 
1040:Generated_Source\PSoC4/CyLib.c ****             CyExitCriticalSection(interruptState);
1041:Generated_Source\PSoC4/CyLib.c ****         }
1042:Generated_Source\PSoC4/CyLib.c ****         else
1043:Generated_Source\PSoC4/CyLib.c ****         {
1044:Generated_Source\PSoC4/CyLib.c ****             /* Halt CPU in debug mode if new frequency is invalid */
1045:Generated_Source\PSoC4/CyLib.c ****             CYASSERT(0u != 0u);
1046:Generated_Source\PSoC4/CyLib.c ****         }
1047:Generated_Source\PSoC4/CyLib.c ****     }
1048:Generated_Source\PSoC4/CyLib.c **** 
1049:Generated_Source\PSoC4/CyLib.c **** #endif /* (CY_IP_SRSSV2) */
1050:Generated_Source\PSoC4/CyLib.c **** 
1051:Generated_Source\PSoC4/CyLib.c **** 
1052:Generated_Source\PSoC4/CyLib.c **** #if(CY_IP_SRSSLT)
1053:Generated_Source\PSoC4/CyLib.c ****     /*******************************************************************************
1054:Generated_Source\PSoC4/CyLib.c ****     * Function Name: CySysClkWriteHfclkDiv
1055:Generated_Source\PSoC4/CyLib.c ****     ****************************************************************************//**
1056:Generated_Source\PSoC4/CyLib.c ****     *
1057:Generated_Source\PSoC4/CyLib.c ****     * Selects the pre-scaler divider value for HFCLK from IMO.
1058:Generated_Source\PSoC4/CyLib.c ****     *
1059:Generated_Source\PSoC4/CyLib.c ****     * The HFCLK predivider allows the device to divide the HFCLK selection mux
1060:Generated_Source\PSoC4/CyLib.c ****     * input before use as HFCLK. The predivider is capable of dividing the HFCLK by
1061:Generated_Source\PSoC4/CyLib.c ****     * powers of 2 between 1 and 8.
1062:Generated_Source\PSoC4/CyLib.c ****     *
1063:Generated_Source\PSoC4/CyLib.c ****     * PSoC 4000: The SYSCLK has the speed of 16 MHz, so HFCLK and SYSCLK dividers
1064:Generated_Source\PSoC4/CyLib.c ****     * should be selected in a way, not to exceed 16 MHz for SYSCLK.
1065:Generated_Source\PSoC4/CyLib.c ****     *
1066:Generated_Source\PSoC4/CyLib.c ****     * If the SYSCLK clock frequency increases during the device operation, call
1067:Generated_Source\PSoC4/CyLib.c ****     * \ref CySysFlashSetWaitCycles() with the appropriate parameter to adjust the
1068:Generated_Source\PSoC4/CyLib.c ****     * number of clock cycles the cache will wait before sampling data comes back
1069:Generated_Source\PSoC4/CyLib.c ****     * from Flash. If the SYSCLK clock frequency decreases, you can call
1070:Generated_Source\PSoC4/CyLib.c ****     * \ref CySysFlashSetWaitCycles() to improve the CPU performance. See
1071:Generated_Source\PSoC4/CyLib.c ****     * \ref CySysFlashSetWaitCycles() description for more information.
1072:Generated_Source\PSoC4/CyLib.c ****     *
1073:Generated_Source\PSoC4/CyLib.c ****     * \param \ref CY_SYS_CLK_HFCLK_DIV_NODIV    Transparent mode (w/o dividing)
1074:Generated_Source\PSoC4/CyLib.c ****     * \param \ref CY_SYS_CLK_HFCLK_DIV_2        Divide selected clock source by 2
1075:Generated_Source\PSoC4/CyLib.c ****     * \param \ref CY_SYS_CLK_HFCLK_DIV_4        Divide selected clock source by 4
1076:Generated_Source\PSoC4/CyLib.c ****     * \param \ref CY_SYS_CLK_HFCLK_DIV_8        Divide selected clock source by 8
1077:Generated_Source\PSoC4/CyLib.c ****     *
1078:Generated_Source\PSoC4/CyLib.c ****     *******************************************************************************/
1079:Generated_Source\PSoC4/CyLib.c ****     void CySysClkWriteHfclkDiv(uint32 divider)
ARM GAS  C:\Users\austc\AppData\Local\Temp\ccjGCJ7Y.s 			page 33


1080:Generated_Source\PSoC4/CyLib.c ****     {
1081:Generated_Source\PSoC4/CyLib.c ****         uint8  interruptState;
1082:Generated_Source\PSoC4/CyLib.c **** 
1083:Generated_Source\PSoC4/CyLib.c ****         interruptState = CyEnterCriticalSection();
1084:Generated_Source\PSoC4/CyLib.c **** 
1085:Generated_Source\PSoC4/CyLib.c ****         CY_SYS_CLK_SELECT_REG = ((CY_SYS_CLK_SELECT_REG & ((uint32) (~(CY_SYS_CLK_SELECT_HFCLK_DIV_
1086:Generated_Source\PSoC4/CyLib.c ****                                         CY_SYS_CLK_SELECT_HFCLK_DIV_SHIFT)))) |
1087:Generated_Source\PSoC4/CyLib.c ****                     ((uint32)((divider & CY_SYS_CLK_SELECT_HFCLK_DIV_MASK) << CY_SYS_CLK_SELECT_HFC
1088:Generated_Source\PSoC4/CyLib.c **** 
1089:Generated_Source\PSoC4/CyLib.c ****         CyExitCriticalSection(interruptState);
1090:Generated_Source\PSoC4/CyLib.c ****     }
1091:Generated_Source\PSoC4/CyLib.c **** #endif /* (CY_IP_SRSSLT) */
1092:Generated_Source\PSoC4/CyLib.c **** 
1093:Generated_Source\PSoC4/CyLib.c **** 
1094:Generated_Source\PSoC4/CyLib.c **** #if (CY_IP_ECO)
1095:Generated_Source\PSoC4/CyLib.c **** 
1096:Generated_Source\PSoC4/CyLib.c ****     /*******************************************************************************
1097:Generated_Source\PSoC4/CyLib.c ****     * Function Name: CySysClkEcoStart
1098:Generated_Source\PSoC4/CyLib.c ****     ****************************************************************************//**
1099:Generated_Source\PSoC4/CyLib.c ****     *
1100:Generated_Source\PSoC4/CyLib.c ****     * Starts the External Crystal Oscillator (ECO). Refer to the device datasheet
1101:Generated_Source\PSoC4/CyLib.c ****     * for the ECO startup time.
1102:Generated_Source\PSoC4/CyLib.c ****     *
1103:Generated_Source\PSoC4/CyLib.c ****     * The timeout interval is measured based on the system frequency defined by
1104:Generated_Source\PSoC4/CyLib.c ****     * PSoC Creator at build time. If System clock frequency is changed in
1105:Generated_Source\PSoC4/CyLib.c ****     * runtime, the \ref CyDelayFreq() with the appropriate parameter should be
1106:Generated_Source\PSoC4/CyLib.c ****     * called.
1107:Generated_Source\PSoC4/CyLib.c ****     *
1108:Generated_Source\PSoC4/CyLib.c ****     * PSoC 4100 BLE / PSoC 4200 BLE: The WCO must be enabled prior to enabling ECO.
1109:Generated_Source\PSoC4/CyLib.c ****     *
1110:Generated_Source\PSoC4/CyLib.c ****     * \param timeoutUs Timeout in microseconds.
1111:Generated_Source\PSoC4/CyLib.c ****     *
1112:Generated_Source\PSoC4/CyLib.c ****     * If zero is specified, the function does not wait for timeout and returns
1113:Generated_Source\PSoC4/CyLib.c ****     * CYRET_SUCCESS. If non-zero is specified, the function waits for the timeout.
1114:Generated_Source\PSoC4/CyLib.c ****     *
1115:Generated_Source\PSoC4/CyLib.c ****     * \return \ref CYRET_SUCCESS Completed successfully. The ECO is oscillating and
1116:Generated_Source\PSoC4/CyLib.c ****     * amplitude reached 60% and it does not mean 24 MHz crystal is within 50 ppm.
1117:Generated_Source\PSoC4/CyLib.c ****     *
1118:Generated_Source\PSoC4/CyLib.c ****     * \return \ref CYRET_TIMEOUT Timeout occurred. If the crystal is not oscillating
1119:Generated_Source\PSoC4/CyLib.c ****     * or amplitude didn't reach 60% after specified amount of time, CYRET_TIMEOUT
1120:Generated_Source\PSoC4/CyLib.c ****     * is returned.
1121:Generated_Source\PSoC4/CyLib.c ****     *
1122:Generated_Source\PSoC4/CyLib.c ****     * \return \ref CYRET_BAD_PARAM One or more invalid parameters.
1123:Generated_Source\PSoC4/CyLib.c ****     *
1124:Generated_Source\PSoC4/CyLib.c ****     *******************************************************************************/
1125:Generated_Source\PSoC4/CyLib.c ****     cystatus CySysClkEcoStart(uint32 timeoutUs)
1126:Generated_Source\PSoC4/CyLib.c ****     {
1127:Generated_Source\PSoC4/CyLib.c ****         cystatus returnStatus = CYRET_SUCCESS;
1128:Generated_Source\PSoC4/CyLib.c **** 
1129:Generated_Source\PSoC4/CyLib.c ****         #if (CY_IP_ECO_BLESS)
1130:Generated_Source\PSoC4/CyLib.c ****             /* Enable the RF oscillator band gap */
1131:Generated_Source\PSoC4/CyLib.c ****             CY_SYS_XTAL_BLESS_RF_CONFIG_REG |= CY_SYS_XTAL_BLESS_RF_CONFIG_RF_ENABLE;
1132:Generated_Source\PSoC4/CyLib.c **** 
1133:Generated_Source\PSoC4/CyLib.c ****             /* Update trimming register */
1134:Generated_Source\PSoC4/CyLib.c ****             CY_SYS_XTAL_BLERD_BB_XO_REG = CY_SYS_XTAL_BLERD_BB_XO_TRIM;
1135:Generated_Source\PSoC4/CyLib.c **** 
1136:Generated_Source\PSoC4/CyLib.c ****             /* Enable the Crystal */
ARM GAS  C:\Users\austc\AppData\Local\Temp\ccjGCJ7Y.s 			page 34


1137:Generated_Source\PSoC4/CyLib.c ****             CY_SYS_XTAL_BLERD_DBUS_REG |= CY_SYS_XTAL_BLERD_DBUS_XTAL_ENABLE;
1138:Generated_Source\PSoC4/CyLib.c ****         
1139:Generated_Source\PSoC4/CyLib.c ****         #elif (CY_IP_ECO_BLESSV3)
1140:Generated_Source\PSoC4/CyLib.c ****             uint32 regConfig;
1141:Generated_Source\PSoC4/CyLib.c ****             uint32 intrRegMaskStore = 0u;
1142:Generated_Source\PSoC4/CyLib.c ****             
1143:Generated_Source\PSoC4/CyLib.c ****             if (0u != (CY_SYS_BLESS_MT_CFG_REG & (CY_SYS_BLESS_MT_CFG_ENABLE_BLERD <<  CYFLD_BLE_BL
1144:Generated_Source\PSoC4/CyLib.c ****             {
1145:Generated_Source\PSoC4/CyLib.c ****                 CY_SYS_BLESS_MT_CFG_REG |= (CY_SYS_BLESS_MT_CFG_DPSLP_ECO_ON  <<  CYFLD_BLE_BLESS_D
1146:Generated_Source\PSoC4/CyLib.c ****             }
1147:Generated_Source\PSoC4/CyLib.c ****             else
1148:Generated_Source\PSoC4/CyLib.c ****             {
1149:Generated_Source\PSoC4/CyLib.c ****                 /* Init BLE core */
1150:Generated_Source\PSoC4/CyLib.c ****                 CY_SYS_BLESS_MT_DELAY_CFG_REG = CY_SYS_BLESS_MT_DELAY_CFG_INIT;
1151:Generated_Source\PSoC4/CyLib.c ****                 CY_SYS_BLESS_MT_DELAY_CFG2_REG = CY_SYS_BLESS_MT_DELAY_CFG2_INIT;
1152:Generated_Source\PSoC4/CyLib.c ****                 CY_SYS_BLESS_MT_DELAY_CFG3_REG = CY_SYS_BLESS_MT_DELAY_CFG3_INIT;
1153:Generated_Source\PSoC4/CyLib.c ****             
1154:Generated_Source\PSoC4/CyLib.c ****                 /* RCB init */
1155:Generated_Source\PSoC4/CyLib.c ****                 regConfig = CY_SYS_RCB_CTRL_REG;
1156:Generated_Source\PSoC4/CyLib.c ****                 regConfig &= CY_SYS_RCB_CTRL_CLEAR;
1157:Generated_Source\PSoC4/CyLib.c ****                 regConfig |= CY_SYS_RCB_CTRL_INIT;
1158:Generated_Source\PSoC4/CyLib.c ****                 CY_SYS_RCB_CTRL_REG = regConfig;
1159:Generated_Source\PSoC4/CyLib.c ****                 
1160:Generated_Source\PSoC4/CyLib.c ****                 intrRegMaskStore = CY_SYS_BLESS_INTR_MASK_REG;
1161:Generated_Source\PSoC4/CyLib.c ****                 if(0u != (CY_SYS_BLESS_BLERD_ACTIVE_INTR_MASK & intrRegMaskStore))
1162:Generated_Source\PSoC4/CyLib.c ****                 {
1163:Generated_Source\PSoC4/CyLib.c ****                     CY_SYS_BLESS_INTR_MASK_REG &= ~CY_SYS_BLESS_BLERD_ACTIVE_INTR_MASK;
1164:Generated_Source\PSoC4/CyLib.c ****                 }
1165:Generated_Source\PSoC4/CyLib.c ****                 
1166:Generated_Source\PSoC4/CyLib.c ****                 /* Enable BLE core */
1167:Generated_Source\PSoC4/CyLib.c ****                 regConfig = CY_SYS_BLESS_MT_CFG_REG;
1168:Generated_Source\PSoC4/CyLib.c ****                 regConfig &= CY_SYS_BLESS_MT_CFG_CLEAR;
1169:Generated_Source\PSoC4/CyLib.c ****                 regConfig |= CY_SYS_BLESS_MT_CFG_INIT;
1170:Generated_Source\PSoC4/CyLib.c ****                 CY_SYS_BLESS_MT_CFG_REG = regConfig;
1171:Generated_Source\PSoC4/CyLib.c **** 
1172:Generated_Source\PSoC4/CyLib.c ****                 while(0u == ((CY_SYS_BLESS_BLERD_ACTIVE_INTR_STAT & CY_SYS_BLESS_INTR_STAT_REG)))
1173:Generated_Source\PSoC4/CyLib.c ****                 {
1174:Generated_Source\PSoC4/CyLib.c ****                     /* Wait until BLERD55 moves to active state */
1175:Generated_Source\PSoC4/CyLib.c ****                 }
1176:Generated_Source\PSoC4/CyLib.c **** 
1177:Generated_Source\PSoC4/CyLib.c ****                 if(0u != (CY_SYS_BLESS_BLERD_ACTIVE_INTR_MASK & intrRegMaskStore))
1178:Generated_Source\PSoC4/CyLib.c ****                 {
1179:Generated_Source\PSoC4/CyLib.c ****                     CY_SYS_BLESS_INTR_MASK_REG |= CY_SYS_BLESS_BLERD_ACTIVE_INTR_MASK;
1180:Generated_Source\PSoC4/CyLib.c ****                 }
1181:Generated_Source\PSoC4/CyLib.c ****                 
1182:Generated_Source\PSoC4/CyLib.c ****                 /* Send write commands to RBUS */
1183:Generated_Source\PSoC4/CyLib.c ****                 CY_SYS_RCB_TX_FIFO_WR_REG = CY_SYS_RCB_RBUS_FREQ_NRST_SET;
1184:Generated_Source\PSoC4/CyLib.c ****                 CY_SYS_RCB_TX_FIFO_WR_REG = CY_SYS_RCB_RBUS_DIG_CLK_SET;
1185:Generated_Source\PSoC4/CyLib.c ****                 
1186:Generated_Source\PSoC4/CyLib.c ****                 #if (CY_SYS_BLE_CLK_ECO_FREQ_32MHZ == CYDEV_ECO_CLK_MHZ)
1187:Generated_Source\PSoC4/CyLib.c ****                     CY_SYS_RCB_TX_FIFO_WR_REG = CY_SYS_RCB_RBUS_FREQ_XTAL_DIV_SET;
1188:Generated_Source\PSoC4/CyLib.c ****                     CY_SYS_RCB_TX_FIFO_WR_REG = (CY_SYS_RCB_RBUS_RF_DCXO_CFG_SET | CY_SYS_RCB_RBUS_
1189:Generated_Source\PSoC4/CyLib.c ****                 #else
1190:Generated_Source\PSoC4/CyLib.c ****                     CY_SYS_RCB_TX_FIFO_WR_REG = CY_SYS_RCB_RBUS_FREQ_XTAL_NODIV_SET;
1191:Generated_Source\PSoC4/CyLib.c ****                 #endif
1192:Generated_Source\PSoC4/CyLib.c ****                 
1193:Generated_Source\PSoC4/CyLib.c ****                 intrRegMaskStore = CY_SYS_BLESS_INTR_MASK_REG;
ARM GAS  C:\Users\austc\AppData\Local\Temp\ccjGCJ7Y.s 			page 35


1194:Generated_Source\PSoC4/CyLib.c ****                 if(0u != (CY_SYS_RCB_INTR_RCB_DONE & intrRegMaskStore))
1195:Generated_Source\PSoC4/CyLib.c ****                 {
1196:Generated_Source\PSoC4/CyLib.c ****                     CY_SYS_BLESS_INTR_MASK_REG &= ~(CY_SYS_RCB_INTR_RCB_DONE | CY_SYS_RCB_INTR_RCB_
1197:Generated_Source\PSoC4/CyLib.c ****                 }
1198:Generated_Source\PSoC4/CyLib.c ****                 
1199:Generated_Source\PSoC4/CyLib.c ****                 /* Send read commands to RBUS */
1200:Generated_Source\PSoC4/CyLib.c ****                 CY_SYS_RCB_TX_FIFO_WR_REG = (CY_SYS_RCB_RBUS_RD_CMD | 
1201:Generated_Source\PSoC4/CyLib.c ****                                             (CY_SYS_RCB_RBUS_RF_DCXO_CFG_SET & ~CY_SYS_RCB_RBUS_VAL
1202:Generated_Source\PSoC4/CyLib.c ****                                             
1203:Generated_Source\PSoC4/CyLib.c ****                 while (0u == (CY_SYS_RCB_INTR_RCB_RX_FIFO_NOT_EMPTY & CY_SYS_RCB_INTR_REG))
1204:Generated_Source\PSoC4/CyLib.c ****                 {
1205:Generated_Source\PSoC4/CyLib.c ****                     /* Wait until RX_FIFO_NOT_EMPTY state */
1206:Generated_Source\PSoC4/CyLib.c ****                 }
1207:Generated_Source\PSoC4/CyLib.c **** 
1208:Generated_Source\PSoC4/CyLib.c ****                 CY_SYS_RCB_INTR_REG |= CY_SYS_RCB_INTR_RCB_DONE;
1209:Generated_Source\PSoC4/CyLib.c ****                 
1210:Generated_Source\PSoC4/CyLib.c ****                 regConfig = CY_SYS_RCB_RX_FIFO_RD_REG & CY_SYS_RCB_RBUS_TRIM_MASK;
1211:Generated_Source\PSoC4/CyLib.c ****                 
1212:Generated_Source\PSoC4/CyLib.c ****                 /* Send write commands to RBUS */
1213:Generated_Source\PSoC4/CyLib.c ****                 CY_SYS_RCB_TX_FIFO_WR_REG = (CY_SYS_RCB_RBUS_RF_DCXO_CFG_SET | regConfig | CY_SYS_R
1214:Generated_Source\PSoC4/CyLib.c ****                 
1215:Generated_Source\PSoC4/CyLib.c ****                 while (0u == (CY_SYS_RCB_INTR_RCB_DONE & CY_SYS_RCB_INTR_REG))
1216:Generated_Source\PSoC4/CyLib.c ****                 {
1217:Generated_Source\PSoC4/CyLib.c ****                     /* Wait until RCB_DONE state */
1218:Generated_Source\PSoC4/CyLib.c ****                 }
1219:Generated_Source\PSoC4/CyLib.c ****                 
1220:Generated_Source\PSoC4/CyLib.c ****                 /* Clear Interrupt */
1221:Generated_Source\PSoC4/CyLib.c ****                 CY_SYS_RCB_INTR_REG = CY_SYS_RCB_INTR_CLEAR;
1222:Generated_Source\PSoC4/CyLib.c ****                 
1223:Generated_Source\PSoC4/CyLib.c ****                 if(0u != ((CY_SYS_RCB_INTR_RCB_DONE | CY_SYS_RCB_INTR_RCB_RX_FIFO_NOT_EMPTY) & intr
1224:Generated_Source\PSoC4/CyLib.c ****                 {
1225:Generated_Source\PSoC4/CyLib.c ****                     CY_SYS_BLESS_INTR_MASK_REG |= intrRegMaskStore;
1226:Generated_Source\PSoC4/CyLib.c ****                 }
1227:Generated_Source\PSoC4/CyLib.c ****                 
1228:Generated_Source\PSoC4/CyLib.c ****             }
1229:Generated_Source\PSoC4/CyLib.c ****         #else /* CY_IP_ECO_SRSSV2 || CY_IP_ECO_SRSSLT */
1230:Generated_Source\PSoC4/CyLib.c ****             CY_SYS_CLK_ECO_CONFIG_REG |= CY_SYS_CLK_ECO_CONFIG_ENABLE;
1231:Generated_Source\PSoC4/CyLib.c ****             CyDelayUs(CY_SYS_CLK_ECO_CONFIG_CLK_EN_TIMEOUT_US);
1232:Generated_Source\PSoC4/CyLib.c ****             CY_SYS_CLK_ECO_CONFIG_REG |= CY_SYS_CLK_ECO_CONFIG_CLK_EN;
1233:Generated_Source\PSoC4/CyLib.c ****         #endif /* (CY_IP_ECO_BLESS) */
1234:Generated_Source\PSoC4/CyLib.c **** 
1235:Generated_Source\PSoC4/CyLib.c ****         if(timeoutUs > 0u)
1236:Generated_Source\PSoC4/CyLib.c ****         {
1237:Generated_Source\PSoC4/CyLib.c ****             returnStatus = CYRET_TIMEOUT;
1238:Generated_Source\PSoC4/CyLib.c **** 
1239:Generated_Source\PSoC4/CyLib.c ****             for( ; timeoutUs > 0u; timeoutUs--)
1240:Generated_Source\PSoC4/CyLib.c ****             {
1241:Generated_Source\PSoC4/CyLib.c ****                 CyDelayUs(1u);
1242:Generated_Source\PSoC4/CyLib.c **** 
1243:Generated_Source\PSoC4/CyLib.c ****                 if(0u != CySysClkEcoReadStatus())
1244:Generated_Source\PSoC4/CyLib.c ****                 {
1245:Generated_Source\PSoC4/CyLib.c ****                     returnStatus = CYRET_SUCCESS;
1246:Generated_Source\PSoC4/CyLib.c ****                     break;
1247:Generated_Source\PSoC4/CyLib.c ****                 }
1248:Generated_Source\PSoC4/CyLib.c ****             }
1249:Generated_Source\PSoC4/CyLib.c **** 
1250:Generated_Source\PSoC4/CyLib.c ****         }
ARM GAS  C:\Users\austc\AppData\Local\Temp\ccjGCJ7Y.s 			page 36


1251:Generated_Source\PSoC4/CyLib.c **** 
1252:Generated_Source\PSoC4/CyLib.c ****         return(returnStatus);
1253:Generated_Source\PSoC4/CyLib.c ****     }
1254:Generated_Source\PSoC4/CyLib.c **** 
1255:Generated_Source\PSoC4/CyLib.c **** 
1256:Generated_Source\PSoC4/CyLib.c ****     /*******************************************************************************
1257:Generated_Source\PSoC4/CyLib.c ****     * Function Name: CySysClkEcoStop
1258:Generated_Source\PSoC4/CyLib.c ****     ****************************************************************************//**
1259:Generated_Source\PSoC4/CyLib.c ****     *
1260:Generated_Source\PSoC4/CyLib.c ****     * Stops the megahertz crystal.
1261:Generated_Source\PSoC4/CyLib.c ****     *
1262:Generated_Source\PSoC4/CyLib.c ****     * If ECO is disabled when it is sourcing HFCLK, the CPU will halt. In addition,
1263:Generated_Source\PSoC4/CyLib.c ****     * for PSoC 4100 BLE / PSoC 4200 BLE devices, the BLE sub-system will stop
1264:Generated_Source\PSoC4/CyLib.c ****     * functioning.
1265:Generated_Source\PSoC4/CyLib.c ****     *
1266:Generated_Source\PSoC4/CyLib.c ****     *******************************************************************************/
1267:Generated_Source\PSoC4/CyLib.c ****     void CySysClkEcoStop(void)
1268:Generated_Source\PSoC4/CyLib.c ****     {
 729              		.loc 1 1268 0
 730              		.cfi_startproc
 731              		@ args = 0, pretend = 0, frame = 0
 732              		@ frame_needed = 0, uses_anonymous_args = 0
 733              		@ link register save eliminated.
1269:Generated_Source\PSoC4/CyLib.c ****         #if (CY_IP_WCO_BLESS)
1270:Generated_Source\PSoC4/CyLib.c ****             /* Disable the RF oscillator band gap */
1271:Generated_Source\PSoC4/CyLib.c ****             CY_SYS_XTAL_BLESS_RF_CONFIG_REG &= (uint32) ~CY_SYS_XTAL_BLESS_RF_CONFIG_RF_ENABLE;
1272:Generated_Source\PSoC4/CyLib.c **** 
1273:Generated_Source\PSoC4/CyLib.c ****             /* Disable the Crystal */
1274:Generated_Source\PSoC4/CyLib.c ****             CY_SYS_XTAL_BLERD_DBUS_REG &= (uint32) ~CY_SYS_XTAL_BLERD_DBUS_XTAL_ENABLE;
1275:Generated_Source\PSoC4/CyLib.c ****         #elif (CY_IP_ECO_BLESSV3)
1276:Generated_Source\PSoC4/CyLib.c ****             CY_SYS_BLESS_MT_CFG_REG &= ~(CY_SYS_BLESS_MT_CFG_DPSLP_ECO_ON  <<  CYFLD_BLE_BLESS_DPSL
1277:Generated_Source\PSoC4/CyLib.c ****         #else
1278:Generated_Source\PSoC4/CyLib.c ****             CY_SYS_CLK_ECO_CONFIG_REG &= (uint32) ~(CY_SYS_CLK_ECO_CONFIG_ENABLE | CY_SYS_CLK_ECO_C
 734              		.loc 1 1278 0
 735 0000 024A     		ldr	r2, .L65
 736 0002 1168     		ldr	r1, [r2]
 737 0004 024B     		ldr	r3, .L65+4
 738 0006 0B40     		ands	r3, r1
 739 0008 1360     		str	r3, [r2]
1279:Generated_Source\PSoC4/CyLib.c ****         #endif /* (CY_IP_WCO_BLESS) */
1280:Generated_Source\PSoC4/CyLib.c ****     }
 740              		.loc 1 1280 0
 741              		@ sp needed
 742 000a 7047     		bx	lr
 743              	.L66:
 744              		.align	2
 745              	.L65:
 746 000c 08000C40 		.word	1074528264
 747 0010 FEFFFF7F 		.word	2147483646
 748              		.cfi_endproc
 749              	.LFE15:
 750              		.size	CySysClkEcoStop, .-CySysClkEcoStop
 751              		.section	.text.CySysClkEcoReadStatus,"ax",%progbits
 752              		.align	2
 753              		.global	CySysClkEcoReadStatus
 754              		.code	16
 755              		.thumb_func
ARM GAS  C:\Users\austc\AppData\Local\Temp\ccjGCJ7Y.s 			page 37


 756              		.type	CySysClkEcoReadStatus, %function
 757              	CySysClkEcoReadStatus:
 758              	.LFB16:
1281:Generated_Source\PSoC4/CyLib.c **** 
1282:Generated_Source\PSoC4/CyLib.c **** 
1283:Generated_Source\PSoC4/CyLib.c ****     /*******************************************************************************
1284:Generated_Source\PSoC4/CyLib.c ****     * Function Name: CySysClkEcoReadStatus
1285:Generated_Source\PSoC4/CyLib.c ****     ****************************************************************************//**
1286:Generated_Source\PSoC4/CyLib.c ****     *
1287:Generated_Source\PSoC4/CyLib.c ****     * Reads the status bit for the megahertz crystal.
1288:Generated_Source\PSoC4/CyLib.c ****     *
1289:Generated_Source\PSoC4/CyLib.c ****     * For PSoC 4100 BLE / PSoC 4200 BLE devices, the status bit is the
1290:Generated_Source\PSoC4/CyLib.c ****     * XO_AMP_DETECT bit in FSM register.
1291:Generated_Source\PSoC4/CyLib.c ****     *
1292:Generated_Source\PSoC4/CyLib.c ****     * For PSoC 4200L / 4100S with ECO devices, the error status bit is the 
1293:Generated_Source\PSoC4/CyLib.c ****     * WATCHDOG_ERROR bit in ECO_STATUS register.
1294:Generated_Source\PSoC4/CyLib.c ****     *
1295:Generated_Source\PSoC4/CyLib.c ****     * \return PSoC 4100 BLE/PSoC 4200 BLE: Non-zero indicates that ECO output
1296:Generated_Source\PSoC4/CyLib.c ****     * reached 50 ppm and is oscillating in valid range.
1297:Generated_Source\PSoC4/CyLib.c ****     *
1298:Generated_Source\PSoC4/CyLib.c ****     * \return PSoC 4200L / 4100S with ECO: Non-zero indicates that ECO is running.
1299:Generated_Source\PSoC4/CyLib.c ****     *
1300:Generated_Source\PSoC4/CyLib.c ****     *******************************************************************************/
1301:Generated_Source\PSoC4/CyLib.c ****     uint32 CySysClkEcoReadStatus(void)
1302:Generated_Source\PSoC4/CyLib.c ****     {
 759              		.loc 1 1302 0
 760              		.cfi_startproc
 761              		@ args = 0, pretend = 0, frame = 0
 762              		@ frame_needed = 0, uses_anonymous_args = 0
 763              		@ link register save eliminated.
1303:Generated_Source\PSoC4/CyLib.c ****         uint32 returnValue;
1304:Generated_Source\PSoC4/CyLib.c **** 
1305:Generated_Source\PSoC4/CyLib.c ****         #if (CY_IP_WCO_BLESS)
1306:Generated_Source\PSoC4/CyLib.c ****             returnValue = CY_SYS_XTAL_BLERD_FSM_REG & CY_SYS_XTAL_BLERD_FSM_XO_AMP_DETECT;
1307:Generated_Source\PSoC4/CyLib.c ****         #elif (CY_IP_ECO_BLESSV3)
1308:Generated_Source\PSoC4/CyLib.c ****             returnValue = (CY_SYS_BLESS_MT_STATUS_REG & CY_SYS_BLESS_MT_STATUS_CURR_STATE_MASK) >> 
1309:Generated_Source\PSoC4/CyLib.c **** 
1310:Generated_Source\PSoC4/CyLib.c ****             returnValue =  ((CY_SYS_BLESS_MT_STATUS_BLERD_IDLE == returnValue) || 
1311:Generated_Source\PSoC4/CyLib.c ****                             (CY_SYS_BLESS_MT_STATUS_SWITCH_EN  == returnValue) ||
1312:Generated_Source\PSoC4/CyLib.c ****                             (CY_SYS_BLESS_MT_STATUS_ACTIVE  ==  returnValue) ||
1313:Generated_Source\PSoC4/CyLib.c ****                             (CY_SYS_BLESS_MT_STATUS_ISOLATE == returnValue));
1314:Generated_Source\PSoC4/CyLib.c ****         #else
1315:Generated_Source\PSoC4/CyLib.c ****             returnValue = (0u != (CY_SYS_CLK_ECO_STATUS_REG & CY_SYS_CLK_ECO_STATUS_WATCHDOG_ERROR)
 764              		.loc 1 1315 0
 765 0000 034B     		ldr	r3, .L68
 766 0002 1B68     		ldr	r3, [r3]
 767 0004 0120     		movs	r0, #1
 768 0006 1840     		ands	r0, r3
 769 0008 4342     		rsbs	r3, r0, #0
 770 000a 5841     		adcs	r0, r0, r3
 771 000c C0B2     		uxtb	r0, r0
 772              	.LVL43:
1316:Generated_Source\PSoC4/CyLib.c ****         #endif /* (CY_IP_WCO_BLESS) */
1317:Generated_Source\PSoC4/CyLib.c **** 
1318:Generated_Source\PSoC4/CyLib.c ****         return (returnValue);
1319:Generated_Source\PSoC4/CyLib.c ****     }
 773              		.loc 1 1319 0
ARM GAS  C:\Users\austc\AppData\Local\Temp\ccjGCJ7Y.s 			page 38


 774              		@ sp needed
 775 000e 7047     		bx	lr
 776              	.L69:
 777              		.align	2
 778              	.L68:
 779 0010 0C000C40 		.word	1074528268
 780              		.cfi_endproc
 781              	.LFE16:
 782              		.size	CySysClkEcoReadStatus, .-CySysClkEcoReadStatus
 783              		.section	.text.CySysClkConfigureEcoTrim,"ax",%progbits
 784              		.align	2
 785              		.global	CySysClkConfigureEcoTrim
 786              		.code	16
 787              		.thumb_func
 788              		.type	CySysClkConfigureEcoTrim, %function
 789              	CySysClkConfigureEcoTrim:
 790              	.LFB17:
1320:Generated_Source\PSoC4/CyLib.c **** 
1321:Generated_Source\PSoC4/CyLib.c ****     #if (CY_IP_ECO_BLESS || CY_IP_ECO_BLESSV3)
1322:Generated_Source\PSoC4/CyLib.c ****         /*******************************************************************************
1323:Generated_Source\PSoC4/CyLib.c ****         * Function Name: CySysClkWriteEcoDiv
1324:Generated_Source\PSoC4/CyLib.c ****         ****************************************************************************//**
1325:Generated_Source\PSoC4/CyLib.c ****         *
1326:Generated_Source\PSoC4/CyLib.c ****         * Selects value for the ECO divider.
1327:Generated_Source\PSoC4/CyLib.c ****         *
1328:Generated_Source\PSoC4/CyLib.c ****         * The ECO must not be the HFCLK clock source when this function is called.
1329:Generated_Source\PSoC4/CyLib.c ****         * The HFCLK source can be changed to the other clock source by call to the
1330:Generated_Source\PSoC4/CyLib.c ****         * CySysClkWriteHfclkDirect() function. If the ECO sources the HFCLK this
1331:Generated_Source\PSoC4/CyLib.c ****         * function will not have any effect if compiler in release mode, and halt the
1332:Generated_Source\PSoC4/CyLib.c ****         * CPU when compiler in debug mode.
1333:Generated_Source\PSoC4/CyLib.c ****         *
1334:Generated_Source\PSoC4/CyLib.c ****         * If the SYSCLK clock frequency increases during the device operation, call
1335:Generated_Source\PSoC4/CyLib.c ****         * CySysFlashSetWaitCycles() with the appropriate parameter to adjust the number
1336:Generated_Source\PSoC4/CyLib.c ****         * of clock cycles the cache will wait before sampling data comes back from
1337:Generated_Source\PSoC4/CyLib.c ****         * Flash. If the SYSCLK clock frequency decreases, you can call
1338:Generated_Source\PSoC4/CyLib.c ****         * CySysFlashSetWaitCycles() to improve the CPU performance. See
1339:Generated_Source\PSoC4/CyLib.c ****         * CySysFlashSetWaitCycles() description for more information.
1340:Generated_Source\PSoC4/CyLib.c ****         *
1341:Generated_Source\PSoC4/CyLib.c ****         * \param divider Power of 2 divider selection.
1342:Generated_Source\PSoC4/CyLib.c ****         * - \ref CY_SYS_CLK_ECO_DIV1
1343:Generated_Source\PSoC4/CyLib.c ****         * - \ref CY_SYS_CLK_ECO_DIV2
1344:Generated_Source\PSoC4/CyLib.c ****         * - \ref CY_SYS_CLK_ECO_DIV4
1345:Generated_Source\PSoC4/CyLib.c ****         * - \ref CY_SYS_CLK_ECO_DIV8
1346:Generated_Source\PSoC4/CyLib.c ****         *
1347:Generated_Source\PSoC4/CyLib.c ****         *******************************************************************************/
1348:Generated_Source\PSoC4/CyLib.c ****         void CySysClkWriteEcoDiv(uint32 divider)
1349:Generated_Source\PSoC4/CyLib.c ****         {
1350:Generated_Source\PSoC4/CyLib.c ****             uint8  interruptState;
1351:Generated_Source\PSoC4/CyLib.c **** 
1352:Generated_Source\PSoC4/CyLib.c ****             if (CY_SYS_CLK_HFCLK_ECO != (CY_SYS_CLK_SELECT_REG & CY_SYS_CLK_SELECT_DIRECT_SEL_MASK)
1353:Generated_Source\PSoC4/CyLib.c ****             {
1354:Generated_Source\PSoC4/CyLib.c ****                 interruptState = CyEnterCriticalSection();
1355:Generated_Source\PSoC4/CyLib.c **** 
1356:Generated_Source\PSoC4/CyLib.c ****                 CY_SYS_CLK_XTAL_CLK_DIV_CONFIG_REG =  (divider & CY_SYS_CLK_XTAL_CLK_DIV_MASK) |
1357:Generated_Source\PSoC4/CyLib.c ****                                                       (CY_SYS_CLK_XTAL_CLK_DIV_CONFIG_REG & ((uint3
1358:Generated_Source\PSoC4/CyLib.c **** 
1359:Generated_Source\PSoC4/CyLib.c ****                 CyExitCriticalSection(interruptState);
ARM GAS  C:\Users\austc\AppData\Local\Temp\ccjGCJ7Y.s 			page 39


1360:Generated_Source\PSoC4/CyLib.c ****             }
1361:Generated_Source\PSoC4/CyLib.c ****             else
1362:Generated_Source\PSoC4/CyLib.c ****             {
1363:Generated_Source\PSoC4/CyLib.c ****                 /* Halt CPU in debug mode if ECO sources HFCLK */
1364:Generated_Source\PSoC4/CyLib.c ****                 CYASSERT(0u != 0u);
1365:Generated_Source\PSoC4/CyLib.c ****             }
1366:Generated_Source\PSoC4/CyLib.c ****         }
1367:Generated_Source\PSoC4/CyLib.c **** 
1368:Generated_Source\PSoC4/CyLib.c ****     #else
1369:Generated_Source\PSoC4/CyLib.c **** 
1370:Generated_Source\PSoC4/CyLib.c ****         /*******************************************************************************
1371:Generated_Source\PSoC4/CyLib.c ****         * Function Name: CySysClkConfigureEcoTrim
1372:Generated_Source\PSoC4/CyLib.c ****         ****************************************************************************//**
1373:Generated_Source\PSoC4/CyLib.c ****         *
1374:Generated_Source\PSoC4/CyLib.c ****         * Selects trim setting values for ECO. This API is available only for PSoC
1375:Generated_Source\PSoC4/CyLib.c ****         * 4200L / 4100S with ECO devices only.
1376:Generated_Source\PSoC4/CyLib.c ****         *
1377:Generated_Source\PSoC4/CyLib.c ****         * The following parameters can be trimmed for ECO. The affected registers are
1378:Generated_Source\PSoC4/CyLib.c ****         * ECO_TRIM0 and ECO_TRIM1.
1379:Generated_Source\PSoC4/CyLib.c ****         *
1380:Generated_Source\PSoC4/CyLib.c ****         * Watchdog trim - This bit field sets the error threshold below the steady
1381:Generated_Source\PSoC4/CyLib.c ****         * state amplitude level.
1382:Generated_Source\PSoC4/CyLib.c ****         *
1383:Generated_Source\PSoC4/CyLib.c ****         * Amplitude trim - This bit field is to set the crystal drive level when
1384:Generated_Source\PSoC4/CyLib.c ****         * ECO_CONFIG.AGC_EN = 1. WARNING: use care when setting this field because
1385:Generated_Source\PSoC4/CyLib.c ****         * driving a crystal beyond its rated limit can permanently damage the crystal.
1386:Generated_Source\PSoC4/CyLib.c ****         *
1387:Generated_Source\PSoC4/CyLib.c ****         * Filter frequency trim - This bit field sets LPF frequency trim and affects
1388:Generated_Source\PSoC4/CyLib.c ****         * the 3rd harmonic content.
1389:Generated_Source\PSoC4/CyLib.c ****         *
1390:Generated_Source\PSoC4/CyLib.c ****         * Feedback resistor trim - This bit field sets the feedback resistor trim and
1391:Generated_Source\PSoC4/CyLib.c ****         * impacts the oscillation amplitude.
1392:Generated_Source\PSoC4/CyLib.c ****         *
1393:Generated_Source\PSoC4/CyLib.c ****         * Amplifier gain trim - This bit field sets the amplifier gain trim and affects
1394:Generated_Source\PSoC4/CyLib.c ****         * the startup time of the crystal.
1395:Generated_Source\PSoC4/CyLib.c ****         *
1396:Generated_Source\PSoC4/CyLib.c ****         * Use care when setting the amplitude trim field because driving a crystal
1397:Generated_Source\PSoC4/CyLib.c ****         * beyond its rated limit can permanently damage the crystal.
1398:Generated_Source\PSoC4/CyLib.c ****         *
1399:Generated_Source\PSoC4/CyLib.c ****         * \param wDTrim: Watchdog trim
1400:Generated_Source\PSoC4/CyLib.c ****         * - \ref CY_SYS_CLK_ECO_WDTRIM0      Error threshold is 0.05 V
1401:Generated_Source\PSoC4/CyLib.c ****         * - \ref CY_SYS_CLK_ECO_WDTRIM1      Error threshold is 0.10 V
1402:Generated_Source\PSoC4/CyLib.c ****         * - \ref CY_SYS_CLK_ECO_WDTRIM2      Error threshold is 0.15 V
1403:Generated_Source\PSoC4/CyLib.c ****         * - \ref CY_SYS_CLK_ECO_WDTRIM3      Error threshold is 0.20 V
1404:Generated_Source\PSoC4/CyLib.c ****         *
1405:Generated_Source\PSoC4/CyLib.c ****         * \param aTrim: Amplitude trim
1406:Generated_Source\PSoC4/CyLib.c ****         * - \ref CY_SYS_CLK_ECO_ATRIM0       Amplitude is 0.3 Vpp
1407:Generated_Source\PSoC4/CyLib.c ****         * - \ref CY_SYS_CLK_ECO_ATRIM1       Amplitude is 0.4 Vpp
1408:Generated_Source\PSoC4/CyLib.c ****         * - \ref CY_SYS_CLK_ECO_ATRIM2       Amplitude is 0.5 Vpp
1409:Generated_Source\PSoC4/CyLib.c ****         * - \ref CY_SYS_CLK_ECO_ATRIM3       Amplitude is 0.6 Vpp
1410:Generated_Source\PSoC4/CyLib.c ****         * - \ref CY_SYS_CLK_ECO_ATRIM4       Amplitude is 0.7 Vpp
1411:Generated_Source\PSoC4/CyLib.c ****         * - \ref CY_SYS_CLK_ECO_ATRIM5       Amplitude is 0.8 Vpp
1412:Generated_Source\PSoC4/CyLib.c ****         * - \ref CY_SYS_CLK_ECO_ATRIM6       Amplitude is 0.9 Vpp
1413:Generated_Source\PSoC4/CyLib.c ****         * - \ref CY_SYS_CLK_ECO_ATRIM7       Amplitude is 1.0 Vpp
1414:Generated_Source\PSoC4/CyLib.c ****         *
1415:Generated_Source\PSoC4/CyLib.c ****         * \param fTrim: Filter frequency trim
1416:Generated_Source\PSoC4/CyLib.c ****         * - \ref CY_SYS_CLK_ECO_FTRIM0       Crystal frequency > 30 MHz
ARM GAS  C:\Users\austc\AppData\Local\Temp\ccjGCJ7Y.s 			page 40


1417:Generated_Source\PSoC4/CyLib.c ****         * - \ref CY_SYS_CLK_ECO_FTRIM1       24 MHz < Crystal frequency <= 30 MHz
1418:Generated_Source\PSoC4/CyLib.c ****         * - \ref CY_SYS_CLK_ECO_FTRIM2       17 MHz < Crystal frequency <= 24 MHz
1419:Generated_Source\PSoC4/CyLib.c ****         * - \ref CY_SYS_CLK_ECO_FTRIM3       Crystal frequency <= 17 MHz
1420:Generated_Source\PSoC4/CyLib.c ****         *
1421:Generated_Source\PSoC4/CyLib.c ****         * \param rTrim: Feedback resistor trim
1422:Generated_Source\PSoC4/CyLib.c ****         * - \ref CY_SYS_CLK_ECO_RTRIM0       Crystal frequency > 30 MHz
1423:Generated_Source\PSoC4/CyLib.c ****         * - \ref CY_SYS_CLK_ECO_RTRIM1       24 MHz < Crystal frequency <= 30 MHz
1424:Generated_Source\PSoC4/CyLib.c ****         * - \ref CY_SYS_CLK_ECO_RTRIM2       17 MHz < Crystal frequency <= 24 MHz
1425:Generated_Source\PSoC4/CyLib.c ****         * - \ref CY_SYS_CLK_ECO_RTRIM3       Crystal frequency <= 17 MHz
1426:Generated_Source\PSoC4/CyLib.c ****         *
1427:Generated_Source\PSoC4/CyLib.c ****         * \param gTrim: Amplifier gain trim. Calculate the minimum required gm
1428:Generated_Source\PSoC4/CyLib.c ****         * (trans-conductance value). Divide the calculated gm value by 4.5 to
1429:Generated_Source\PSoC4/CyLib.c ****         * obtain an integer value 'result'. For more information please refer
1430:Generated_Source\PSoC4/CyLib.c ****         * to the device TRM.
1431:Generated_Source\PSoC4/CyLib.c ****         * - \ref CY_SYS_CLK_ECO_GTRIM0       If result = 1
1432:Generated_Source\PSoC4/CyLib.c ****         * - \ref CY_SYS_CLK_ECO_GTRIM1       If result = 0
1433:Generated_Source\PSoC4/CyLib.c ****         * - \ref CY_SYS_CLK_ECO_GTRIM2       If result = 2
1434:Generated_Source\PSoC4/CyLib.c ****         * - \ref CY_SYS_CLK_ECO_GTRIM2       If result = 3
1435:Generated_Source\PSoC4/CyLib.c ****         *
1436:Generated_Source\PSoC4/CyLib.c ****         *******************************************************************************/
1437:Generated_Source\PSoC4/CyLib.c ****         void CySysClkConfigureEcoTrim(uint32 wDTrim, uint32 aTrim, uint32 fTrim, uint32 rTrim, uint
1438:Generated_Source\PSoC4/CyLib.c ****         {
 791              		.loc 1 1438 0
 792              		.cfi_startproc
 793              		@ args = 4, pretend = 0, frame = 0
 794              		@ frame_needed = 0, uses_anonymous_args = 0
 795              	.LVL44:
 796 0000 F0B5     		push	{r4, r5, r6, r7, lr}
 797              		.cfi_def_cfa_offset 20
 798              		.cfi_offset 4, -20
 799              		.cfi_offset 5, -16
 800              		.cfi_offset 6, -12
 801              		.cfi_offset 7, -8
 802              		.cfi_offset 14, -4
 803 0002 4746     		mov	r7, r8
 804 0004 80B4     		push	{r7}
 805              		.cfi_def_cfa_offset 24
 806              		.cfi_offset 8, -24
 807 0006 0700     		movs	r7, r0
 808 0008 0D00     		movs	r5, r1
 809 000a 1600     		movs	r6, r2
 810 000c 9846     		mov	r8, r3
1439:Generated_Source\PSoC4/CyLib.c ****             uint8  interruptState;
1440:Generated_Source\PSoC4/CyLib.c ****             uint32 regTmp;
1441:Generated_Source\PSoC4/CyLib.c **** 
1442:Generated_Source\PSoC4/CyLib.c ****             interruptState = CyEnterCriticalSection();
 811              		.loc 1 1442 0
 812 000e FFF7FEFF 		bl	CyEnterCriticalSection
 813              	.LVL45:
1443:Generated_Source\PSoC4/CyLib.c **** 
1444:Generated_Source\PSoC4/CyLib.c ****             regTmp  = CY_SYS_CLK_ECO_TRIM0_REG & ~(CY_SYS_CLK_ECO_TRIM0_WDTRIM_MASK | CY_SYS_CLK_EC
 814              		.loc 1 1444 0
 815 0012 114A     		ldr	r2, .L71
 816 0014 1368     		ldr	r3, [r2]
 817 0016 1F21     		movs	r1, #31
 818 0018 8B43     		bics	r3, r1
 819              	.LVL46:
ARM GAS  C:\Users\austc\AppData\Local\Temp\ccjGCJ7Y.s 			page 41


1445:Generated_Source\PSoC4/CyLib.c ****             regTmp |= ((uint32) (wDTrim << CY_SYS_CLK_ECO_TRIM0_WDTRIM_SHIFT) & CY_SYS_CLK_ECO_TRIM
 820              		.loc 1 1445 0
 821 001a 0324     		movs	r4, #3
 822 001c 2740     		ands	r7, r4
 823              	.LVL47:
 824 001e 1F43     		orrs	r7, r3
 825              	.LVL48:
1446:Generated_Source\PSoC4/CyLib.c ****             regTmp |= ((uint32) (aTrim << CY_SYS_CLK_ECO_TRIM0_ATRIM_SHIFT) & CY_SYS_CLK_ECO_TRIM0_
 826              		.loc 1 1446 0
 827 0020 A900     		lsls	r1, r5, #2
 828 0022 1C25     		movs	r5, #28
 829              	.LVL49:
 830 0024 0D40     		ands	r5, r1
 831 0026 3D43     		orrs	r5, r7
 832              	.LVL50:
1447:Generated_Source\PSoC4/CyLib.c ****             CY_SYS_CLK_ECO_TRIM0_REG = regTmp;
 833              		.loc 1 1447 0
 834 0028 1560     		str	r5, [r2]
1448:Generated_Source\PSoC4/CyLib.c **** 
1449:Generated_Source\PSoC4/CyLib.c ****             regTmp  = CY_SYS_CLK_ECO_TRIM1_REG & ~(CY_SYS_CLK_ECO_TRIM1_FTRIM_MASK |
 835              		.loc 1 1449 0
 836 002a 0C4A     		ldr	r2, .L71+4
 837 002c 1368     		ldr	r3, [r2]
 838 002e 3F21     		movs	r1, #63
 839 0030 8B43     		bics	r3, r1
 840              	.LVL51:
1450:Generated_Source\PSoC4/CyLib.c ****                                                    CY_SYS_CLK_ECO_TRIM1_RTRIM_MASK |
1451:Generated_Source\PSoC4/CyLib.c ****                                                    CY_SYS_CLK_ECO_TRIM1_GTRIM_MASK);
1452:Generated_Source\PSoC4/CyLib.c ****             regTmp |= ((uint32) (fTrim << CY_SYS_CLK_ECO_TRIM1_FTRIM_SHIFT) & CY_SYS_CLK_ECO_TRIM1_
 841              		.loc 1 1452 0
 842 0032 2640     		ands	r6, r4
 843              	.LVL52:
 844 0034 3343     		orrs	r3, r6
 845              	.LVL53:
1453:Generated_Source\PSoC4/CyLib.c ****             regTmp |= ((uint32) (rTrim << CY_SYS_CLK_ECO_TRIM1_RTRIM_SHIFT) & CY_SYS_CLK_ECO_TRIM1_
 846              		.loc 1 1453 0
 847 0036 4146     		mov	r1, r8
 848 0038 8900     		lsls	r1, r1, #2
 849 003a 0934     		adds	r4, r4, #9
 850 003c 0C40     		ands	r4, r1
 851 003e 1C43     		orrs	r4, r3
 852              	.LVL54:
1454:Generated_Source\PSoC4/CyLib.c ****             regTmp |= ((uint32) (gTrim << CY_SYS_CLK_ECO_TRIM1_GTRIM_SHIFT) & CY_SYS_CLK_ECO_TRIM1_
 853              		.loc 1 1454 0
 854 0040 069B     		ldr	r3, [sp, #24]
 855 0042 1901     		lsls	r1, r3, #4
 856 0044 3023     		movs	r3, #48
 857 0046 1940     		ands	r1, r3
 858 0048 2300     		movs	r3, r4
 859 004a 0B43     		orrs	r3, r1
 860              	.LVL55:
1455:Generated_Source\PSoC4/CyLib.c **** 
1456:Generated_Source\PSoC4/CyLib.c ****             CY_SYS_CLK_ECO_TRIM1_REG = regTmp;
 861              		.loc 1 1456 0
 862 004c 1360     		str	r3, [r2]
1457:Generated_Source\PSoC4/CyLib.c **** 
1458:Generated_Source\PSoC4/CyLib.c ****             CyExitCriticalSection(interruptState);
ARM GAS  C:\Users\austc\AppData\Local\Temp\ccjGCJ7Y.s 			page 42


 863              		.loc 1 1458 0
 864 004e FFF7FEFF 		bl	CyExitCriticalSection
 865              	.LVL56:
1459:Generated_Source\PSoC4/CyLib.c ****         }
 866              		.loc 1 1459 0
 867              		@ sp needed
 868              	.LVL57:
 869 0052 04BC     		pop	{r2}
 870 0054 9046     		mov	r8, r2
 871 0056 F0BD     		pop	{r4, r5, r6, r7, pc}
 872              	.L72:
 873              		.align	2
 874              	.L71:
 875 0058 0CFF0C40 		.word	1074593548
 876 005c 10FF0C40 		.word	1074593552
 877              		.cfi_endproc
 878              	.LFE17:
 879              		.size	CySysClkConfigureEcoTrim, .-CySysClkConfigureEcoTrim
 880              		.global	__aeabi_uidiv
 881              		.section	.text.CySysClkConfigureEcoDrive,"ax",%progbits
 882              		.align	2
 883              		.global	CySysClkConfigureEcoDrive
 884              		.code	16
 885              		.thumb_func
 886              		.type	CySysClkConfigureEcoDrive, %function
 887              	CySysClkConfigureEcoDrive:
 888              	.LFB18:
1460:Generated_Source\PSoC4/CyLib.c **** 
1461:Generated_Source\PSoC4/CyLib.c **** 
1462:Generated_Source\PSoC4/CyLib.c ****         /*******************************************************************************
1463:Generated_Source\PSoC4/CyLib.c ****         * Function Name: CySysClkConfigureEcoDrive
1464:Generated_Source\PSoC4/CyLib.c ****         ****************************************************************************//**
1465:Generated_Source\PSoC4/CyLib.c ****         *
1466:Generated_Source\PSoC4/CyLib.c ****         * Selects trim setting values for ECO based on crystal parameters. Use care
1467:Generated_Source\PSoC4/CyLib.c ****         * when setting the driveLevel parameter because driving a crystal beyond its
1468:Generated_Source\PSoC4/CyLib.c ****         * rated limit can permanently damage the crystal.
1469:Generated_Source\PSoC4/CyLib.c ****         *
1470:Generated_Source\PSoC4/CyLib.c ****         * This API is available only for PSoC 4200L / 4100S with ECO devices only.
1471:Generated_Source\PSoC4/CyLib.c ****         *
1472:Generated_Source\PSoC4/CyLib.c ****         * \param freq Frequency of the crystal in kHz.
1473:Generated_Source\PSoC4/CyLib.c ****         * \param cLoad Crystal load capacitance in pF.
1474:Generated_Source\PSoC4/CyLib.c ****         * \param esr Equivalent series resistance of the crystal in ohm.
1475:Generated_Source\PSoC4/CyLib.c ****         *  maxAmplitude: maximum amplitude level in mV. Calculate as
1476:Generated_Source\PSoC4/CyLib.c ****         *  ((sqrt(driveLevel in uW / 2 / esr))/(3.14 * freq * cLoad)) * 10^9.
1477:Generated_Source\PSoC4/CyLib.c ****         *
1478:Generated_Source\PSoC4/CyLib.c ****         *  The Automatic Gain Control (AGC) is disabled when the specified maximum
1479:Generated_Source\PSoC4/CyLib.c ****         *  amplitude level equals or above 2. In this case the amplitude is not
1480:Generated_Source\PSoC4/CyLib.c ****         *  explicitly controlled and will grow until it saturates to the supply rail
1481:Generated_Source\PSoC4/CyLib.c ****         *  (1.8V nom). WARNING: use care when disabling AGC because driving a crystal
1482:Generated_Source\PSoC4/CyLib.c ****         *  beyond its rated limit can permanently damage the crystal.
1483:Generated_Source\PSoC4/CyLib.c ****         *
1484:Generated_Source\PSoC4/CyLib.c ****         * \return \ref CYRET_SUCCESS ECO configuration completed successfully.
1485:Generated_Source\PSoC4/CyLib.c ****         * \return \ref CYRET_BAD_PARAM One or more invalid parameters.
1486:Generated_Source\PSoC4/CyLib.c ****         *
1487:Generated_Source\PSoC4/CyLib.c ****         *******************************************************************************/
1488:Generated_Source\PSoC4/CyLib.c ****         cystatus CySysClkConfigureEcoDrive(uint32 freq, uint32 cLoad, uint32 esr, uint32 maxAmplitu
1489:Generated_Source\PSoC4/CyLib.c ****         {
ARM GAS  C:\Users\austc\AppData\Local\Temp\ccjGCJ7Y.s 			page 43


 889              		.loc 1 1489 0
 890              		.cfi_startproc
 891              		@ args = 0, pretend = 0, frame = 8
 892              		@ frame_needed = 0, uses_anonymous_args = 0
 893              	.LVL58:
 894 0000 F0B5     		push	{r4, r5, r6, r7, lr}
 895              		.cfi_def_cfa_offset 20
 896              		.cfi_offset 4, -20
 897              		.cfi_offset 5, -16
 898              		.cfi_offset 6, -12
 899              		.cfi_offset 7, -8
 900              		.cfi_offset 14, -4
 901 0002 5746     		mov	r7, r10
 902 0004 80B4     		push	{r7}
 903              		.cfi_def_cfa_offset 24
 904              		.cfi_offset 10, -24
 905 0006 84B0     		sub	sp, sp, #16
 906              		.cfi_def_cfa_offset 40
 907 0008 0600     		movs	r6, r0
 908 000a 0C00     		movs	r4, r1
 909 000c 1500     		movs	r5, r2
 910 000e 1F00     		movs	r7, r3
 911              	.LVL59:
1490:Generated_Source\PSoC4/CyLib.c ****             cystatus returnStatus = CYRET_SUCCESS;
1491:Generated_Source\PSoC4/CyLib.c **** 
1492:Generated_Source\PSoC4/CyLib.c ****             uint32 wDTrim;
1493:Generated_Source\PSoC4/CyLib.c ****             uint32 aTrim;
1494:Generated_Source\PSoC4/CyLib.c ****             uint32 fTrim;
1495:Generated_Source\PSoC4/CyLib.c ****             uint32 rTrim;
1496:Generated_Source\PSoC4/CyLib.c ****             uint32 gTrim;
1497:Generated_Source\PSoC4/CyLib.c **** 
1498:Generated_Source\PSoC4/CyLib.c ****             uint32 gmMin;
1499:Generated_Source\PSoC4/CyLib.c **** 
1500:Generated_Source\PSoC4/CyLib.c **** 
1501:Generated_Source\PSoC4/CyLib.c ****             if ((maxAmplitude < CY_SYS_CLK_ECO_MAX_AMPL_MIN_mV) ||
 912              		.loc 1 1501 0
 913 0010 F423     		movs	r3, #244
 914              	.LVL60:
 915 0012 FF33     		adds	r3, r3, #255
 916 0014 9F42     		cmp	r7, r3
 917 0016 00D8     		bhi	.LCB824
 918 0018 86E0     		b	.L80	@long jump
 919              	.LCB824:
 920              		.loc 1 1501 0 is_stmt 0 discriminator 1
 921 001a 484B     		ldr	r3, .L96
 922 001c 9842     		cmp	r0, r3
 923 001e 00D8     		bhi	.LCB827
 924 0020 84E0     		b	.L81	@long jump
 925              	.LCB827:
1502:Generated_Source\PSoC4/CyLib.c ****                 (freq < CY_SYS_CLK_ECO_FREQ_KHZ_MIN) || (freq > CY_SYS_CLK_ECO_FREQ_KHZ_MAX))
 926              		.loc 1 1502 0 is_stmt 1
 927 0022 474B     		ldr	r3, .L96+4
 928 0024 9842     		cmp	r0, r3
 929 0026 00D9     		bls	.LCB830
 930 0028 82E0     		b	.L82	@long jump
 931              	.LCB830:
1503:Generated_Source\PSoC4/CyLib.c ****             {
ARM GAS  C:\Users\austc\AppData\Local\Temp\ccjGCJ7Y.s 			page 44


1504:Generated_Source\PSoC4/CyLib.c ****                 returnStatus = CYRET_BAD_PARAM;
1505:Generated_Source\PSoC4/CyLib.c ****             }
1506:Generated_Source\PSoC4/CyLib.c ****             else
1507:Generated_Source\PSoC4/CyLib.c ****             {
1508:Generated_Source\PSoC4/CyLib.c ****                 /* Calculate amplitude trim */
1509:Generated_Source\PSoC4/CyLib.c ****                 aTrim = (maxAmplitude < CY_SYS_CLK_ECO_TRIM_BOUNDARY) ? ((maxAmplitude/100u) - 4u) 
1510:Generated_Source\PSoC4/CyLib.c **** 
1511:Generated_Source\PSoC4/CyLib.c ****                 if (maxAmplitude < CY_SYS_CLK_ECO_AMPL_FOR_ATRIM0)
 932              		.loc 1 1511 0 discriminator 4
 933 002a 464B     		ldr	r3, .L96+8
 934 002c 9F42     		cmp	r7, r3
 935 002e 14D9     		bls	.L83
1512:Generated_Source\PSoC4/CyLib.c ****                 {
1513:Generated_Source\PSoC4/CyLib.c ****                     aTrim = CY_SYS_CLK_ECO_ATRIM0;
1514:Generated_Source\PSoC4/CyLib.c ****                 }
1515:Generated_Source\PSoC4/CyLib.c ****                 else if (maxAmplitude < CY_SYS_CLK_ECO_AMPL_FOR_ATRIM1)
 936              		.loc 1 1515 0
 937 0030 454B     		ldr	r3, .L96+12
 938 0032 9F42     		cmp	r7, r3
 939 0034 14D9     		bls	.L84
1516:Generated_Source\PSoC4/CyLib.c ****                 {
1517:Generated_Source\PSoC4/CyLib.c ****                     aTrim = CY_SYS_CLK_ECO_ATRIM1;
1518:Generated_Source\PSoC4/CyLib.c ****                 }
1519:Generated_Source\PSoC4/CyLib.c ****                 else if (maxAmplitude < CY_SYS_CLK_ECO_AMPL_FOR_ATRIM2)
 940              		.loc 1 1519 0
 941 0036 454B     		ldr	r3, .L96+16
 942 0038 9F42     		cmp	r7, r3
 943 003a 14D9     		bls	.L85
1520:Generated_Source\PSoC4/CyLib.c ****                 {
1521:Generated_Source\PSoC4/CyLib.c ****                     aTrim = CY_SYS_CLK_ECO_ATRIM2;
1522:Generated_Source\PSoC4/CyLib.c ****                 }
1523:Generated_Source\PSoC4/CyLib.c ****                 else if (maxAmplitude < CY_SYS_CLK_ECO_AMPL_FOR_ATRIM3)
 944              		.loc 1 1523 0
 945 003c 444B     		ldr	r3, .L96+20
 946 003e 9F42     		cmp	r7, r3
 947 0040 14D9     		bls	.L86
1524:Generated_Source\PSoC4/CyLib.c ****                 {
1525:Generated_Source\PSoC4/CyLib.c ****                     aTrim = CY_SYS_CLK_ECO_ATRIM3;
1526:Generated_Source\PSoC4/CyLib.c ****                 }
1527:Generated_Source\PSoC4/CyLib.c ****                 else if (maxAmplitude < CY_SYS_CLK_ECO_AMPL_FOR_ATRIM4)
 948              		.loc 1 1527 0
 949 0042 7D33     		adds	r3, r3, #125
 950 0044 9F42     		cmp	r7, r3
 951 0046 14D9     		bls	.L87
1528:Generated_Source\PSoC4/CyLib.c ****                 {
1529:Generated_Source\PSoC4/CyLib.c ****                     aTrim = CY_SYS_CLK_ECO_ATRIM4;
1530:Generated_Source\PSoC4/CyLib.c ****                 }
1531:Generated_Source\PSoC4/CyLib.c ****                 else if (maxAmplitude < CY_SYS_CLK_ECO_AMPL_FOR_ATRIM5)
 952              		.loc 1 1531 0
 953 0048 424B     		ldr	r3, .L96+24
 954 004a 9F42     		cmp	r7, r3
 955 004c 14D9     		bls	.L88
1532:Generated_Source\PSoC4/CyLib.c ****                 {
1533:Generated_Source\PSoC4/CyLib.c ****                     aTrim = CY_SYS_CLK_ECO_ATRIM5;
1534:Generated_Source\PSoC4/CyLib.c ****                 }
1535:Generated_Source\PSoC4/CyLib.c ****                 else if (maxAmplitude < CY_SYS_CLK_ECO_AMPL_FOR_ATRIM6)
 956              		.loc 1 1535 0
ARM GAS  C:\Users\austc\AppData\Local\Temp\ccjGCJ7Y.s 			page 45


 957 004e 424B     		ldr	r3, .L96+28
 958 0050 9F42     		cmp	r7, r3
 959 0052 14D8     		bhi	.L89
1536:Generated_Source\PSoC4/CyLib.c ****                 {
1537:Generated_Source\PSoC4/CyLib.c ****                     aTrim = CY_SYS_CLK_ECO_ATRIM6;
 960              		.loc 1 1537 0
 961 0054 0623     		movs	r3, #6
 962 0056 0393     		str	r3, [sp, #12]
 963 0058 13E0     		b	.L75
 964              	.L83:
1513:Generated_Source\PSoC4/CyLib.c ****                 }
 965              		.loc 1 1513 0
 966 005a 0023     		movs	r3, #0
 967 005c 0393     		str	r3, [sp, #12]
 968 005e 10E0     		b	.L75
 969              	.L84:
1517:Generated_Source\PSoC4/CyLib.c ****                 }
 970              		.loc 1 1517 0
 971 0060 0123     		movs	r3, #1
 972 0062 0393     		str	r3, [sp, #12]
 973 0064 0DE0     		b	.L75
 974              	.L85:
1521:Generated_Source\PSoC4/CyLib.c ****                 }
 975              		.loc 1 1521 0
 976 0066 0223     		movs	r3, #2
 977 0068 0393     		str	r3, [sp, #12]
 978 006a 0AE0     		b	.L75
 979              	.L86:
1525:Generated_Source\PSoC4/CyLib.c ****                 }
 980              		.loc 1 1525 0
 981 006c 0323     		movs	r3, #3
 982 006e 0393     		str	r3, [sp, #12]
 983 0070 07E0     		b	.L75
 984              	.L87:
1529:Generated_Source\PSoC4/CyLib.c ****                 }
 985              		.loc 1 1529 0
 986 0072 0423     		movs	r3, #4
 987 0074 0393     		str	r3, [sp, #12]
 988 0076 04E0     		b	.L75
 989              	.L88:
1533:Generated_Source\PSoC4/CyLib.c ****                 }
 990              		.loc 1 1533 0
 991 0078 0523     		movs	r3, #5
 992 007a 0393     		str	r3, [sp, #12]
 993 007c 01E0     		b	.L75
 994              	.L89:
1538:Generated_Source\PSoC4/CyLib.c ****                 }
1539:Generated_Source\PSoC4/CyLib.c ****                 else
1540:Generated_Source\PSoC4/CyLib.c ****                 {
1541:Generated_Source\PSoC4/CyLib.c ****                     aTrim = CY_SYS_CLK_ECO_ATRIM7;
 995              		.loc 1 1541 0
 996 007e 0723     		movs	r3, #7
 997 0080 0393     		str	r3, [sp, #12]
 998              	.L75:
 999              	.LVL61:
1542:Generated_Source\PSoC4/CyLib.c ****                 }
1543:Generated_Source\PSoC4/CyLib.c **** 
ARM GAS  C:\Users\austc\AppData\Local\Temp\ccjGCJ7Y.s 			page 46


1544:Generated_Source\PSoC4/CyLib.c ****                 /* Calculate Watchdog trim. */
1545:Generated_Source\PSoC4/CyLib.c ****                 wDTrim = (maxAmplitude < CY_SYS_CLK_ECO_TRIM_BOUNDARY) ? ((maxAmplitude/200u) - 2u)
 1000              		.loc 1 1545 0
 1001 0082 364B     		ldr	r3, .L96+32
 1002 0084 9F42     		cmp	r7, r3
 1003 0086 06D8     		bhi	.L90
 1004              		.loc 1 1545 0 is_stmt 0 discriminator 1
 1005 0088 C821     		movs	r1, #200
 1006              	.LVL62:
 1007 008a 3800     		movs	r0, r7
 1008              	.LVL63:
 1009 008c FFF7FEFF 		bl	__aeabi_uidiv
 1010              	.LVL64:
 1011 0090 831E     		subs	r3, r0, #2
 1012 0092 0293     		str	r3, [sp, #8]
 1013 0094 01E0     		b	.L76
 1014              	.LVL65:
 1015              	.L90:
 1016              		.loc 1 1545 0
 1017 0096 0323     		movs	r3, #3
 1018 0098 0293     		str	r3, [sp, #8]
 1019              	.LVL66:
 1020              	.L76:
1546:Generated_Source\PSoC4/CyLib.c **** 
1547:Generated_Source\PSoC4/CyLib.c ****                 /* Calculate amplifier gain trim. */
1548:Generated_Source\PSoC4/CyLib.c ****                 gmMin = (uint32) (((((CY_SYS_CLK_ECO_GMMIN_COEFFICIENT * freq * cLoad) / 1000) * ((
 1021              		.loc 1 1548 0 is_stmt 1 discriminator 4
 1022 009a 7443     		muls	r4, r6
 1023              	.LVL67:
 1024 009c A000     		lsls	r0, r4, #2
 1025 009e 0019     		adds	r0, r0, r4
 1026 00a0 0301     		lsls	r3, r0, #4
 1027 00a2 181B     		subs	r0, r3, r4
 1028 00a4 FA21     		movs	r1, #250
 1029 00a6 8900     		lsls	r1, r1, #2
 1030 00a8 FFF7FEFF 		bl	__aeabi_uidiv
 1031              	.LVL68:
 1032 00ac 8246     		mov	r10, r0
 1033 00ae 2800     		movs	r0, r5
 1034 00b0 6043     		muls	r0, r4
 1035 00b2 FA21     		movs	r1, #250
 1036 00b4 8900     		lsls	r1, r1, #2
 1037 00b6 FFF7FEFF 		bl	__aeabi_uidiv
 1038              	.LVL69:
 1039 00ba 5346     		mov	r3, r10
 1040 00bc 5843     		muls	r0, r3
 1041 00be 2849     		ldr	r1, .L96+36
 1042 00c0 FFF7FEFF 		bl	__aeabi_uidiv
 1043              	.LVL70:
1549:Generated_Source\PSoC4/CyLib.c ****                 if (gmMin > 3u)
 1044              		.loc 1 1549 0 discriminator 4
 1045 00c4 0328     		cmp	r0, #3
 1046 00c6 07D8     		bhi	.L91
1550:Generated_Source\PSoC4/CyLib.c ****                 {
1551:Generated_Source\PSoC4/CyLib.c ****                     returnStatus = CYRET_BAD_PARAM;
1552:Generated_Source\PSoC4/CyLib.c ****                     gTrim = 0u;
1553:Generated_Source\PSoC4/CyLib.c ****                 }
ARM GAS  C:\Users\austc\AppData\Local\Temp\ccjGCJ7Y.s 			page 47


1554:Generated_Source\PSoC4/CyLib.c ****                 else if (gmMin > 1u)
 1047              		.loc 1 1554 0
 1048 00c8 0128     		cmp	r0, #1
 1049 00ca 08D8     		bhi	.L92
1555:Generated_Source\PSoC4/CyLib.c ****                 {
1556:Generated_Source\PSoC4/CyLib.c ****                     gTrim = gmMin;
1557:Generated_Source\PSoC4/CyLib.c ****                 }
1558:Generated_Source\PSoC4/CyLib.c ****                 else
1559:Generated_Source\PSoC4/CyLib.c ****                 {
1560:Generated_Source\PSoC4/CyLib.c ****                     gTrim = (gmMin == 1u) ? 0u : 1u;
 1050              		.loc 1 1560 0
 1051 00cc 0138     		subs	r0, r0, #1
 1052              	.LVL71:
 1053 00ce 431E     		subs	r3, r0, #1
 1054 00d0 9841     		sbcs	r0, r0, r3
 1055              	.LVL72:
 1056 00d2 C0B2     		uxtb	r0, r0
 1057              	.LVL73:
1490:Generated_Source\PSoC4/CyLib.c **** 
 1058              		.loc 1 1490 0
 1059 00d4 0024     		movs	r4, #0
 1060 00d6 03E0     		b	.L77
 1061              	.LVL74:
 1062              	.L91:
1552:Generated_Source\PSoC4/CyLib.c ****                 }
 1063              		.loc 1 1552 0
 1064 00d8 0020     		movs	r0, #0
 1065              	.LVL75:
1551:Generated_Source\PSoC4/CyLib.c ****                     gTrim = 0u;
 1066              		.loc 1 1551 0
 1067 00da 0124     		movs	r4, #1
 1068 00dc 00E0     		b	.L77
 1069              	.LVL76:
 1070              	.L92:
1490:Generated_Source\PSoC4/CyLib.c **** 
 1071              		.loc 1 1490 0
 1072 00de 0024     		movs	r4, #0
 1073              	.LVL77:
 1074              	.L77:
1561:Generated_Source\PSoC4/CyLib.c ****                 }
1562:Generated_Source\PSoC4/CyLib.c **** 
1563:Generated_Source\PSoC4/CyLib.c ****                 /* Calculate feedback resistor trim */
1564:Generated_Source\PSoC4/CyLib.c ****                 if (freq > CY_SYS_CLK_ECO_FREQ_FOR_FTRIM0)
 1075              		.loc 1 1564 0
 1076 00e0 204B     		ldr	r3, .L96+40
 1077 00e2 9E42     		cmp	r6, r3
 1078 00e4 07D8     		bhi	.L93
1565:Generated_Source\PSoC4/CyLib.c ****                 {
1566:Generated_Source\PSoC4/CyLib.c ****                     rTrim = CY_SYS_CLK_ECO_FTRIM0;
1567:Generated_Source\PSoC4/CyLib.c ****                 }
1568:Generated_Source\PSoC4/CyLib.c ****                 else if (freq > CY_SYS_CLK_ECO_FREQ_FOR_FTRIM1)
 1079              		.loc 1 1568 0
 1080 00e6 204B     		ldr	r3, .L96+44
 1081 00e8 9E42     		cmp	r6, r3
 1082 00ea 06D8     		bhi	.L94
1569:Generated_Source\PSoC4/CyLib.c ****                 {
1570:Generated_Source\PSoC4/CyLib.c ****                     rTrim = CY_SYS_CLK_ECO_FTRIM1;
ARM GAS  C:\Users\austc\AppData\Local\Temp\ccjGCJ7Y.s 			page 48


1571:Generated_Source\PSoC4/CyLib.c ****                 }
1572:Generated_Source\PSoC4/CyLib.c ****                 else if (freq > CY_SYS_CLK_ECO_FREQ_FOR_FTRIM2)
 1083              		.loc 1 1572 0
 1084 00ec 1F4B     		ldr	r3, .L96+48
 1085 00ee 9E42     		cmp	r6, r3
 1086 00f0 05D9     		bls	.L95
1573:Generated_Source\PSoC4/CyLib.c ****                 {
1574:Generated_Source\PSoC4/CyLib.c ****                     rTrim = CY_SYS_CLK_ECO_FTRIM2;
 1087              		.loc 1 1574 0
 1088 00f2 0222     		movs	r2, #2
 1089 00f4 04E0     		b	.L78
 1090              	.L93:
1566:Generated_Source\PSoC4/CyLib.c ****                 }
 1091              		.loc 1 1566 0
 1092 00f6 0022     		movs	r2, #0
 1093 00f8 02E0     		b	.L78
 1094              	.L94:
1570:Generated_Source\PSoC4/CyLib.c ****                 }
 1095              		.loc 1 1570 0
 1096 00fa 0122     		movs	r2, #1
 1097 00fc 00E0     		b	.L78
 1098              	.L95:
1575:Generated_Source\PSoC4/CyLib.c ****                 }
1576:Generated_Source\PSoC4/CyLib.c ****                 else
1577:Generated_Source\PSoC4/CyLib.c ****                 {
1578:Generated_Source\PSoC4/CyLib.c ****                     rTrim = CY_SYS_CLK_ECO_FTRIM3;
 1099              		.loc 1 1578 0
 1100 00fe 0322     		movs	r2, #3
 1101              	.L78:
 1102              	.LVL78:
1579:Generated_Source\PSoC4/CyLib.c ****                 }
1580:Generated_Source\PSoC4/CyLib.c **** 
1581:Generated_Source\PSoC4/CyLib.c ****                 /* Calculate filter frequency trim */
1582:Generated_Source\PSoC4/CyLib.c ****                 fTrim = rTrim;
1583:Generated_Source\PSoC4/CyLib.c **** 
1584:Generated_Source\PSoC4/CyLib.c ****                 CySysClkConfigureEcoTrim(wDTrim, aTrim, fTrim, rTrim, gTrim);
 1103              		.loc 1 1584 0
 1104 0100 0090     		str	r0, [sp]
 1105 0102 1300     		movs	r3, r2
 1106 0104 0399     		ldr	r1, [sp, #12]
 1107 0106 0298     		ldr	r0, [sp, #8]
 1108              	.LVL79:
 1109 0108 FFF7FEFF 		bl	CySysClkConfigureEcoTrim
 1110              	.LVL80:
1585:Generated_Source\PSoC4/CyLib.c **** 
1586:Generated_Source\PSoC4/CyLib.c ****                 /* Automatic Gain Control (AGC) enable */
1587:Generated_Source\PSoC4/CyLib.c ****                 if (maxAmplitude < 2u)
 1111              		.loc 1 1587 0
 1112 010c 012F     		cmp	r7, #1
 1113 010e 05D8     		bhi	.L79
1588:Generated_Source\PSoC4/CyLib.c ****                 {
1589:Generated_Source\PSoC4/CyLib.c ****                     /* The oscillation amplitude is controlled to the level selected by amplitude t
1590:Generated_Source\PSoC4/CyLib.c ****                     CY_SYS_CLK_ECO_CONFIG_REG |= CY_SYS_CLK_ECO_CONFIG_AGC_EN;
 1114              		.loc 1 1590 0
 1115 0110 174A     		ldr	r2, .L96+52
 1116 0112 1168     		ldr	r1, [r2]
 1117 0114 0223     		movs	r3, #2
ARM GAS  C:\Users\austc\AppData\Local\Temp\ccjGCJ7Y.s 			page 49


 1118 0116 0B43     		orrs	r3, r1
 1119 0118 1360     		str	r3, [r2]
 1120              	.LVL81:
 1121 011a 0AE0     		b	.L74
 1122              	.LVL82:
 1123              	.L79:
1591:Generated_Source\PSoC4/CyLib.c ****                 }
1592:Generated_Source\PSoC4/CyLib.c ****                 else
1593:Generated_Source\PSoC4/CyLib.c ****                 {
1594:Generated_Source\PSoC4/CyLib.c ****                     /* The amplitude is not explicitly controlled and will grow until it saturates 
1595:Generated_Source\PSoC4/CyLib.c ****                     * supply rail (1.8V nom).
1596:Generated_Source\PSoC4/CyLib.c ****                     */
1597:Generated_Source\PSoC4/CyLib.c ****                     CY_SYS_CLK_ECO_CONFIG_REG &= (uint32) ~CY_SYS_CLK_ECO_CONFIG_AGC_EN;
 1124              		.loc 1 1597 0
 1125 011c 144A     		ldr	r2, .L96+52
 1126 011e 1368     		ldr	r3, [r2]
 1127 0120 0221     		movs	r1, #2
 1128 0122 8B43     		bics	r3, r1
 1129 0124 1360     		str	r3, [r2]
 1130              	.LVL83:
 1131 0126 04E0     		b	.L74
 1132              	.LVL84:
 1133              	.L80:
1504:Generated_Source\PSoC4/CyLib.c ****             }
 1134              		.loc 1 1504 0
 1135 0128 0124     		movs	r4, #1
 1136 012a 02E0     		b	.L74
 1137              	.L81:
 1138 012c 0124     		movs	r4, #1
 1139 012e 00E0     		b	.L74
 1140              	.L82:
 1141 0130 0124     		movs	r4, #1
 1142              	.LVL85:
 1143              	.L74:
1598:Generated_Source\PSoC4/CyLib.c ****                 }
1599:Generated_Source\PSoC4/CyLib.c ****             }
1600:Generated_Source\PSoC4/CyLib.c **** 
1601:Generated_Source\PSoC4/CyLib.c ****             return (returnStatus);
1602:Generated_Source\PSoC4/CyLib.c ****         }
 1144              		.loc 1 1602 0
 1145 0132 2000     		movs	r0, r4
 1146 0134 04B0     		add	sp, sp, #16
 1147              		@ sp needed
 1148              	.LVL86:
 1149              	.LVL87:
 1150              	.LVL88:
 1151              	.LVL89:
 1152 0136 04BC     		pop	{r2}
 1153 0138 9246     		mov	r10, r2
 1154 013a F0BD     		pop	{r4, r5, r6, r7, pc}
 1155              	.L97:
 1156              		.align	2
 1157              	.L96:
 1158 013c 9F0F0000 		.word	3999
 1159 0140 35820000 		.word	33333
 1160 0144 57020000 		.word	599
 1161 0148 BB020000 		.word	699
ARM GAS  C:\Users\austc\AppData\Local\Temp\ccjGCJ7Y.s 			page 50


 1162 014c 1F030000 		.word	799
 1163 0150 83030000 		.word	899
 1164 0154 7D040000 		.word	1149
 1165 0158 FA040000 		.word	1274
 1166 015c AF040000 		.word	1199
 1167 0160 8074D21A 		.word	450000000
 1168 0164 30750000 		.word	30000
 1169 0168 C05D0000 		.word	24000
 1170 016c 68420000 		.word	17000
 1171 0170 08000C40 		.word	1074528264
 1172              		.cfi_endproc
 1173              	.LFE18:
 1174              		.size	CySysClkConfigureEcoDrive, .-CySysClkConfigureEcoDrive
 1175              		.section	.text.CySysClkPllStop,"ax",%progbits
 1176              		.align	2
 1177              		.global	CySysClkPllStop
 1178              		.code	16
 1179              		.thumb_func
 1180              		.type	CySysClkPllStop, %function
 1181              	CySysClkPllStop:
 1182              	.LFB21:
1603:Generated_Source\PSoC4/CyLib.c **** 
1604:Generated_Source\PSoC4/CyLib.c ****     #endif /* CY_IP_ECO_BLESS */
1605:Generated_Source\PSoC4/CyLib.c **** 
1606:Generated_Source\PSoC4/CyLib.c **** #endif /* (CY_IP_ECO) */
1607:Generated_Source\PSoC4/CyLib.c **** 
1608:Generated_Source\PSoC4/CyLib.c **** 
1609:Generated_Source\PSoC4/CyLib.c **** #if (CY_IP_PLL)
1610:Generated_Source\PSoC4/CyLib.c ****     /*******************************************************************************
1611:Generated_Source\PSoC4/CyLib.c ****     * Function Name: CySysClkPllStart
1612:Generated_Source\PSoC4/CyLib.c ****     ****************************************************************************//**
1613:Generated_Source\PSoC4/CyLib.c ****     *
1614:Generated_Source\PSoC4/CyLib.c ****     * Enables the PLL. Optionally waits for it to become stable. Waits at least
1615:Generated_Source\PSoC4/CyLib.c ****     * 250 us or until it is detected that the PLL is stable.
1616:Generated_Source\PSoC4/CyLib.c ****     *
1617:Generated_Source\PSoC4/CyLib.c ****     * Clears the unlock occurred status bit by calling CySysClkPllGetUnlockStatus(),
1618:Generated_Source\PSoC4/CyLib.c ****     * once the PLL is locked if the wait parameter is 1).
1619:Generated_Source\PSoC4/CyLib.c ****     *
1620:Generated_Source\PSoC4/CyLib.c ****     * This API is available only for PSoC 4200L / 4100S with PLL devices.
1621:Generated_Source\PSoC4/CyLib.c ****     *
1622:Generated_Source\PSoC4/CyLib.c ****     * \param PLL:
1623:Generated_Source\PSoC4/CyLib.c ****     * 0   PLL#0
1624:Generated_Source\PSoC4/CyLib.c ****     * 1   PLL#1 (available only for PSoC 4200L)
1625:Generated_Source\PSoC4/CyLib.c ****     *
1626:Generated_Source\PSoC4/CyLib.c ****     * \param wait:
1627:Generated_Source\PSoC4/CyLib.c ****     * 0 - Return immediately after configuration.
1628:Generated_Source\PSoC4/CyLib.c ****     * 1 - Wait for PLL lock or timeout. This API shall use the CyDelayUs() to
1629:Generated_Source\PSoC4/CyLib.c ****     * implement the timeout feature.
1630:Generated_Source\PSoC4/CyLib.c ****     *
1631:Generated_Source\PSoC4/CyLib.c ****     * \return CYRET_SUCCESS Completed successfully.
1632:Generated_Source\PSoC4/CyLib.c ****     * \return CYRET_TIMEOUT The timeout occurred without detecting a stable clock.
1633:Generated_Source\PSoC4/CyLib.c ****     * If the input source of the clock is jittery, then the lock indication may
1634:Generated_Source\PSoC4/CyLib.c ****     * not occur. However, after the timeout has expired, the generated PLL clock can
1635:Generated_Source\PSoC4/CyLib.c ****     * still be used.
1636:Generated_Source\PSoC4/CyLib.c ****     * \return CYRET_BAD_PARAM - Either the PLL or wait parameter is invalid.
1637:Generated_Source\PSoC4/CyLib.c ****     *
1638:Generated_Source\PSoC4/CyLib.c ****     *******************************************************************************/
ARM GAS  C:\Users\austc\AppData\Local\Temp\ccjGCJ7Y.s 			page 51


1639:Generated_Source\PSoC4/CyLib.c ****     cystatus CySysClkPllStart(uint32 pll, uint32 wait)
1640:Generated_Source\PSoC4/CyLib.c ****     {
1641:Generated_Source\PSoC4/CyLib.c ****         uint32 counts = CY_SYS_CLK_PLL_MAX_STARTUP_US;
1642:Generated_Source\PSoC4/CyLib.c ****         uint8  interruptState;
1643:Generated_Source\PSoC4/CyLib.c ****         cystatus returnStatus = CYRET_SUCCESS;
1644:Generated_Source\PSoC4/CyLib.c **** 
1645:Generated_Source\PSoC4/CyLib.c ****         if((pll < CY_IP_PLL_NR) && (wait <= 1u))
1646:Generated_Source\PSoC4/CyLib.c ****         {
1647:Generated_Source\PSoC4/CyLib.c ****             interruptState = CyEnterCriticalSection();
1648:Generated_Source\PSoC4/CyLib.c **** 
1649:Generated_Source\PSoC4/CyLib.c ****             /* Isolate PLL outputs */
1650:Generated_Source\PSoC4/CyLib.c ****             CY_SYS_CLK_PLL_BASE.pll[pll].config &= (uint32) ~CY_SYS_CLK_PLL_CONFIG_ISOLATE;
1651:Generated_Source\PSoC4/CyLib.c **** 
1652:Generated_Source\PSoC4/CyLib.c ****             /* Enable PLL */
1653:Generated_Source\PSoC4/CyLib.c ****             CY_SYS_CLK_PLL_BASE.pll[pll].config |= CY_SYS_CLK_PLL_CONFIG_ENABLE;
1654:Generated_Source\PSoC4/CyLib.c **** 
1655:Generated_Source\PSoC4/CyLib.c ****             CyExitCriticalSection(interruptState);
1656:Generated_Source\PSoC4/CyLib.c **** 
1657:Generated_Source\PSoC4/CyLib.c ****             /* De-isolate >= CY_SYS_CLK_PLL_MIN_STARTUP_US after PLL enabled */
1658:Generated_Source\PSoC4/CyLib.c ****             CyDelayUs(CY_SYS_CLK_PLL_MIN_STARTUP_US);
1659:Generated_Source\PSoC4/CyLib.c ****             interruptState = CyEnterCriticalSection();
1660:Generated_Source\PSoC4/CyLib.c ****             CY_SYS_CLK_PLL_BASE.pll[pll].config |= CY_SYS_CLK_PLL_CONFIG_ISOLATE;
1661:Generated_Source\PSoC4/CyLib.c ****             CyExitCriticalSection(interruptState);
1662:Generated_Source\PSoC4/CyLib.c **** 
1663:Generated_Source\PSoC4/CyLib.c ****             if(wait != 0u)
1664:Generated_Source\PSoC4/CyLib.c ****             {
1665:Generated_Source\PSoC4/CyLib.c ****                 returnStatus = CYRET_TIMEOUT;
1666:Generated_Source\PSoC4/CyLib.c **** 
1667:Generated_Source\PSoC4/CyLib.c ****                 while(0u != counts)
1668:Generated_Source\PSoC4/CyLib.c ****                 {
1669:Generated_Source\PSoC4/CyLib.c **** 
1670:Generated_Source\PSoC4/CyLib.c ****                     if(0u != CySysClkPllGetLockStatus(pll))
1671:Generated_Source\PSoC4/CyLib.c ****                     {
1672:Generated_Source\PSoC4/CyLib.c ****                         returnStatus = CYRET_SUCCESS;
1673:Generated_Source\PSoC4/CyLib.c ****                         (void) CySysClkPllGetUnlockStatus(pll);
1674:Generated_Source\PSoC4/CyLib.c ****                         break;
1675:Generated_Source\PSoC4/CyLib.c ****                     }
1676:Generated_Source\PSoC4/CyLib.c **** 
1677:Generated_Source\PSoC4/CyLib.c ****                     CyDelayUs(1u);
1678:Generated_Source\PSoC4/CyLib.c ****                     counts--;
1679:Generated_Source\PSoC4/CyLib.c ****                 }
1680:Generated_Source\PSoC4/CyLib.c ****             }
1681:Generated_Source\PSoC4/CyLib.c ****         }
1682:Generated_Source\PSoC4/CyLib.c ****         else
1683:Generated_Source\PSoC4/CyLib.c ****         {
1684:Generated_Source\PSoC4/CyLib.c ****             returnStatus = CYRET_BAD_PARAM;
1685:Generated_Source\PSoC4/CyLib.c ****         }
1686:Generated_Source\PSoC4/CyLib.c **** 
1687:Generated_Source\PSoC4/CyLib.c ****         return (returnStatus);
1688:Generated_Source\PSoC4/CyLib.c ****     }
1689:Generated_Source\PSoC4/CyLib.c **** 
1690:Generated_Source\PSoC4/CyLib.c **** 
1691:Generated_Source\PSoC4/CyLib.c ****     /*******************************************************************************
1692:Generated_Source\PSoC4/CyLib.c ****     * Function Name: CySysClkPllGetLockStatus
1693:Generated_Source\PSoC4/CyLib.c ****     ****************************************************************************//**
1694:Generated_Source\PSoC4/CyLib.c ****     *
1695:Generated_Source\PSoC4/CyLib.c ****     * Returns non-zero if the output of the specified PLL output is locked.
ARM GAS  C:\Users\austc\AppData\Local\Temp\ccjGCJ7Y.s 			page 52


1696:Generated_Source\PSoC4/CyLib.c ****     *
1697:Generated_Source\PSoC4/CyLib.c ****     * This API is available only for PSoC 4200L / 4100S with PLL devices.
1698:Generated_Source\PSoC4/CyLib.c ****     *
1699:Generated_Source\PSoC4/CyLib.c ****     * PLL:
1700:Generated_Source\PSoC4/CyLib.c ****     *  0   PLL#0
1701:Generated_Source\PSoC4/CyLib.c ****     *  1   PLL#1 (available only for PSoC 4200L)
1702:Generated_Source\PSoC4/CyLib.c ****     *
1703:Generated_Source\PSoC4/CyLib.c ****     * \return A non-zero value when the specified PLL is locked.
1704:Generated_Source\PSoC4/CyLib.c ****     *
1705:Generated_Source\PSoC4/CyLib.c ****     *******************************************************************************/
1706:Generated_Source\PSoC4/CyLib.c ****     uint32 CySysClkPllGetLockStatus(uint32 pll)
1707:Generated_Source\PSoC4/CyLib.c ****     {
1708:Generated_Source\PSoC4/CyLib.c ****         uint8  interruptState;
1709:Generated_Source\PSoC4/CyLib.c ****         uint32 returnStatus;
1710:Generated_Source\PSoC4/CyLib.c **** 
1711:Generated_Source\PSoC4/CyLib.c ****         CYASSERT(pll < CY_IP_PLL_NR);
1712:Generated_Source\PSoC4/CyLib.c **** 
1713:Generated_Source\PSoC4/CyLib.c ****         interruptState = CyEnterCriticalSection();
1714:Generated_Source\PSoC4/CyLib.c **** 
1715:Generated_Source\PSoC4/CyLib.c ****         /* PLL is locked if reported so for two consecutive read. */
1716:Generated_Source\PSoC4/CyLib.c ****         returnStatus = CY_SYS_CLK_PLL_BASE.pll[pll].status & CY_SYS_CLK_PLL_STATUS_LOCKED;
1717:Generated_Source\PSoC4/CyLib.c ****         if(0u != returnStatus)
1718:Generated_Source\PSoC4/CyLib.c ****         {
1719:Generated_Source\PSoC4/CyLib.c ****             returnStatus = CY_SYS_CLK_PLL_BASE.pll[pll].status & CY_SYS_CLK_PLL_STATUS_LOCKED;
1720:Generated_Source\PSoC4/CyLib.c ****         }
1721:Generated_Source\PSoC4/CyLib.c **** 
1722:Generated_Source\PSoC4/CyLib.c ****         CyExitCriticalSection(interruptState);
1723:Generated_Source\PSoC4/CyLib.c **** 
1724:Generated_Source\PSoC4/CyLib.c ****         return (returnStatus);
1725:Generated_Source\PSoC4/CyLib.c ****     }
1726:Generated_Source\PSoC4/CyLib.c **** 
1727:Generated_Source\PSoC4/CyLib.c ****     /*******************************************************************************
1728:Generated_Source\PSoC4/CyLib.c ****     * Function Name: CySysClkPllStop
1729:Generated_Source\PSoC4/CyLib.c ****     ****************************************************************************//**
1730:Generated_Source\PSoC4/CyLib.c ****     *
1731:Generated_Source\PSoC4/CyLib.c ****     * Disables the PLL.
1732:Generated_Source\PSoC4/CyLib.c ****     *
1733:Generated_Source\PSoC4/CyLib.c ****     * Ensures that either PLL is not the source of HFCLK before it is disabled,
1734:Generated_Source\PSoC4/CyLib.c ****     * otherwise, the CPU will halt.
1735:Generated_Source\PSoC4/CyLib.c ****     *
1736:Generated_Source\PSoC4/CyLib.c ****     * This API is available only for PSoC 4200L / 4100S with PLL devices.
1737:Generated_Source\PSoC4/CyLib.c ****     *
1738:Generated_Source\PSoC4/CyLib.c ****     * PLL:
1739:Generated_Source\PSoC4/CyLib.c ****     *  0   PLL#0
1740:Generated_Source\PSoC4/CyLib.c ****     *  1   PLL#1 (available only for PSoC 4200L)
1741:Generated_Source\PSoC4/CyLib.c ****     *
1742:Generated_Source\PSoC4/CyLib.c ****     *******************************************************************************/
1743:Generated_Source\PSoC4/CyLib.c ****     void CySysClkPllStop(uint32 pll)
1744:Generated_Source\PSoC4/CyLib.c ****     {
 1183              		.loc 1 1744 0
 1184              		.cfi_startproc
 1185              		@ args = 0, pretend = 0, frame = 0
 1186              		@ frame_needed = 0, uses_anonymous_args = 0
 1187              	.LVL90:
 1188 0000 70B5     		push	{r4, r5, r6, lr}
 1189              		.cfi_def_cfa_offset 16
 1190              		.cfi_offset 4, -16
ARM GAS  C:\Users\austc\AppData\Local\Temp\ccjGCJ7Y.s 			page 53


 1191              		.cfi_offset 5, -12
 1192              		.cfi_offset 6, -8
 1193              		.cfi_offset 14, -4
 1194 0002 0400     		movs	r4, r0
1745:Generated_Source\PSoC4/CyLib.c ****         uint8  interruptState;
1746:Generated_Source\PSoC4/CyLib.c **** 
1747:Generated_Source\PSoC4/CyLib.c ****         if (pll < CY_IP_PLL_NR)
 1195              		.loc 1 1747 0
 1196 0004 0128     		cmp	r0, #1
 1197 0006 0CD8     		bhi	.L98
1748:Generated_Source\PSoC4/CyLib.c ****         {
1749:Generated_Source\PSoC4/CyLib.c ****             interruptState = CyEnterCriticalSection();
 1198              		.loc 1 1749 0
 1199 0008 FFF7FEFF 		bl	CyEnterCriticalSection
 1200              	.LVL91:
1750:Generated_Source\PSoC4/CyLib.c ****             CY_SYS_CLK_PLL_BASE.pll[pll].config &= (uint32) ~(CY_SYS_CLK_PLL_CONFIG_ISOLATE | CY_SY
 1201              		.loc 1 1750 0
 1202 000c 054A     		ldr	r2, .L100
 1203 000e 6100     		lsls	r1, r4, #1
 1204 0010 0D19     		adds	r5, r1, r4
 1205 0012 AB00     		lsls	r3, r5, #2
 1206 0014 9B58     		ldr	r3, [r3, r2]
 1207 0016 9B00     		lsls	r3, r3, #2
 1208 0018 9B08     		lsrs	r3, r3, #2
 1209 001a A900     		lsls	r1, r5, #2
 1210 001c 8B50     		str	r3, [r1, r2]
1751:Generated_Source\PSoC4/CyLib.c ****             CyExitCriticalSection(interruptState);
 1211              		.loc 1 1751 0
 1212 001e FFF7FEFF 		bl	CyExitCriticalSection
 1213              	.LVL92:
 1214              	.L98:
1752:Generated_Source\PSoC4/CyLib.c ****         }
1753:Generated_Source\PSoC4/CyLib.c ****     }
 1215              		.loc 1 1753 0
 1216              		@ sp needed
 1217              	.LVL93:
 1218 0022 70BD     		pop	{r4, r5, r6, pc}
 1219              	.L101:
 1220              		.align	2
 1221              	.L100:
 1222 0024 14000C40 		.word	1074528276
 1223              		.cfi_endproc
 1224              	.LFE21:
 1225              		.size	CySysClkPllStop, .-CySysClkPllStop
 1226              		.section	.text.CySysClkPllSetBypassMode,"ax",%progbits
 1227              		.align	2
 1228              		.global	CySysClkPllSetBypassMode
 1229              		.code	16
 1230              		.thumb_func
 1231              		.type	CySysClkPllSetBypassMode, %function
 1232              	CySysClkPllSetBypassMode:
 1233              	.LFB23:
1754:Generated_Source\PSoC4/CyLib.c **** 
1755:Generated_Source\PSoC4/CyLib.c **** 
1756:Generated_Source\PSoC4/CyLib.c ****     /*******************************************************************************
1757:Generated_Source\PSoC4/CyLib.c ****     * Function Name: CySysClkPllSetPQ
1758:Generated_Source\PSoC4/CyLib.c ****     ****************************************************************************//**
ARM GAS  C:\Users\austc\AppData\Local\Temp\ccjGCJ7Y.s 			page 54


1759:Generated_Source\PSoC4/CyLib.c ****     *
1760:Generated_Source\PSoC4/CyLib.c ****     * Sets feedback (P) and reference the (Q) divider value. This API also sets the
1761:Generated_Source\PSoC4/CyLib.c ****     * programmable charge pump current value. Note that the PLL has to be disabled
1762:Generated_Source\PSoC4/CyLib.c ****     * before calling this API. If this function is called while any PLL is sourcing,
1763:Generated_Source\PSoC4/CyLib.c ****     * the SYSCLK will return an error.
1764:Generated_Source\PSoC4/CyLib.c ****     *
1765:Generated_Source\PSoC4/CyLib.c ****     * The PLL must not be the system clock source when calling this function. The
1766:Generated_Source\PSoC4/CyLib.c ****     * PLL output will glitch during this function call.
1767:Generated_Source\PSoC4/CyLib.c ****     *
1768:Generated_Source\PSoC4/CyLib.c ****     * This API is available only for PSoC 4200L / 4100S with PLL devices.
1769:Generated_Source\PSoC4/CyLib.c ****     *
1770:Generated_Source\PSoC4/CyLib.c ****     * \param PLL:
1771:Generated_Source\PSoC4/CyLib.c ****     *  0   PLL#0
1772:Generated_Source\PSoC4/CyLib.c ****     *  1   PLL#1 (available only for PSoC 4200L)
1773:Generated_Source\PSoC4/CyLib.c ****     *
1774:Generated_Source\PSoC4/CyLib.c ****     * \param feedback The P divider. Range 4 - 259. Control bits for the feedback
1775:Generated_Source\PSoC4/CyLib.c ****     * divider.
1776:Generated_Source\PSoC4/CyLib.c ****     *
1777:Generated_Source\PSoC4/CyLib.c ****     * \param reference The Q divider. Range 1 - 64. Divide by the reference.
1778:Generated_Source\PSoC4/CyLib.c ****     *
1779:Generated_Source\PSoC4/CyLib.c ****     * \param current Charge the pump current in uA. The 2 uA for output frequencies
1780:Generated_Source\PSoC4/CyLib.c ****     * of 67 MHz or less, and 3 uA for higher output frequencies. The default
1781:Generated_Source\PSoC4/CyLib.c ****     * value is 2 uA.
1782:Generated_Source\PSoC4/CyLib.c ****     *
1783:Generated_Source\PSoC4/CyLib.c ****     * \return CYRET_SUCCESS Completed successfully.
1784:Generated_Source\PSoC4/CyLib.c ****     * \return CYRET_BAD_PARAM The parameters are out of range or the specified PLL
1785:Generated_Source\PSoC4/CyLib.c ****     * sources the system clock.
1786:Generated_Source\PSoC4/CyLib.c ****     *
1787:Generated_Source\PSoC4/CyLib.c ****     *******************************************************************************/
1788:Generated_Source\PSoC4/CyLib.c ****     cystatus CySysClkPllSetPQ(uint32 pll, uint32 feedback, uint32 reference, uint32 current)
1789:Generated_Source\PSoC4/CyLib.c ****     {
1790:Generated_Source\PSoC4/CyLib.c ****         uint32   regTmp;
1791:Generated_Source\PSoC4/CyLib.c ****         cystatus tmp;
1792:Generated_Source\PSoC4/CyLib.c ****         uint8    interruptState;
1793:Generated_Source\PSoC4/CyLib.c ****         cystatus returnStatus = CYRET_BAD_PARAM;
1794:Generated_Source\PSoC4/CyLib.c **** 
1795:Generated_Source\PSoC4/CyLib.c ****         interruptState = CyEnterCriticalSection();
1796:Generated_Source\PSoC4/CyLib.c **** 
1797:Generated_Source\PSoC4/CyLib.c ****         tmp = CySysClkPllConfigChangeAllowed(pll);
1798:Generated_Source\PSoC4/CyLib.c **** 
1799:Generated_Source\PSoC4/CyLib.c ****         if ((pll < CY_IP_PLL_NR) &&
1800:Generated_Source\PSoC4/CyLib.c ****             (feedback  >= CY_SYS_CLK_PLL_CONFIG_FEEDBACK_DIV_MIN)  && (feedback  <= CY_SYS_CLK_PLL_
1801:Generated_Source\PSoC4/CyLib.c ****             (reference >= CY_SYS_CLK_PLL_CONFIG_REFERENCE_DIV_MIN) && (reference <= CY_SYS_CLK_PLL_
1802:Generated_Source\PSoC4/CyLib.c ****             (current   >= CY_SYS_CLK_PLL_CONFIG_ICP_SEL_MIN )      && (current   <= CY_SYS_CLK_PLL_
1803:Generated_Source\PSoC4/CyLib.c ****             (CYRET_SUCCESS == tmp))
1804:Generated_Source\PSoC4/CyLib.c ****         {
1805:Generated_Source\PSoC4/CyLib.c ****             /* Set new feedback, reference and current values */
1806:Generated_Source\PSoC4/CyLib.c ****             regTmp  = CY_SYS_CLK_PLL_BASE.pll[pll].config & (uint32) ~(CY_SYS_CLK_PLL_CONFIG_FEEDBA
1807:Generated_Source\PSoC4/CyLib.c ****                                                                        CY_SYS_CLK_PLL_CONFIG_REFERE
1808:Generated_Source\PSoC4/CyLib.c ****                                                                        CY_SYS_CLK_PLL_CONFIG_ICP_SE
1809:Generated_Source\PSoC4/CyLib.c **** 
1810:Generated_Source\PSoC4/CyLib.c ****             regTmp |= ((feedback << CY_SYS_CLK_PLL_CONFIG_FEEDBACK_DIV_SHIFT) & CY_SYS_CLK_PLL_CONF
1811:Generated_Source\PSoC4/CyLib.c ****             regTmp |= (((reference - 1u) << CY_SYS_CLK_PLL_CONFIG_REFERENCE_DIV_SHIFT) & CY_SYS_CLK
1812:Generated_Source\PSoC4/CyLib.c ****             regTmp |= ((current << CY_SYS_CLK_PLL_CONFIG_ICP_SEL_SHIFT) & CY_SYS_CLK_PLL_CONFIG_ICP
1813:Generated_Source\PSoC4/CyLib.c **** 
1814:Generated_Source\PSoC4/CyLib.c ****             CY_SYS_CLK_PLL_BASE.pll[pll].config = regTmp;
1815:Generated_Source\PSoC4/CyLib.c **** 
ARM GAS  C:\Users\austc\AppData\Local\Temp\ccjGCJ7Y.s 			page 55


1816:Generated_Source\PSoC4/CyLib.c ****             returnStatus = CYRET_SUCCESS;
1817:Generated_Source\PSoC4/CyLib.c ****         }
1818:Generated_Source\PSoC4/CyLib.c **** 
1819:Generated_Source\PSoC4/CyLib.c ****         CyExitCriticalSection(interruptState);
1820:Generated_Source\PSoC4/CyLib.c **** 
1821:Generated_Source\PSoC4/CyLib.c ****         return (returnStatus);
1822:Generated_Source\PSoC4/CyLib.c ****     }
1823:Generated_Source\PSoC4/CyLib.c **** 
1824:Generated_Source\PSoC4/CyLib.c **** 
1825:Generated_Source\PSoC4/CyLib.c ****     /*******************************************************************************
1826:Generated_Source\PSoC4/CyLib.c ****     * Function Name: CySysClkPllSetBypassMode
1827:Generated_Source\PSoC4/CyLib.c ****     ****************************************************************************//**
1828:Generated_Source\PSoC4/CyLib.c ****     *
1829:Generated_Source\PSoC4/CyLib.c ****     * Sets the bypass mode for the specified PLL.
1830:Generated_Source\PSoC4/CyLib.c ****     *
1831:Generated_Source\PSoC4/CyLib.c ****     * The PLL must not be the system clock source when calling this function.
1832:Generated_Source\PSoC4/CyLib.c ****     * The PLL output will glitch during this function call.
1833:Generated_Source\PSoC4/CyLib.c ****     *
1834:Generated_Source\PSoC4/CyLib.c ****     * When the PLL's reference input is higher than HFCLK frequency the device may 
1835:Generated_Source\PSoC4/CyLib.c ****     * lock due to incorrect flash wait cycle configuration and bypass switches from 
1836:Generated_Source\PSoC4/CyLib.c ****     * PLL output to the reference input. See description of 
1837:Generated_Source\PSoC4/CyLib.c ****     * CySysFlashSetWaitCycles() for more information.
1838:Generated_Source\PSoC4/CyLib.c ****     *
1839:Generated_Source\PSoC4/CyLib.c ****     * This API is available only for PSoC 4200L / 4100S with PLL devices.
1840:Generated_Source\PSoC4/CyLib.c ****     *
1841:Generated_Source\PSoC4/CyLib.c ****     * \param PLL:
1842:Generated_Source\PSoC4/CyLib.c ****     *  0   PLL#0
1843:Generated_Source\PSoC4/CyLib.c ****     *  1   PLL#1 (available only for PSoC 4200L)
1844:Generated_Source\PSoC4/CyLib.c ****     *
1845:Generated_Source\PSoC4/CyLib.c ****     * \param bypass: The bypass mode.
1846:Generated_Source\PSoC4/CyLib.c ****     * CY_SYS_PLL_BYPASS_AUTO - Automatic usage of the lock indicator. When unlocked,
1847:Generated_Source\PSoC4/CyLib.c ****     * automatically selects PLL the reference input (bypass mode). When locked,
1848:Generated_Source\PSoC4/CyLib.c ****     * automatically selects the PLL output.
1849:Generated_Source\PSoC4/CyLib.c ****     *
1850:Generated_Source\PSoC4/CyLib.c ****     * CY_SYS_PLL_BYPASS_PLL_REF - Selects the PLL reference input (bypass mode).
1851:Generated_Source\PSoC4/CyLib.c ****     * Ignores the lock indicator.
1852:Generated_Source\PSoC4/CyLib.c ****     *
1853:Generated_Source\PSoC4/CyLib.c ****     * CY_SYS_PLL_BYPASS_PLL_OUT - Selects the PLL output.  Ignores the lock indicator.
1854:Generated_Source\PSoC4/CyLib.c ****     *
1855:Generated_Source\PSoC4/CyLib.c ****     *******************************************************************************/
1856:Generated_Source\PSoC4/CyLib.c ****     void CySysClkPllSetBypassMode(uint32 pll, uint32 bypass)
1857:Generated_Source\PSoC4/CyLib.c ****     {
 1234              		.loc 1 1857 0
 1235              		.cfi_startproc
 1236              		@ args = 0, pretend = 0, frame = 0
 1237              		@ frame_needed = 0, uses_anonymous_args = 0
 1238              	.LVL94:
 1239 0000 70B5     		push	{r4, r5, r6, lr}
 1240              		.cfi_def_cfa_offset 16
 1241              		.cfi_offset 4, -16
 1242              		.cfi_offset 5, -12
 1243              		.cfi_offset 6, -8
 1244              		.cfi_offset 14, -4
 1245 0002 0400     		movs	r4, r0
 1246 0004 0D00     		movs	r5, r1
1858:Generated_Source\PSoC4/CyLib.c ****         uint32 regTmp;
1859:Generated_Source\PSoC4/CyLib.c ****         uint8  interruptState;
ARM GAS  C:\Users\austc\AppData\Local\Temp\ccjGCJ7Y.s 			page 56


1860:Generated_Source\PSoC4/CyLib.c **** 
1861:Generated_Source\PSoC4/CyLib.c ****         interruptState = CyEnterCriticalSection();
 1247              		.loc 1 1861 0
 1248 0006 FFF7FEFF 		bl	CyEnterCriticalSection
 1249              	.LVL95:
1862:Generated_Source\PSoC4/CyLib.c **** 
1863:Generated_Source\PSoC4/CyLib.c ****         if ((pll < CY_IP_PLL_NR) && (bypass <= CY_SYS_PLL_BYPASS_PLL_OUT))
 1250              		.loc 1 1863 0
 1251 000a 012C     		cmp	r4, #1
 1252 000c 0DD8     		bhi	.L103
 1253              		.loc 1 1863 0 is_stmt 0 discriminator 1
 1254 000e 032D     		cmp	r5, #3
 1255 0010 0BD8     		bhi	.L103
1864:Generated_Source\PSoC4/CyLib.c ****         {
1865:Generated_Source\PSoC4/CyLib.c ****             regTmp  = CY_SYS_CLK_PLL_BASE.pll[pll].config & (uint32) ~CY_SYS_CLK_PLL_CONFIG_BYPASS_
 1256              		.loc 1 1865 0 is_stmt 1
 1257 0012 074A     		ldr	r2, .L104
 1258 0014 6100     		lsls	r1, r4, #1
 1259 0016 0E19     		adds	r6, r1, r4
 1260 0018 B300     		lsls	r3, r6, #2
 1261 001a 9E58     		ldr	r6, [r3, r2]
 1262 001c 054B     		ldr	r3, .L104+4
 1263 001e 3340     		ands	r3, r6
 1264              	.LVL96:
1866:Generated_Source\PSoC4/CyLib.c ****             regTmp |=  (uint32)(bypass << CY_SYS_CLK_PLL_CONFIG_BYPASS_SEL_SHIFT);
 1265              		.loc 1 1866 0
 1266 0020 2D05     		lsls	r5, r5, #20
 1267              	.LVL97:
 1268 0022 1D43     		orrs	r5, r3
 1269              	.LVL98:
1867:Generated_Source\PSoC4/CyLib.c ****             CY_SYS_CLK_PLL_BASE.pll[pll].config = regTmp;
 1270              		.loc 1 1867 0
 1271 0024 0C19     		adds	r4, r1, r4
 1272              	.LVL99:
 1273 0026 A300     		lsls	r3, r4, #2
 1274 0028 9D50     		str	r5, [r3, r2]
 1275              	.LVL100:
 1276              	.L103:
1868:Generated_Source\PSoC4/CyLib.c ****         }
1869:Generated_Source\PSoC4/CyLib.c **** 
1870:Generated_Source\PSoC4/CyLib.c ****         CyExitCriticalSection(interruptState);
 1277              		.loc 1 1870 0
 1278 002a FFF7FEFF 		bl	CyExitCriticalSection
 1279              	.LVL101:
1871:Generated_Source\PSoC4/CyLib.c ****     }
 1280              		.loc 1 1871 0
 1281              		@ sp needed
 1282 002e 70BD     		pop	{r4, r5, r6, pc}
 1283              	.L105:
 1284              		.align	2
 1285              	.L104:
 1286 0030 14000C40 		.word	1074528276
 1287 0034 FFFFCFFF 		.word	-3145729
 1288              		.cfi_endproc
 1289              	.LFE23:
 1290              		.size	CySysClkPllSetBypassMode, .-CySysClkPllSetBypassMode
 1291              		.section	.text.CySysClkPllGetUnlockStatus,"ax",%progbits
ARM GAS  C:\Users\austc\AppData\Local\Temp\ccjGCJ7Y.s 			page 57


 1292              		.align	2
 1293              		.global	CySysClkPllGetUnlockStatus
 1294              		.code	16
 1295              		.thumb_func
 1296              		.type	CySysClkPllGetUnlockStatus, %function
 1297              	CySysClkPllGetUnlockStatus:
 1298              	.LFB26:
1872:Generated_Source\PSoC4/CyLib.c **** 
1873:Generated_Source\PSoC4/CyLib.c **** 
1874:Generated_Source\PSoC4/CyLib.c ****     /*******************************************************************************
1875:Generated_Source\PSoC4/CyLib.c ****     * Function Name: CySysClkPllGetBypassMode
1876:Generated_Source\PSoC4/CyLib.c ****     ****************************************************************************//**
1877:Generated_Source\PSoC4/CyLib.c ****     *
1878:Generated_Source\PSoC4/CyLib.c ****     *  Gets the bypass mode for the specified PLL.
1879:Generated_Source\PSoC4/CyLib.c ****     *  This API is available only for PSoC 4200L / 4100S with PLL devices.
1880:Generated_Source\PSoC4/CyLib.c ****     *
1881:Generated_Source\PSoC4/CyLib.c ****     *  \param PLL:
1882:Generated_Source\PSoC4/CyLib.c ****     *   0   PLL#0
1883:Generated_Source\PSoC4/CyLib.c ****     *   1   PLL#1 (available only for PSoC 4200L)
1884:Generated_Source\PSoC4/CyLib.c ****     *
1885:Generated_Source\PSoC4/CyLib.c ****     *  \param bypass: Bypass mode.
1886:Generated_Source\PSoC4/CyLib.c ****     *   The same as the parameter of the CySysClkPllSetBypassMode().
1887:Generated_Source\PSoC4/CyLib.c ****     *
1888:Generated_Source\PSoC4/CyLib.c ****     *******************************************************************************/
1889:Generated_Source\PSoC4/CyLib.c ****     static uint32 CySysClkPllGetBypassMode(uint32 pll)
1890:Generated_Source\PSoC4/CyLib.c ****     {
1891:Generated_Source\PSoC4/CyLib.c ****         uint32 returnValue;
1892:Generated_Source\PSoC4/CyLib.c ****         uint8  interruptState;
1893:Generated_Source\PSoC4/CyLib.c **** 
1894:Generated_Source\PSoC4/CyLib.c ****         CYASSERT(pll < CY_IP_PLL_NR);
1895:Generated_Source\PSoC4/CyLib.c **** 
1896:Generated_Source\PSoC4/CyLib.c ****         interruptState = CyEnterCriticalSection();
1897:Generated_Source\PSoC4/CyLib.c **** 
1898:Generated_Source\PSoC4/CyLib.c ****         returnValue = CY_SYS_CLK_PLL_BASE.pll[pll].config & CY_SYS_CLK_PLL_CONFIG_BYPASS_SEL_MASK;
1899:Generated_Source\PSoC4/CyLib.c ****         returnValue =  returnValue >> CY_SYS_CLK_PLL_CONFIG_BYPASS_SEL_SHIFT;
1900:Generated_Source\PSoC4/CyLib.c **** 
1901:Generated_Source\PSoC4/CyLib.c ****         CyExitCriticalSection(interruptState);
1902:Generated_Source\PSoC4/CyLib.c **** 
1903:Generated_Source\PSoC4/CyLib.c ****         return (returnValue);
1904:Generated_Source\PSoC4/CyLib.c ****     }
1905:Generated_Source\PSoC4/CyLib.c **** 
1906:Generated_Source\PSoC4/CyLib.c **** 
1907:Generated_Source\PSoC4/CyLib.c ****     /*******************************************************************************
1908:Generated_Source\PSoC4/CyLib.c ****     * Function Name: CySysClkPllConfigChangeAllowed
1909:Generated_Source\PSoC4/CyLib.c ****     ****************************************************************************//**
1910:Generated_Source\PSoC4/CyLib.c ****     *
1911:Generated_Source\PSoC4/CyLib.c ****     *  The function returns non-zero value if the specified PLL sources the System
1912:Generated_Source\PSoC4/CyLib.c ****     *  clock and the PLL is not in the bypass mode.
1913:Generated_Source\PSoC4/CyLib.c ****     *
1914:Generated_Source\PSoC4/CyLib.c ****     *  This API is available only for PSoC 4200L / 4100S with PLL devices.
1915:Generated_Source\PSoC4/CyLib.c ****     *
1916:Generated_Source\PSoC4/CyLib.c ****     *  \param PLL:
1917:Generated_Source\PSoC4/CyLib.c ****     *   0   PLL#0
1918:Generated_Source\PSoC4/CyLib.c ****     *   1   PLL#1 (available only for PSoC 4200L)
1919:Generated_Source\PSoC4/CyLib.c ****     *
1920:Generated_Source\PSoC4/CyLib.c ****     * \return Non-zero value when the specified PLL sources the System clock and
1921:Generated_Source\PSoC4/CyLib.c ****     * the PLL is not in the bypass mode.
ARM GAS  C:\Users\austc\AppData\Local\Temp\ccjGCJ7Y.s 			page 58


1922:Generated_Source\PSoC4/CyLib.c ****     *
1923:Generated_Source\PSoC4/CyLib.c ****     *******************************************************************************/
1924:Generated_Source\PSoC4/CyLib.c ****     static cystatus CySysClkPllConfigChangeAllowed(uint32 pll)
1925:Generated_Source\PSoC4/CyLib.c ****     {
1926:Generated_Source\PSoC4/CyLib.c ****         uint32   pllBypassMode;
1927:Generated_Source\PSoC4/CyLib.c ****         uint32   sysclkSource;
1928:Generated_Source\PSoC4/CyLib.c ****         cystatus returnValue = CYRET_INVALID_STATE;
1929:Generated_Source\PSoC4/CyLib.c **** 
1930:Generated_Source\PSoC4/CyLib.c ****         sysclkSource  = CySysClkGetSysclkSource();
1931:Generated_Source\PSoC4/CyLib.c ****         pllBypassMode = CySysClkPllGetBypassMode(pll);
1932:Generated_Source\PSoC4/CyLib.c **** 
1933:Generated_Source\PSoC4/CyLib.c ****         if ((CY_SYS_PLL_BYPASS_PLL_REF == pllBypassMode)             ||
1934:Generated_Source\PSoC4/CyLib.c ****             ((CY_SYS_CLK_HFCLK_PLL0 != sysclkSource) && (0u == pll))
1935:Generated_Source\PSoC4/CyLib.c ****         #if (CY_IP_SRSSV2)
1936:Generated_Source\PSoC4/CyLib.c ****             || ((CY_SYS_CLK_HFCLK_PLL1 != sysclkSource) && (1u == pll))
1937:Generated_Source\PSoC4/CyLib.c ****         #endif /* (CY_IP_SRSSV2) */
1938:Generated_Source\PSoC4/CyLib.c ****             )
1939:Generated_Source\PSoC4/CyLib.c ****         {
1940:Generated_Source\PSoC4/CyLib.c ****             returnValue = CYRET_SUCCESS;
1941:Generated_Source\PSoC4/CyLib.c ****         }
1942:Generated_Source\PSoC4/CyLib.c **** 
1943:Generated_Source\PSoC4/CyLib.c ****         return (returnValue);
1944:Generated_Source\PSoC4/CyLib.c ****     }
1945:Generated_Source\PSoC4/CyLib.c **** 
1946:Generated_Source\PSoC4/CyLib.c **** 
1947:Generated_Source\PSoC4/CyLib.c ****     /*******************************************************************************
1948:Generated_Source\PSoC4/CyLib.c ****     * Function Name: CySysClkPllGetUnlockStatus
1949:Generated_Source\PSoC4/CyLib.c ****     ****************************************************************************//**
1950:Generated_Source\PSoC4/CyLib.c ****     *
1951:Generated_Source\PSoC4/CyLib.c ****     *  Returns a non-zero value if the specified PLL output was unlocked.
1952:Generated_Source\PSoC4/CyLib.c ****     *  The unlock status is an indicator that the PLL has lost a lock at least once
1953:Generated_Source\PSoC4/CyLib.c ****     *  during its operation. The unlock status is cleared once it is read using
1954:Generated_Source\PSoC4/CyLib.c ****     *  this API.
1955:Generated_Source\PSoC4/CyLib.c ****     *
1956:Generated_Source\PSoC4/CyLib.c ****     *  This API is available only for PSoC 4200L / 4100S with PLL devices.
1957:Generated_Source\PSoC4/CyLib.c ****     *
1958:Generated_Source\PSoC4/CyLib.c ****     *  \param PLL:
1959:Generated_Source\PSoC4/CyLib.c ****     *   0   PLL#0
1960:Generated_Source\PSoC4/CyLib.c ****     *   1   PLL#1 (available only for PSoC 4200L)
1961:Generated_Source\PSoC4/CyLib.c ****     *
1962:Generated_Source\PSoC4/CyLib.c ****     * \return Non-zero value when the specified PLL was unlocked.
1963:Generated_Source\PSoC4/CyLib.c ****     *
1964:Generated_Source\PSoC4/CyLib.c ****     *******************************************************************************/
1965:Generated_Source\PSoC4/CyLib.c ****     uint32 CySysClkPllGetUnlockStatus(uint32 pll)
1966:Generated_Source\PSoC4/CyLib.c ****     {
 1299              		.loc 1 1966 0
 1300              		.cfi_startproc
 1301              		@ args = 0, pretend = 0, frame = 0
 1302              		@ frame_needed = 0, uses_anonymous_args = 0
 1303              	.LVL102:
 1304 0000 70B5     		push	{r4, r5, r6, lr}
 1305              		.cfi_def_cfa_offset 16
 1306              		.cfi_offset 4, -16
 1307              		.cfi_offset 5, -12
 1308              		.cfi_offset 6, -8
 1309              		.cfi_offset 14, -4
 1310 0002 0400     		movs	r4, r0
ARM GAS  C:\Users\austc\AppData\Local\Temp\ccjGCJ7Y.s 			page 59


 1311              	.LVL103:
1967:Generated_Source\PSoC4/CyLib.c ****         uint32 returnStatus = 0u;
1968:Generated_Source\PSoC4/CyLib.c ****         uint8  interruptState;
1969:Generated_Source\PSoC4/CyLib.c **** 
1970:Generated_Source\PSoC4/CyLib.c ****         interruptState = CyEnterCriticalSection();
 1312              		.loc 1 1970 0
 1313 0004 FFF7FEFF 		bl	CyEnterCriticalSection
 1314              	.LVL104:
1971:Generated_Source\PSoC4/CyLib.c **** 
1972:Generated_Source\PSoC4/CyLib.c ****         returnStatus = CY_SYS_CLK_PLL_BASE.pll[pll].test & CY_SYS_CLK_PLL_TEST_UNLOCK_OCCURRED_MASK
 1315              		.loc 1 1972 0
 1316 0008 6100     		lsls	r1, r4, #1
 1317 000a 0A19     		adds	r2, r1, r4
 1318 000c 9300     		lsls	r3, r2, #2
 1319 000e 084A     		ldr	r2, .L107
 1320 0010 9446     		mov	ip, r2
 1321 0012 6344     		add	r3, r3, ip
 1322 0014 9D68     		ldr	r5, [r3, #8]
 1323 0016 1022     		movs	r2, #16
 1324 0018 1540     		ands	r5, r2
 1325              	.LVL105:
1973:Generated_Source\PSoC4/CyLib.c ****         CY_SYS_CLK_PLL_BASE.pll[pll].test |= CY_SYS_CLK_PLL_TEST_UNLOCK_OCCURRED_MASK;
 1326              		.loc 1 1973 0
 1327 001a 9B68     		ldr	r3, [r3, #8]
 1328 001c 1A43     		orrs	r2, r3
 1329 001e 0C19     		adds	r4, r1, r4
 1330              	.LVL106:
 1331 0020 A300     		lsls	r3, r4, #2
 1332 0022 6344     		add	r3, r3, ip
 1333 0024 9A60     		str	r2, [r3, #8]
1974:Generated_Source\PSoC4/CyLib.c **** 
1975:Generated_Source\PSoC4/CyLib.c ****         CyExitCriticalSection(interruptState);
 1334              		.loc 1 1975 0
 1335 0026 FFF7FEFF 		bl	CyExitCriticalSection
 1336              	.LVL107:
1976:Generated_Source\PSoC4/CyLib.c **** 
1977:Generated_Source\PSoC4/CyLib.c ****         return (returnStatus);
1978:Generated_Source\PSoC4/CyLib.c ****     }
 1337              		.loc 1 1978 0
 1338 002a 2800     		movs	r0, r5
 1339              		@ sp needed
 1340              	.LVL108:
 1341 002c 70BD     		pop	{r4, r5, r6, pc}
 1342              	.L108:
 1343 002e C046     		.align	2
 1344              	.L107:
 1345 0030 14000C40 		.word	1074528276
 1346              		.cfi_endproc
 1347              	.LFE26:
 1348              		.size	CySysClkPllGetUnlockStatus, .-CySysClkPllGetUnlockStatus
 1349              		.section	.text.CySysClkPllSetSource,"ax",%progbits
 1350              		.align	2
 1351              		.global	CySysClkPllSetSource
 1352              		.code	16
 1353              		.thumb_func
 1354              		.type	CySysClkPllSetSource, %function
 1355              	CySysClkPllSetSource:
ARM GAS  C:\Users\austc\AppData\Local\Temp\ccjGCJ7Y.s 			page 60


 1356              	.LFB28:
1979:Generated_Source\PSoC4/CyLib.c **** 
1980:Generated_Source\PSoC4/CyLib.c **** 
1981:Generated_Source\PSoC4/CyLib.c ****     /*******************************************************************************
1982:Generated_Source\PSoC4/CyLib.c ****     * Function Name: CySysClkPllSetFrequency
1983:Generated_Source\PSoC4/CyLib.c ****     ****************************************************************************//**
1984:Generated_Source\PSoC4/CyLib.c ****     *
1985:Generated_Source\PSoC4/CyLib.c ****     * Configures either PLL#0 or PLL#1 for the requested input/output frequencies.
1986:Generated_Source\PSoC4/CyLib.c ****     * The input frequency is the frequency of the source to the PLL. The source is
1987:Generated_Source\PSoC4/CyLib.c ****     * set using the CySysClkPllSetSource() function.
1988:Generated_Source\PSoC4/CyLib.c ****     *
1989:Generated_Source\PSoC4/CyLib.c ****     * The PLL must not be the system clock source when calling this function. The
1990:Generated_Source\PSoC4/CyLib.c ****     * PLL output will glitch during this function call.
1991:Generated_Source\PSoC4/CyLib.c ****     *
1992:Generated_Source\PSoC4/CyLib.c ****     * This API is available only for PSoC 4200L / 4100S with PLL devices.
1993:Generated_Source\PSoC4/CyLib.c ****     *
1994:Generated_Source\PSoC4/CyLib.c ****     * \param pll:
1995:Generated_Source\PSoC4/CyLib.c ****     *  0   PLL#0
1996:Generated_Source\PSoC4/CyLib.c ****     *  1   PLL#1 (available only for PSoC 4200L)
1997:Generated_Source\PSoC4/CyLib.c ****     *
1998:Generated_Source\PSoC4/CyLib.c ****     * \param inputFreq The reference frequency in KHz. The valid range is from 1000 to 49152 KHz.
1999:Generated_Source\PSoC4/CyLib.c ****     *
2000:Generated_Source\PSoC4/CyLib.c ****     * \param pllFreq The target frequency in KHz. The valid range is from 22500 to 49152 KHz.
2001:Generated_Source\PSoC4/CyLib.c ****     *
2002:Generated_Source\PSoC4/CyLib.c ****     * \param divider The output clock divider for the PLL:
2003:Generated_Source\PSoC4/CyLib.c ****     * CY_SYS_PLL_OUTPUT_DIVPASS    Pass Through
2004:Generated_Source\PSoC4/CyLib.c ****     * CY_SYS_PLL_OUTPUT_DIV2       Divide by 2
2005:Generated_Source\PSoC4/CyLib.c ****     * CY_SYS_PLL_OUTPUT_DIV4       Divide by 4
2006:Generated_Source\PSoC4/CyLib.c ****     * CY_SYS_PLL_OUTPUT_DIV8       Divide by 8
2007:Generated_Source\PSoC4/CyLib.c ****     *
2008:Generated_Source\PSoC4/CyLib.c ****     * \param freqTol The tolerance in ppm, 10 ppm is equal to 0.001%.
2009:Generated_Source\PSoC4/CyLib.c ****     *
2010:Generated_Source\PSoC4/CyLib.c ****     * \return CYRET_SUCCESS The PLL was successfully configured for the requested
2011:Generated_Source\PSoC4/CyLib.c ****     * frequency.
2012:Generated_Source\PSoC4/CyLib.c ****     *
2013:Generated_Source\PSoC4/CyLib.c ****     * \return CYRET_BAD_PARAM The PLL was not able to successfully configure for the
2014:Generated_Source\PSoC4/CyLib.c ****     * requested frequency.
2015:Generated_Source\PSoC4/CyLib.c ****     *
2016:Generated_Source\PSoC4/CyLib.c ****     *******************************************************************************/
2017:Generated_Source\PSoC4/CyLib.c ****     cystatus CySysClkPllSetFrequency(uint32 pll, uint32 inputFreq, uint32 pllFreq, uint32 divider, 
2018:Generated_Source\PSoC4/CyLib.c ****     {
2019:Generated_Source\PSoC4/CyLib.c ****         uint32 qMin;
2020:Generated_Source\PSoC4/CyLib.c ****         uint32 qMax;
2021:Generated_Source\PSoC4/CyLib.c **** 
2022:Generated_Source\PSoC4/CyLib.c ****         uint32 qVal = CY_SYS_CLK_PLL_INVALID;
2023:Generated_Source\PSoC4/CyLib.c ****         uint32 pVal = CY_SYS_CLK_PLL_INVALID;
2024:Generated_Source\PSoC4/CyLib.c **** 
2025:Generated_Source\PSoC4/CyLib.c ****         uint32 q;
2026:Generated_Source\PSoC4/CyLib.c ****         uint32 p;
2027:Generated_Source\PSoC4/CyLib.c **** 
2028:Generated_Source\PSoC4/CyLib.c ****         uint32 fvco;
2029:Generated_Source\PSoC4/CyLib.c ****         int32 ferr;
2030:Generated_Source\PSoC4/CyLib.c **** 
2031:Generated_Source\PSoC4/CyLib.c ****         cystatus tmp;
2032:Generated_Source\PSoC4/CyLib.c ****         cystatus returnStatus = CYRET_BAD_PARAM;
2033:Generated_Source\PSoC4/CyLib.c **** 
2034:Generated_Source\PSoC4/CyLib.c **** 
ARM GAS  C:\Users\austc\AppData\Local\Temp\ccjGCJ7Y.s 			page 61


2035:Generated_Source\PSoC4/CyLib.c ****         tmp = CySysClkPllConfigChangeAllowed(pll);
2036:Generated_Source\PSoC4/CyLib.c **** 
2037:Generated_Source\PSoC4/CyLib.c ****         if ((pll < CY_IP_PLL_NR) &&
2038:Generated_Source\PSoC4/CyLib.c ****             (inputFreq  >= CY_SYS_CLK_PLL_INPUT_FREQ_MIN )  && (inputFreq  <= CY_SYS_CLK_PLL_INPUT_
2039:Generated_Source\PSoC4/CyLib.c ****             (pllFreq >= CY_SYS_CLK_PLL_OUTPUT_FREQ_MIN ) && (pllFreq <= CY_SYS_CLK_PLL_OUTPUT_FREQ_
2040:Generated_Source\PSoC4/CyLib.c ****             (divider <= CY_SYS_PLL_OUTPUT_DIV8) &&
2041:Generated_Source\PSoC4/CyLib.c ****             (CYRET_SUCCESS == tmp))
2042:Generated_Source\PSoC4/CyLib.c ****         {
2043:Generated_Source\PSoC4/CyLib.c **** 
2044:Generated_Source\PSoC4/CyLib.c ****             /* Minimum feed forward loop divisor */
2045:Generated_Source\PSoC4/CyLib.c ****             qMin = (inputFreq + (CY_SYS_CLK_PLL_FPFDMAX - 1u)) / CY_SYS_CLK_PLL_FPFDMAX;
2046:Generated_Source\PSoC4/CyLib.c ****             qMin = (qMin < CY_SYS_CLK_PLL_QMINIP) ? CY_SYS_CLK_PLL_QMINIP : qMin;
2047:Generated_Source\PSoC4/CyLib.c **** 
2048:Generated_Source\PSoC4/CyLib.c ****             /* Maximum feed forward loop divisor */
2049:Generated_Source\PSoC4/CyLib.c ****             qMax = inputFreq / CY_SYS_CLK_PLL_FPFDMIN;
2050:Generated_Source\PSoC4/CyLib.c ****             qMax = (qMax > CY_SYS_CLK_PLL_QMAXIP) ? CY_SYS_CLK_PLL_QMAXIP : qMax;
2051:Generated_Source\PSoC4/CyLib.c **** 
2052:Generated_Source\PSoC4/CyLib.c ****             if (qMin <= qMax)
2053:Generated_Source\PSoC4/CyLib.c ****             {
2054:Generated_Source\PSoC4/CyLib.c ****                 for(q = qMin; q <= qMax; q++)
2055:Generated_Source\PSoC4/CyLib.c ****                 {
2056:Generated_Source\PSoC4/CyLib.c ****                     /* Solve for the feedback divisor value */
2057:Generated_Source\PSoC4/CyLib.c **** 
2058:Generated_Source\PSoC4/CyLib.c ****                     /* INT((pllFreq * q ) / inputFreq), where INT is normal rounding  */
2059:Generated_Source\PSoC4/CyLib.c ****                     p = ((pllFreq * q) + (inputFreq / 2u)) / inputFreq;
2060:Generated_Source\PSoC4/CyLib.c **** 
2061:Generated_Source\PSoC4/CyLib.c ****                     /* Calculate the actual VCO frequency (FVCO) */
2062:Generated_Source\PSoC4/CyLib.c ****                     fvco = ((inputFreq * p) / q);
2063:Generated_Source\PSoC4/CyLib.c **** 
2064:Generated_Source\PSoC4/CyLib.c ****                     /* Calculate the frequency error (FERR) */
2065:Generated_Source\PSoC4/CyLib.c ****                     ferr = ((1000000 * ((int32) fvco - (int32) pllFreq))/ (int32) pllFreq);
2066:Generated_Source\PSoC4/CyLib.c **** 
2067:Generated_Source\PSoC4/CyLib.c ****                     /* Bound check the frequency error and decide next action */
2068:Generated_Source\PSoC4/CyLib.c ****                     if ((( -1 * (int32) freqTol) <= ferr) && (ferr <= (int32) freqTol))
2069:Generated_Source\PSoC4/CyLib.c ****                     {
2070:Generated_Source\PSoC4/CyLib.c ****                         qVal = q;
2071:Generated_Source\PSoC4/CyLib.c ****                         pVal = p;
2072:Generated_Source\PSoC4/CyLib.c ****                         break;
2073:Generated_Source\PSoC4/CyLib.c ****                     }
2074:Generated_Source\PSoC4/CyLib.c ****                 }
2075:Generated_Source\PSoC4/CyLib.c **** 
2076:Generated_Source\PSoC4/CyLib.c **** 
2077:Generated_Source\PSoC4/CyLib.c ****                 if ((pVal != CY_SYS_CLK_PLL_INVALID) && (qVal != CY_SYS_CLK_PLL_INVALID))
2078:Generated_Source\PSoC4/CyLib.c ****                 {
2079:Generated_Source\PSoC4/CyLib.c ****                     if (CySysClkPllSetPQ(pll, pVal, qVal, CY_SYS_CLK_PLL_CURRENT_DEFAULT) == CYRET_
2080:Generated_Source\PSoC4/CyLib.c ****                     {
2081:Generated_Source\PSoC4/CyLib.c ****                         returnStatus = CySysClkPllSetOutputDivider(pll, divider);
2082:Generated_Source\PSoC4/CyLib.c ****                     }
2083:Generated_Source\PSoC4/CyLib.c ****                 }
2084:Generated_Source\PSoC4/CyLib.c ****             }
2085:Generated_Source\PSoC4/CyLib.c **** 
2086:Generated_Source\PSoC4/CyLib.c ****         }
2087:Generated_Source\PSoC4/CyLib.c **** 
2088:Generated_Source\PSoC4/CyLib.c ****         return (returnStatus);
2089:Generated_Source\PSoC4/CyLib.c ****     }
2090:Generated_Source\PSoC4/CyLib.c **** 
2091:Generated_Source\PSoC4/CyLib.c ****     /*******************************************************************************
ARM GAS  C:\Users\austc\AppData\Local\Temp\ccjGCJ7Y.s 			page 62


2092:Generated_Source\PSoC4/CyLib.c ****     * Function Name: CySysClkPllSetSource
2093:Generated_Source\PSoC4/CyLib.c ****     ****************************************************************************//**
2094:Generated_Source\PSoC4/CyLib.c ****     *
2095:Generated_Source\PSoC4/CyLib.c ****     *  Sets the input clock source to the PLL. The PLL must be disabled before
2096:Generated_Source\PSoC4/CyLib.c ****     *  calling this function.
2097:Generated_Source\PSoC4/CyLib.c ****     *
2098:Generated_Source\PSoC4/CyLib.c ****     *  This API is available only for PSoC 4200L / 4100S with PLL devices.
2099:Generated_Source\PSoC4/CyLib.c ****     *
2100:Generated_Source\PSoC4/CyLib.c ****     *  \param PLL:
2101:Generated_Source\PSoC4/CyLib.c ****     *  0   PLL#0
2102:Generated_Source\PSoC4/CyLib.c ****     *  1   PLL#1 (available only for PSoC 4200L)
2103:Generated_Source\PSoC4/CyLib.c ****     *
2104:Generated_Source\PSoC4/CyLib.c ****     * \param source:
2105:Generated_Source\PSoC4/CyLib.c ****     *  CY_SYS_PLL_SOURCE_IMO        IMO
2106:Generated_Source\PSoC4/CyLib.c ****     *  CY_SYS_PLL_SOURCE_EXTCLK     External Clock (available only for PSoC 4200L)
2107:Generated_Source\PSoC4/CyLib.c ****     *  CY_SYS_PLL_SOURCE_ECO        ECO
2108:Generated_Source\PSoC4/CyLib.c ****     *  CY_SYS_PLL_SOURCE_DSI0       DSI_OUT[0] (available only for PSoC 4200L)
2109:Generated_Source\PSoC4/CyLib.c ****     *  CY_SYS_PLL_SOURCE_DSI1       DSI_OUT[1] (available only for PSoC 4200L)
2110:Generated_Source\PSoC4/CyLib.c ****     *  CY_SYS_PLL_SOURCE_DSI2       DSI_OUT[2] (available only for PSoC 4200L)
2111:Generated_Source\PSoC4/CyLib.c ****     *  CY_SYS_PLL_SOURCE_DSI3       DSI_OUT[3] (available only for PSoC 4200L)
2112:Generated_Source\PSoC4/CyLib.c ****     *
2113:Generated_Source\PSoC4/CyLib.c ****     *******************************************************************************/
2114:Generated_Source\PSoC4/CyLib.c ****     void CySysClkPllSetSource(uint32 pll, uint32 source)
2115:Generated_Source\PSoC4/CyLib.c ****     {
 1357              		.loc 1 2115 0
 1358              		.cfi_startproc
 1359              		@ args = 0, pretend = 0, frame = 0
 1360              		@ frame_needed = 0, uses_anonymous_args = 0
 1361              	.LVL109:
 1362 0000 70B5     		push	{r4, r5, r6, lr}
 1363              		.cfi_def_cfa_offset 16
 1364              		.cfi_offset 4, -16
 1365              		.cfi_offset 5, -12
 1366              		.cfi_offset 6, -8
 1367              		.cfi_offset 14, -4
 1368 0002 0400     		movs	r4, r0
 1369 0004 0D00     		movs	r5, r1
2116:Generated_Source\PSoC4/CyLib.c ****         uint32 regTmp;
2117:Generated_Source\PSoC4/CyLib.c ****         uint8  interruptState;
2118:Generated_Source\PSoC4/CyLib.c ****         
2119:Generated_Source\PSoC4/CyLib.c ****         #if (CY_IP_SRSSLT)
2120:Generated_Source\PSoC4/CyLib.c ****             uint8 i = 0u;
2121:Generated_Source\PSoC4/CyLib.c ****         #endif /* (CY_IP_SRSSLT) */
2122:Generated_Source\PSoC4/CyLib.c **** 
2123:Generated_Source\PSoC4/CyLib.c ****         interruptState = CyEnterCriticalSection();
 1370              		.loc 1 2123 0
 1371 0006 FFF7FEFF 		bl	CyEnterCriticalSection
 1372              	.LVL110:
2124:Generated_Source\PSoC4/CyLib.c **** 
2125:Generated_Source\PSoC4/CyLib.c ****         if (pll < CY_IP_PLL_NR)
 1373              		.loc 1 2125 0
 1374 000a 012C     		cmp	r4, #1
 1375 000c 0BD8     		bhi	.L110
2126:Generated_Source\PSoC4/CyLib.c ****         {
2127:Generated_Source\PSoC4/CyLib.c ****             #if(CY_IP_SRSSV2)
2128:Generated_Source\PSoC4/CyLib.c ****                 regTmp = CY_SYS_CLK_SELECT_REG & (uint32) ~CY_SYS_CLK_SELECT_PLL_MASK(pll);
 1376              		.loc 1 2128 0
ARM GAS  C:\Users\austc\AppData\Local\Temp\ccjGCJ7Y.s 			page 63


 1377 000e 0749     		ldr	r1, .L111
 1378 0010 0A68     		ldr	r2, [r1]
 1379 0012 0134     		adds	r4, r4, #1
 1380              	.LVL111:
 1381 0014 6300     		lsls	r3, r4, #1
 1382 0016 1C19     		adds	r4, r3, r4
 1383              	.LVL112:
 1384 0018 0723     		movs	r3, #7
 1385 001a A340     		lsls	r3, r3, r4
 1386 001c 9A43     		bics	r2, r3
 1387              	.LVL113:
2129:Generated_Source\PSoC4/CyLib.c ****                 regTmp |= ((source << CY_SYS_CLK_SELECT_PLL_SHIFT(pll)) & CY_SYS_CLK_SELECT_PLL_MAS
 1388              		.loc 1 2129 0
 1389 001e A540     		lsls	r5, r5, r4
 1390              	.LVL114:
 1391 0020 2B40     		ands	r3, r5
 1392 0022 1343     		orrs	r3, r2
 1393              	.LVL115:
2130:Generated_Source\PSoC4/CyLib.c ****                 CY_SYS_CLK_SELECT_REG = regTmp;
 1394              		.loc 1 2130 0
 1395 0024 0B60     		str	r3, [r1]
 1396              	.LVL116:
 1397              	.L110:
2131:Generated_Source\PSoC4/CyLib.c ****             #else
2132:Generated_Source\PSoC4/CyLib.c ****                 regTmp = CY_SYS_ECO_CLK_SELECT_REG & (uint32) ~CY_SYS_ECO_CLK_SELECT_PLL0_MASK;
2133:Generated_Source\PSoC4/CyLib.c ****                 regTmp |= ((source << CY_SYS_ECO_CLK_SELECT_PLL0_SHIFT) & CY_SYS_ECO_CLK_SELECT_PLL
2134:Generated_Source\PSoC4/CyLib.c ****                 CY_SYS_ECO_CLK_SELECT_REG = regTmp;
2135:Generated_Source\PSoC4/CyLib.c ****                 
2136:Generated_Source\PSoC4/CyLib.c ****                 /* Generate clock sequence to change clock source in CY_SYS_ECO_CLK_SELECT_REG */
2137:Generated_Source\PSoC4/CyLib.c ****                 CY_SYS_EXCO_PGM_CLK_REG |= CY_SYS_EXCO_PGM_CLK_ENABLE_MASK;
2138:Generated_Source\PSoC4/CyLib.c ****                 
2139:Generated_Source\PSoC4/CyLib.c ****                 for(i = 0u; i < CY_SYS_EXCO_PGM_CLK_SEQ_GENERATOR; i++)
2140:Generated_Source\PSoC4/CyLib.c ****                 {
2141:Generated_Source\PSoC4/CyLib.c ****                     CY_SYS_EXCO_PGM_CLK_REG |= CY_SYS_EXCO_PGM_CLK_CLK_ECO_MASK;
2142:Generated_Source\PSoC4/CyLib.c ****                     CY_SYS_EXCO_PGM_CLK_REG &= ~CY_SYS_EXCO_PGM_CLK_CLK_ECO_MASK;
2143:Generated_Source\PSoC4/CyLib.c ****                 }
2144:Generated_Source\PSoC4/CyLib.c ****                 
2145:Generated_Source\PSoC4/CyLib.c ****                 CY_SYS_EXCO_PGM_CLK_REG &= ~CY_SYS_EXCO_PGM_CLK_ENABLE_MASK;
2146:Generated_Source\PSoC4/CyLib.c **** 
2147:Generated_Source\PSoC4/CyLib.c ****             #endif /* (CY_IP_SRSSV2) */
2148:Generated_Source\PSoC4/CyLib.c ****         }
2149:Generated_Source\PSoC4/CyLib.c **** 
2150:Generated_Source\PSoC4/CyLib.c ****         CyExitCriticalSection(interruptState);
 1398              		.loc 1 2150 0
 1399 0026 FFF7FEFF 		bl	CyExitCriticalSection
 1400              	.LVL117:
2151:Generated_Source\PSoC4/CyLib.c ****     }
 1401              		.loc 1 2151 0
 1402              		@ sp needed
 1403 002a 70BD     		pop	{r4, r5, r6, pc}
 1404              	.L112:
 1405              		.align	2
 1406              	.L111:
 1407 002c 00010B40 		.word	1074462976
 1408              		.cfi_endproc
 1409              	.LFE28:
 1410              		.size	CySysClkPllSetSource, .-CySysClkPllSetSource
ARM GAS  C:\Users\austc\AppData\Local\Temp\ccjGCJ7Y.s 			page 64


 1411              		.section	.text.CySysLvdDisable,"ax",%progbits
 1412              		.align	2
 1413              		.global	CySysLvdDisable
 1414              		.code	16
 1415              		.thumb_func
 1416              		.type	CySysLvdDisable, %function
 1417              	CySysLvdDisable:
 1418              	.LFB31:
2152:Generated_Source\PSoC4/CyLib.c **** 
2153:Generated_Source\PSoC4/CyLib.c ****     
2154:Generated_Source\PSoC4/CyLib.c ****     /*******************************************************************************
2155:Generated_Source\PSoC4/CyLib.c ****     * Function Name: CySysClkPllSetOutputDivider
2156:Generated_Source\PSoC4/CyLib.c ****     ****************************************************************************//**
2157:Generated_Source\PSoC4/CyLib.c ****     *
2158:Generated_Source\PSoC4/CyLib.c ****     *  Sets the output clock divider for the PLL.
2159:Generated_Source\PSoC4/CyLib.c ****     *
2160:Generated_Source\PSoC4/CyLib.c ****     *  The PLL must not be the System Clock source when calling this function. The
2161:Generated_Source\PSoC4/CyLib.c ****     *  PLL output will glitch during this function call.
2162:Generated_Source\PSoC4/CyLib.c ****     *
2163:Generated_Source\PSoC4/CyLib.c ****     *  This API is available only for PSoC 4200L / 4100S with PLL devices.
2164:Generated_Source\PSoC4/CyLib.c ****     *
2165:Generated_Source\PSoC4/CyLib.c ****     *  \param PLL:
2166:Generated_Source\PSoC4/CyLib.c ****     *   0   PLL#0
2167:Generated_Source\PSoC4/CyLib.c ****     *   1   PLL#1 (available only for PSoC 4200L)
2168:Generated_Source\PSoC4/CyLib.c ****     *
2169:Generated_Source\PSoC4/CyLib.c ****     * \param divider:
2170:Generated_Source\PSoC4/CyLib.c ****     *  CY_SYS_PLL_OUTPUT_DIVPASS    Pass through
2171:Generated_Source\PSoC4/CyLib.c ****     *  CY_SYS_PLL_OUTPUT_DIV2       Divide by 2
2172:Generated_Source\PSoC4/CyLib.c ****     *  CY_SYS_PLL_OUTPUT_DIV4       Divide by 4
2173:Generated_Source\PSoC4/CyLib.c ****     *  CY_SYS_PLL_OUTPUT_DIV8       Divide by 8
2174:Generated_Source\PSoC4/CyLib.c ****     *
2175:Generated_Source\PSoC4/CyLib.c ****     * \return \ref CYRET_SUCCESS    Completed successfully.
2176:Generated_Source\PSoC4/CyLib.c ****     * \return \ref CYRET_BAD_PARAM  The parameters are out of range or the
2177:Generated_Source\PSoC4/CyLib.c ****     * specified PLL sources the System clock.
2178:Generated_Source\PSoC4/CyLib.c ****     *
2179:Generated_Source\PSoC4/CyLib.c ****     *******************************************************************************/
2180:Generated_Source\PSoC4/CyLib.c ****     cystatus CySysClkPllSetOutputDivider(uint32 pll, uint32 divider)
2181:Generated_Source\PSoC4/CyLib.c ****     {
2182:Generated_Source\PSoC4/CyLib.c ****         uint32   tmpReg;
2183:Generated_Source\PSoC4/CyLib.c ****         uint8    interruptState;
2184:Generated_Source\PSoC4/CyLib.c ****         cystatus returnStatus = CYRET_BAD_PARAM;
2185:Generated_Source\PSoC4/CyLib.c ****         cystatus tmp;
2186:Generated_Source\PSoC4/CyLib.c **** 
2187:Generated_Source\PSoC4/CyLib.c **** 
2188:Generated_Source\PSoC4/CyLib.c ****         interruptState = CyEnterCriticalSection();
2189:Generated_Source\PSoC4/CyLib.c **** 
2190:Generated_Source\PSoC4/CyLib.c ****         tmp = CySysClkPllConfigChangeAllowed(pll);
2191:Generated_Source\PSoC4/CyLib.c **** 
2192:Generated_Source\PSoC4/CyLib.c ****         if ((pll < CY_IP_PLL_NR) && (CYRET_SUCCESS == tmp) && (divider <= CY_SYS_PLL_OUTPUT_DIV8))
2193:Generated_Source\PSoC4/CyLib.c ****         {
2194:Generated_Source\PSoC4/CyLib.c ****             tmpReg  = CY_SYS_CLK_PLL_BASE.pll[pll].config & (uint32) ~(CY_SYS_CLK_PLL_CONFIG_OUTPUT
2195:Generated_Source\PSoC4/CyLib.c ****             tmpReg |= ((divider << CY_SYS_CLK_PLL_CONFIG_OUTPUT_DIV_SHIFT) & CY_SYS_CLK_PLL_CONFIG_
2196:Generated_Source\PSoC4/CyLib.c **** 
2197:Generated_Source\PSoC4/CyLib.c ****             CY_SYS_CLK_PLL_BASE.pll[pll].config = tmpReg;
2198:Generated_Source\PSoC4/CyLib.c **** 
2199:Generated_Source\PSoC4/CyLib.c ****             returnStatus = CYRET_SUCCESS;
2200:Generated_Source\PSoC4/CyLib.c ****         }
ARM GAS  C:\Users\austc\AppData\Local\Temp\ccjGCJ7Y.s 			page 65


2201:Generated_Source\PSoC4/CyLib.c **** 
2202:Generated_Source\PSoC4/CyLib.c ****         CyExitCriticalSection(interruptState);
2203:Generated_Source\PSoC4/CyLib.c **** 
2204:Generated_Source\PSoC4/CyLib.c ****         return (returnStatus);
2205:Generated_Source\PSoC4/CyLib.c ****     }
2206:Generated_Source\PSoC4/CyLib.c **** #endif /* (CY_IP_PLL) */
2207:Generated_Source\PSoC4/CyLib.c **** 
2208:Generated_Source\PSoC4/CyLib.c **** 
2209:Generated_Source\PSoC4/CyLib.c **** #if(CY_IP_SRSSV2)
2210:Generated_Source\PSoC4/CyLib.c **** 
2211:Generated_Source\PSoC4/CyLib.c ****     /*******************************************************************************
2212:Generated_Source\PSoC4/CyLib.c ****     * Function Name: CySysLvdEnable
2213:Generated_Source\PSoC4/CyLib.c ****     ****************************************************************************//**
2214:Generated_Source\PSoC4/CyLib.c ****     *
2215:Generated_Source\PSoC4/CyLib.c ****     *  Enables the output of the low-voltage monitor when Vddd is at or below the
2216:Generated_Source\PSoC4/CyLib.c ****     *  trip point, configures the device to generate an interrupt, and sets the
2217:Generated_Source\PSoC4/CyLib.c ****     *  voltage trip level.
2218:Generated_Source\PSoC4/CyLib.c ****     *
2219:Generated_Source\PSoC4/CyLib.c ****     *  \param threshold: Threshold selection for Low Voltage Detect circuit.
2220:Generated_Source\PSoC4/CyLib.c ****     *  Threshold variation is +/- 2.5% from these typical voltage choices.
2221:Generated_Source\PSoC4/CyLib.c ****     *         Define                     Voltage threshold
2222:Generated_Source\PSoC4/CyLib.c ****     *    CY_LVD_THRESHOLD_1_75_V       1.7500 V
2223:Generated_Source\PSoC4/CyLib.c ****     *    CY_LVD_THRESHOLD_1_80_V       1.8000 V
2224:Generated_Source\PSoC4/CyLib.c ****     *    CY_LVD_THRESHOLD_1_90_V       1.9000 V
2225:Generated_Source\PSoC4/CyLib.c ****     *    CY_LVD_THRESHOLD_2_00_V       2.0000 V
2226:Generated_Source\PSoC4/CyLib.c ****     *    CY_LVD_THRESHOLD_2_10_V       2.1000 V
2227:Generated_Source\PSoC4/CyLib.c ****     *    CY_LVD_THRESHOLD_2_20_V       2.2000 V
2228:Generated_Source\PSoC4/CyLib.c ****     *    CY_LVD_THRESHOLD_2_30_V       2.3000 V
2229:Generated_Source\PSoC4/CyLib.c ****     *    CY_LVD_THRESHOLD_2_40_V       2.4000 V
2230:Generated_Source\PSoC4/CyLib.c ****     *    CY_LVD_THRESHOLD_2_50_V       2.5000 V
2231:Generated_Source\PSoC4/CyLib.c ****     *    CY_LVD_THRESHOLD_2_60_V       2.6000 V
2232:Generated_Source\PSoC4/CyLib.c ****     *    CY_LVD_THRESHOLD_2_70_V       2.7000 V
2233:Generated_Source\PSoC4/CyLib.c ****     *    CY_LVD_THRESHOLD_2_80_V       2.8000 V
2234:Generated_Source\PSoC4/CyLib.c ****     *    CY_LVD_THRESHOLD_2_90_V       2.9000 V
2235:Generated_Source\PSoC4/CyLib.c ****     *    CY_LVD_THRESHOLD_3_00_V       3.0000 V
2236:Generated_Source\PSoC4/CyLib.c ****     *    CY_LVD_THRESHOLD_3_20_V       3.2000 V
2237:Generated_Source\PSoC4/CyLib.c ****     *    CY_LVD_THRESHOLD_4_50_V       4.5000 V
2238:Generated_Source\PSoC4/CyLib.c ****     *
2239:Generated_Source\PSoC4/CyLib.c ****     *******************************************************************************/
2240:Generated_Source\PSoC4/CyLib.c ****     void CySysLvdEnable(uint32 threshold)
2241:Generated_Source\PSoC4/CyLib.c ****     {
2242:Generated_Source\PSoC4/CyLib.c ****         /* Prevent propagating a false interrupt */
2243:Generated_Source\PSoC4/CyLib.c ****         CY_LVD_PWR_INTR_MASK_REG   &= (uint32) ~CY_LVD_PROPAGATE_INT_TO_CPU;
2244:Generated_Source\PSoC4/CyLib.c **** 
2245:Generated_Source\PSoC4/CyLib.c ****         /* Set specified threshold */
2246:Generated_Source\PSoC4/CyLib.c ****         CY_LVD_PWR_VMON_CONFIG_REG = (CY_LVD_PWR_VMON_CONFIG_REG & ~CY_LVD_PWR_VMON_CONFIG_LVD_SEL_
2247:Generated_Source\PSoC4/CyLib.c ****                 ((threshold << CY_LVD_PWR_VMON_CONFIG_LVD_SEL_SHIFT) & CY_LVD_PWR_VMON_CONFIG_LVD_S
2248:Generated_Source\PSoC4/CyLib.c **** 
2249:Generated_Source\PSoC4/CyLib.c ****         /* Enable the LVD. This may cause a false LVD event. */
2250:Generated_Source\PSoC4/CyLib.c ****         CY_LVD_PWR_VMON_CONFIG_REG |= CY_LVD_PWR_VMON_CONFIG_LVD_EN;
2251:Generated_Source\PSoC4/CyLib.c **** 
2252:Generated_Source\PSoC4/CyLib.c ****         /* Wait for the circuit to stabilize */
2253:Generated_Source\PSoC4/CyLib.c ****         CyDelayUs(CY_LVD_STABILIZE_TIMEOUT_US);
2254:Generated_Source\PSoC4/CyLib.c **** 
2255:Generated_Source\PSoC4/CyLib.c ****         /* Clear the false event */
2256:Generated_Source\PSoC4/CyLib.c ****         CySysLvdClearInterrupt();
2257:Generated_Source\PSoC4/CyLib.c **** 
ARM GAS  C:\Users\austc\AppData\Local\Temp\ccjGCJ7Y.s 			page 66


2258:Generated_Source\PSoC4/CyLib.c ****         /* Unmask the interrupt */
2259:Generated_Source\PSoC4/CyLib.c ****         CY_LVD_PWR_INTR_MASK_REG   |= CY_LVD_PROPAGATE_INT_TO_CPU;
2260:Generated_Source\PSoC4/CyLib.c ****     }
2261:Generated_Source\PSoC4/CyLib.c **** 
2262:Generated_Source\PSoC4/CyLib.c **** 
2263:Generated_Source\PSoC4/CyLib.c ****     /*******************************************************************************
2264:Generated_Source\PSoC4/CyLib.c ****     * Function Name: CySysLvdDisable
2265:Generated_Source\PSoC4/CyLib.c ****     ****************************************************************************//**
2266:Generated_Source\PSoC4/CyLib.c ****     *
2267:Generated_Source\PSoC4/CyLib.c ****     *  Disables the low voltage detection. A low voltage interrupt is disabled.
2268:Generated_Source\PSoC4/CyLib.c ****     *
2269:Generated_Source\PSoC4/CyLib.c ****     *******************************************************************************/
2270:Generated_Source\PSoC4/CyLib.c ****     void CySysLvdDisable(void)
2271:Generated_Source\PSoC4/CyLib.c ****     {
 1419              		.loc 1 2271 0
 1420              		.cfi_startproc
 1421              		@ args = 0, pretend = 0, frame = 0
 1422              		@ frame_needed = 0, uses_anonymous_args = 0
 1423              		@ link register save eliminated.
2272:Generated_Source\PSoC4/CyLib.c ****         CY_LVD_PWR_INTR_MASK_REG   &= ~CY_LVD_PROPAGATE_INT_TO_CPU;
 1424              		.loc 1 2272 0
 1425 0000 054A     		ldr	r2, .L114
 1426 0002 1368     		ldr	r3, [r2]
 1427 0004 0221     		movs	r1, #2
 1428 0006 8B43     		bics	r3, r1
 1429 0008 1360     		str	r3, [r2]
2273:Generated_Source\PSoC4/CyLib.c ****         CY_LVD_PWR_VMON_CONFIG_REG &= ~CY_LVD_PWR_VMON_CONFIG_LVD_EN;
 1430              		.loc 1 2273 0
 1431 000a 044A     		ldr	r2, .L114+4
 1432 000c 1368     		ldr	r3, [r2]
 1433 000e 0139     		subs	r1, r1, #1
 1434 0010 8B43     		bics	r3, r1
 1435 0012 1360     		str	r3, [r2]
2274:Generated_Source\PSoC4/CyLib.c ****     }
 1436              		.loc 1 2274 0
 1437              		@ sp needed
 1438 0014 7047     		bx	lr
 1439              	.L115:
 1440 0016 C046     		.align	2
 1441              	.L114:
 1442 0018 08000B40 		.word	1074462728
 1443 001c 18000B40 		.word	1074462744
 1444              		.cfi_endproc
 1445              	.LFE31:
 1446              		.size	CySysLvdDisable, .-CySysLvdDisable
 1447              		.section	.text.CySysLvdGetInterruptSource,"ax",%progbits
 1448              		.align	2
 1449              		.global	CySysLvdGetInterruptSource
 1450              		.code	16
 1451              		.thumb_func
 1452              		.type	CySysLvdGetInterruptSource, %function
 1453              	CySysLvdGetInterruptSource:
 1454              	.LFB32:
2275:Generated_Source\PSoC4/CyLib.c **** 
2276:Generated_Source\PSoC4/CyLib.c **** 
2277:Generated_Source\PSoC4/CyLib.c ****     /*******************************************************************************
2278:Generated_Source\PSoC4/CyLib.c ****     * Function Name: CySysLvdGetInterruptSource
ARM GAS  C:\Users\austc\AppData\Local\Temp\ccjGCJ7Y.s 			page 67


2279:Generated_Source\PSoC4/CyLib.c ****     ****************************************************************************//**
2280:Generated_Source\PSoC4/CyLib.c ****     *
2281:Generated_Source\PSoC4/CyLib.c ****     *  Gets the low voltage detection interrupt status (without clearing).
2282:Generated_Source\PSoC4/CyLib.c ****     *
2283:Generated_Source\PSoC4/CyLib.c ****     * \return
2284:Generated_Source\PSoC4/CyLib.c ****     *  Interrupt request value:
2285:Generated_Source\PSoC4/CyLib.c ****     *    CY_SYS_LVD_INT - Indicates an Low Voltage Detect interrupt
2286:Generated_Source\PSoC4/CyLib.c ****     *
2287:Generated_Source\PSoC4/CyLib.c ****     *******************************************************************************/
2288:Generated_Source\PSoC4/CyLib.c ****     uint32 CySysLvdGetInterruptSource(void)
2289:Generated_Source\PSoC4/CyLib.c ****     {
 1455              		.loc 1 2289 0
 1456              		.cfi_startproc
 1457              		@ args = 0, pretend = 0, frame = 0
 1458              		@ frame_needed = 0, uses_anonymous_args = 0
 1459              		@ link register save eliminated.
2290:Generated_Source\PSoC4/CyLib.c ****         return (CY_LVD_PWR_INTR_REG & CY_SYS_LVD_INT);
 1460              		.loc 1 2290 0
 1461 0000 024B     		ldr	r3, .L117
 1462 0002 1B68     		ldr	r3, [r3]
 1463 0004 0220     		movs	r0, #2
 1464 0006 1840     		ands	r0, r3
2291:Generated_Source\PSoC4/CyLib.c ****     }
 1465              		.loc 1 2291 0
 1466              		@ sp needed
 1467 0008 7047     		bx	lr
 1468              	.L118:
 1469 000a C046     		.align	2
 1470              	.L117:
 1471 000c 04000B40 		.word	1074462724
 1472              		.cfi_endproc
 1473              	.LFE32:
 1474              		.size	CySysLvdGetInterruptSource, .-CySysLvdGetInterruptSource
 1475              		.section	.text.CySysLvdClearInterrupt,"ax",%progbits
 1476              		.align	2
 1477              		.global	CySysLvdClearInterrupt
 1478              		.code	16
 1479              		.thumb_func
 1480              		.type	CySysLvdClearInterrupt, %function
 1481              	CySysLvdClearInterrupt:
 1482              	.LFB33:
2292:Generated_Source\PSoC4/CyLib.c **** 
2293:Generated_Source\PSoC4/CyLib.c **** 
2294:Generated_Source\PSoC4/CyLib.c ****     /*******************************************************************************
2295:Generated_Source\PSoC4/CyLib.c ****     * Function Name: CySysLvdClearInterrupt
2296:Generated_Source\PSoC4/CyLib.c ****     ****************************************************************************//**
2297:Generated_Source\PSoC4/CyLib.c ****     *
2298:Generated_Source\PSoC4/CyLib.c ****     *  Clears the low voltage detection interrupt status.
2299:Generated_Source\PSoC4/CyLib.c ****     *
2300:Generated_Source\PSoC4/CyLib.c ****     * \return
2301:Generated_Source\PSoC4/CyLib.c ****     *  None
2302:Generated_Source\PSoC4/CyLib.c ****     *
2303:Generated_Source\PSoC4/CyLib.c ****     *******************************************************************************/
2304:Generated_Source\PSoC4/CyLib.c ****     void CySysLvdClearInterrupt(void)
2305:Generated_Source\PSoC4/CyLib.c ****     {
 1483              		.loc 1 2305 0
 1484              		.cfi_startproc
ARM GAS  C:\Users\austc\AppData\Local\Temp\ccjGCJ7Y.s 			page 68


 1485              		@ args = 0, pretend = 0, frame = 0
 1486              		@ frame_needed = 0, uses_anonymous_args = 0
 1487              		@ link register save eliminated.
2306:Generated_Source\PSoC4/CyLib.c ****         CY_LVD_PWR_INTR_REG = CY_SYS_LVD_INT;
 1488              		.loc 1 2306 0
 1489 0000 0222     		movs	r2, #2
 1490 0002 014B     		ldr	r3, .L120
 1491 0004 1A60     		str	r2, [r3]
2307:Generated_Source\PSoC4/CyLib.c ****     }
 1492              		.loc 1 2307 0
 1493              		@ sp needed
 1494 0006 7047     		bx	lr
 1495              	.L121:
 1496              		.align	2
 1497              	.L120:
 1498 0008 04000B40 		.word	1074462724
 1499              		.cfi_endproc
 1500              	.LFE33:
 1501              		.size	CySysLvdClearInterrupt, .-CySysLvdClearInterrupt
 1502              		.section	.text.CySysGetResetReason,"ax",%progbits
