ARM GAS  C:\Users\austc\AppData\Local\Temp\cc6VqEWM.s 			page 1


   1              		.syntax unified
   2              		.cpu cortex-m0
   3              		.fpu softvfp
   4              		.eabi_attribute 20, 1
   5              		.eabi_attribute 21, 1
   6              		.eabi_attribute 23, 3
   7              		.eabi_attribute 24, 1
   8              		.eabi_attribute 25, 1
   9              		.eabi_attribute 26, 1
  10              		.eabi_attribute 30, 1
  11              		.eabi_attribute 34, 0
  12              		.eabi_attribute 18, 4
  13              		.thumb
  14              		.syntax unified
  15              		.file	"I2C_1_I2C.c"
  16              		.text
  17              	.Ltext0:
  18              		.cfi_sections	.debug_frame
  19              		.section	.text.I2C_1_I2CInit,"ax",%progbits
  20              		.align	2
  21              		.global	I2C_1_I2CInit
  22              		.code	16
  23              		.thumb_func
  24              		.type	I2C_1_I2CInit, %function
  25              	I2C_1_I2CInit:
  26              	.LFB1:
  27              		.file 1 "Generated_Source\\PSoC4\\I2C_1_I2C.c"
   1:Generated_Source\PSoC4/I2C_1_I2C.c **** /***************************************************************************//**
   2:Generated_Source\PSoC4/I2C_1_I2C.c **** * \file I2C_1_I2C.c
   3:Generated_Source\PSoC4/I2C_1_I2C.c **** * \version 4.0
   4:Generated_Source\PSoC4/I2C_1_I2C.c **** *
   5:Generated_Source\PSoC4/I2C_1_I2C.c **** * \brief
   6:Generated_Source\PSoC4/I2C_1_I2C.c **** *  This file provides the source code to the API for the SCB Component in
   7:Generated_Source\PSoC4/I2C_1_I2C.c **** *  I2C mode.
   8:Generated_Source\PSoC4/I2C_1_I2C.c **** *
   9:Generated_Source\PSoC4/I2C_1_I2C.c **** * Note:
  10:Generated_Source\PSoC4/I2C_1_I2C.c **** *
  11:Generated_Source\PSoC4/I2C_1_I2C.c **** *******************************************************************************
  12:Generated_Source\PSoC4/I2C_1_I2C.c **** * \copyright
  13:Generated_Source\PSoC4/I2C_1_I2C.c **** * Copyright 2013-2017, Cypress Semiconductor Corporation.  All rights reserved.
  14:Generated_Source\PSoC4/I2C_1_I2C.c **** * You may use this file only in accordance with the license, terms, conditions,
  15:Generated_Source\PSoC4/I2C_1_I2C.c **** * disclaimers, and limitations in the end user license agreement accompanying
  16:Generated_Source\PSoC4/I2C_1_I2C.c **** * the software package with which this file was provided.
  17:Generated_Source\PSoC4/I2C_1_I2C.c **** *******************************************************************************/
  18:Generated_Source\PSoC4/I2C_1_I2C.c **** 
  19:Generated_Source\PSoC4/I2C_1_I2C.c **** #include "I2C_1_PVT.h"
  20:Generated_Source\PSoC4/I2C_1_I2C.c **** #include "I2C_1_I2C_PVT.h"
  21:Generated_Source\PSoC4/I2C_1_I2C.c **** 
  22:Generated_Source\PSoC4/I2C_1_I2C.c **** 
  23:Generated_Source\PSoC4/I2C_1_I2C.c **** /***************************************
  24:Generated_Source\PSoC4/I2C_1_I2C.c **** *      I2C Private Vars
  25:Generated_Source\PSoC4/I2C_1_I2C.c **** ***************************************/
  26:Generated_Source\PSoC4/I2C_1_I2C.c **** 
  27:Generated_Source\PSoC4/I2C_1_I2C.c **** volatile uint8 I2C_1_state;  /* Current state of I2C FSM */
  28:Generated_Source\PSoC4/I2C_1_I2C.c **** 
  29:Generated_Source\PSoC4/I2C_1_I2C.c **** #if(I2C_1_SCB_MODE_UNCONFIG_CONST_CFG)
  30:Generated_Source\PSoC4/I2C_1_I2C.c **** 
ARM GAS  C:\Users\austc\AppData\Local\Temp\cc6VqEWM.s 			page 2


  31:Generated_Source\PSoC4/I2C_1_I2C.c ****     /***************************************
  32:Generated_Source\PSoC4/I2C_1_I2C.c ****     *  Configuration Structure Initialization
  33:Generated_Source\PSoC4/I2C_1_I2C.c ****     ***************************************/
  34:Generated_Source\PSoC4/I2C_1_I2C.c **** 
  35:Generated_Source\PSoC4/I2C_1_I2C.c ****     /* Constant configuration of I2C */
  36:Generated_Source\PSoC4/I2C_1_I2C.c ****     const I2C_1_I2C_INIT_STRUCT I2C_1_configI2C =
  37:Generated_Source\PSoC4/I2C_1_I2C.c ****     {
  38:Generated_Source\PSoC4/I2C_1_I2C.c ****         I2C_1_I2C_MODE,
  39:Generated_Source\PSoC4/I2C_1_I2C.c ****         I2C_1_I2C_OVS_FACTOR_LOW,
  40:Generated_Source\PSoC4/I2C_1_I2C.c ****         I2C_1_I2C_OVS_FACTOR_HIGH,
  41:Generated_Source\PSoC4/I2C_1_I2C.c ****         I2C_1_I2C_MEDIAN_FILTER_ENABLE,
  42:Generated_Source\PSoC4/I2C_1_I2C.c ****         I2C_1_I2C_SLAVE_ADDRESS,
  43:Generated_Source\PSoC4/I2C_1_I2C.c ****         I2C_1_I2C_SLAVE_ADDRESS_MASK,
  44:Generated_Source\PSoC4/I2C_1_I2C.c ****         I2C_1_I2C_ACCEPT_ADDRESS,
  45:Generated_Source\PSoC4/I2C_1_I2C.c ****         I2C_1_I2C_WAKE_ENABLE,
  46:Generated_Source\PSoC4/I2C_1_I2C.c ****         I2C_1_I2C_BYTE_MODE_ENABLE,
  47:Generated_Source\PSoC4/I2C_1_I2C.c ****         I2C_1_I2C_DATA_RATE,
  48:Generated_Source\PSoC4/I2C_1_I2C.c ****         I2C_1_I2C_ACCEPT_GENERAL_CALL,
  49:Generated_Source\PSoC4/I2C_1_I2C.c ****     };
  50:Generated_Source\PSoC4/I2C_1_I2C.c **** 
  51:Generated_Source\PSoC4/I2C_1_I2C.c ****     /*******************************************************************************
  52:Generated_Source\PSoC4/I2C_1_I2C.c ****     * Function Name: I2C_1_I2CInit
  53:Generated_Source\PSoC4/I2C_1_I2C.c ****     ****************************************************************************//**
  54:Generated_Source\PSoC4/I2C_1_I2C.c ****     *
  55:Generated_Source\PSoC4/I2C_1_I2C.c ****     *
  56:Generated_Source\PSoC4/I2C_1_I2C.c ****     *  Configures the I2C_1 for I2C operation.
  57:Generated_Source\PSoC4/I2C_1_I2C.c ****     *
  58:Generated_Source\PSoC4/I2C_1_I2C.c ****     *  This function is intended specifically to be used when the I2C_1 
  59:Generated_Source\PSoC4/I2C_1_I2C.c ****     *  configuration is set to “Unconfigured I2C_1” in the customizer. 
  60:Generated_Source\PSoC4/I2C_1_I2C.c ****     *  After initializing the I2C_1 in I2C mode using this function, 
  61:Generated_Source\PSoC4/I2C_1_I2C.c ****     *  the component can be enabled using the I2C_1_Start() or 
  62:Generated_Source\PSoC4/I2C_1_I2C.c ****     * I2C_1_Enable() function.
  63:Generated_Source\PSoC4/I2C_1_I2C.c ****     *  This function uses a pointer to a structure that provides the configuration 
  64:Generated_Source\PSoC4/I2C_1_I2C.c ****     *  settings. This structure contains the same information that would otherwise 
  65:Generated_Source\PSoC4/I2C_1_I2C.c ****     *  be provided by the customizer settings.
  66:Generated_Source\PSoC4/I2C_1_I2C.c ****     *
  67:Generated_Source\PSoC4/I2C_1_I2C.c ****     *  \param config: pointer to a structure that contains the following list of 
  68:Generated_Source\PSoC4/I2C_1_I2C.c ****     *   fields. These fields match the selections available in the customizer. 
  69:Generated_Source\PSoC4/I2C_1_I2C.c ****     *   Refer to the customizer for further description of the settings.
  70:Generated_Source\PSoC4/I2C_1_I2C.c ****     *
  71:Generated_Source\PSoC4/I2C_1_I2C.c ****     *******************************************************************************/
  72:Generated_Source\PSoC4/I2C_1_I2C.c ****     void I2C_1_I2CInit(const I2C_1_I2C_INIT_STRUCT *config)
  73:Generated_Source\PSoC4/I2C_1_I2C.c ****     {
  74:Generated_Source\PSoC4/I2C_1_I2C.c ****         uint32 medianFilter;
  75:Generated_Source\PSoC4/I2C_1_I2C.c ****         uint32 locEnableWake;
  76:Generated_Source\PSoC4/I2C_1_I2C.c **** 
  77:Generated_Source\PSoC4/I2C_1_I2C.c ****         if(NULL == config)
  78:Generated_Source\PSoC4/I2C_1_I2C.c ****         {
  79:Generated_Source\PSoC4/I2C_1_I2C.c ****             CYASSERT(0u != 0u); /* Halt execution due to bad function parameter */
  80:Generated_Source\PSoC4/I2C_1_I2C.c ****         }
  81:Generated_Source\PSoC4/I2C_1_I2C.c ****         else
  82:Generated_Source\PSoC4/I2C_1_I2C.c ****         {
  83:Generated_Source\PSoC4/I2C_1_I2C.c ****             /* Configure pins */
  84:Generated_Source\PSoC4/I2C_1_I2C.c ****             I2C_1_SetPins(I2C_1_SCB_MODE_I2C, I2C_1_DUMMY_PARAM,
  85:Generated_Source\PSoC4/I2C_1_I2C.c ****                                      I2C_1_DUMMY_PARAM);
  86:Generated_Source\PSoC4/I2C_1_I2C.c **** 
  87:Generated_Source\PSoC4/I2C_1_I2C.c ****             /* Store internal configuration */
ARM GAS  C:\Users\austc\AppData\Local\Temp\cc6VqEWM.s 			page 3


  88:Generated_Source\PSoC4/I2C_1_I2C.c ****             I2C_1_scbMode       = (uint8) I2C_1_SCB_MODE_I2C;
  89:Generated_Source\PSoC4/I2C_1_I2C.c ****             I2C_1_scbEnableWake = (uint8) config->enableWake;
  90:Generated_Source\PSoC4/I2C_1_I2C.c ****             I2C_1_scbEnableIntr = (uint8) I2C_1_SCB_IRQ_INTERNAL;
  91:Generated_Source\PSoC4/I2C_1_I2C.c **** 
  92:Generated_Source\PSoC4/I2C_1_I2C.c ****             I2C_1_mode          = (uint8) config->mode;
  93:Generated_Source\PSoC4/I2C_1_I2C.c ****             I2C_1_acceptAddr    = (uint8) config->acceptAddr;
  94:Generated_Source\PSoC4/I2C_1_I2C.c **** 
  95:Generated_Source\PSoC4/I2C_1_I2C.c ****         #if (I2C_1_CY_SCBIP_V0)
  96:Generated_Source\PSoC4/I2C_1_I2C.c ****             /* Adjust SDA filter settings. Ticket ID#150521 */
  97:Generated_Source\PSoC4/I2C_1_I2C.c ****             I2C_1_SET_I2C_CFG_SDA_FILT_TRIM(I2C_1_EC_AM_I2C_CFG_SDA_FILT_TRIM);
  98:Generated_Source\PSoC4/I2C_1_I2C.c ****         #endif /* (I2C_1_CY_SCBIP_V0) */
  99:Generated_Source\PSoC4/I2C_1_I2C.c **** 
 100:Generated_Source\PSoC4/I2C_1_I2C.c ****             /* Adjust AF and DF filter settings. Ticket ID#176179 */
 101:Generated_Source\PSoC4/I2C_1_I2C.c ****             if (((I2C_1_I2C_MODE_SLAVE != config->mode) &&
 102:Generated_Source\PSoC4/I2C_1_I2C.c ****                  (config->dataRate <= I2C_1_I2C_DATA_RATE_FS_MODE_MAX)) ||
 103:Generated_Source\PSoC4/I2C_1_I2C.c ****                  (I2C_1_I2C_MODE_SLAVE == config->mode))
 104:Generated_Source\PSoC4/I2C_1_I2C.c ****             {
 105:Generated_Source\PSoC4/I2C_1_I2C.c ****                 /* AF = 1, DF = 0 */
 106:Generated_Source\PSoC4/I2C_1_I2C.c ****                 I2C_1_I2C_CFG_ANALOG_FITER_ENABLE;
 107:Generated_Source\PSoC4/I2C_1_I2C.c ****                 medianFilter = I2C_1_DIGITAL_FILTER_DISABLE;
 108:Generated_Source\PSoC4/I2C_1_I2C.c ****             }
 109:Generated_Source\PSoC4/I2C_1_I2C.c ****             else
 110:Generated_Source\PSoC4/I2C_1_I2C.c ****             {
 111:Generated_Source\PSoC4/I2C_1_I2C.c ****                 /* AF = 0, DF = 1 */
 112:Generated_Source\PSoC4/I2C_1_I2C.c ****                 I2C_1_I2C_CFG_ANALOG_FITER_DISABLE;
 113:Generated_Source\PSoC4/I2C_1_I2C.c ****                 medianFilter = I2C_1_DIGITAL_FILTER_ENABLE;
 114:Generated_Source\PSoC4/I2C_1_I2C.c ****             }
 115:Generated_Source\PSoC4/I2C_1_I2C.c **** 
 116:Generated_Source\PSoC4/I2C_1_I2C.c ****         #if (!I2C_1_CY_SCBIP_V0)
 117:Generated_Source\PSoC4/I2C_1_I2C.c ****             locEnableWake = (I2C_1_I2C_MULTI_MASTER_SLAVE) ? (0u) : (config->enableWake);
 118:Generated_Source\PSoC4/I2C_1_I2C.c ****         #else
 119:Generated_Source\PSoC4/I2C_1_I2C.c ****             locEnableWake = config->enableWake;
 120:Generated_Source\PSoC4/I2C_1_I2C.c ****         #endif /* (!I2C_1_CY_SCBIP_V0) */
 121:Generated_Source\PSoC4/I2C_1_I2C.c **** 
 122:Generated_Source\PSoC4/I2C_1_I2C.c ****             /* Configure I2C interface */
 123:Generated_Source\PSoC4/I2C_1_I2C.c ****             I2C_1_CTRL_REG     = I2C_1_GET_CTRL_BYTE_MODE  (config->enableByteMode) |
 124:Generated_Source\PSoC4/I2C_1_I2C.c ****                                             I2C_1_GET_CTRL_ADDR_ACCEPT(config->acceptAddr)     |
 125:Generated_Source\PSoC4/I2C_1_I2C.c ****                                             I2C_1_GET_CTRL_EC_AM_MODE (locEnableWake);
 126:Generated_Source\PSoC4/I2C_1_I2C.c **** 
 127:Generated_Source\PSoC4/I2C_1_I2C.c ****             I2C_1_I2C_CTRL_REG = I2C_1_GET_I2C_CTRL_HIGH_PHASE_OVS(config->oversampleHigh) |
 128:Generated_Source\PSoC4/I2C_1_I2C.c ****                     I2C_1_GET_I2C_CTRL_LOW_PHASE_OVS (config->oversampleLow)                       
 129:Generated_Source\PSoC4/I2C_1_I2C.c ****                     I2C_1_GET_I2C_CTRL_S_GENERAL_IGNORE((uint32)(0u == config->acceptGeneralAddr)) 
 130:Generated_Source\PSoC4/I2C_1_I2C.c ****                     I2C_1_GET_I2C_CTRL_SL_MSTR_MODE  (config->mode);
 131:Generated_Source\PSoC4/I2C_1_I2C.c **** 
 132:Generated_Source\PSoC4/I2C_1_I2C.c ****             /* Configure RX direction */
 133:Generated_Source\PSoC4/I2C_1_I2C.c ****             I2C_1_RX_CTRL_REG      = I2C_1_GET_RX_CTRL_MEDIAN(medianFilter) |
 134:Generated_Source\PSoC4/I2C_1_I2C.c ****                                                 I2C_1_I2C_RX_CTRL;
 135:Generated_Source\PSoC4/I2C_1_I2C.c ****             I2C_1_RX_FIFO_CTRL_REG = I2C_1_CLEAR_REG;
 136:Generated_Source\PSoC4/I2C_1_I2C.c **** 
 137:Generated_Source\PSoC4/I2C_1_I2C.c ****             /* Set default address and mask */
 138:Generated_Source\PSoC4/I2C_1_I2C.c ****             I2C_1_RX_MATCH_REG    = ((I2C_1_I2C_SLAVE) ?
 139:Generated_Source\PSoC4/I2C_1_I2C.c ****                                                 (I2C_1_GET_I2C_8BIT_ADDRESS(config->slaveAddr) |
 140:Generated_Source\PSoC4/I2C_1_I2C.c ****                                                  I2C_1_GET_RX_MATCH_MASK(config->slaveAddrMask)) :
 141:Generated_Source\PSoC4/I2C_1_I2C.c ****                                                 (I2C_1_CLEAR_REG));
 142:Generated_Source\PSoC4/I2C_1_I2C.c **** 
 143:Generated_Source\PSoC4/I2C_1_I2C.c **** 
 144:Generated_Source\PSoC4/I2C_1_I2C.c ****             /* Configure TX direction */
ARM GAS  C:\Users\austc\AppData\Local\Temp\cc6VqEWM.s 			page 4


 145:Generated_Source\PSoC4/I2C_1_I2C.c ****             I2C_1_TX_CTRL_REG      = I2C_1_I2C_TX_CTRL;
 146:Generated_Source\PSoC4/I2C_1_I2C.c ****             I2C_1_TX_FIFO_CTRL_REG = I2C_1_CLEAR_REG;
 147:Generated_Source\PSoC4/I2C_1_I2C.c **** 
 148:Generated_Source\PSoC4/I2C_1_I2C.c ****             /* Configure interrupt with I2C handler but do not enable it */
 149:Generated_Source\PSoC4/I2C_1_I2C.c ****             CyIntDisable    (I2C_1_ISR_NUMBER);
 150:Generated_Source\PSoC4/I2C_1_I2C.c ****             CyIntSetPriority(I2C_1_ISR_NUMBER, I2C_1_ISR_PRIORITY);
 151:Generated_Source\PSoC4/I2C_1_I2C.c ****             (void) CyIntSetVector(I2C_1_ISR_NUMBER, &I2C_1_I2C_ISR);
 152:Generated_Source\PSoC4/I2C_1_I2C.c **** 
 153:Generated_Source\PSoC4/I2C_1_I2C.c ****             /* Configure interrupt sources */
 154:Generated_Source\PSoC4/I2C_1_I2C.c ****         #if(!I2C_1_CY_SCBIP_V1)
 155:Generated_Source\PSoC4/I2C_1_I2C.c ****             I2C_1_INTR_SPI_EC_MASK_REG = I2C_1_NO_INTR_SOURCES;
 156:Generated_Source\PSoC4/I2C_1_I2C.c ****         #endif /* (!I2C_1_CY_SCBIP_V1) */
 157:Generated_Source\PSoC4/I2C_1_I2C.c **** 
 158:Generated_Source\PSoC4/I2C_1_I2C.c ****             I2C_1_INTR_I2C_EC_MASK_REG = I2C_1_NO_INTR_SOURCES;
 159:Generated_Source\PSoC4/I2C_1_I2C.c ****             I2C_1_INTR_RX_MASK_REG     = I2C_1_NO_INTR_SOURCES;
 160:Generated_Source\PSoC4/I2C_1_I2C.c ****             I2C_1_INTR_TX_MASK_REG     = I2C_1_NO_INTR_SOURCES;
 161:Generated_Source\PSoC4/I2C_1_I2C.c **** 
 162:Generated_Source\PSoC4/I2C_1_I2C.c ****             I2C_1_INTR_SLAVE_MASK_REG  = ((I2C_1_I2C_SLAVE) ?
 163:Generated_Source\PSoC4/I2C_1_I2C.c ****                             (I2C_1_GET_INTR_SLAVE_I2C_GENERAL(config->acceptGeneralAddr) |
 164:Generated_Source\PSoC4/I2C_1_I2C.c ****                              I2C_1_I2C_INTR_SLAVE_MASK) : (I2C_1_CLEAR_REG));
 165:Generated_Source\PSoC4/I2C_1_I2C.c **** 
 166:Generated_Source\PSoC4/I2C_1_I2C.c ****             I2C_1_INTR_MASTER_MASK_REG = I2C_1_NO_INTR_SOURCES;
 167:Generated_Source\PSoC4/I2C_1_I2C.c **** 
 168:Generated_Source\PSoC4/I2C_1_I2C.c ****             /* Configure global variables */
 169:Generated_Source\PSoC4/I2C_1_I2C.c ****             I2C_1_state = I2C_1_I2C_FSM_IDLE;
 170:Generated_Source\PSoC4/I2C_1_I2C.c **** 
 171:Generated_Source\PSoC4/I2C_1_I2C.c ****             /* Internal slave variables */
 172:Generated_Source\PSoC4/I2C_1_I2C.c ****             I2C_1_slStatus        = 0u;
 173:Generated_Source\PSoC4/I2C_1_I2C.c ****             I2C_1_slRdBufIndex    = 0u;
 174:Generated_Source\PSoC4/I2C_1_I2C.c ****             I2C_1_slWrBufIndex    = 0u;
 175:Generated_Source\PSoC4/I2C_1_I2C.c ****             I2C_1_slOverFlowCount = 0u;
 176:Generated_Source\PSoC4/I2C_1_I2C.c **** 
 177:Generated_Source\PSoC4/I2C_1_I2C.c ****             /* Internal master variables */
 178:Generated_Source\PSoC4/I2C_1_I2C.c ****             I2C_1_mstrStatus     = 0u;
 179:Generated_Source\PSoC4/I2C_1_I2C.c ****             I2C_1_mstrRdBufIndex = 0u;
 180:Generated_Source\PSoC4/I2C_1_I2C.c ****             I2C_1_mstrWrBufIndex = 0u;
 181:Generated_Source\PSoC4/I2C_1_I2C.c ****         }
 182:Generated_Source\PSoC4/I2C_1_I2C.c ****     }
 183:Generated_Source\PSoC4/I2C_1_I2C.c **** 
 184:Generated_Source\PSoC4/I2C_1_I2C.c **** #else
 185:Generated_Source\PSoC4/I2C_1_I2C.c **** 
 186:Generated_Source\PSoC4/I2C_1_I2C.c ****     /*******************************************************************************
 187:Generated_Source\PSoC4/I2C_1_I2C.c ****     * Function Name: I2C_1_I2CInit
 188:Generated_Source\PSoC4/I2C_1_I2C.c ****     ****************************************************************************//**
 189:Generated_Source\PSoC4/I2C_1_I2C.c ****     *
 190:Generated_Source\PSoC4/I2C_1_I2C.c ****     *  Configures the SCB for the I2C operation.
 191:Generated_Source\PSoC4/I2C_1_I2C.c ****     *
 192:Generated_Source\PSoC4/I2C_1_I2C.c ****     *******************************************************************************/
 193:Generated_Source\PSoC4/I2C_1_I2C.c ****     void I2C_1_I2CInit(void)
 194:Generated_Source\PSoC4/I2C_1_I2C.c ****     {
  28              		.loc 1 194 0
  29              		.cfi_startproc
  30              		@ args = 0, pretend = 0, frame = 0
  31              		@ frame_needed = 0, uses_anonymous_args = 0
  32 0000 10B5     		push	{r4, lr}
  33              		.cfi_def_cfa_offset 8
  34              		.cfi_offset 4, -8
ARM GAS  C:\Users\austc\AppData\Local\Temp\cc6VqEWM.s 			page 5


  35              		.cfi_offset 14, -4
 195:Generated_Source\PSoC4/I2C_1_I2C.c ****     #if(I2C_1_CY_SCBIP_V0)
 196:Generated_Source\PSoC4/I2C_1_I2C.c ****         /* Adjust SDA filter settings. Ticket ID#150521 */
 197:Generated_Source\PSoC4/I2C_1_I2C.c ****         I2C_1_SET_I2C_CFG_SDA_FILT_TRIM(I2C_1_EC_AM_I2C_CFG_SDA_FILT_TRIM);
 198:Generated_Source\PSoC4/I2C_1_I2C.c ****     #endif /* (I2C_1_CY_SCBIP_V0) */
 199:Generated_Source\PSoC4/I2C_1_I2C.c **** 
 200:Generated_Source\PSoC4/I2C_1_I2C.c ****         /* Adjust AF and DF filter settings. Ticket ID#176179 */
 201:Generated_Source\PSoC4/I2C_1_I2C.c ****         I2C_1_I2C_CFG_ANALOG_FITER_ENABLE_ADJ;
 202:Generated_Source\PSoC4/I2C_1_I2C.c **** 
 203:Generated_Source\PSoC4/I2C_1_I2C.c ****         /* Configure I2C interface */
 204:Generated_Source\PSoC4/I2C_1_I2C.c ****         I2C_1_CTRL_REG     = I2C_1_I2C_DEFAULT_CTRL;
  36              		.loc 1 204 0
  37 0002 0024     		movs	r4, #0
  38 0004 184B     		ldr	r3, .L2
  39 0006 1C60     		str	r4, [r3]
 205:Generated_Source\PSoC4/I2C_1_I2C.c ****         I2C_1_I2C_CTRL_REG = I2C_1_I2C_DEFAULT_I2C_CTRL;
  40              		.loc 1 205 0
  41 0008 184A     		ldr	r2, .L2+4
  42 000a 194B     		ldr	r3, .L2+8
  43 000c 1A60     		str	r2, [r3]
 206:Generated_Source\PSoC4/I2C_1_I2C.c **** 
 207:Generated_Source\PSoC4/I2C_1_I2C.c ****         /* Configure RX direction */
 208:Generated_Source\PSoC4/I2C_1_I2C.c ****         I2C_1_RX_CTRL_REG      = I2C_1_I2C_DEFAULT_RX_CTRL;
  44              		.loc 1 208 0
  45 000e 194B     		ldr	r3, .L2+12
  46 0010 194A     		ldr	r2, .L2+16
  47 0012 1360     		str	r3, [r2]
 209:Generated_Source\PSoC4/I2C_1_I2C.c ****         I2C_1_RX_FIFO_CTRL_REG = I2C_1_I2C_DEFAULT_RX_FIFO_CTRL;
  48              		.loc 1 209 0
  49 0014 194A     		ldr	r2, .L2+20
  50 0016 1460     		str	r4, [r2]
 210:Generated_Source\PSoC4/I2C_1_I2C.c **** 
 211:Generated_Source\PSoC4/I2C_1_I2C.c ****         /* Set default address and mask */
 212:Generated_Source\PSoC4/I2C_1_I2C.c ****         I2C_1_RX_MATCH_REG     = I2C_1_I2C_DEFAULT_RX_MATCH;
  51              		.loc 1 212 0
  52 0018 194A     		ldr	r2, .L2+24
  53 001a 1460     		str	r4, [r2]
 213:Generated_Source\PSoC4/I2C_1_I2C.c **** 
 214:Generated_Source\PSoC4/I2C_1_I2C.c ****         /* Configure TX direction */
 215:Generated_Source\PSoC4/I2C_1_I2C.c ****         I2C_1_TX_CTRL_REG      = I2C_1_I2C_DEFAULT_TX_CTRL;
  54              		.loc 1 215 0
  55 001c 194A     		ldr	r2, .L2+28
  56 001e 1360     		str	r3, [r2]
 216:Generated_Source\PSoC4/I2C_1_I2C.c ****         I2C_1_TX_FIFO_CTRL_REG = I2C_1_I2C_DEFAULT_TX_FIFO_CTRL;
  57              		.loc 1 216 0
  58 0020 194B     		ldr	r3, .L2+32
  59 0022 1C60     		str	r4, [r3]
 217:Generated_Source\PSoC4/I2C_1_I2C.c **** 
 218:Generated_Source\PSoC4/I2C_1_I2C.c ****         /* Configure interrupt with I2C handler but do not enable it */
 219:Generated_Source\PSoC4/I2C_1_I2C.c ****         CyIntDisable    (I2C_1_ISR_NUMBER);
  60              		.loc 1 219 0
  61 0024 0920     		movs	r0, #9
  62 0026 FFF7FEFF 		bl	CyIntDisable
  63              	.LVL0:
 220:Generated_Source\PSoC4/I2C_1_I2C.c ****         CyIntSetPriority(I2C_1_ISR_NUMBER, I2C_1_ISR_PRIORITY);
  64              		.loc 1 220 0
  65 002a 0321     		movs	r1, #3
ARM GAS  C:\Users\austc\AppData\Local\Temp\cc6VqEWM.s 			page 6


  66 002c 0920     		movs	r0, #9
  67 002e FFF7FEFF 		bl	CyIntSetPriority
  68              	.LVL1:
 221:Generated_Source\PSoC4/I2C_1_I2C.c ****     #if(!I2C_1_I2C_EXTERN_INTR_HANDLER)
 222:Generated_Source\PSoC4/I2C_1_I2C.c ****         (void) CyIntSetVector(I2C_1_ISR_NUMBER, &I2C_1_I2C_ISR);
  69              		.loc 1 222 0
  70 0032 1649     		ldr	r1, .L2+36
  71 0034 0920     		movs	r0, #9
  72 0036 FFF7FEFF 		bl	CyIntSetVector
  73              	.LVL2:
 223:Generated_Source\PSoC4/I2C_1_I2C.c ****     #endif /* (I2C_1_I2C_EXTERN_INTR_HANDLER) */
 224:Generated_Source\PSoC4/I2C_1_I2C.c **** 
 225:Generated_Source\PSoC4/I2C_1_I2C.c ****         /* Configure interrupt sources */
 226:Generated_Source\PSoC4/I2C_1_I2C.c ****     #if(!I2C_1_CY_SCBIP_V1)
 227:Generated_Source\PSoC4/I2C_1_I2C.c ****         I2C_1_INTR_SPI_EC_MASK_REG = I2C_1_I2C_DEFAULT_INTR_SPI_EC_MASK;
  74              		.loc 1 227 0
  75 003a 154B     		ldr	r3, .L2+40
  76 003c 1C60     		str	r4, [r3]
 228:Generated_Source\PSoC4/I2C_1_I2C.c ****     #endif /* (!I2C_1_CY_SCBIP_V1) */
 229:Generated_Source\PSoC4/I2C_1_I2C.c **** 
 230:Generated_Source\PSoC4/I2C_1_I2C.c ****         I2C_1_INTR_I2C_EC_MASK_REG = I2C_1_I2C_DEFAULT_INTR_I2C_EC_MASK;
  77              		.loc 1 230 0
  78 003e 154B     		ldr	r3, .L2+44
  79 0040 1C60     		str	r4, [r3]
 231:Generated_Source\PSoC4/I2C_1_I2C.c ****         I2C_1_INTR_SLAVE_MASK_REG  = I2C_1_I2C_DEFAULT_INTR_SLAVE_MASK;
  80              		.loc 1 231 0
  81 0042 154B     		ldr	r3, .L2+48
  82 0044 1C60     		str	r4, [r3]
 232:Generated_Source\PSoC4/I2C_1_I2C.c ****         I2C_1_INTR_MASTER_MASK_REG = I2C_1_I2C_DEFAULT_INTR_MASTER_MASK;
  83              		.loc 1 232 0
  84 0046 154B     		ldr	r3, .L2+52
  85 0048 1C60     		str	r4, [r3]
 233:Generated_Source\PSoC4/I2C_1_I2C.c ****         I2C_1_INTR_RX_MASK_REG     = I2C_1_I2C_DEFAULT_INTR_RX_MASK;
  86              		.loc 1 233 0
  87 004a 154B     		ldr	r3, .L2+56
  88 004c 1C60     		str	r4, [r3]
 234:Generated_Source\PSoC4/I2C_1_I2C.c ****         I2C_1_INTR_TX_MASK_REG     = I2C_1_I2C_DEFAULT_INTR_TX_MASK;
  89              		.loc 1 234 0
  90 004e 154B     		ldr	r3, .L2+60
  91 0050 1C60     		str	r4, [r3]
 235:Generated_Source\PSoC4/I2C_1_I2C.c **** 
 236:Generated_Source\PSoC4/I2C_1_I2C.c ****         /* Configure global variables */
 237:Generated_Source\PSoC4/I2C_1_I2C.c ****         I2C_1_state = I2C_1_I2C_FSM_IDLE;
  92              		.loc 1 237 0
  93 0052 1022     		movs	r2, #16
  94 0054 144B     		ldr	r3, .L2+64
  95 0056 1A70     		strb	r2, [r3]
 238:Generated_Source\PSoC4/I2C_1_I2C.c **** 
 239:Generated_Source\PSoC4/I2C_1_I2C.c ****     #if(I2C_1_I2C_SLAVE)
 240:Generated_Source\PSoC4/I2C_1_I2C.c ****         /* Internal slave variable */
 241:Generated_Source\PSoC4/I2C_1_I2C.c ****         I2C_1_slStatus        = 0u;
 242:Generated_Source\PSoC4/I2C_1_I2C.c ****         I2C_1_slRdBufIndex    = 0u;
 243:Generated_Source\PSoC4/I2C_1_I2C.c ****         I2C_1_slWrBufIndex    = 0u;
 244:Generated_Source\PSoC4/I2C_1_I2C.c ****         I2C_1_slOverFlowCount = 0u;
 245:Generated_Source\PSoC4/I2C_1_I2C.c ****     #endif /* (I2C_1_I2C_SLAVE) */
 246:Generated_Source\PSoC4/I2C_1_I2C.c **** 
 247:Generated_Source\PSoC4/I2C_1_I2C.c ****     #if(I2C_1_I2C_MASTER)
ARM GAS  C:\Users\austc\AppData\Local\Temp\cc6VqEWM.s 			page 7


 248:Generated_Source\PSoC4/I2C_1_I2C.c ****     /* Internal master variable */
 249:Generated_Source\PSoC4/I2C_1_I2C.c ****         I2C_1_mstrStatus     = 0u;
  96              		.loc 1 249 0
  97 0058 144B     		ldr	r3, .L2+68
  98 005a 1C80     		strh	r4, [r3]
 250:Generated_Source\PSoC4/I2C_1_I2C.c ****         I2C_1_mstrRdBufIndex = 0u;
  99              		.loc 1 250 0
 100 005c 144B     		ldr	r3, .L2+72
 101 005e 1C60     		str	r4, [r3]
 251:Generated_Source\PSoC4/I2C_1_I2C.c ****         I2C_1_mstrWrBufIndex = 0u;
 102              		.loc 1 251 0
 103 0060 144B     		ldr	r3, .L2+76
 104 0062 1C60     		str	r4, [r3]
 252:Generated_Source\PSoC4/I2C_1_I2C.c ****     #endif /* (I2C_1_I2C_MASTER) */
 253:Generated_Source\PSoC4/I2C_1_I2C.c ****     }
 105              		.loc 1 253 0
 106              		@ sp needed
 107 0064 10BD     		pop	{r4, pc}
 108              	.L3:
 109 0066 C046     		.align	2
 110              	.L2:
 111 0068 00002440 		.word	1076101120
 112 006c 77080080 		.word	-2147481481
 113 0070 60002440 		.word	1076101216
 114 0074 07010080 		.word	-2147483385
 115 0078 00032440 		.word	1076101888
 116 007c 04032440 		.word	1076101892
 117 0080 10032440 		.word	1076101904
 118 0084 00022440 		.word	1076101632
 119 0088 04022440 		.word	1076101636
 120 008c 00000000 		.word	I2C_1_I2C_ISR
 121 0090 C80E2440 		.word	1076104904
 122 0094 880E2440 		.word	1076104840
 123 0098 480F2440 		.word	1076105032
 124 009c 080F2440 		.word	1076104968
 125 00a0 C80F2440 		.word	1076105160
 126 00a4 880F2440 		.word	1076105096
 127 00a8 00000000 		.word	I2C_1_state
 128 00ac 00000000 		.word	I2C_1_mstrStatus
 129 00b0 00000000 		.word	I2C_1_mstrRdBufIndex
 130 00b4 00000000 		.word	I2C_1_mstrWrBufIndex
 131              		.cfi_endproc
 132              	.LFE1:
 133              		.size	I2C_1_I2CInit, .-I2C_1_I2CInit
 134              		.section	.text.I2C_1_I2CStop,"ax",%progbits
 135              		.align	2
 136              		.global	I2C_1_I2CStop
 137              		.code	16
 138              		.thumb_func
 139              		.type	I2C_1_I2CStop, %function
 140              	I2C_1_I2CStop:
 141              	.LFB2:
 254:Generated_Source\PSoC4/I2C_1_I2C.c **** #endif /* (I2C_1_SCB_MODE_UNCONFIG_CONST_CFG) */
 255:Generated_Source\PSoC4/I2C_1_I2C.c **** 
 256:Generated_Source\PSoC4/I2C_1_I2C.c **** 
 257:Generated_Source\PSoC4/I2C_1_I2C.c **** /*******************************************************************************
 258:Generated_Source\PSoC4/I2C_1_I2C.c **** * Function Name: I2C_1_I2CStop
ARM GAS  C:\Users\austc\AppData\Local\Temp\cc6VqEWM.s 			page 8


 259:Generated_Source\PSoC4/I2C_1_I2C.c **** ****************************************************************************//**
 260:Generated_Source\PSoC4/I2C_1_I2C.c **** *
 261:Generated_Source\PSoC4/I2C_1_I2C.c **** *  Resets the I2C FSM into the default state.
 262:Generated_Source\PSoC4/I2C_1_I2C.c **** *
 263:Generated_Source\PSoC4/I2C_1_I2C.c **** *******************************************************************************/
 264:Generated_Source\PSoC4/I2C_1_I2C.c **** void I2C_1_I2CStop(void)
 265:Generated_Source\PSoC4/I2C_1_I2C.c **** {
 142              		.loc 1 265 0
 143              		.cfi_startproc
 144              		@ args = 0, pretend = 0, frame = 0
 145              		@ frame_needed = 0, uses_anonymous_args = 0
 146              		@ link register save eliminated.
 266:Generated_Source\PSoC4/I2C_1_I2C.c ****     /* Clear command registers because they keep assigned value after IP block was disabled */
 267:Generated_Source\PSoC4/I2C_1_I2C.c ****     I2C_1_I2C_MASTER_CMD_REG = 0u;
 147              		.loc 1 267 0
 148 0000 0023     		movs	r3, #0
 149 0002 044A     		ldr	r2, .L5
 150 0004 1360     		str	r3, [r2]
 268:Generated_Source\PSoC4/I2C_1_I2C.c ****     I2C_1_I2C_SLAVE_CMD_REG  = 0u;
 151              		.loc 1 268 0
 152 0006 044A     		ldr	r2, .L5+4
 153 0008 1360     		str	r3, [r2]
 269:Generated_Source\PSoC4/I2C_1_I2C.c ****     
 270:Generated_Source\PSoC4/I2C_1_I2C.c ****     I2C_1_state = I2C_1_I2C_FSM_IDLE;
 154              		.loc 1 270 0
 155 000a 1022     		movs	r2, #16
 156 000c 034B     		ldr	r3, .L5+8
 157 000e 1A70     		strb	r2, [r3]
 271:Generated_Source\PSoC4/I2C_1_I2C.c **** }
 158              		.loc 1 271 0
 159              		@ sp needed
 160 0010 7047     		bx	lr
 161              	.L6:
 162 0012 C046     		.align	2
 163              	.L5:
 164 0014 68002440 		.word	1076101224
 165 0018 6C002440 		.word	1076101228
 166 001c 00000000 		.word	I2C_1_state
 167              		.cfi_endproc
 168              	.LFE2:
 169              		.size	I2C_1_I2CStop, .-I2C_1_I2CStop
 170              		.section	.text.I2C_1_I2CFwBlockReset,"ax",%progbits
 171              		.align	2
 172              		.global	I2C_1_I2CFwBlockReset
 173              		.code	16
 174              		.thumb_func
 175              		.type	I2C_1_I2CFwBlockReset, %function
 176              	I2C_1_I2CFwBlockReset:
 177              	.LFB3:
 272:Generated_Source\PSoC4/I2C_1_I2C.c **** 
 273:Generated_Source\PSoC4/I2C_1_I2C.c **** 
 274:Generated_Source\PSoC4/I2C_1_I2C.c **** /*******************************************************************************
 275:Generated_Source\PSoC4/I2C_1_I2C.c **** * Function Name: I2C_1_I2CFwBlockReset
 276:Generated_Source\PSoC4/I2C_1_I2C.c **** ****************************************************************************//**
 277:Generated_Source\PSoC4/I2C_1_I2C.c **** *
 278:Generated_Source\PSoC4/I2C_1_I2C.c **** * Resets the scb IP block and I2C into the known state.
 279:Generated_Source\PSoC4/I2C_1_I2C.c **** *
ARM GAS  C:\Users\austc\AppData\Local\Temp\cc6VqEWM.s 			page 9


 280:Generated_Source\PSoC4/I2C_1_I2C.c **** *******************************************************************************/
 281:Generated_Source\PSoC4/I2C_1_I2C.c **** void I2C_1_I2CFwBlockReset(void)
 282:Generated_Source\PSoC4/I2C_1_I2C.c **** {
 178              		.loc 1 282 0
 179              		.cfi_startproc
 180              		@ args = 0, pretend = 0, frame = 0
 181              		@ frame_needed = 0, uses_anonymous_args = 0
 182 0000 10B5     		push	{r4, lr}
 183              		.cfi_def_cfa_offset 8
 184              		.cfi_offset 4, -8
 185              		.cfi_offset 14, -4
 283:Generated_Source\PSoC4/I2C_1_I2C.c ****     /* Disable scb IP: stop respond to I2C traffic */
 284:Generated_Source\PSoC4/I2C_1_I2C.c ****     I2C_1_CTRL_REG &= (uint32) ~I2C_1_CTRL_ENABLED;
 186              		.loc 1 284 0
 187 0002 0E4A     		ldr	r2, .L8
 188 0004 1368     		ldr	r3, [r2]
 189 0006 5B00     		lsls	r3, r3, #1
 190 0008 5B08     		lsrs	r3, r3, #1
 191 000a 1360     		str	r3, [r2]
 285:Generated_Source\PSoC4/I2C_1_I2C.c **** 
 286:Generated_Source\PSoC4/I2C_1_I2C.c ****     /* Clear command registers they are not cleared after scb IP is disabled */
 287:Generated_Source\PSoC4/I2C_1_I2C.c ****     I2C_1_I2C_MASTER_CMD_REG = 0u;
 192              		.loc 1 287 0
 193 000c 0023     		movs	r3, #0
 194 000e 0C49     		ldr	r1, .L8+4
 195 0010 0B60     		str	r3, [r1]
 288:Generated_Source\PSoC4/I2C_1_I2C.c ****     I2C_1_I2C_SLAVE_CMD_REG  = 0u;
 196              		.loc 1 288 0
 197 0012 0C49     		ldr	r1, .L8+8
 198 0014 0B60     		str	r3, [r1]
 289:Generated_Source\PSoC4/I2C_1_I2C.c **** 
 290:Generated_Source\PSoC4/I2C_1_I2C.c ****     I2C_1_DISABLE_AUTO_DATA;
 199              		.loc 1 290 0
 200 0016 0C48     		ldr	r0, .L8+12
 201 0018 0468     		ldr	r4, [r0]
 202 001a 0C49     		ldr	r1, .L8+16
 203 001c 2140     		ands	r1, r4
 204 001e 0160     		str	r1, [r0]
 291:Generated_Source\PSoC4/I2C_1_I2C.c **** 
 292:Generated_Source\PSoC4/I2C_1_I2C.c ****     I2C_1_SetTxInterruptMode(I2C_1_NO_INTR_SOURCES);
 205              		.loc 1 292 0
 206 0020 0B49     		ldr	r1, .L8+20
 207 0022 0B60     		str	r3, [r1]
 293:Generated_Source\PSoC4/I2C_1_I2C.c ****     I2C_1_SetRxInterruptMode(I2C_1_NO_INTR_SOURCES);
 208              		.loc 1 293 0
 209 0024 0B49     		ldr	r1, .L8+24
 210 0026 0B60     		str	r3, [r1]
 294:Generated_Source\PSoC4/I2C_1_I2C.c ****     
 295:Generated_Source\PSoC4/I2C_1_I2C.c **** #if(I2C_1_CY_SCBIP_V0)
 296:Generated_Source\PSoC4/I2C_1_I2C.c ****     /* Clear interrupt sources as they are not cleared after scb IP is disabled */
 297:Generated_Source\PSoC4/I2C_1_I2C.c ****     I2C_1_ClearTxInterruptSource    (I2C_1_INTR_TX_ALL);
 298:Generated_Source\PSoC4/I2C_1_I2C.c ****     I2C_1_ClearRxInterruptSource    (I2C_1_INTR_RX_ALL);
 299:Generated_Source\PSoC4/I2C_1_I2C.c ****     I2C_1_ClearSlaveInterruptSource (I2C_1_INTR_SLAVE_ALL);
 300:Generated_Source\PSoC4/I2C_1_I2C.c ****     I2C_1_ClearMasterInterruptSource(I2C_1_INTR_MASTER_ALL);
 301:Generated_Source\PSoC4/I2C_1_I2C.c **** #endif /* (I2C_1_CY_SCBIP_V0) */
 302:Generated_Source\PSoC4/I2C_1_I2C.c **** 
 303:Generated_Source\PSoC4/I2C_1_I2C.c ****     I2C_1_state = I2C_1_I2C_FSM_IDLE;
ARM GAS  C:\Users\austc\AppData\Local\Temp\cc6VqEWM.s 			page 10


 211              		.loc 1 303 0
 212 0028 1021     		movs	r1, #16
 213 002a 0B4B     		ldr	r3, .L8+28
 214 002c 1970     		strb	r1, [r3]
 304:Generated_Source\PSoC4/I2C_1_I2C.c **** 
 305:Generated_Source\PSoC4/I2C_1_I2C.c ****     /* Enable scb IP: start respond to I2C traffic */
 306:Generated_Source\PSoC4/I2C_1_I2C.c ****     I2C_1_CTRL_REG |= (uint32) I2C_1_CTRL_ENABLED;
 215              		.loc 1 306 0
 216 002e 1368     		ldr	r3, [r2]
 217 0030 8021     		movs	r1, #128
 218 0032 0906     		lsls	r1, r1, #24
 219 0034 0B43     		orrs	r3, r1
 220 0036 1360     		str	r3, [r2]
 307:Generated_Source\PSoC4/I2C_1_I2C.c **** }
 221              		.loc 1 307 0
 222              		@ sp needed
 223 0038 10BD     		pop	{r4, pc}
 224              	.L9:
 225 003a C046     		.align	2
 226              	.L8:
 227 003c 00002440 		.word	1076101120
 228 0040 68002440 		.word	1076101224
 229 0044 6C002440 		.word	1076101228
 230 0048 60002440 		.word	1076101216
 231 004c FF5CFFFF 		.word	-41729
 232 0050 880F2440 		.word	1076105096
 233 0054 C80F2440 		.word	1076105160
 234 0058 00000000 		.word	I2C_1_state
 235              		.cfi_endproc
 236              	.LFE3:
 237              		.size	I2C_1_I2CFwBlockReset, .-I2C_1_I2CFwBlockReset
 238              		.comm	I2C_1_state,1,1
 239              		.text
 240              	.Letext0:
 241              		.file 2 "Generated_Source\\PSoC4/cytypes.h"
 242              		.file 3 "Generated_Source\\PSoC4\\I2C_1_I2C_PVT.h"
 243              		.file 4 "Generated_Source\\PSoC4/CyLib.h"