ARM GAS  C:\Users\austc\AppData\Local\Temp\cciIEsvk.s 			page 1


   1              		.syntax unified
   2              		.cpu cortex-m0
   3              		.fpu softvfp
   4              		.eabi_attribute 20, 1
   5              		.eabi_attribute 21, 1
   6              		.eabi_attribute 23, 3
   7              		.eabi_attribute 24, 1
   8              		.eabi_attribute 25, 1
   9              		.eabi_attribute 26, 1
  10              		.eabi_attribute 30, 1
  11              		.eabi_attribute 34, 0
  12              		.eabi_attribute 18, 4
  13              		.thumb
  14              		.syntax unified
  15              		.file	"I2C_1_I2C_MASTER.c"
  16              		.text
  17              	.Ltext0:
  18              		.cfi_sections	.debug_frame
  19              		.section	.text.I2C_1_I2CMasterWaitOneUnit,"ax",%progbits
  20              		.align	2
  21              		.code	16
  22              		.thumb_func
  23              		.type	I2C_1_I2CMasterWaitOneUnit, %function
  24              	I2C_1_I2CMasterWaitOneUnit:
  25              	.LFB16:
  26              		.file 1 "Generated_Source\\PSoC4\\I2C_1_I2C_MASTER.c"
   1:Generated_Source\PSoC4/I2C_1_I2C_MASTER.c **** /***************************************************************************//**
   2:Generated_Source\PSoC4/I2C_1_I2C_MASTER.c **** * \file I2C_1_I2C_MASTER.c
   3:Generated_Source\PSoC4/I2C_1_I2C_MASTER.c **** * \version 4.0
   4:Generated_Source\PSoC4/I2C_1_I2C_MASTER.c **** *
   5:Generated_Source\PSoC4/I2C_1_I2C_MASTER.c **** * \brief
   6:Generated_Source\PSoC4/I2C_1_I2C_MASTER.c **** *  This file provides the source code to the API for the SCB Component in
   7:Generated_Source\PSoC4/I2C_1_I2C_MASTER.c **** *  I2C Master mode.
   8:Generated_Source\PSoC4/I2C_1_I2C_MASTER.c **** *
   9:Generated_Source\PSoC4/I2C_1_I2C_MASTER.c **** * Note:
  10:Generated_Source\PSoC4/I2C_1_I2C_MASTER.c **** *
  11:Generated_Source\PSoC4/I2C_1_I2C_MASTER.c **** *******************************************************************************
  12:Generated_Source\PSoC4/I2C_1_I2C_MASTER.c **** * \copyright
  13:Generated_Source\PSoC4/I2C_1_I2C_MASTER.c **** * Copyright 2013-2017, Cypress Semiconductor Corporation.  All rights reserved.
  14:Generated_Source\PSoC4/I2C_1_I2C_MASTER.c **** * You may use this file only in accordance with the license, terms, conditions,
  15:Generated_Source\PSoC4/I2C_1_I2C_MASTER.c **** * disclaimers, and limitations in the end user license agreement accompanying
  16:Generated_Source\PSoC4/I2C_1_I2C_MASTER.c **** * the software package with which this file was provided.
  17:Generated_Source\PSoC4/I2C_1_I2C_MASTER.c **** *******************************************************************************/
  18:Generated_Source\PSoC4/I2C_1_I2C_MASTER.c **** 
  19:Generated_Source\PSoC4/I2C_1_I2C_MASTER.c **** #include "I2C_1_PVT.h"
  20:Generated_Source\PSoC4/I2C_1_I2C_MASTER.c **** #include "I2C_1_I2C_PVT.h"
  21:Generated_Source\PSoC4/I2C_1_I2C_MASTER.c **** 
  22:Generated_Source\PSoC4/I2C_1_I2C_MASTER.c **** #if(I2C_1_I2C_MASTER_CONST)
  23:Generated_Source\PSoC4/I2C_1_I2C_MASTER.c **** 
  24:Generated_Source\PSoC4/I2C_1_I2C_MASTER.c **** /***************************************
  25:Generated_Source\PSoC4/I2C_1_I2C_MASTER.c **** *      I2C Master Private Vars
  26:Generated_Source\PSoC4/I2C_1_I2C_MASTER.c **** ***************************************/
  27:Generated_Source\PSoC4/I2C_1_I2C_MASTER.c **** 
  28:Generated_Source\PSoC4/I2C_1_I2C_MASTER.c **** /* Master variables */
  29:Generated_Source\PSoC4/I2C_1_I2C_MASTER.c **** volatile uint16 I2C_1_mstrStatus;      /* Master Status byte  */
  30:Generated_Source\PSoC4/I2C_1_I2C_MASTER.c **** volatile uint8  I2C_1_mstrControl;     /* Master Control byte */
  31:Generated_Source\PSoC4/I2C_1_I2C_MASTER.c **** 
ARM GAS  C:\Users\austc\AppData\Local\Temp\cciIEsvk.s 			page 2


  32:Generated_Source\PSoC4/I2C_1_I2C_MASTER.c **** /* Receive buffer variables */
  33:Generated_Source\PSoC4/I2C_1_I2C_MASTER.c **** volatile uint8 * I2C_1_mstrRdBufPtr;   /* Pointer to Master Read buffer */
  34:Generated_Source\PSoC4/I2C_1_I2C_MASTER.c **** volatile uint32  I2C_1_mstrRdBufSize;  /* Master Read buffer size       */
  35:Generated_Source\PSoC4/I2C_1_I2C_MASTER.c **** volatile uint32  I2C_1_mstrRdBufIndex; /* Master Read buffer Index      */
  36:Generated_Source\PSoC4/I2C_1_I2C_MASTER.c **** 
  37:Generated_Source\PSoC4/I2C_1_I2C_MASTER.c **** /* Transmit buffer variables */
  38:Generated_Source\PSoC4/I2C_1_I2C_MASTER.c **** volatile uint8 * I2C_1_mstrWrBufPtr;   /* Pointer to Master Write buffer */
  39:Generated_Source\PSoC4/I2C_1_I2C_MASTER.c **** volatile uint32  I2C_1_mstrWrBufSize;  /* Master Write buffer size       */
  40:Generated_Source\PSoC4/I2C_1_I2C_MASTER.c **** volatile uint32  I2C_1_mstrWrBufIndex; /* Master Write buffer Index      */
  41:Generated_Source\PSoC4/I2C_1_I2C_MASTER.c **** volatile uint32  I2C_1_mstrWrBufIndexTmp; /* Master Write buffer Index Tmp */
  42:Generated_Source\PSoC4/I2C_1_I2C_MASTER.c **** 
  43:Generated_Source\PSoC4/I2C_1_I2C_MASTER.c **** #if (!I2C_1_CY_SCBIP_V0 && \
  44:Generated_Source\PSoC4/I2C_1_I2C_MASTER.c ****     I2C_1_I2C_MULTI_MASTER_SLAVE_CONST && I2C_1_I2C_WAKE_ENABLE_CONST)
  45:Generated_Source\PSoC4/I2C_1_I2C_MASTER.c ****     static void I2C_1_I2CMasterDisableEcAm(void);
  46:Generated_Source\PSoC4/I2C_1_I2C_MASTER.c **** #else
  47:Generated_Source\PSoC4/I2C_1_I2C_MASTER.c ****     #define I2C_1_I2CMasterDisableEcAm()     do{ /* Empty */ }while(0)
  48:Generated_Source\PSoC4/I2C_1_I2C_MASTER.c **** #endif /* (!I2C_1_CY_SCBIP_V0) */
  49:Generated_Source\PSoC4/I2C_1_I2C_MASTER.c **** 
  50:Generated_Source\PSoC4/I2C_1_I2C_MASTER.c **** static uint32 I2C_1_I2CMasterHandleStatus(uint32 status);
  51:Generated_Source\PSoC4/I2C_1_I2C_MASTER.c **** static uint32 I2C_1_I2CMasterWaitOneUnit(uint32 *timeout);
  52:Generated_Source\PSoC4/I2C_1_I2C_MASTER.c **** 
  53:Generated_Source\PSoC4/I2C_1_I2C_MASTER.c **** 
  54:Generated_Source\PSoC4/I2C_1_I2C_MASTER.c **** /*******************************************************************************
  55:Generated_Source\PSoC4/I2C_1_I2C_MASTER.c **** * Function Name: I2C_1_I2CMasterWriteBuf
  56:Generated_Source\PSoC4/I2C_1_I2C_MASTER.c **** ****************************************************************************//**
  57:Generated_Source\PSoC4/I2C_1_I2C_MASTER.c **** *
  58:Generated_Source\PSoC4/I2C_1_I2C_MASTER.c **** *  Automatically writes an entire buffer of data to a slave device.
  59:Generated_Source\PSoC4/I2C_1_I2C_MASTER.c **** *  Once the data transfer is initiated by this function, further data transfer
  60:Generated_Source\PSoC4/I2C_1_I2C_MASTER.c **** *  is handled by the included ISR.
  61:Generated_Source\PSoC4/I2C_1_I2C_MASTER.c **** *  Enables the I2C interrupt and clears I2C_1_I2C_MSTAT_WR_CMPLT
  62:Generated_Source\PSoC4/I2C_1_I2C_MASTER.c **** *  status.
  63:Generated_Source\PSoC4/I2C_1_I2C_MASTER.c **** *
  64:Generated_Source\PSoC4/I2C_1_I2C_MASTER.c **** *  \param slaveAddr: 7-bit slave address.
  65:Generated_Source\PSoC4/I2C_1_I2C_MASTER.c **** *  \param xferData: Pointer to buffer of data to be sent.
  66:Generated_Source\PSoC4/I2C_1_I2C_MASTER.c **** *  \param cnt: Size of buffer to send.
  67:Generated_Source\PSoC4/I2C_1_I2C_MASTER.c **** *  \param mode: Transfer mode defines:
  68:Generated_Source\PSoC4/I2C_1_I2C_MASTER.c **** *  (1) Whether a start or restart condition is generated at the beginning
  69:Generated_Source\PSoC4/I2C_1_I2C_MASTER.c **** *  of the transfer, and
  70:Generated_Source\PSoC4/I2C_1_I2C_MASTER.c **** *  (2) Whether the transfer is completed or halted before the stop
  71:Generated_Source\PSoC4/I2C_1_I2C_MASTER.c **** *  condition is generated on the bus.Transfer mode, mode constants
  72:Generated_Source\PSoC4/I2C_1_I2C_MASTER.c **** *  may be ORed together.
  73:Generated_Source\PSoC4/I2C_1_I2C_MASTER.c **** *  - I2C_1_I2C_MODE_COMPLETE_XFER - Perform complete transfer
  74:Generated_Source\PSoC4/I2C_1_I2C_MASTER.c **** *    from Start to Stop.
  75:Generated_Source\PSoC4/I2C_1_I2C_MASTER.c **** *  - I2C_1_I2C_MODE_REPEAT_START - Send Repeat Start instead
  76:Generated_Source\PSoC4/I2C_1_I2C_MASTER.c **** *    of Start. A Stop is generated after transfer is completed unless
  77:Generated_Source\PSoC4/I2C_1_I2C_MASTER.c **** *    NO_STOP is specified.
  78:Generated_Source\PSoC4/I2C_1_I2C_MASTER.c **** *  - I2C_1_I2C_MODE_NO_STOP Execute transfer without a Stop.
  79:Generated_Source\PSoC4/I2C_1_I2C_MASTER.c **** *    The following transfer expected to perform ReStart.
  80:Generated_Source\PSoC4/I2C_1_I2C_MASTER.c **** *
  81:Generated_Source\PSoC4/I2C_1_I2C_MASTER.c **** * \return
  82:Generated_Source\PSoC4/I2C_1_I2C_MASTER.c **** *  Error status.
  83:Generated_Source\PSoC4/I2C_1_I2C_MASTER.c **** *  - I2C_1_I2C_MSTR_NO_ERROR - Function complete without error.
  84:Generated_Source\PSoC4/I2C_1_I2C_MASTER.c **** *    The master started the transfer.
  85:Generated_Source\PSoC4/I2C_1_I2C_MASTER.c **** *  - I2C_1_I2C_MSTR_BUS_BUSY - Bus is busy. Nothing was sent on
  86:Generated_Source\PSoC4/I2C_1_I2C_MASTER.c **** *    the bus. The attempt has to be retried.
  87:Generated_Source\PSoC4/I2C_1_I2C_MASTER.c **** *  - I2C_1_I2C_MSTR_NOT_READY - Master is not ready for to start
  88:Generated_Source\PSoC4/I2C_1_I2C_MASTER.c **** *    transfer. A master still has not completed previous transaction or a
ARM GAS  C:\Users\austc\AppData\Local\Temp\cciIEsvk.s 			page 3


  89:Generated_Source\PSoC4/I2C_1_I2C_MASTER.c **** *    slave operation is in progress (in multi-master-slave configuration).
  90:Generated_Source\PSoC4/I2C_1_I2C_MASTER.c **** *    Nothing was sent on the bus. The attempt has to be retried.
  91:Generated_Source\PSoC4/I2C_1_I2C_MASTER.c **** *
  92:Generated_Source\PSoC4/I2C_1_I2C_MASTER.c **** * \globalvars
  93:Generated_Source\PSoC4/I2C_1_I2C_MASTER.c **** *  I2C_1_mstrStatus  - used to store current status of I2C Master.
  94:Generated_Source\PSoC4/I2C_1_I2C_MASTER.c **** *  I2C_1_state       - used to store current state of software FSM.
  95:Generated_Source\PSoC4/I2C_1_I2C_MASTER.c **** *  I2C_1_mstrControl - used to control master end of transaction with
  96:Generated_Source\PSoC4/I2C_1_I2C_MASTER.c **** *  or without the Stop generation.
  97:Generated_Source\PSoC4/I2C_1_I2C_MASTER.c **** *  I2C_1_mstrWrBufPtr - used to store pointer to master write buffer.
  98:Generated_Source\PSoC4/I2C_1_I2C_MASTER.c **** *  I2C_1_mstrWrBufIndex - used to current index within master write
  99:Generated_Source\PSoC4/I2C_1_I2C_MASTER.c **** *  buffer.
 100:Generated_Source\PSoC4/I2C_1_I2C_MASTER.c **** *  I2C_1_mstrWrBufSize - used to store master write buffer size.
 101:Generated_Source\PSoC4/I2C_1_I2C_MASTER.c **** *
 102:Generated_Source\PSoC4/I2C_1_I2C_MASTER.c **** *******************************************************************************/
 103:Generated_Source\PSoC4/I2C_1_I2C_MASTER.c **** uint32 I2C_1_I2CMasterWriteBuf(uint32 slaveAddress, uint8 * wrData, uint32 cnt, uint32 mode)
 104:Generated_Source\PSoC4/I2C_1_I2C_MASTER.c **** {
 105:Generated_Source\PSoC4/I2C_1_I2C_MASTER.c ****     uint32 errStatus;
 106:Generated_Source\PSoC4/I2C_1_I2C_MASTER.c **** 
 107:Generated_Source\PSoC4/I2C_1_I2C_MASTER.c ****     errStatus = I2C_1_I2C_MSTR_NOT_READY;
 108:Generated_Source\PSoC4/I2C_1_I2C_MASTER.c **** 
 109:Generated_Source\PSoC4/I2C_1_I2C_MASTER.c ****     if(NULL != wrData)  /* Check buffer pointer */
 110:Generated_Source\PSoC4/I2C_1_I2C_MASTER.c ****     {
 111:Generated_Source\PSoC4/I2C_1_I2C_MASTER.c ****         /* Check FSM state and bus before generating Start/ReStart condition */
 112:Generated_Source\PSoC4/I2C_1_I2C_MASTER.c ****         if(I2C_1_CHECK_I2C_FSM_IDLE)
 113:Generated_Source\PSoC4/I2C_1_I2C_MASTER.c ****         {
 114:Generated_Source\PSoC4/I2C_1_I2C_MASTER.c ****             I2C_1_DisableInt();  /* Lock from interruption */
 115:Generated_Source\PSoC4/I2C_1_I2C_MASTER.c **** 
 116:Generated_Source\PSoC4/I2C_1_I2C_MASTER.c ****             /* Check bus state */
 117:Generated_Source\PSoC4/I2C_1_I2C_MASTER.c ****             errStatus = I2C_1_CHECK_I2C_STATUS(I2C_1_I2C_STATUS_BUS_BUSY) ?
 118:Generated_Source\PSoC4/I2C_1_I2C_MASTER.c ****                             I2C_1_I2C_MSTR_BUS_BUSY : I2C_1_I2C_MSTR_NO_ERROR;
 119:Generated_Source\PSoC4/I2C_1_I2C_MASTER.c ****         }
 120:Generated_Source\PSoC4/I2C_1_I2C_MASTER.c ****         else if(I2C_1_CHECK_I2C_FSM_HALT)
 121:Generated_Source\PSoC4/I2C_1_I2C_MASTER.c ****         {
 122:Generated_Source\PSoC4/I2C_1_I2C_MASTER.c ****             I2C_1_mstrStatus &= (uint16) ~I2C_1_I2C_MSTAT_XFER_HALT;
 123:Generated_Source\PSoC4/I2C_1_I2C_MASTER.c ****                               errStatus  = I2C_1_I2C_MSTR_NO_ERROR;
 124:Generated_Source\PSoC4/I2C_1_I2C_MASTER.c ****         }
 125:Generated_Source\PSoC4/I2C_1_I2C_MASTER.c ****         else
 126:Generated_Source\PSoC4/I2C_1_I2C_MASTER.c ****         {
 127:Generated_Source\PSoC4/I2C_1_I2C_MASTER.c ****             /* Unexpected FSM state: exit */
 128:Generated_Source\PSoC4/I2C_1_I2C_MASTER.c ****         }
 129:Generated_Source\PSoC4/I2C_1_I2C_MASTER.c ****     }
 130:Generated_Source\PSoC4/I2C_1_I2C_MASTER.c **** 
 131:Generated_Source\PSoC4/I2C_1_I2C_MASTER.c ****     /* Check if master is ready to start  */
 132:Generated_Source\PSoC4/I2C_1_I2C_MASTER.c ****     if(I2C_1_I2C_MSTR_NO_ERROR == errStatus) /* No error proceed */
 133:Generated_Source\PSoC4/I2C_1_I2C_MASTER.c ****     {
 134:Generated_Source\PSoC4/I2C_1_I2C_MASTER.c ****         /* Non-empty for master-slave mode when wakeup enabled */
 135:Generated_Source\PSoC4/I2C_1_I2C_MASTER.c ****         I2C_1_I2CMasterDisableEcAm();
 136:Generated_Source\PSoC4/I2C_1_I2C_MASTER.c **** 
 137:Generated_Source\PSoC4/I2C_1_I2C_MASTER.c ****         /* Set up write transaction */
 138:Generated_Source\PSoC4/I2C_1_I2C_MASTER.c ****         I2C_1_state = I2C_1_I2C_FSM_MSTR_WR_ADDR;
 139:Generated_Source\PSoC4/I2C_1_I2C_MASTER.c ****         I2C_1_mstrWrBufIndexTmp = 0u;
 140:Generated_Source\PSoC4/I2C_1_I2C_MASTER.c ****         I2C_1_mstrWrBufIndex    = 0u;
 141:Generated_Source\PSoC4/I2C_1_I2C_MASTER.c ****         I2C_1_mstrWrBufSize     = cnt;
 142:Generated_Source\PSoC4/I2C_1_I2C_MASTER.c ****         I2C_1_mstrWrBufPtr      = (volatile uint8 *) wrData;
 143:Generated_Source\PSoC4/I2C_1_I2C_MASTER.c ****         I2C_1_mstrControl       = (uint8) mode;
 144:Generated_Source\PSoC4/I2C_1_I2C_MASTER.c **** 
 145:Generated_Source\PSoC4/I2C_1_I2C_MASTER.c ****         slaveAddress = I2C_1_GET_I2C_8BIT_ADDRESS(slaveAddress);
ARM GAS  C:\Users\austc\AppData\Local\Temp\cciIEsvk.s 			page 4


 146:Generated_Source\PSoC4/I2C_1_I2C_MASTER.c **** 
 147:Generated_Source\PSoC4/I2C_1_I2C_MASTER.c ****         I2C_1_mstrStatus &= (uint16) ~I2C_1_I2C_MSTAT_WR_CMPLT;
 148:Generated_Source\PSoC4/I2C_1_I2C_MASTER.c **** 
 149:Generated_Source\PSoC4/I2C_1_I2C_MASTER.c ****         I2C_1_ClearTxInterruptSource    (I2C_1_INTR_TX_UNDERFLOW);
 150:Generated_Source\PSoC4/I2C_1_I2C_MASTER.c ****         I2C_1_ClearMasterInterruptSource(I2C_1_INTR_MASTER_ALL);
 151:Generated_Source\PSoC4/I2C_1_I2C_MASTER.c ****         I2C_1_SetMasterInterruptMode    (I2C_1_I2C_INTR_MASTER_MASK);
 152:Generated_Source\PSoC4/I2C_1_I2C_MASTER.c **** 
 153:Generated_Source\PSoC4/I2C_1_I2C_MASTER.c ****         /* The TX and RX FIFO have to be EMPTY */
 154:Generated_Source\PSoC4/I2C_1_I2C_MASTER.c **** 
 155:Generated_Source\PSoC4/I2C_1_I2C_MASTER.c ****         /* Enable interrupt source to catch when address is sent */
 156:Generated_Source\PSoC4/I2C_1_I2C_MASTER.c ****         I2C_1_SetTxInterruptMode(I2C_1_INTR_TX_UNDERFLOW);
 157:Generated_Source\PSoC4/I2C_1_I2C_MASTER.c **** 
 158:Generated_Source\PSoC4/I2C_1_I2C_MASTER.c ****         /* Generate Start or ReStart */
 159:Generated_Source\PSoC4/I2C_1_I2C_MASTER.c ****         if(I2C_1_CHECK_I2C_MODE_RESTART(mode))
 160:Generated_Source\PSoC4/I2C_1_I2C_MASTER.c ****         {
 161:Generated_Source\PSoC4/I2C_1_I2C_MASTER.c ****             I2C_1_I2C_MASTER_GENERATE_RESTART;
 162:Generated_Source\PSoC4/I2C_1_I2C_MASTER.c ****             I2C_1_TX_FIFO_WR_REG = slaveAddress;
 163:Generated_Source\PSoC4/I2C_1_I2C_MASTER.c ****         }
 164:Generated_Source\PSoC4/I2C_1_I2C_MASTER.c ****         else
 165:Generated_Source\PSoC4/I2C_1_I2C_MASTER.c ****         {
 166:Generated_Source\PSoC4/I2C_1_I2C_MASTER.c ****             I2C_1_TX_FIFO_WR_REG = slaveAddress;
 167:Generated_Source\PSoC4/I2C_1_I2C_MASTER.c ****             I2C_1_I2C_MASTER_GENERATE_START;
 168:Generated_Source\PSoC4/I2C_1_I2C_MASTER.c ****         }
 169:Generated_Source\PSoC4/I2C_1_I2C_MASTER.c ****     }
 170:Generated_Source\PSoC4/I2C_1_I2C_MASTER.c **** 
 171:Generated_Source\PSoC4/I2C_1_I2C_MASTER.c ****     I2C_1_EnableInt();   /* Release lock */
 172:Generated_Source\PSoC4/I2C_1_I2C_MASTER.c **** 
 173:Generated_Source\PSoC4/I2C_1_I2C_MASTER.c ****     return(errStatus);
 174:Generated_Source\PSoC4/I2C_1_I2C_MASTER.c **** }
 175:Generated_Source\PSoC4/I2C_1_I2C_MASTER.c **** 
 176:Generated_Source\PSoC4/I2C_1_I2C_MASTER.c **** 
 177:Generated_Source\PSoC4/I2C_1_I2C_MASTER.c **** /*******************************************************************************
 178:Generated_Source\PSoC4/I2C_1_I2C_MASTER.c **** * Function Name: I2C_1_I2CMasterReadBuf
 179:Generated_Source\PSoC4/I2C_1_I2C_MASTER.c **** ****************************************************************************//**
 180:Generated_Source\PSoC4/I2C_1_I2C_MASTER.c **** *
 181:Generated_Source\PSoC4/I2C_1_I2C_MASTER.c **** *  Automatically reads an entire buffer of data from a slave device.
 182:Generated_Source\PSoC4/I2C_1_I2C_MASTER.c **** *  Once the data transfer is initiated by this function, further data transfer
 183:Generated_Source\PSoC4/I2C_1_I2C_MASTER.c **** *  is handled by the included ISR.
 184:Generated_Source\PSoC4/I2C_1_I2C_MASTER.c **** *  Enables the I2C interrupt and clears I2C_1_I2C_MSTAT_RD_CMPLT
 185:Generated_Source\PSoC4/I2C_1_I2C_MASTER.c **** *  status.
 186:Generated_Source\PSoC4/I2C_1_I2C_MASTER.c **** *
 187:Generated_Source\PSoC4/I2C_1_I2C_MASTER.c **** *  \param slaveAddr: 7-bit slave address.
 188:Generated_Source\PSoC4/I2C_1_I2C_MASTER.c **** *  \param xferData: Pointer to buffer of data to be sent.
 189:Generated_Source\PSoC4/I2C_1_I2C_MASTER.c **** *  \param cnt: Size of buffer to send.
 190:Generated_Source\PSoC4/I2C_1_I2C_MASTER.c **** *  \param mode: Transfer mode defines:
 191:Generated_Source\PSoC4/I2C_1_I2C_MASTER.c **** *  (1) Whether a start or restart condition is generated at the beginning
 192:Generated_Source\PSoC4/I2C_1_I2C_MASTER.c **** *  of the transfer, and
 193:Generated_Source\PSoC4/I2C_1_I2C_MASTER.c **** *  (2) Whether the transfer is completed or halted before the stop
 194:Generated_Source\PSoC4/I2C_1_I2C_MASTER.c **** *  condition is generated on the bus.Transfer mode, mode constants may
 195:Generated_Source\PSoC4/I2C_1_I2C_MASTER.c **** *  be ORed together. See I2C_1_I2CMasterWriteBuf()
 196:Generated_Source\PSoC4/I2C_1_I2C_MASTER.c **** *  function for constants.
 197:Generated_Source\PSoC4/I2C_1_I2C_MASTER.c **** *
 198:Generated_Source\PSoC4/I2C_1_I2C_MASTER.c **** * \return
 199:Generated_Source\PSoC4/I2C_1_I2C_MASTER.c **** *  Error status.See I2C_1_I2CMasterWriteBuf()
 200:Generated_Source\PSoC4/I2C_1_I2C_MASTER.c **** *  function for constants.
 201:Generated_Source\PSoC4/I2C_1_I2C_MASTER.c **** *
 202:Generated_Source\PSoC4/I2C_1_I2C_MASTER.c **** * \globalvars
ARM GAS  C:\Users\austc\AppData\Local\Temp\cciIEsvk.s 			page 5


 203:Generated_Source\PSoC4/I2C_1_I2C_MASTER.c **** *  I2C_1_mstrStatus  - used to store current status of I2C Master.
 204:Generated_Source\PSoC4/I2C_1_I2C_MASTER.c **** *  I2C_1_state       - used to store current state of software FSM.
 205:Generated_Source\PSoC4/I2C_1_I2C_MASTER.c **** *  I2C_1_mstrControl - used to control master end of transaction with
 206:Generated_Source\PSoC4/I2C_1_I2C_MASTER.c **** *  or without the Stop generation.
 207:Generated_Source\PSoC4/I2C_1_I2C_MASTER.c **** *  I2C_1_mstrRdBufPtr - used to store pointer to master read buffer.
 208:Generated_Source\PSoC4/I2C_1_I2C_MASTER.c **** *  I2C_1_mstrRdBufIndex - used to current index within master read
 209:Generated_Source\PSoC4/I2C_1_I2C_MASTER.c **** *  buffer.
 210:Generated_Source\PSoC4/I2C_1_I2C_MASTER.c **** *  I2C_1_mstrRdBufSize - used to store master read buffer size.
 211:Generated_Source\PSoC4/I2C_1_I2C_MASTER.c **** *
 212:Generated_Source\PSoC4/I2C_1_I2C_MASTER.c **** *******************************************************************************/
 213:Generated_Source\PSoC4/I2C_1_I2C_MASTER.c **** uint32 I2C_1_I2CMasterReadBuf(uint32 slaveAddress, uint8 * rdData, uint32 cnt, uint32 mode)
 214:Generated_Source\PSoC4/I2C_1_I2C_MASTER.c **** {
 215:Generated_Source\PSoC4/I2C_1_I2C_MASTER.c ****     uint32 errStatus;
 216:Generated_Source\PSoC4/I2C_1_I2C_MASTER.c **** 
 217:Generated_Source\PSoC4/I2C_1_I2C_MASTER.c ****     errStatus = I2C_1_I2C_MSTR_NOT_READY;
 218:Generated_Source\PSoC4/I2C_1_I2C_MASTER.c **** 
 219:Generated_Source\PSoC4/I2C_1_I2C_MASTER.c ****     if(NULL != rdData)
 220:Generated_Source\PSoC4/I2C_1_I2C_MASTER.c ****     {
 221:Generated_Source\PSoC4/I2C_1_I2C_MASTER.c ****         /* Check FSM state and bus before generating Start/ReStart condition */
 222:Generated_Source\PSoC4/I2C_1_I2C_MASTER.c ****         if(I2C_1_CHECK_I2C_FSM_IDLE)
 223:Generated_Source\PSoC4/I2C_1_I2C_MASTER.c ****         {
 224:Generated_Source\PSoC4/I2C_1_I2C_MASTER.c ****             I2C_1_DisableInt();  /* Lock from interruption */
 225:Generated_Source\PSoC4/I2C_1_I2C_MASTER.c **** 
 226:Generated_Source\PSoC4/I2C_1_I2C_MASTER.c ****             /* Check bus state */
 227:Generated_Source\PSoC4/I2C_1_I2C_MASTER.c ****             errStatus = I2C_1_CHECK_I2C_STATUS(I2C_1_I2C_STATUS_BUS_BUSY) ?
 228:Generated_Source\PSoC4/I2C_1_I2C_MASTER.c ****                             I2C_1_I2C_MSTR_BUS_BUSY : I2C_1_I2C_MSTR_NO_ERROR;
 229:Generated_Source\PSoC4/I2C_1_I2C_MASTER.c ****         }
 230:Generated_Source\PSoC4/I2C_1_I2C_MASTER.c ****         else if(I2C_1_CHECK_I2C_FSM_HALT)
 231:Generated_Source\PSoC4/I2C_1_I2C_MASTER.c ****         {
 232:Generated_Source\PSoC4/I2C_1_I2C_MASTER.c ****             I2C_1_mstrStatus &= (uint16) ~I2C_1_I2C_MSTAT_XFER_HALT;
 233:Generated_Source\PSoC4/I2C_1_I2C_MASTER.c ****                               errStatus  =  I2C_1_I2C_MSTR_NO_ERROR;
 234:Generated_Source\PSoC4/I2C_1_I2C_MASTER.c ****         }
 235:Generated_Source\PSoC4/I2C_1_I2C_MASTER.c ****         else
 236:Generated_Source\PSoC4/I2C_1_I2C_MASTER.c ****         {
 237:Generated_Source\PSoC4/I2C_1_I2C_MASTER.c ****             /* Unexpected FSM state: exit */
 238:Generated_Source\PSoC4/I2C_1_I2C_MASTER.c ****         }
 239:Generated_Source\PSoC4/I2C_1_I2C_MASTER.c ****     }
 240:Generated_Source\PSoC4/I2C_1_I2C_MASTER.c **** 
 241:Generated_Source\PSoC4/I2C_1_I2C_MASTER.c ****     /* Check master ready to proceed */
 242:Generated_Source\PSoC4/I2C_1_I2C_MASTER.c ****     if(I2C_1_I2C_MSTR_NO_ERROR == errStatus) /* No error proceed */
 243:Generated_Source\PSoC4/I2C_1_I2C_MASTER.c ****     {
 244:Generated_Source\PSoC4/I2C_1_I2C_MASTER.c ****         /* Non-empty for master-slave mode when wakeup enabled */
 245:Generated_Source\PSoC4/I2C_1_I2C_MASTER.c ****         I2C_1_I2CMasterDisableEcAm();
 246:Generated_Source\PSoC4/I2C_1_I2C_MASTER.c **** 
 247:Generated_Source\PSoC4/I2C_1_I2C_MASTER.c ****         /* Set up read transaction */
 248:Generated_Source\PSoC4/I2C_1_I2C_MASTER.c ****         I2C_1_state = I2C_1_I2C_FSM_MSTR_RD_ADDR;
 249:Generated_Source\PSoC4/I2C_1_I2C_MASTER.c ****         I2C_1_mstrRdBufIndex = 0u;
 250:Generated_Source\PSoC4/I2C_1_I2C_MASTER.c ****         I2C_1_mstrRdBufSize  = cnt;
 251:Generated_Source\PSoC4/I2C_1_I2C_MASTER.c ****         I2C_1_mstrRdBufPtr   = (volatile uint8 *) rdData;
 252:Generated_Source\PSoC4/I2C_1_I2C_MASTER.c ****         I2C_1_mstrControl    = (uint8) mode;
 253:Generated_Source\PSoC4/I2C_1_I2C_MASTER.c **** 
 254:Generated_Source\PSoC4/I2C_1_I2C_MASTER.c ****         slaveAddress = (I2C_1_GET_I2C_8BIT_ADDRESS(slaveAddress) | I2C_1_I2C_READ_FLAG);
 255:Generated_Source\PSoC4/I2C_1_I2C_MASTER.c **** 
 256:Generated_Source\PSoC4/I2C_1_I2C_MASTER.c ****         I2C_1_mstrStatus &= (uint16) ~I2C_1_I2C_MSTAT_RD_CMPLT;
 257:Generated_Source\PSoC4/I2C_1_I2C_MASTER.c **** 
 258:Generated_Source\PSoC4/I2C_1_I2C_MASTER.c ****         I2C_1_ClearMasterInterruptSource(I2C_1_INTR_MASTER_ALL);
 259:Generated_Source\PSoC4/I2C_1_I2C_MASTER.c ****         I2C_1_SetMasterInterruptMode    (I2C_1_I2C_INTR_MASTER_MASK);
ARM GAS  C:\Users\austc\AppData\Local\Temp\cciIEsvk.s 			page 6


 260:Generated_Source\PSoC4/I2C_1_I2C_MASTER.c **** 
 261:Generated_Source\PSoC4/I2C_1_I2C_MASTER.c ****         /* TX and RX FIFO have to be EMPTY */
 262:Generated_Source\PSoC4/I2C_1_I2C_MASTER.c **** 
 263:Generated_Source\PSoC4/I2C_1_I2C_MASTER.c ****         /* Prepare reading */
 264:Generated_Source\PSoC4/I2C_1_I2C_MASTER.c ****         if(I2C_1_mstrRdBufSize < I2C_1_I2C_FIFO_SIZE)
 265:Generated_Source\PSoC4/I2C_1_I2C_MASTER.c ****         {
 266:Generated_Source\PSoC4/I2C_1_I2C_MASTER.c ****             /* Reading byte-by-byte */
 267:Generated_Source\PSoC4/I2C_1_I2C_MASTER.c ****             I2C_1_SetRxInterruptMode(I2C_1_INTR_RX_NOT_EMPTY);
 268:Generated_Source\PSoC4/I2C_1_I2C_MASTER.c ****         }
 269:Generated_Source\PSoC4/I2C_1_I2C_MASTER.c ****         else
 270:Generated_Source\PSoC4/I2C_1_I2C_MASTER.c ****         {
 271:Generated_Source\PSoC4/I2C_1_I2C_MASTER.c ****             /* Receive RX FIFO chunks */
 272:Generated_Source\PSoC4/I2C_1_I2C_MASTER.c ****             I2C_1_ENABLE_MASTER_AUTO_DATA_ACK;
 273:Generated_Source\PSoC4/I2C_1_I2C_MASTER.c ****             I2C_1_SetRxInterruptMode(I2C_1_INTR_RX_FULL);
 274:Generated_Source\PSoC4/I2C_1_I2C_MASTER.c ****         }
 275:Generated_Source\PSoC4/I2C_1_I2C_MASTER.c **** 
 276:Generated_Source\PSoC4/I2C_1_I2C_MASTER.c ****         /* Generate Start or ReStart */
 277:Generated_Source\PSoC4/I2C_1_I2C_MASTER.c ****         if(I2C_1_CHECK_I2C_MODE_RESTART(mode))
 278:Generated_Source\PSoC4/I2C_1_I2C_MASTER.c ****         {
 279:Generated_Source\PSoC4/I2C_1_I2C_MASTER.c ****             I2C_1_I2C_MASTER_GENERATE_RESTART;
 280:Generated_Source\PSoC4/I2C_1_I2C_MASTER.c ****             I2C_1_TX_FIFO_WR_REG = slaveAddress;
 281:Generated_Source\PSoC4/I2C_1_I2C_MASTER.c ****         }
 282:Generated_Source\PSoC4/I2C_1_I2C_MASTER.c ****         else
 283:Generated_Source\PSoC4/I2C_1_I2C_MASTER.c ****         {
 284:Generated_Source\PSoC4/I2C_1_I2C_MASTER.c ****             I2C_1_TX_FIFO_WR_REG = slaveAddress;
 285:Generated_Source\PSoC4/I2C_1_I2C_MASTER.c ****             I2C_1_I2C_MASTER_GENERATE_START;
 286:Generated_Source\PSoC4/I2C_1_I2C_MASTER.c ****         }
 287:Generated_Source\PSoC4/I2C_1_I2C_MASTER.c ****     }
 288:Generated_Source\PSoC4/I2C_1_I2C_MASTER.c **** 
 289:Generated_Source\PSoC4/I2C_1_I2C_MASTER.c ****     I2C_1_EnableInt();   /* Release lock */
 290:Generated_Source\PSoC4/I2C_1_I2C_MASTER.c **** 
 291:Generated_Source\PSoC4/I2C_1_I2C_MASTER.c ****     return(errStatus);
 292:Generated_Source\PSoC4/I2C_1_I2C_MASTER.c **** }
 293:Generated_Source\PSoC4/I2C_1_I2C_MASTER.c **** 
 294:Generated_Source\PSoC4/I2C_1_I2C_MASTER.c **** 
 295:Generated_Source\PSoC4/I2C_1_I2C_MASTER.c **** /*******************************************************************************
 296:Generated_Source\PSoC4/I2C_1_I2C_MASTER.c **** * Function Name: I2C_1_I2CMasterSendStart
 297:Generated_Source\PSoC4/I2C_1_I2C_MASTER.c **** ****************************************************************************//**
 298:Generated_Source\PSoC4/I2C_1_I2C_MASTER.c **** *
 299:Generated_Source\PSoC4/I2C_1_I2C_MASTER.c **** * Generates Start condition and sends slave address with read/write bit.
 300:Generated_Source\PSoC4/I2C_1_I2C_MASTER.c **** * Disables the I2C interrupt.
 301:Generated_Source\PSoC4/I2C_1_I2C_MASTER.c **** * This function is blocking and does not return until start condition and
 302:Generated_Source\PSoC4/I2C_1_I2C_MASTER.c **** * address byte are sent and ACK/NACK response is received or errors occurred.
 303:Generated_Source\PSoC4/I2C_1_I2C_MASTER.c **** *
 304:Generated_Source\PSoC4/I2C_1_I2C_MASTER.c **** * \param slaveAddress
 305:Generated_Source\PSoC4/I2C_1_I2C_MASTER.c **** * Right justified 7-bit Slave address (valid range 8 to 120).
 306:Generated_Source\PSoC4/I2C_1_I2C_MASTER.c **** *
 307:Generated_Source\PSoC4/I2C_1_I2C_MASTER.c **** * \param bitRnW
 308:Generated_Source\PSoC4/I2C_1_I2C_MASTER.c **** * Direction of the following transfer. It is defined by read/write bit within
 309:Generated_Source\PSoC4/I2C_1_I2C_MASTER.c **** * address byte.
 310:Generated_Source\PSoC4/I2C_1_I2C_MASTER.c **** *  - I2C_1_I2C_WRITE_XFER_MODE - Set write direction for the
 311:Generated_Source\PSoC4/I2C_1_I2C_MASTER.c **** *    following transfer.
 312:Generated_Source\PSoC4/I2C_1_I2C_MASTER.c **** *  - I2C_1_I2C_READ_XFER_MODE - Set read direction for the
 313:Generated_Source\PSoC4/I2C_1_I2C_MASTER.c **** *    following transfer.
 314:Generated_Source\PSoC4/I2C_1_I2C_MASTER.c **** *
 315:Generated_Source\PSoC4/I2C_1_I2C_MASTER.c **** * \param timeoutMs
 316:Generated_Source\PSoC4/I2C_1_I2C_MASTER.c **** * Defines in milliseconds the time that this function can block for.
ARM GAS  C:\Users\austc\AppData\Local\Temp\cciIEsvk.s 			page 7


 317:Generated_Source\PSoC4/I2C_1_I2C_MASTER.c **** * If that time expires, the function returns. If a zero is passed,
 318:Generated_Source\PSoC4/I2C_1_I2C_MASTER.c **** * the function waits forever for the action to complete. If a timeout occurs,
 319:Generated_Source\PSoC4/I2C_1_I2C_MASTER.c **** * the SCB block is reset. Note The maximum value is (maximum uint32)/1000.
 320:Generated_Source\PSoC4/I2C_1_I2C_MASTER.c **** *
 321:Generated_Source\PSoC4/I2C_1_I2C_MASTER.c **** * \return
 322:Generated_Source\PSoC4/I2C_1_I2C_MASTER.c **** * Error status.
 323:Generated_Source\PSoC4/I2C_1_I2C_MASTER.c **** *  - I2C_1_I2C_MSTR_NO_ERROR - Function complete without error.
 324:Generated_Source\PSoC4/I2C_1_I2C_MASTER.c **** *  - I2C_1_I2C_MSTR_BUS_BUSY - Bus is busy.
 325:Generated_Source\PSoC4/I2C_1_I2C_MASTER.c **** *    Nothing was sent on the bus. The attempt has to be retried.
 326:Generated_Source\PSoC4/I2C_1_I2C_MASTER.c **** *  - I2C_1_I2C_MSTR_NOT_READY - Master is not ready for to
 327:Generated_Source\PSoC4/I2C_1_I2C_MASTER.c **** *    start transfer.
 328:Generated_Source\PSoC4/I2C_1_I2C_MASTER.c **** *    A master still has not completed previous transaction or a slave
 329:Generated_Source\PSoC4/I2C_1_I2C_MASTER.c **** *    operation is in progress (in multi-master-slave configuration).
 330:Generated_Source\PSoC4/I2C_1_I2C_MASTER.c **** *    Nothing was sent on the bus. The attempt has to be retried.
 331:Generated_Source\PSoC4/I2C_1_I2C_MASTER.c **** *  - I2C_1_I2C_MSTR_ERR_LB_NAK - Error condition: Last byte was
 332:Generated_Source\PSoC4/I2C_1_I2C_MASTER.c **** *    NAKed.
 333:Generated_Source\PSoC4/I2C_1_I2C_MASTER.c **** *  - I2C_1_I2C_MSTR_ERR_ARB_LOST - Error condition: Master lost
 334:Generated_Source\PSoC4/I2C_1_I2C_MASTER.c **** *    arbitration.
 335:Generated_Source\PSoC4/I2C_1_I2C_MASTER.c **** *  - I2C_1_I2C_MSTR_ERR_BUS_ERR - Error condition: Master
 336:Generated_Source\PSoC4/I2C_1_I2C_MASTER.c **** *    encountered a bus error. Bus error is misplaced start or stop detection.
 337:Generated_Source\PSoC4/I2C_1_I2C_MASTER.c **** *  - I2C_1_I2C_MSTR_ERR_ABORT_START - Error condition: The start
 338:Generated_Source\PSoC4/I2C_1_I2C_MASTER.c **** *    condition generation was aborted due to beginning of Slave operation.
 339:Generated_Source\PSoC4/I2C_1_I2C_MASTER.c **** *    This error condition is only applicable for Multi-Master-Slave mode.
 340:Generated_Source\PSoC4/I2C_1_I2C_MASTER.c **** *
 341:Generated_Source\PSoC4/I2C_1_I2C_MASTER.c **** * \globalvars
 342:Generated_Source\PSoC4/I2C_1_I2C_MASTER.c **** * I2C_1_state - used to store current state of software FSM.
 343:Generated_Source\PSoC4/I2C_1_I2C_MASTER.c **** *
 344:Generated_Source\PSoC4/I2C_1_I2C_MASTER.c **** *******************************************************************************/
 345:Generated_Source\PSoC4/I2C_1_I2C_MASTER.c **** uint32 I2C_1_I2CMasterSendStart(uint32 slaveAddress, uint32 bitRnW, uint32 timeoutMs)
 346:Generated_Source\PSoC4/I2C_1_I2C_MASTER.c **** {
 347:Generated_Source\PSoC4/I2C_1_I2C_MASTER.c ****     uint32 errStatus = I2C_1_I2C_MSTR_NOT_READY;
 348:Generated_Source\PSoC4/I2C_1_I2C_MASTER.c **** 
 349:Generated_Source\PSoC4/I2C_1_I2C_MASTER.c ****     if(I2C_1_CHECK_I2C_FSM_IDLE)
 350:Generated_Source\PSoC4/I2C_1_I2C_MASTER.c ****     {
 351:Generated_Source\PSoC4/I2C_1_I2C_MASTER.c ****         I2C_1_DisableInt();  /* Lock from interruption */
 352:Generated_Source\PSoC4/I2C_1_I2C_MASTER.c **** 
 353:Generated_Source\PSoC4/I2C_1_I2C_MASTER.c ****         if(I2C_1_CHECK_I2C_STATUS(I2C_1_I2C_STATUS_BUS_BUSY))
 354:Generated_Source\PSoC4/I2C_1_I2C_MASTER.c ****         {
 355:Generated_Source\PSoC4/I2C_1_I2C_MASTER.c ****             errStatus = I2C_1_I2C_MSTR_BUS_BUSY;
 356:Generated_Source\PSoC4/I2C_1_I2C_MASTER.c ****         }
 357:Generated_Source\PSoC4/I2C_1_I2C_MASTER.c ****         else
 358:Generated_Source\PSoC4/I2C_1_I2C_MASTER.c ****         {
 359:Generated_Source\PSoC4/I2C_1_I2C_MASTER.c ****             uint32 locStatus;
 360:Generated_Source\PSoC4/I2C_1_I2C_MASTER.c ****             uint32 timeout = I2C_1_I2C_CONVERT_TIMEOUT_TO_US(timeoutMs);
 361:Generated_Source\PSoC4/I2C_1_I2C_MASTER.c **** 
 362:Generated_Source\PSoC4/I2C_1_I2C_MASTER.c ****             /* Non-empty for master-slave mode when wakeup enabled */
 363:Generated_Source\PSoC4/I2C_1_I2C_MASTER.c ****             I2C_1_I2CMasterDisableEcAm();
 364:Generated_Source\PSoC4/I2C_1_I2C_MASTER.c **** 
 365:Generated_Source\PSoC4/I2C_1_I2C_MASTER.c ****             /* Clean up the hardware before a transaction. */
 366:Generated_Source\PSoC4/I2C_1_I2C_MASTER.c ****             I2C_1_SetMasterInterruptMode    (I2C_1_NO_INTR_SOURCES);
 367:Generated_Source\PSoC4/I2C_1_I2C_MASTER.c ****             I2C_1_ClearMasterInterruptSource(I2C_1_INTR_MASTER_ALL);
 368:Generated_Source\PSoC4/I2C_1_I2C_MASTER.c ****             I2C_1_ClearRxInterruptSource    (I2C_1_INTR_RX_ALL);
 369:Generated_Source\PSoC4/I2C_1_I2C_MASTER.c **** 
 370:Generated_Source\PSoC4/I2C_1_I2C_MASTER.c ****             slaveAddress = I2C_1_GET_I2C_8BIT_ADDRESS(slaveAddress);
 371:Generated_Source\PSoC4/I2C_1_I2C_MASTER.c **** 
 372:Generated_Source\PSoC4/I2C_1_I2C_MASTER.c ****             if(0u == bitRnW) /* Write direction */
 373:Generated_Source\PSoC4/I2C_1_I2C_MASTER.c ****             {
ARM GAS  C:\Users\austc\AppData\Local\Temp\cciIEsvk.s 			page 8


 374:Generated_Source\PSoC4/I2C_1_I2C_MASTER.c ****                 I2C_1_state = I2C_1_I2C_FSM_MSTR_WR_DATA;
 375:Generated_Source\PSoC4/I2C_1_I2C_MASTER.c ****             }
 376:Generated_Source\PSoC4/I2C_1_I2C_MASTER.c ****             else             /* Read direction */
 377:Generated_Source\PSoC4/I2C_1_I2C_MASTER.c ****             {
 378:Generated_Source\PSoC4/I2C_1_I2C_MASTER.c ****                 I2C_1_state = I2C_1_I2C_FSM_MSTR_RD_DATA;
 379:Generated_Source\PSoC4/I2C_1_I2C_MASTER.c ****                          slaveAddress |= I2C_1_I2C_READ_FLAG;
 380:Generated_Source\PSoC4/I2C_1_I2C_MASTER.c ****             }
 381:Generated_Source\PSoC4/I2C_1_I2C_MASTER.c **** 
 382:Generated_Source\PSoC4/I2C_1_I2C_MASTER.c ****             /* TX and RX FIFO have to be empty at here */
 383:Generated_Source\PSoC4/I2C_1_I2C_MASTER.c **** 
 384:Generated_Source\PSoC4/I2C_1_I2C_MASTER.c ****              /* Generate Start and send address */
 385:Generated_Source\PSoC4/I2C_1_I2C_MASTER.c ****             I2C_1_TX_FIFO_WR_REG = slaveAddress;
 386:Generated_Source\PSoC4/I2C_1_I2C_MASTER.c ****             I2C_1_I2C_MASTER_GENERATE_START;
 387:Generated_Source\PSoC4/I2C_1_I2C_MASTER.c **** 
 388:Generated_Source\PSoC4/I2C_1_I2C_MASTER.c ****             /* Wait until address has been transferred. Note that for master reads at least one byt
 389:Generated_Source\PSoC4/I2C_1_I2C_MASTER.c ****             do
 390:Generated_Source\PSoC4/I2C_1_I2C_MASTER.c ****             {
 391:Generated_Source\PSoC4/I2C_1_I2C_MASTER.c ****                 locStatus  = I2C_1_GetMasterInterruptSource() & I2C_1_INTR_MASTER_SEND_BYTE;
 392:Generated_Source\PSoC4/I2C_1_I2C_MASTER.c ****                 locStatus |= I2C_1_GetSlaveInterruptSource() & I2C_1_SLAVE_INTR_I2C_ADDR;
 393:Generated_Source\PSoC4/I2C_1_I2C_MASTER.c ****                 locStatus |= I2C_1_I2CMasterWaitOneUnit(&timeout);
 394:Generated_Source\PSoC4/I2C_1_I2C_MASTER.c ****             }
 395:Generated_Source\PSoC4/I2C_1_I2C_MASTER.c ****             while (0u == locStatus);
 396:Generated_Source\PSoC4/I2C_1_I2C_MASTER.c **** 
 397:Generated_Source\PSoC4/I2C_1_I2C_MASTER.c ****             /* Handle completion event and convert to status */
 398:Generated_Source\PSoC4/I2C_1_I2C_MASTER.c ****             errStatus = I2C_1_I2CMasterHandleStatus(locStatus);
 399:Generated_Source\PSoC4/I2C_1_I2C_MASTER.c ****         }
 400:Generated_Source\PSoC4/I2C_1_I2C_MASTER.c **** 
 401:Generated_Source\PSoC4/I2C_1_I2C_MASTER.c ****         I2C_1_EnableInt();  /* Release lock */
 402:Generated_Source\PSoC4/I2C_1_I2C_MASTER.c ****     }
 403:Generated_Source\PSoC4/I2C_1_I2C_MASTER.c **** 
 404:Generated_Source\PSoC4/I2C_1_I2C_MASTER.c ****     return(errStatus);
 405:Generated_Source\PSoC4/I2C_1_I2C_MASTER.c **** }
 406:Generated_Source\PSoC4/I2C_1_I2C_MASTER.c **** 
 407:Generated_Source\PSoC4/I2C_1_I2C_MASTER.c **** 
 408:Generated_Source\PSoC4/I2C_1_I2C_MASTER.c **** /*******************************************************************************
 409:Generated_Source\PSoC4/I2C_1_I2C_MASTER.c **** * Function Name: I2C_1_I2CMasterSendRestart
 410:Generated_Source\PSoC4/I2C_1_I2C_MASTER.c **** ****************************************************************************//**
 411:Generated_Source\PSoC4/I2C_1_I2C_MASTER.c **** *
 412:Generated_Source\PSoC4/I2C_1_I2C_MASTER.c **** * Generates Restart condition and sends slave address with read/write bit.
 413:Generated_Source\PSoC4/I2C_1_I2C_MASTER.c **** * This function is blocking and does not return until start condition and
 414:Generated_Source\PSoC4/I2C_1_I2C_MASTER.c **** * address are sent and ACK/NACK response is received or errors occurred.
 415:Generated_Source\PSoC4/I2C_1_I2C_MASTER.c **** *
 416:Generated_Source\PSoC4/I2C_1_I2C_MASTER.c **** * \param slaveAddress
 417:Generated_Source\PSoC4/I2C_1_I2C_MASTER.c **** * Right justified 7-bit Slave address (valid range 8 to 120).
 418:Generated_Source\PSoC4/I2C_1_I2C_MASTER.c **** *
 419:Generated_Source\PSoC4/I2C_1_I2C_MASTER.c **** * \param bitRnW
 420:Generated_Source\PSoC4/I2C_1_I2C_MASTER.c **** * Direction of the following transfer. It is defined by read/write bit within
 421:Generated_Source\PSoC4/I2C_1_I2C_MASTER.c **** * address byte.See I2C_1_I2CMasterSendStart() function for constants.
 422:Generated_Source\PSoC4/I2C_1_I2C_MASTER.c **** *
 423:Generated_Source\PSoC4/I2C_1_I2C_MASTER.c **** * \param timeoutMs
 424:Generated_Source\PSoC4/I2C_1_I2C_MASTER.c **** * Defines in milliseconds the time that this function can block for.
 425:Generated_Source\PSoC4/I2C_1_I2C_MASTER.c **** * If that time expires, the function returns. If a zero is passed,
 426:Generated_Source\PSoC4/I2C_1_I2C_MASTER.c **** * the function waits forever for the action to complete. If a timeout occurs,
 427:Generated_Source\PSoC4/I2C_1_I2C_MASTER.c **** * the SCB block is reset. Note The maximum value is (maximum uint32)/1000.
 428:Generated_Source\PSoC4/I2C_1_I2C_MASTER.c **** *
 429:Generated_Source\PSoC4/I2C_1_I2C_MASTER.c **** * \return
 430:Generated_Source\PSoC4/I2C_1_I2C_MASTER.c **** * Error status.
ARM GAS  C:\Users\austc\AppData\Local\Temp\cciIEsvk.s 			page 9


 431:Generated_Source\PSoC4/I2C_1_I2C_MASTER.c **** * See I2C_1_I2CMasterSendStart() function for constants.
 432:Generated_Source\PSoC4/I2C_1_I2C_MASTER.c **** *
 433:Generated_Source\PSoC4/I2C_1_I2C_MASTER.c **** * \sideeffect
 434:Generated_Source\PSoC4/I2C_1_I2C_MASTER.c **** * A valid Start or ReStart condition must be generated before calling
 435:Generated_Source\PSoC4/I2C_1_I2C_MASTER.c **** * this function. This function does nothing if Start or ReStart conditions
 436:Generated_Source\PSoC4/I2C_1_I2C_MASTER.c **** * failed before this function was called.
 437:Generated_Source\PSoC4/I2C_1_I2C_MASTER.c **** * For read transaction, at least one byte has to be read before ReStart
 438:Generated_Source\PSoC4/I2C_1_I2C_MASTER.c **** * generation.
 439:Generated_Source\PSoC4/I2C_1_I2C_MASTER.c **** *
 440:Generated_Source\PSoC4/I2C_1_I2C_MASTER.c **** * \globalvars
 441:Generated_Source\PSoC4/I2C_1_I2C_MASTER.c **** * I2C_1_state - used to store current state of software FSM.
 442:Generated_Source\PSoC4/I2C_1_I2C_MASTER.c **** *
 443:Generated_Source\PSoC4/I2C_1_I2C_MASTER.c **** *******************************************************************************/
 444:Generated_Source\PSoC4/I2C_1_I2C_MASTER.c **** uint32 I2C_1_I2CMasterSendRestart(uint32 slaveAddress, uint32 bitRnW, uint32 timeoutMs)
 445:Generated_Source\PSoC4/I2C_1_I2C_MASTER.c **** {
 446:Generated_Source\PSoC4/I2C_1_I2C_MASTER.c ****     uint32 errStatus = I2C_1_I2C_MSTR_NOT_READY;
 447:Generated_Source\PSoC4/I2C_1_I2C_MASTER.c **** 
 448:Generated_Source\PSoC4/I2C_1_I2C_MASTER.c ****     /* Check FSM state before generating ReStart condition */
 449:Generated_Source\PSoC4/I2C_1_I2C_MASTER.c ****     if(I2C_1_CHECK_I2C_MASTER_ACTIVE)
 450:Generated_Source\PSoC4/I2C_1_I2C_MASTER.c ****     {
 451:Generated_Source\PSoC4/I2C_1_I2C_MASTER.c ****         uint32 locStatus;
 452:Generated_Source\PSoC4/I2C_1_I2C_MASTER.c ****         uint32 timeout = I2C_1_I2C_CONVERT_TIMEOUT_TO_US(timeoutMs);
 453:Generated_Source\PSoC4/I2C_1_I2C_MASTER.c **** 
 454:Generated_Source\PSoC4/I2C_1_I2C_MASTER.c ****         slaveAddress = I2C_1_GET_I2C_8BIT_ADDRESS(slaveAddress);
 455:Generated_Source\PSoC4/I2C_1_I2C_MASTER.c **** 
 456:Generated_Source\PSoC4/I2C_1_I2C_MASTER.c ****         if(0u == bitRnW) /* Write direction */
 457:Generated_Source\PSoC4/I2C_1_I2C_MASTER.c ****         {
 458:Generated_Source\PSoC4/I2C_1_I2C_MASTER.c ****             I2C_1_state = I2C_1_I2C_FSM_MSTR_WR_DATA;
 459:Generated_Source\PSoC4/I2C_1_I2C_MASTER.c ****         }
 460:Generated_Source\PSoC4/I2C_1_I2C_MASTER.c ****         else             /* Read direction */
 461:Generated_Source\PSoC4/I2C_1_I2C_MASTER.c ****         {
 462:Generated_Source\PSoC4/I2C_1_I2C_MASTER.c ****             I2C_1_state  = I2C_1_I2C_FSM_MSTR_RD_DATA;
 463:Generated_Source\PSoC4/I2C_1_I2C_MASTER.c ****                       slaveAddress |= I2C_1_I2C_READ_FLAG;
 464:Generated_Source\PSoC4/I2C_1_I2C_MASTER.c ****         }
 465:Generated_Source\PSoC4/I2C_1_I2C_MASTER.c **** 
 466:Generated_Source\PSoC4/I2C_1_I2C_MASTER.c ****         /* TX and RX FIFO have to be empty at here */
 467:Generated_Source\PSoC4/I2C_1_I2C_MASTER.c **** 
 468:Generated_Source\PSoC4/I2C_1_I2C_MASTER.c ****         /* A proper ReStart sequence is: set command to generate ReStart, then put an address byte 
 469:Generated_Source\PSoC4/I2C_1_I2C_MASTER.c ****         * Put address into the TX FIFO the 1st makes scb IP think that this data byte for current w
 470:Generated_Source\PSoC4/I2C_1_I2C_MASTER.c ****         */
 471:Generated_Source\PSoC4/I2C_1_I2C_MASTER.c ****         I2C_1_I2C_MASTER_GENERATE_RESTART;
 472:Generated_Source\PSoC4/I2C_1_I2C_MASTER.c ****         I2C_1_TX_FIFO_WR_REG = slaveAddress;
 473:Generated_Source\PSoC4/I2C_1_I2C_MASTER.c **** 
 474:Generated_Source\PSoC4/I2C_1_I2C_MASTER.c ****         /* Wait until address has been transferred. Note that for master reads at least one byte. *
 475:Generated_Source\PSoC4/I2C_1_I2C_MASTER.c ****         do
 476:Generated_Source\PSoC4/I2C_1_I2C_MASTER.c ****         {
 477:Generated_Source\PSoC4/I2C_1_I2C_MASTER.c ****             locStatus  = I2C_1_GetMasterInterruptSource() & I2C_1_INTR_MASTER_SEND_BYTE;
 478:Generated_Source\PSoC4/I2C_1_I2C_MASTER.c ****             locStatus |= I2C_1_I2CMasterWaitOneUnit(&timeout);
 479:Generated_Source\PSoC4/I2C_1_I2C_MASTER.c ****         }
 480:Generated_Source\PSoC4/I2C_1_I2C_MASTER.c ****         while (0u == locStatus);
 481:Generated_Source\PSoC4/I2C_1_I2C_MASTER.c **** 
 482:Generated_Source\PSoC4/I2C_1_I2C_MASTER.c **** 
 483:Generated_Source\PSoC4/I2C_1_I2C_MASTER.c ****         /* Handle completion event and convert to status */
 484:Generated_Source\PSoC4/I2C_1_I2C_MASTER.c ****         errStatus = I2C_1_I2CMasterHandleStatus(locStatus);
 485:Generated_Source\PSoC4/I2C_1_I2C_MASTER.c ****     }
 486:Generated_Source\PSoC4/I2C_1_I2C_MASTER.c **** 
 487:Generated_Source\PSoC4/I2C_1_I2C_MASTER.c ****     return(errStatus);
ARM GAS  C:\Users\austc\AppData\Local\Temp\cciIEsvk.s 			page 10


 488:Generated_Source\PSoC4/I2C_1_I2C_MASTER.c **** }
 489:Generated_Source\PSoC4/I2C_1_I2C_MASTER.c **** 
 490:Generated_Source\PSoC4/I2C_1_I2C_MASTER.c **** 
 491:Generated_Source\PSoC4/I2C_1_I2C_MASTER.c **** /*******************************************************************************
 492:Generated_Source\PSoC4/I2C_1_I2C_MASTER.c **** * Function Name: I2C_1_I2CMasterSendStop
 493:Generated_Source\PSoC4/I2C_1_I2C_MASTER.c **** ****************************************************************************//**
 494:Generated_Source\PSoC4/I2C_1_I2C_MASTER.c **** *
 495:Generated_Source\PSoC4/I2C_1_I2C_MASTER.c **** * Generates Stop condition on the bus.
 496:Generated_Source\PSoC4/I2C_1_I2C_MASTER.c **** * The NAK is generated before Stop in case of a read transaction.
 497:Generated_Source\PSoC4/I2C_1_I2C_MASTER.c **** * At least one byte has to be read if a Start or ReStart condition with read
 498:Generated_Source\PSoC4/I2C_1_I2C_MASTER.c **** * direction was generated before.
 499:Generated_Source\PSoC4/I2C_1_I2C_MASTER.c **** * This function is blocking and does not return until a Stop condition is
 500:Generated_Source\PSoC4/I2C_1_I2C_MASTER.c **** * generated or error occurred.
 501:Generated_Source\PSoC4/I2C_1_I2C_MASTER.c **** *
 502:Generated_Source\PSoC4/I2C_1_I2C_MASTER.c **** * \param timeoutMs
 503:Generated_Source\PSoC4/I2C_1_I2C_MASTER.c **** * Defines in milliseconds the time that this function can block for.
 504:Generated_Source\PSoC4/I2C_1_I2C_MASTER.c **** * If that time expires, the function returns. If a zero is passed,
 505:Generated_Source\PSoC4/I2C_1_I2C_MASTER.c **** * the function waits forever for the action to complete. If a timeout occurs,
 506:Generated_Source\PSoC4/I2C_1_I2C_MASTER.c **** * the SCB block is reset. Note The maximum value is (maximum uint32)/1000.
 507:Generated_Source\PSoC4/I2C_1_I2C_MASTER.c **** *
 508:Generated_Source\PSoC4/I2C_1_I2C_MASTER.c **** * \return
 509:Generated_Source\PSoC4/I2C_1_I2C_MASTER.c **** * Error status.
 510:Generated_Source\PSoC4/I2C_1_I2C_MASTER.c **** * See I2C_1_I2CMasterSendStart() function for constants.
 511:Generated_Source\PSoC4/I2C_1_I2C_MASTER.c **** *
 512:Generated_Source\PSoC4/I2C_1_I2C_MASTER.c **** * \sideeffect
 513:Generated_Source\PSoC4/I2C_1_I2C_MASTER.c **** * A valid Start or ReStart condition must be generated before calling
 514:Generated_Source\PSoC4/I2C_1_I2C_MASTER.c **** * this function. This function does nothing if Start or ReStart conditions
 515:Generated_Source\PSoC4/I2C_1_I2C_MASTER.c **** * failed before this function was called.
 516:Generated_Source\PSoC4/I2C_1_I2C_MASTER.c **** * For read transaction, at least one byte has to be read before ReStart
 517:Generated_Source\PSoC4/I2C_1_I2C_MASTER.c **** * generation.
 518:Generated_Source\PSoC4/I2C_1_I2C_MASTER.c **** *
 519:Generated_Source\PSoC4/I2C_1_I2C_MASTER.c **** * \globalvars
 520:Generated_Source\PSoC4/I2C_1_I2C_MASTER.c **** * I2C_1_state - used to store current state of software FSM.
 521:Generated_Source\PSoC4/I2C_1_I2C_MASTER.c **** *
 522:Generated_Source\PSoC4/I2C_1_I2C_MASTER.c **** *******************************************************************************/
 523:Generated_Source\PSoC4/I2C_1_I2C_MASTER.c **** uint32 I2C_1_I2CMasterSendStop(uint32 timeoutMs)
 524:Generated_Source\PSoC4/I2C_1_I2C_MASTER.c **** {
 525:Generated_Source\PSoC4/I2C_1_I2C_MASTER.c ****     uint32 errStatus = I2C_1_I2C_MSTR_NOT_READY;
 526:Generated_Source\PSoC4/I2C_1_I2C_MASTER.c **** 
 527:Generated_Source\PSoC4/I2C_1_I2C_MASTER.c ****     /* Check FSM state before generating Stop condition */
 528:Generated_Source\PSoC4/I2C_1_I2C_MASTER.c ****     if(I2C_1_CHECK_I2C_MASTER_ACTIVE)
 529:Generated_Source\PSoC4/I2C_1_I2C_MASTER.c ****     {
 530:Generated_Source\PSoC4/I2C_1_I2C_MASTER.c ****         uint32 locStatus;
 531:Generated_Source\PSoC4/I2C_1_I2C_MASTER.c ****         uint32 timeout = I2C_1_I2C_CONVERT_TIMEOUT_TO_US(timeoutMs);
 532:Generated_Source\PSoC4/I2C_1_I2C_MASTER.c **** 
 533:Generated_Source\PSoC4/I2C_1_I2C_MASTER.c ****         /* Write direction: generates Stop; Read  direction: generates NACK and Stop; */
 534:Generated_Source\PSoC4/I2C_1_I2C_MASTER.c ****         I2C_1_I2C_MASTER_GENERATE_STOP;
 535:Generated_Source\PSoC4/I2C_1_I2C_MASTER.c **** 
 536:Generated_Source\PSoC4/I2C_1_I2C_MASTER.c ****         /* Wait for a completion event from the master */
 537:Generated_Source\PSoC4/I2C_1_I2C_MASTER.c ****         do
 538:Generated_Source\PSoC4/I2C_1_I2C_MASTER.c ****         {
 539:Generated_Source\PSoC4/I2C_1_I2C_MASTER.c ****             locStatus  = I2C_1_GetMasterInterruptSource() & I2C_1_INTR_MASTER_SEND_STOP;
 540:Generated_Source\PSoC4/I2C_1_I2C_MASTER.c ****             locStatus |= I2C_1_I2CMasterWaitOneUnit(&timeout);
 541:Generated_Source\PSoC4/I2C_1_I2C_MASTER.c ****         }
 542:Generated_Source\PSoC4/I2C_1_I2C_MASTER.c ****         while (0u == locStatus);
 543:Generated_Source\PSoC4/I2C_1_I2C_MASTER.c **** 
 544:Generated_Source\PSoC4/I2C_1_I2C_MASTER.c ****         /* Handle completion event and convert to status */
ARM GAS  C:\Users\austc\AppData\Local\Temp\cciIEsvk.s 			page 11


 545:Generated_Source\PSoC4/I2C_1_I2C_MASTER.c ****         errStatus = I2C_1_I2CMasterHandleStatus(locStatus);
 546:Generated_Source\PSoC4/I2C_1_I2C_MASTER.c ****     }
 547:Generated_Source\PSoC4/I2C_1_I2C_MASTER.c **** 
 548:Generated_Source\PSoC4/I2C_1_I2C_MASTER.c ****     return(errStatus);
 549:Generated_Source\PSoC4/I2C_1_I2C_MASTER.c **** }
 550:Generated_Source\PSoC4/I2C_1_I2C_MASTER.c **** 
 551:Generated_Source\PSoC4/I2C_1_I2C_MASTER.c **** 
 552:Generated_Source\PSoC4/I2C_1_I2C_MASTER.c **** /*******************************************************************************
 553:Generated_Source\PSoC4/I2C_1_I2C_MASTER.c **** * Function Name: I2C_1_I2CMasterWriteByte
 554:Generated_Source\PSoC4/I2C_1_I2C_MASTER.c **** ****************************************************************************//**
 555:Generated_Source\PSoC4/I2C_1_I2C_MASTER.c **** *
 556:Generated_Source\PSoC4/I2C_1_I2C_MASTER.c **** * Sends one byte to a slave.
 557:Generated_Source\PSoC4/I2C_1_I2C_MASTER.c **** * This function is blocking and does not return until byte is transmitted
 558:Generated_Source\PSoC4/I2C_1_I2C_MASTER.c **** * or error occurred.
 559:Generated_Source\PSoC4/I2C_1_I2C_MASTER.c **** *
 560:Generated_Source\PSoC4/I2C_1_I2C_MASTER.c **** * \param wrByte
 561:Generated_Source\PSoC4/I2C_1_I2C_MASTER.c **** * The data byte to send to the slave.
 562:Generated_Source\PSoC4/I2C_1_I2C_MASTER.c **** *
 563:Generated_Source\PSoC4/I2C_1_I2C_MASTER.c **** * \param timeoutMs
 564:Generated_Source\PSoC4/I2C_1_I2C_MASTER.c **** * Defines in milliseconds the time that this function can block for.
 565:Generated_Source\PSoC4/I2C_1_I2C_MASTER.c **** * If that time expires, the function returns. If a zero is passed,
 566:Generated_Source\PSoC4/I2C_1_I2C_MASTER.c **** * the function waits forever for the action to complete. If a timeout occurs,
 567:Generated_Source\PSoC4/I2C_1_I2C_MASTER.c **** * the SCB block is reset. Note The maximum value is (maximum uint32)/1000.
 568:Generated_Source\PSoC4/I2C_1_I2C_MASTER.c **** *
 569:Generated_Source\PSoC4/I2C_1_I2C_MASTER.c **** * \return
 570:Generated_Source\PSoC4/I2C_1_I2C_MASTER.c **** * Error status.
 571:Generated_Source\PSoC4/I2C_1_I2C_MASTER.c **** * See I2C_1_I2CMasterSendStart() function for constants.
 572:Generated_Source\PSoC4/I2C_1_I2C_MASTER.c **** *
 573:Generated_Source\PSoC4/I2C_1_I2C_MASTER.c **** * \sideeffect
 574:Generated_Source\PSoC4/I2C_1_I2C_MASTER.c **** * A valid Start or ReStart condition must be generated before calling
 575:Generated_Source\PSoC4/I2C_1_I2C_MASTER.c **** * this function. This function does nothing if Start or ReStart condition
 576:Generated_Source\PSoC4/I2C_1_I2C_MASTER.c **** * failed before this function was called.
 577:Generated_Source\PSoC4/I2C_1_I2C_MASTER.c **** *
 578:Generated_Source\PSoC4/I2C_1_I2C_MASTER.c **** * \globalvars
 579:Generated_Source\PSoC4/I2C_1_I2C_MASTER.c **** * I2C_1_state - used to store current state of software FSM.
 580:Generated_Source\PSoC4/I2C_1_I2C_MASTER.c **** *
 581:Generated_Source\PSoC4/I2C_1_I2C_MASTER.c **** *******************************************************************************/
 582:Generated_Source\PSoC4/I2C_1_I2C_MASTER.c **** uint32 I2C_1_I2CMasterWriteByte(uint32 wrByte, uint32 timeoutMs)
 583:Generated_Source\PSoC4/I2C_1_I2C_MASTER.c **** {
 584:Generated_Source\PSoC4/I2C_1_I2C_MASTER.c ****     uint32 errStatus = I2C_1_I2C_MSTR_NOT_READY;
 585:Generated_Source\PSoC4/I2C_1_I2C_MASTER.c **** 
 586:Generated_Source\PSoC4/I2C_1_I2C_MASTER.c ****     /* Check FSM state before write byte */
 587:Generated_Source\PSoC4/I2C_1_I2C_MASTER.c ****     if(I2C_1_CHECK_I2C_MASTER_ACTIVE)
 588:Generated_Source\PSoC4/I2C_1_I2C_MASTER.c ****     {
 589:Generated_Source\PSoC4/I2C_1_I2C_MASTER.c ****         uint32 locStatus;
 590:Generated_Source\PSoC4/I2C_1_I2C_MASTER.c ****         uint32 timeout = I2C_1_I2C_CONVERT_TIMEOUT_TO_US(timeoutMs);
 591:Generated_Source\PSoC4/I2C_1_I2C_MASTER.c **** 
 592:Generated_Source\PSoC4/I2C_1_I2C_MASTER.c ****         I2C_1_TX_FIFO_WR_REG = wrByte;
 593:Generated_Source\PSoC4/I2C_1_I2C_MASTER.c **** 
 594:Generated_Source\PSoC4/I2C_1_I2C_MASTER.c ****         /* Wait for a completion event from the master */
 595:Generated_Source\PSoC4/I2C_1_I2C_MASTER.c ****         do
 596:Generated_Source\PSoC4/I2C_1_I2C_MASTER.c ****         {
 597:Generated_Source\PSoC4/I2C_1_I2C_MASTER.c ****             locStatus  = I2C_1_GetMasterInterruptSource() & I2C_1_INTR_MASTER_SEND_BYTE;
 598:Generated_Source\PSoC4/I2C_1_I2C_MASTER.c ****             locStatus |= I2C_1_I2CMasterWaitOneUnit(&timeout);
 599:Generated_Source\PSoC4/I2C_1_I2C_MASTER.c ****         }
 600:Generated_Source\PSoC4/I2C_1_I2C_MASTER.c ****         while (0u == locStatus);
 601:Generated_Source\PSoC4/I2C_1_I2C_MASTER.c **** 
ARM GAS  C:\Users\austc\AppData\Local\Temp\cciIEsvk.s 			page 12


 602:Generated_Source\PSoC4/I2C_1_I2C_MASTER.c ****         /* Handle completion event and convert to status */
 603:Generated_Source\PSoC4/I2C_1_I2C_MASTER.c ****         errStatus = I2C_1_I2CMasterHandleStatus(locStatus);
 604:Generated_Source\PSoC4/I2C_1_I2C_MASTER.c ****     }
 605:Generated_Source\PSoC4/I2C_1_I2C_MASTER.c **** 
 606:Generated_Source\PSoC4/I2C_1_I2C_MASTER.c ****     return(errStatus);
 607:Generated_Source\PSoC4/I2C_1_I2C_MASTER.c **** }
 608:Generated_Source\PSoC4/I2C_1_I2C_MASTER.c **** 
 609:Generated_Source\PSoC4/I2C_1_I2C_MASTER.c **** 
 610:Generated_Source\PSoC4/I2C_1_I2C_MASTER.c **** 
 611:Generated_Source\PSoC4/I2C_1_I2C_MASTER.c **** /*******************************************************************************
 612:Generated_Source\PSoC4/I2C_1_I2C_MASTER.c **** * Function Name: I2C_1_I2CMasterReadByte
 613:Generated_Source\PSoC4/I2C_1_I2C_MASTER.c **** ****************************************************************************//**
 614:Generated_Source\PSoC4/I2C_1_I2C_MASTER.c **** *
 615:Generated_Source\PSoC4/I2C_1_I2C_MASTER.c **** * Reads one byte from a slave and generates ACK or prepares to generate NAK.
 616:Generated_Source\PSoC4/I2C_1_I2C_MASTER.c **** * The NAK will be generated before Stop or ReStart condition by
 617:Generated_Source\PSoC4/I2C_1_I2C_MASTER.c **** * I2C_1_I2CMasterSendStop() or
 618:Generated_Source\PSoC4/I2C_1_I2C_MASTER.c **** * I2C_1_I2CMasterSendRestart() function appropriately.
 619:Generated_Source\PSoC4/I2C_1_I2C_MASTER.c **** * This function is blocking. It does not return until a byte is received or
 620:Generated_Source\PSoC4/I2C_1_I2C_MASTER.c **** * an error occurs.
 621:Generated_Source\PSoC4/I2C_1_I2C_MASTER.c **** *
 622:Generated_Source\PSoC4/I2C_1_I2C_MASTER.c **** * \param ackNack
 623:Generated_Source\PSoC4/I2C_1_I2C_MASTER.c **** * Response to received byte.
 624:Generated_Source\PSoC4/I2C_1_I2C_MASTER.c **** *  - I2C_1_I2C_ACK_DATA - Generates ACK.
 625:Generated_Source\PSoC4/I2C_1_I2C_MASTER.c **** *     The master notifies slave that transfer continues.
 626:Generated_Source\PSoC4/I2C_1_I2C_MASTER.c **** *  - I2C_1_I2C_NAK_DATA - Prepares to generate NAK.
 627:Generated_Source\PSoC4/I2C_1_I2C_MASTER.c **** *     The master will notify slave that transfer is completed.
 628:Generated_Source\PSoC4/I2C_1_I2C_MASTER.c **** *
 629:Generated_Source\PSoC4/I2C_1_I2C_MASTER.c **** * \param rdByte
 630:Generated_Source\PSoC4/I2C_1_I2C_MASTER.c **** * The pointer to the location to store the data byte that was read from
 631:Generated_Source\PSoC4/I2C_1_I2C_MASTER.c **** * the slave.
 632:Generated_Source\PSoC4/I2C_1_I2C_MASTER.c **** * Note that the byte should be ignored if error status is returned.
 633:Generated_Source\PSoC4/I2C_1_I2C_MASTER.c **** *
 634:Generated_Source\PSoC4/I2C_1_I2C_MASTER.c **** * \param timeoutMs
 635:Generated_Source\PSoC4/I2C_1_I2C_MASTER.c **** * Defines in milliseconds the time that this function can block for.
 636:Generated_Source\PSoC4/I2C_1_I2C_MASTER.c **** * If that time expires, the function returns. If a zero is passed,
 637:Generated_Source\PSoC4/I2C_1_I2C_MASTER.c **** * the function waits forever for the action to complete. If a timeout occurs,
 638:Generated_Source\PSoC4/I2C_1_I2C_MASTER.c **** * the SCB block is reset. Note The maximum value is (maximum uint32)/1000.
 639:Generated_Source\PSoC4/I2C_1_I2C_MASTER.c **** *
 640:Generated_Source\PSoC4/I2C_1_I2C_MASTER.c **** * \return
 641:Generated_Source\PSoC4/I2C_1_I2C_MASTER.c **** * Error status.
 642:Generated_Source\PSoC4/I2C_1_I2C_MASTER.c **** * See I2C_1_I2CMasterSendStart() function for constants.
 643:Generated_Source\PSoC4/I2C_1_I2C_MASTER.c **** *
 644:Generated_Source\PSoC4/I2C_1_I2C_MASTER.c **** * \sideeffect
 645:Generated_Source\PSoC4/I2C_1_I2C_MASTER.c **** * A valid Start or ReStart condition must be generated before calling
 646:Generated_Source\PSoC4/I2C_1_I2C_MASTER.c **** * this function. This function does nothing if Start or ReStart condition
 647:Generated_Source\PSoC4/I2C_1_I2C_MASTER.c **** * failed before this function was called.
 648:Generated_Source\PSoC4/I2C_1_I2C_MASTER.c **** *
 649:Generated_Source\PSoC4/I2C_1_I2C_MASTER.c **** * \globalvars
 650:Generated_Source\PSoC4/I2C_1_I2C_MASTER.c **** * I2C_1_state - used to store current state of software FSM.
 651:Generated_Source\PSoC4/I2C_1_I2C_MASTER.c **** *
 652:Generated_Source\PSoC4/I2C_1_I2C_MASTER.c **** *******************************************************************************/
 653:Generated_Source\PSoC4/I2C_1_I2C_MASTER.c **** uint32 I2C_1_I2CMasterReadByte(uint32 ackNack, uint8 *rdByte, uint32 timeoutMs)
 654:Generated_Source\PSoC4/I2C_1_I2C_MASTER.c **** {
 655:Generated_Source\PSoC4/I2C_1_I2C_MASTER.c ****     uint32 errStatus = I2C_1_I2C_MSTR_NOT_READY;
 656:Generated_Source\PSoC4/I2C_1_I2C_MASTER.c **** 
 657:Generated_Source\PSoC4/I2C_1_I2C_MASTER.c ****     /* Check FSM state before read byte */
 658:Generated_Source\PSoC4/I2C_1_I2C_MASTER.c ****     if(I2C_1_CHECK_I2C_MASTER_ACTIVE)
ARM GAS  C:\Users\austc\AppData\Local\Temp\cciIEsvk.s 			page 13


 659:Generated_Source\PSoC4/I2C_1_I2C_MASTER.c ****     {
 660:Generated_Source\PSoC4/I2C_1_I2C_MASTER.c ****         uint32 locStatus;
 661:Generated_Source\PSoC4/I2C_1_I2C_MASTER.c ****         uint32 rxNotEmpty;
 662:Generated_Source\PSoC4/I2C_1_I2C_MASTER.c ****         uint32 timeout = I2C_1_I2C_CONVERT_TIMEOUT_TO_US(timeoutMs);
 663:Generated_Source\PSoC4/I2C_1_I2C_MASTER.c **** 
 664:Generated_Source\PSoC4/I2C_1_I2C_MASTER.c ****         /* Wait for a completion event from the master */
 665:Generated_Source\PSoC4/I2C_1_I2C_MASTER.c ****         do
 666:Generated_Source\PSoC4/I2C_1_I2C_MASTER.c ****         {
 667:Generated_Source\PSoC4/I2C_1_I2C_MASTER.c ****             locStatus  = I2C_1_GetMasterInterruptSource() & I2C_1_INTR_MASTER_RECEIVE_BYTE;
 668:Generated_Source\PSoC4/I2C_1_I2C_MASTER.c ****             rxNotEmpty = I2C_1_GetRxInterruptSource() & I2C_1_INTR_RX_NOT_EMPTY;
 669:Generated_Source\PSoC4/I2C_1_I2C_MASTER.c ****             locStatus |= I2C_1_I2CMasterWaitOneUnit(&timeout);
 670:Generated_Source\PSoC4/I2C_1_I2C_MASTER.c ****         }
 671:Generated_Source\PSoC4/I2C_1_I2C_MASTER.c ****         while ((0u == locStatus) && (0u == rxNotEmpty));
 672:Generated_Source\PSoC4/I2C_1_I2C_MASTER.c **** 
 673:Generated_Source\PSoC4/I2C_1_I2C_MASTER.c ****         /* Get byte from RX FIFO */
 674:Generated_Source\PSoC4/I2C_1_I2C_MASTER.c ****         if (0u != rxNotEmpty)
 675:Generated_Source\PSoC4/I2C_1_I2C_MASTER.c ****         {
 676:Generated_Source\PSoC4/I2C_1_I2C_MASTER.c ****             *rdByte = (uint8)I2C_1_RX_FIFO_RD_REG;
 677:Generated_Source\PSoC4/I2C_1_I2C_MASTER.c ****             I2C_1_ClearRxInterruptSource(I2C_1_INTR_RX_ALL);
 678:Generated_Source\PSoC4/I2C_1_I2C_MASTER.c ****         }
 679:Generated_Source\PSoC4/I2C_1_I2C_MASTER.c **** 
 680:Generated_Source\PSoC4/I2C_1_I2C_MASTER.c ****         /* Handle completion event and convert to status */
 681:Generated_Source\PSoC4/I2C_1_I2C_MASTER.c ****         errStatus = I2C_1_I2CMasterHandleStatus(locStatus);
 682:Generated_Source\PSoC4/I2C_1_I2C_MASTER.c **** 
 683:Generated_Source\PSoC4/I2C_1_I2C_MASTER.c ****         if (I2C_1_I2C_MSTR_NO_ERROR == errStatus)
 684:Generated_Source\PSoC4/I2C_1_I2C_MASTER.c ****         {
 685:Generated_Source\PSoC4/I2C_1_I2C_MASTER.c ****             if(I2C_1_I2C_ACK_DATA == ackNack)
 686:Generated_Source\PSoC4/I2C_1_I2C_MASTER.c ****             {
 687:Generated_Source\PSoC4/I2C_1_I2C_MASTER.c ****                 I2C_1_I2C_MASTER_GENERATE_ACK;
 688:Generated_Source\PSoC4/I2C_1_I2C_MASTER.c ****             }
 689:Generated_Source\PSoC4/I2C_1_I2C_MASTER.c ****             else
 690:Generated_Source\PSoC4/I2C_1_I2C_MASTER.c ****             {
 691:Generated_Source\PSoC4/I2C_1_I2C_MASTER.c ****                 /* NACK is generated by Stop or ReStart command */
 692:Generated_Source\PSoC4/I2C_1_I2C_MASTER.c ****             }
 693:Generated_Source\PSoC4/I2C_1_I2C_MASTER.c ****         }
 694:Generated_Source\PSoC4/I2C_1_I2C_MASTER.c ****     }
 695:Generated_Source\PSoC4/I2C_1_I2C_MASTER.c **** 
 696:Generated_Source\PSoC4/I2C_1_I2C_MASTER.c ****     return(errStatus);
 697:Generated_Source\PSoC4/I2C_1_I2C_MASTER.c **** }
 698:Generated_Source\PSoC4/I2C_1_I2C_MASTER.c **** 
 699:Generated_Source\PSoC4/I2C_1_I2C_MASTER.c **** 
 700:Generated_Source\PSoC4/I2C_1_I2C_MASTER.c **** /*******************************************************************************
 701:Generated_Source\PSoC4/I2C_1_I2C_MASTER.c **** * Function Name: I2C_1_I2CMasterGetReadBufSize
 702:Generated_Source\PSoC4/I2C_1_I2C_MASTER.c **** ****************************************************************************//**
 703:Generated_Source\PSoC4/I2C_1_I2C_MASTER.c **** *
 704:Generated_Source\PSoC4/I2C_1_I2C_MASTER.c **** *  Returns the number of bytes that has been transferred with an
 705:Generated_Source\PSoC4/I2C_1_I2C_MASTER.c **** *  I2C_1_I2CMasterReadBuf() function.
 706:Generated_Source\PSoC4/I2C_1_I2C_MASTER.c **** *
 707:Generated_Source\PSoC4/I2C_1_I2C_MASTER.c **** * \return
 708:Generated_Source\PSoC4/I2C_1_I2C_MASTER.c **** *  Byte count of transfer. If the transfer is not yet complete, it returns
 709:Generated_Source\PSoC4/I2C_1_I2C_MASTER.c **** *  the byte count transferred so far.
 710:Generated_Source\PSoC4/I2C_1_I2C_MASTER.c **** *
 711:Generated_Source\PSoC4/I2C_1_I2C_MASTER.c **** * \sideeffect
 712:Generated_Source\PSoC4/I2C_1_I2C_MASTER.c **** *  This function returns not valid value if
 713:Generated_Source\PSoC4/I2C_1_I2C_MASTER.c **** *  I2C_1_I2C_MSTAT_ERR_ARB_LOST or
 714:Generated_Source\PSoC4/I2C_1_I2C_MASTER.c **** *  I2C_1_I2C_MSTAT_ERR_BUS_ERROR occurred while read transfer.
 715:Generated_Source\PSoC4/I2C_1_I2C_MASTER.c **** *
ARM GAS  C:\Users\austc\AppData\Local\Temp\cciIEsvk.s 			page 14


 716:Generated_Source\PSoC4/I2C_1_I2C_MASTER.c **** * \globalvars
 717:Generated_Source\PSoC4/I2C_1_I2C_MASTER.c **** *  I2C_1_mstrRdBufIndex - used to current index within master read
 718:Generated_Source\PSoC4/I2C_1_I2C_MASTER.c **** *  buffer.
 719:Generated_Source\PSoC4/I2C_1_I2C_MASTER.c **** *
 720:Generated_Source\PSoC4/I2C_1_I2C_MASTER.c **** *******************************************************************************/
 721:Generated_Source\PSoC4/I2C_1_I2C_MASTER.c **** uint32 I2C_1_I2CMasterGetReadBufSize(void)
 722:Generated_Source\PSoC4/I2C_1_I2C_MASTER.c **** {
 723:Generated_Source\PSoC4/I2C_1_I2C_MASTER.c ****     return(I2C_1_mstrRdBufIndex);
 724:Generated_Source\PSoC4/I2C_1_I2C_MASTER.c **** }
 725:Generated_Source\PSoC4/I2C_1_I2C_MASTER.c **** 
 726:Generated_Source\PSoC4/I2C_1_I2C_MASTER.c **** 
 727:Generated_Source\PSoC4/I2C_1_I2C_MASTER.c **** /*******************************************************************************
 728:Generated_Source\PSoC4/I2C_1_I2C_MASTER.c **** * Function Name: I2C_1_I2CMasterGetWriteBufSize
 729:Generated_Source\PSoC4/I2C_1_I2C_MASTER.c **** ****************************************************************************//**
 730:Generated_Source\PSoC4/I2C_1_I2C_MASTER.c **** *
 731:Generated_Source\PSoC4/I2C_1_I2C_MASTER.c **** *  Returns the number of bytes that have been transferred with an
 732:Generated_Source\PSoC4/I2C_1_I2C_MASTER.c **** *  SCB_I2CMasterWriteBuf() function.
 733:Generated_Source\PSoC4/I2C_1_I2C_MASTER.c **** *
 734:Generated_Source\PSoC4/I2C_1_I2C_MASTER.c **** * \return
 735:Generated_Source\PSoC4/I2C_1_I2C_MASTER.c **** *   Byte count of transfer. If the transfer is not yet complete, it returns
 736:Generated_Source\PSoC4/I2C_1_I2C_MASTER.c **** *   zero unit transfer completion.
 737:Generated_Source\PSoC4/I2C_1_I2C_MASTER.c **** *
 738:Generated_Source\PSoC4/I2C_1_I2C_MASTER.c **** * \sideeffect
 739:Generated_Source\PSoC4/I2C_1_I2C_MASTER.c **** *   This function returns not valid value if
 740:Generated_Source\PSoC4/I2C_1_I2C_MASTER.c **** *   I2C_1_I2C_MSTAT_ERR_ARB_LOST or
 741:Generated_Source\PSoC4/I2C_1_I2C_MASTER.c **** *   I2C_1_I2C_MSTAT_ERR_BUS_ERROR occurred while read transfer.
 742:Generated_Source\PSoC4/I2C_1_I2C_MASTER.c **** *
 743:Generated_Source\PSoC4/I2C_1_I2C_MASTER.c **** * \globalvars
 744:Generated_Source\PSoC4/I2C_1_I2C_MASTER.c **** *  I2C_1_mstrWrBufIndex - used to current index within master write
 745:Generated_Source\PSoC4/I2C_1_I2C_MASTER.c **** *  buffer.
 746:Generated_Source\PSoC4/I2C_1_I2C_MASTER.c **** *
 747:Generated_Source\PSoC4/I2C_1_I2C_MASTER.c **** *******************************************************************************/
 748:Generated_Source\PSoC4/I2C_1_I2C_MASTER.c **** uint32 I2C_1_I2CMasterGetWriteBufSize(void)
 749:Generated_Source\PSoC4/I2C_1_I2C_MASTER.c **** {
 750:Generated_Source\PSoC4/I2C_1_I2C_MASTER.c ****     return(I2C_1_mstrWrBufIndex);
 751:Generated_Source\PSoC4/I2C_1_I2C_MASTER.c **** }
 752:Generated_Source\PSoC4/I2C_1_I2C_MASTER.c **** 
 753:Generated_Source\PSoC4/I2C_1_I2C_MASTER.c **** 
 754:Generated_Source\PSoC4/I2C_1_I2C_MASTER.c **** /*******************************************************************************
 755:Generated_Source\PSoC4/I2C_1_I2C_MASTER.c **** * Function Name: I2C_1_I2CMasterClearReadBuf
 756:Generated_Source\PSoC4/I2C_1_I2C_MASTER.c **** ****************************************************************************//**
 757:Generated_Source\PSoC4/I2C_1_I2C_MASTER.c **** *
 758:Generated_Source\PSoC4/I2C_1_I2C_MASTER.c **** *  Resets the read buffer pointer back to the first byte in the buffer.
 759:Generated_Source\PSoC4/I2C_1_I2C_MASTER.c **** *
 760:Generated_Source\PSoC4/I2C_1_I2C_MASTER.c **** * \globalvars
 761:Generated_Source\PSoC4/I2C_1_I2C_MASTER.c **** *  I2C_1_mstrRdBufIndex - used to current index within master read
 762:Generated_Source\PSoC4/I2C_1_I2C_MASTER.c **** *   buffer.
 763:Generated_Source\PSoC4/I2C_1_I2C_MASTER.c **** *  I2C_1_mstrStatus - used to store current status of I2C Master.
 764:Generated_Source\PSoC4/I2C_1_I2C_MASTER.c **** *
 765:Generated_Source\PSoC4/I2C_1_I2C_MASTER.c **** *******************************************************************************/
 766:Generated_Source\PSoC4/I2C_1_I2C_MASTER.c **** void I2C_1_I2CMasterClearReadBuf(void)
 767:Generated_Source\PSoC4/I2C_1_I2C_MASTER.c **** {
 768:Generated_Source\PSoC4/I2C_1_I2C_MASTER.c ****     I2C_1_DisableInt();  /* Lock from interruption */
 769:Generated_Source\PSoC4/I2C_1_I2C_MASTER.c **** 
 770:Generated_Source\PSoC4/I2C_1_I2C_MASTER.c ****     I2C_1_mstrRdBufIndex = 0u;
 771:Generated_Source\PSoC4/I2C_1_I2C_MASTER.c ****     I2C_1_mstrStatus    &= (uint16) ~I2C_1_I2C_MSTAT_RD_CMPLT;
 772:Generated_Source\PSoC4/I2C_1_I2C_MASTER.c **** 
ARM GAS  C:\Users\austc\AppData\Local\Temp\cciIEsvk.s 			page 15


 773:Generated_Source\PSoC4/I2C_1_I2C_MASTER.c ****     I2C_1_EnableInt();   /* Release lock */
 774:Generated_Source\PSoC4/I2C_1_I2C_MASTER.c **** }
 775:Generated_Source\PSoC4/I2C_1_I2C_MASTER.c **** 
 776:Generated_Source\PSoC4/I2C_1_I2C_MASTER.c **** 
 777:Generated_Source\PSoC4/I2C_1_I2C_MASTER.c **** /*******************************************************************************
 778:Generated_Source\PSoC4/I2C_1_I2C_MASTER.c **** * Function Name: I2C_1_I2CMasterClearWriteBuf
 779:Generated_Source\PSoC4/I2C_1_I2C_MASTER.c **** ****************************************************************************//**
 780:Generated_Source\PSoC4/I2C_1_I2C_MASTER.c **** *
 781:Generated_Source\PSoC4/I2C_1_I2C_MASTER.c **** *  Resets the write buffer pointer back to the first byte in the buffer.
 782:Generated_Source\PSoC4/I2C_1_I2C_MASTER.c **** *
 783:Generated_Source\PSoC4/I2C_1_I2C_MASTER.c **** * \globalvars
 784:Generated_Source\PSoC4/I2C_1_I2C_MASTER.c **** *  I2C_1_mstrRdBufIndex - used to current index within master read
 785:Generated_Source\PSoC4/I2C_1_I2C_MASTER.c **** *   buffer.
 786:Generated_Source\PSoC4/I2C_1_I2C_MASTER.c **** *  I2C_1_mstrStatus - used to store current status of I2C Master.
 787:Generated_Source\PSoC4/I2C_1_I2C_MASTER.c **** *
 788:Generated_Source\PSoC4/I2C_1_I2C_MASTER.c **** *******************************************************************************/
 789:Generated_Source\PSoC4/I2C_1_I2C_MASTER.c **** void I2C_1_I2CMasterClearWriteBuf(void)
 790:Generated_Source\PSoC4/I2C_1_I2C_MASTER.c **** {
 791:Generated_Source\PSoC4/I2C_1_I2C_MASTER.c ****     I2C_1_DisableInt();  /* Lock from interruption */
 792:Generated_Source\PSoC4/I2C_1_I2C_MASTER.c **** 
 793:Generated_Source\PSoC4/I2C_1_I2C_MASTER.c ****     I2C_1_mstrWrBufIndex = 0u;
 794:Generated_Source\PSoC4/I2C_1_I2C_MASTER.c ****     I2C_1_mstrStatus    &= (uint16) ~I2C_1_I2C_MSTAT_WR_CMPLT;
 795:Generated_Source\PSoC4/I2C_1_I2C_MASTER.c **** 
 796:Generated_Source\PSoC4/I2C_1_I2C_MASTER.c ****     I2C_1_EnableInt();   /* Release lock */
 797:Generated_Source\PSoC4/I2C_1_I2C_MASTER.c **** }
 798:Generated_Source\PSoC4/I2C_1_I2C_MASTER.c **** 
 799:Generated_Source\PSoC4/I2C_1_I2C_MASTER.c **** 
 800:Generated_Source\PSoC4/I2C_1_I2C_MASTER.c **** /*******************************************************************************
 801:Generated_Source\PSoC4/I2C_1_I2C_MASTER.c **** * Function Name: I2C_1_I2CMasterStatus
 802:Generated_Source\PSoC4/I2C_1_I2C_MASTER.c **** ****************************************************************************//**
 803:Generated_Source\PSoC4/I2C_1_I2C_MASTER.c **** *
 804:Generated_Source\PSoC4/I2C_1_I2C_MASTER.c **** *  Returns the master's communication status.
 805:Generated_Source\PSoC4/I2C_1_I2C_MASTER.c **** *
 806:Generated_Source\PSoC4/I2C_1_I2C_MASTER.c **** * \return
 807:Generated_Source\PSoC4/I2C_1_I2C_MASTER.c **** *  Current status of I2C master. This status incorporates status constants.
 808:Generated_Source\PSoC4/I2C_1_I2C_MASTER.c **** *  Each constant is a bit field value. The value returned may have multiple
 809:Generated_Source\PSoC4/I2C_1_I2C_MASTER.c **** *  bits set to indicate the status of the read or write transfer.
 810:Generated_Source\PSoC4/I2C_1_I2C_MASTER.c **** *  - I2C_1_I2C_MSTAT_RD_CMPLT - Read transfer complete.
 811:Generated_Source\PSoC4/I2C_1_I2C_MASTER.c **** *    The error condition status bits must be checked to ensure that
 812:Generated_Source\PSoC4/I2C_1_I2C_MASTER.c **** *    read transfer was completed successfully.
 813:Generated_Source\PSoC4/I2C_1_I2C_MASTER.c **** *  - I2C_1_I2C_MSTAT_WR_CMPLT - Write transfer complete.
 814:Generated_Source\PSoC4/I2C_1_I2C_MASTER.c **** *    The error condition status bits must be checked to ensure that write
 815:Generated_Source\PSoC4/I2C_1_I2C_MASTER.c **** *    transfer was completed successfully.
 816:Generated_Source\PSoC4/I2C_1_I2C_MASTER.c **** *  - I2C_1_I2C_MSTAT_XFER_INP - Transfer in progress.
 817:Generated_Source\PSoC4/I2C_1_I2C_MASTER.c **** *  - I2C_1_I2C_MSTAT_XFER_HALT - Transfer has been halted.
 818:Generated_Source\PSoC4/I2C_1_I2C_MASTER.c **** *    The I2C bus is waiting for ReStart or Stop condition generation.
 819:Generated_Source\PSoC4/I2C_1_I2C_MASTER.c **** *  - I2C_1_I2C_MSTAT_ERR_SHORT_XFER - Error condition: Write
 820:Generated_Source\PSoC4/I2C_1_I2C_MASTER.c **** *    transfer completed before all bytes were transferred. The slave NAKed
 821:Generated_Source\PSoC4/I2C_1_I2C_MASTER.c **** *    the byte which was expected to be ACKed.
 822:Generated_Source\PSoC4/I2C_1_I2C_MASTER.c **** *  - I2C_1_I2C_MSTAT_ERR_ADDR_NAK - Error condition: Slave did
 823:Generated_Source\PSoC4/I2C_1_I2C_MASTER.c **** *    not acknowledge address.
 824:Generated_Source\PSoC4/I2C_1_I2C_MASTER.c **** *  - I2C_1_I2C_MSTAT_ERR_ARB_LOST - Error condition: Master lost
 825:Generated_Source\PSoC4/I2C_1_I2C_MASTER.c **** *    arbitration during communications with slave.
 826:Generated_Source\PSoC4/I2C_1_I2C_MASTER.c **** *  - I2C_1_I2C_MSTAT_ERR_BUS_ERROR - Error condition: bus error
 827:Generated_Source\PSoC4/I2C_1_I2C_MASTER.c **** *    occurred during master transfer due to misplaced Start or Stop
 828:Generated_Source\PSoC4/I2C_1_I2C_MASTER.c **** *    condition on the bus.
 829:Generated_Source\PSoC4/I2C_1_I2C_MASTER.c **** *  - I2C_1_I2C_MSTAT_ERR_ABORT_XFER - Error condition: Slave was
ARM GAS  C:\Users\austc\AppData\Local\Temp\cciIEsvk.s 			page 16


 830:Generated_Source\PSoC4/I2C_1_I2C_MASTER.c **** *    addressed by another master while master performed the start condition
 831:Generated_Source\PSoC4/I2C_1_I2C_MASTER.c **** *    generation. As a result, master has automatically switched to slave
 832:Generated_Source\PSoC4/I2C_1_I2C_MASTER.c **** *    mode and is responding. The master transaction has not taken place
 833:Generated_Source\PSoC4/I2C_1_I2C_MASTER.c **** *    This error condition only applicable for Multi-Master-Slave mode.
 834:Generated_Source\PSoC4/I2C_1_I2C_MASTER.c **** *  - I2C_1_I2C_MSTAT_ERR_XFER - Error condition: This is the
 835:Generated_Source\PSoC4/I2C_1_I2C_MASTER.c **** *    ORed value of all error conditions provided above.
 836:Generated_Source\PSoC4/I2C_1_I2C_MASTER.c **** *
 837:Generated_Source\PSoC4/I2C_1_I2C_MASTER.c **** * \globalvars
 838:Generated_Source\PSoC4/I2C_1_I2C_MASTER.c **** *  I2C_1_mstrStatus - used to store current status of I2C Master.
 839:Generated_Source\PSoC4/I2C_1_I2C_MASTER.c **** *
 840:Generated_Source\PSoC4/I2C_1_I2C_MASTER.c **** *******************************************************************************/
 841:Generated_Source\PSoC4/I2C_1_I2C_MASTER.c **** uint32 I2C_1_I2CMasterStatus(void)
 842:Generated_Source\PSoC4/I2C_1_I2C_MASTER.c **** {
 843:Generated_Source\PSoC4/I2C_1_I2C_MASTER.c ****     uint32 status;
 844:Generated_Source\PSoC4/I2C_1_I2C_MASTER.c **** 
 845:Generated_Source\PSoC4/I2C_1_I2C_MASTER.c ****     I2C_1_DisableInt();  /* Lock from interruption */
 846:Generated_Source\PSoC4/I2C_1_I2C_MASTER.c **** 
 847:Generated_Source\PSoC4/I2C_1_I2C_MASTER.c ****     status = (uint32) I2C_1_mstrStatus;
 848:Generated_Source\PSoC4/I2C_1_I2C_MASTER.c **** 
 849:Generated_Source\PSoC4/I2C_1_I2C_MASTER.c ****     if (I2C_1_CHECK_I2C_MASTER_ACTIVE)
 850:Generated_Source\PSoC4/I2C_1_I2C_MASTER.c ****     {
 851:Generated_Source\PSoC4/I2C_1_I2C_MASTER.c ****         /* Add status of master pending transaction: MSTAT_XFER_INP */
 852:Generated_Source\PSoC4/I2C_1_I2C_MASTER.c ****         status |= (uint32) I2C_1_I2C_MSTAT_XFER_INP;
 853:Generated_Source\PSoC4/I2C_1_I2C_MASTER.c ****     }
 854:Generated_Source\PSoC4/I2C_1_I2C_MASTER.c **** 
 855:Generated_Source\PSoC4/I2C_1_I2C_MASTER.c ****     I2C_1_EnableInt();   /* Release lock */
 856:Generated_Source\PSoC4/I2C_1_I2C_MASTER.c **** 
 857:Generated_Source\PSoC4/I2C_1_I2C_MASTER.c ****     return(status);
 858:Generated_Source\PSoC4/I2C_1_I2C_MASTER.c **** }
 859:Generated_Source\PSoC4/I2C_1_I2C_MASTER.c **** 
 860:Generated_Source\PSoC4/I2C_1_I2C_MASTER.c **** 
 861:Generated_Source\PSoC4/I2C_1_I2C_MASTER.c **** /*******************************************************************************
 862:Generated_Source\PSoC4/I2C_1_I2C_MASTER.c **** * Function Name: I2C_1_I2CMasterClearStatus
 863:Generated_Source\PSoC4/I2C_1_I2C_MASTER.c **** ****************************************************************************//**
 864:Generated_Source\PSoC4/I2C_1_I2C_MASTER.c **** *
 865:Generated_Source\PSoC4/I2C_1_I2C_MASTER.c **** *  Clears all status flags and returns the master status.
 866:Generated_Source\PSoC4/I2C_1_I2C_MASTER.c **** *
 867:Generated_Source\PSoC4/I2C_1_I2C_MASTER.c **** * \return
 868:Generated_Source\PSoC4/I2C_1_I2C_MASTER.c **** *  Current status of master. See the I2C_1_I2CMasterStatus()
 869:Generated_Source\PSoC4/I2C_1_I2C_MASTER.c **** *  function for constants.
 870:Generated_Source\PSoC4/I2C_1_I2C_MASTER.c **** *
 871:Generated_Source\PSoC4/I2C_1_I2C_MASTER.c **** * \globalvars
 872:Generated_Source\PSoC4/I2C_1_I2C_MASTER.c **** *  I2C_1_mstrStatus - used to store current status of I2C Master.
 873:Generated_Source\PSoC4/I2C_1_I2C_MASTER.c **** *
 874:Generated_Source\PSoC4/I2C_1_I2C_MASTER.c **** *******************************************************************************/
 875:Generated_Source\PSoC4/I2C_1_I2C_MASTER.c **** uint32 I2C_1_I2CMasterClearStatus(void)
 876:Generated_Source\PSoC4/I2C_1_I2C_MASTER.c **** {
 877:Generated_Source\PSoC4/I2C_1_I2C_MASTER.c ****     uint32 status;
 878:Generated_Source\PSoC4/I2C_1_I2C_MASTER.c **** 
 879:Generated_Source\PSoC4/I2C_1_I2C_MASTER.c ****     I2C_1_DisableInt();  /* Lock from interruption */
 880:Generated_Source\PSoC4/I2C_1_I2C_MASTER.c **** 
 881:Generated_Source\PSoC4/I2C_1_I2C_MASTER.c ****     /* Read and clear master status */
 882:Generated_Source\PSoC4/I2C_1_I2C_MASTER.c ****     status = (uint32) I2C_1_mstrStatus;
 883:Generated_Source\PSoC4/I2C_1_I2C_MASTER.c ****     I2C_1_mstrStatus = I2C_1_I2C_MSTAT_CLEAR;
 884:Generated_Source\PSoC4/I2C_1_I2C_MASTER.c **** 
 885:Generated_Source\PSoC4/I2C_1_I2C_MASTER.c ****     I2C_1_EnableInt();   /* Release lock */
 886:Generated_Source\PSoC4/I2C_1_I2C_MASTER.c **** 
ARM GAS  C:\Users\austc\AppData\Local\Temp\cciIEsvk.s 			page 17


 887:Generated_Source\PSoC4/I2C_1_I2C_MASTER.c ****     return(status);
 888:Generated_Source\PSoC4/I2C_1_I2C_MASTER.c **** }
 889:Generated_Source\PSoC4/I2C_1_I2C_MASTER.c **** 
 890:Generated_Source\PSoC4/I2C_1_I2C_MASTER.c **** 
 891:Generated_Source\PSoC4/I2C_1_I2C_MASTER.c **** /*******************************************************************************
 892:Generated_Source\PSoC4/I2C_1_I2C_MASTER.c **** * Function Name: I2C_1_I2CReStartGeneration
 893:Generated_Source\PSoC4/I2C_1_I2C_MASTER.c **** ****************************************************************************//**
 894:Generated_Source\PSoC4/I2C_1_I2C_MASTER.c **** *
 895:Generated_Source\PSoC4/I2C_1_I2C_MASTER.c **** *  Generates a ReStart condition:
 896:Generated_Source\PSoC4/I2C_1_I2C_MASTER.c **** *  - SCB IP V1 and later: Generates ReStart using the scb IP functionality
 897:Generated_Source\PSoC4/I2C_1_I2C_MASTER.c **** *    Sets the I2C_MASTER_CMD_M_START and I2C_MASTER_CMD_M_NACK (if the previous
 898:Generated_Source\PSoC4/I2C_1_I2C_MASTER.c **** *    transaction was read) bits in the SCB.I2C_MASTER_CMD register.
 899:Generated_Source\PSoC4/I2C_1_I2C_MASTER.c **** *    This combination forces the master to generate ReStart.
 900:Generated_Source\PSoC4/I2C_1_I2C_MASTER.c **** *
 901:Generated_Source\PSoC4/I2C_1_I2C_MASTER.c **** *  - SCB IP V0: Generates Restart using the GPIO and scb IP functionality.
 902:Generated_Source\PSoC4/I2C_1_I2C_MASTER.c **** *    After the master completes write or read, the SCL is stretched.
 903:Generated_Source\PSoC4/I2C_1_I2C_MASTER.c **** *    The master waits until SDA line is released by the slave. Then the GPIO
 904:Generated_Source\PSoC4/I2C_1_I2C_MASTER.c **** *    function is enabled and the scb IP disabled as it already does not drive
 905:Generated_Source\PSoC4/I2C_1_I2C_MASTER.c **** *    the bus. In case of the previous transfer was read, the NACK is generated
 906:Generated_Source\PSoC4/I2C_1_I2C_MASTER.c **** *    by the GPIO. The delay of tLOW is added to manage the hold time.
 907:Generated_Source\PSoC4/I2C_1_I2C_MASTER.c **** *    Set I2C_M_CMD.START and enable the scb IP. The ReStart generation
 908:Generated_Source\PSoC4/I2C_1_I2C_MASTER.c **** *    is started after the I2C function is enabled for the SCL.
 909:Generated_Source\PSoC4/I2C_1_I2C_MASTER.c **** *    Note1: the scb IP due re-enable generates Start but on the I2C bus it
 910:Generated_Source\PSoC4/I2C_1_I2C_MASTER.c **** *           appears as ReStart.
 911:Generated_Source\PSoC4/I2C_1_I2C_MASTER.c **** *    Note2: the I2C_M_CMD.START is queued if scb IP is disabled.
 912:Generated_Source\PSoC4/I2C_1_I2C_MASTER.c **** *    Note3: the I2C_STATUS_M_READ is cleared is address was NACKed before.
 913:Generated_Source\PSoC4/I2C_1_I2C_MASTER.c **** *
 914:Generated_Source\PSoC4/I2C_1_I2C_MASTER.c **** * \sideeffect
 915:Generated_Source\PSoC4/I2C_1_I2C_MASTER.c **** *  SCB IP V0: The NACK generation by the GPIO may cause a greater SCL period
 916:Generated_Source\PSoC4/I2C_1_I2C_MASTER.c **** *             than expected for the selected master data rate.
 917:Generated_Source\PSoC4/I2C_1_I2C_MASTER.c **** *
 918:Generated_Source\PSoC4/I2C_1_I2C_MASTER.c **** *******************************************************************************/
 919:Generated_Source\PSoC4/I2C_1_I2C_MASTER.c **** void I2C_1_I2CReStartGeneration(void)
 920:Generated_Source\PSoC4/I2C_1_I2C_MASTER.c **** {
 921:Generated_Source\PSoC4/I2C_1_I2C_MASTER.c **** #if(I2C_1_CY_SCBIP_V0)
 922:Generated_Source\PSoC4/I2C_1_I2C_MASTER.c ****     /* Generates Restart use GPIO and scb IP functionality. Ticket ID#143715,
 923:Generated_Source\PSoC4/I2C_1_I2C_MASTER.c ****     * ID#145238 and ID#173656.
 924:Generated_Source\PSoC4/I2C_1_I2C_MASTER.c ****     * In case of timeout the I2C_1_I2CMasterSendRestart handles this
 925:Generated_Source\PSoC4/I2C_1_I2C_MASTER.c ****     * case using own timeout and execute appropriate recovery.
 926:Generated_Source\PSoC4/I2C_1_I2C_MASTER.c ****     */
 927:Generated_Source\PSoC4/I2C_1_I2C_MASTER.c **** 
 928:Generated_Source\PSoC4/I2C_1_I2C_MASTER.c ****     const uint16 oneUnit = 1u;
 929:Generated_Source\PSoC4/I2C_1_I2C_MASTER.c ****     uint32 timeout = I2C_1_I2C_PHASE_GEN_TIMEOUT;
 930:Generated_Source\PSoC4/I2C_1_I2C_MASTER.c **** 
 931:Generated_Source\PSoC4/I2C_1_I2C_MASTER.c ****     /* Store direction of transfer */
 932:Generated_Source\PSoC4/I2C_1_I2C_MASTER.c ****     uint32 readDirection = I2C_1_I2C_STATUS_REG & I2C_1_I2C_STATUS_M_READ;
 933:Generated_Source\PSoC4/I2C_1_I2C_MASTER.c **** 
 934:Generated_Source\PSoC4/I2C_1_I2C_MASTER.c ****     /* Wait until slave releases SDA line: SCL tHIGH is complete */
 935:Generated_Source\PSoC4/I2C_1_I2C_MASTER.c ****     while ((I2C_1_WAIT_SDA_SET_HIGH) && (timeout > 0u))
 936:Generated_Source\PSoC4/I2C_1_I2C_MASTER.c ****     {
 937:Generated_Source\PSoC4/I2C_1_I2C_MASTER.c ****         CyDelayUs(oneUnit);
 938:Generated_Source\PSoC4/I2C_1_I2C_MASTER.c ****         --timeout;
 939:Generated_Source\PSoC4/I2C_1_I2C_MASTER.c ****     }
 940:Generated_Source\PSoC4/I2C_1_I2C_MASTER.c **** 
 941:Generated_Source\PSoC4/I2C_1_I2C_MASTER.c ****     if (timeout > 0u)
 942:Generated_Source\PSoC4/I2C_1_I2C_MASTER.c ****     {
 943:Generated_Source\PSoC4/I2C_1_I2C_MASTER.c ****         /* Refill timeout */
ARM GAS  C:\Users\austc\AppData\Local\Temp\cciIEsvk.s 			page 18


 944:Generated_Source\PSoC4/I2C_1_I2C_MASTER.c ****         timeout = I2C_1_I2C_PHASE_GEN_TIMEOUT;
 945:Generated_Source\PSoC4/I2C_1_I2C_MASTER.c **** 
 946:Generated_Source\PSoC4/I2C_1_I2C_MASTER.c ****         /* Drive SCL line use GPIO */
 947:Generated_Source\PSoC4/I2C_1_I2C_MASTER.c ****         I2C_1_SET_I2C_SCL_DR       (I2C_1_I2C_SCL_LOW);
 948:Generated_Source\PSoC4/I2C_1_I2C_MASTER.c ****         I2C_1_SET_I2C_SCL_HSIOM_SEL(I2C_1_HSIOM_GPIO_SEL);
 949:Generated_Source\PSoC4/I2C_1_I2C_MASTER.c **** 
 950:Generated_Source\PSoC4/I2C_1_I2C_MASTER.c ****         /* Disable SCB block */
 951:Generated_Source\PSoC4/I2C_1_I2C_MASTER.c ****         I2C_1_CTRL_REG &= (uint32) ~I2C_1_CTRL_ENABLED;
 952:Generated_Source\PSoC4/I2C_1_I2C_MASTER.c **** 
 953:Generated_Source\PSoC4/I2C_1_I2C_MASTER.c ****         if (0u != readDirection)
 954:Generated_Source\PSoC4/I2C_1_I2C_MASTER.c ****         {
 955:Generated_Source\PSoC4/I2C_1_I2C_MASTER.c ****             /* Generate NACK for read transactions use GPIO functionality */
 956:Generated_Source\PSoC4/I2C_1_I2C_MASTER.c **** 
 957:Generated_Source\PSoC4/I2C_1_I2C_MASTER.c ****             /* Drive tLOW: SCL low phase */
 958:Generated_Source\PSoC4/I2C_1_I2C_MASTER.c ****             I2C_1_SET_I2C_SCL_DR(I2C_1_I2C_SCL_LOW);
 959:Generated_Source\PSoC4/I2C_1_I2C_MASTER.c ****             CyDelayUs(I2C_1_I2C_TLOW_TIME);
 960:Generated_Source\PSoC4/I2C_1_I2C_MASTER.c **** 
 961:Generated_Source\PSoC4/I2C_1_I2C_MASTER.c ****             /* Drive tHIGH: SCL high phase */
 962:Generated_Source\PSoC4/I2C_1_I2C_MASTER.c ****             I2C_1_SET_I2C_SCL_DR(I2C_1_I2C_SCL_HIGH);
 963:Generated_Source\PSoC4/I2C_1_I2C_MASTER.c ****             CyDelayUs(I2C_1_I2C_THIGH_TIME);
 964:Generated_Source\PSoC4/I2C_1_I2C_MASTER.c **** 
 965:Generated_Source\PSoC4/I2C_1_I2C_MASTER.c ****             /* Wait until slave releases SDA line: SCL tHIGH is complete */
 966:Generated_Source\PSoC4/I2C_1_I2C_MASTER.c ****             while ((I2C_1_WAIT_SCL_SET_HIGH) && (timeout > 0u))
 967:Generated_Source\PSoC4/I2C_1_I2C_MASTER.c ****             {
 968:Generated_Source\PSoC4/I2C_1_I2C_MASTER.c ****                 CyDelayUs(oneUnit);
 969:Generated_Source\PSoC4/I2C_1_I2C_MASTER.c ****                 --timeout;
 970:Generated_Source\PSoC4/I2C_1_I2C_MASTER.c ****             }
 971:Generated_Source\PSoC4/I2C_1_I2C_MASTER.c ****         }
 972:Generated_Source\PSoC4/I2C_1_I2C_MASTER.c **** 
 973:Generated_Source\PSoC4/I2C_1_I2C_MASTER.c ****         if (timeout > 0u)
 974:Generated_Source\PSoC4/I2C_1_I2C_MASTER.c ****         {
 975:Generated_Source\PSoC4/I2C_1_I2C_MASTER.c ****             /* Drive tLOW: hold time for write and read */
 976:Generated_Source\PSoC4/I2C_1_I2C_MASTER.c ****             I2C_1_SET_I2C_SCL_DR(I2C_1_I2C_SCL_LOW);
 977:Generated_Source\PSoC4/I2C_1_I2C_MASTER.c ****             CyDelayUs(I2C_1_I2C_TLOW_TIME);
 978:Generated_Source\PSoC4/I2C_1_I2C_MASTER.c **** 
 979:Generated_Source\PSoC4/I2C_1_I2C_MASTER.c ****             /* Set Start command, it will appear as ReStart on the bus */
 980:Generated_Source\PSoC4/I2C_1_I2C_MASTER.c ****             I2C_1_I2C_MASTER_CMD_REG  = I2C_1_I2C_MASTER_CMD_M_START;
 981:Generated_Source\PSoC4/I2C_1_I2C_MASTER.c ****         }
 982:Generated_Source\PSoC4/I2C_1_I2C_MASTER.c **** 
 983:Generated_Source\PSoC4/I2C_1_I2C_MASTER.c ****         /* Enable SCB block: ReStart will appear on the bus as soon as SCL
 984:Generated_Source\PSoC4/I2C_1_I2C_MASTER.c ****         * configuration is restored and bus busy cleared.
 985:Generated_Source\PSoC4/I2C_1_I2C_MASTER.c ****         */
 986:Generated_Source\PSoC4/I2C_1_I2C_MASTER.c ****         I2C_1_CTRL_REG |= I2C_1_CTRL_ENABLED;
 987:Generated_Source\PSoC4/I2C_1_I2C_MASTER.c **** 
 988:Generated_Source\PSoC4/I2C_1_I2C_MASTER.c ****         /* Restore SCL configuration */
 989:Generated_Source\PSoC4/I2C_1_I2C_MASTER.c ****         I2C_1_SET_I2C_SCL_HSIOM_SEL(I2C_1_HSIOM_I2C_SEL);
 990:Generated_Source\PSoC4/I2C_1_I2C_MASTER.c ****         I2C_1_SET_I2C_SCL_DR       (I2C_1_I2C_SCL_HIGH);
 991:Generated_Source\PSoC4/I2C_1_I2C_MASTER.c ****     }
 992:Generated_Source\PSoC4/I2C_1_I2C_MASTER.c **** #else
 993:Generated_Source\PSoC4/I2C_1_I2C_MASTER.c ****     uint32 cmd;
 994:Generated_Source\PSoC4/I2C_1_I2C_MASTER.c **** 
 995:Generated_Source\PSoC4/I2C_1_I2C_MASTER.c ****     /* Generates ReStart use scb IP functionality */
 996:Generated_Source\PSoC4/I2C_1_I2C_MASTER.c ****     cmd  = I2C_1_I2C_MASTER_CMD_M_START;
 997:Generated_Source\PSoC4/I2C_1_I2C_MASTER.c ****     cmd |= I2C_1_CHECK_I2C_STATUS(I2C_1_I2C_STATUS_M_READ) ?
 998:Generated_Source\PSoC4/I2C_1_I2C_MASTER.c ****                 (I2C_1_I2C_MASTER_CMD_M_NACK) : (0u);
 999:Generated_Source\PSoC4/I2C_1_I2C_MASTER.c **** 
1000:Generated_Source\PSoC4/I2C_1_I2C_MASTER.c ****     I2C_1_I2C_MASTER_CMD_REG = cmd;
ARM GAS  C:\Users\austc\AppData\Local\Temp\cciIEsvk.s 			page 19


1001:Generated_Source\PSoC4/I2C_1_I2C_MASTER.c **** #endif /* (I2C_1_CY_SCBIP_V1) */
1002:Generated_Source\PSoC4/I2C_1_I2C_MASTER.c **** }
1003:Generated_Source\PSoC4/I2C_1_I2C_MASTER.c **** 
1004:Generated_Source\PSoC4/I2C_1_I2C_MASTER.c **** #endif /* (I2C_1_I2C_MASTER_CONST) */
1005:Generated_Source\PSoC4/I2C_1_I2C_MASTER.c **** 
1006:Generated_Source\PSoC4/I2C_1_I2C_MASTER.c **** 
1007:Generated_Source\PSoC4/I2C_1_I2C_MASTER.c **** #if (!I2C_1_CY_SCBIP_V0 && \
1008:Generated_Source\PSoC4/I2C_1_I2C_MASTER.c ****     I2C_1_I2C_MULTI_MASTER_SLAVE_CONST && I2C_1_I2C_WAKE_ENABLE_CONST)
1009:Generated_Source\PSoC4/I2C_1_I2C_MASTER.c ****     /*******************************************************************************
1010:Generated_Source\PSoC4/I2C_1_I2C_MASTER.c ****     * Function Name: I2C_1_I2CMasterDisableEcAm
1011:Generated_Source\PSoC4/I2C_1_I2C_MASTER.c ****     ****************************************************************************//**
1012:Generated_Source\PSoC4/I2C_1_I2C_MASTER.c ****     *
1013:Generated_Source\PSoC4/I2C_1_I2C_MASTER.c ****     *  Disables externally clocked address match logic to enable master operation
1014:Generated_Source\PSoC4/I2C_1_I2C_MASTER.c ****     *  in active mode.
1015:Generated_Source\PSoC4/I2C_1_I2C_MASTER.c ****     *
1016:Generated_Source\PSoC4/I2C_1_I2C_MASTER.c ****     *******************************************************************************/
1017:Generated_Source\PSoC4/I2C_1_I2C_MASTER.c ****     static void I2C_1_I2CMasterDisableEcAm(void)
1018:Generated_Source\PSoC4/I2C_1_I2C_MASTER.c ****     {
1019:Generated_Source\PSoC4/I2C_1_I2C_MASTER.c ****         /* Disables externally clocked address match logic to enable master operation
1020:Generated_Source\PSoC4/I2C_1_I2C_MASTER.c ****         * in active mode. This applicable only for Multi-Master-Slave when wakeup is
1021:Generated_Source\PSoC4/I2C_1_I2C_MASTER.c ****         * enabled. Ticket ID#192742.
1022:Generated_Source\PSoC4/I2C_1_I2C_MASTER.c ****         */
1023:Generated_Source\PSoC4/I2C_1_I2C_MASTER.c ****         if (0u != (I2C_1_CTRL_REG & I2C_1_CTRL_EC_AM_MODE))
1024:Generated_Source\PSoC4/I2C_1_I2C_MASTER.c ****         {
1025:Generated_Source\PSoC4/I2C_1_I2C_MASTER.c ****             /* Enable external address match logic */
1026:Generated_Source\PSoC4/I2C_1_I2C_MASTER.c ****             I2C_1_Stop();
1027:Generated_Source\PSoC4/I2C_1_I2C_MASTER.c ****             I2C_1_CTRL_REG &= (uint32) ~I2C_1_CTRL_EC_AM_MODE;
1028:Generated_Source\PSoC4/I2C_1_I2C_MASTER.c ****             I2C_1_Enable();
1029:Generated_Source\PSoC4/I2C_1_I2C_MASTER.c ****         }
1030:Generated_Source\PSoC4/I2C_1_I2C_MASTER.c ****     }
1031:Generated_Source\PSoC4/I2C_1_I2C_MASTER.c **** #endif /* (!I2C_1_CY_SCBIP_V0) */
1032:Generated_Source\PSoC4/I2C_1_I2C_MASTER.c **** 
1033:Generated_Source\PSoC4/I2C_1_I2C_MASTER.c **** 
1034:Generated_Source\PSoC4/I2C_1_I2C_MASTER.c **** /*******************************************************************************
1035:Generated_Source\PSoC4/I2C_1_I2C_MASTER.c **** * Function Name: I2C_1_I2CMasterHandleStatus
1036:Generated_Source\PSoC4/I2C_1_I2C_MASTER.c **** ****************************************************************************//**
1037:Generated_Source\PSoC4/I2C_1_I2C_MASTER.c **** *
1038:Generated_Source\PSoC4/I2C_1_I2C_MASTER.c **** * Converts hardware status to firmware status and executes required processing.
1039:Generated_Source\PSoC4/I2C_1_I2C_MASTER.c **** *
1040:Generated_Source\PSoC4/I2C_1_I2C_MASTER.c **** * \param status
1041:Generated_Source\PSoC4/I2C_1_I2C_MASTER.c **** * Hardware I2C master status to handle. It also includes
1042:Generated_Source\PSoC4/I2C_1_I2C_MASTER.c **** * I2C_1_I2C_MASTER_TIMEOUT and I2C_1_SLAVE_INTR_I2C_ADDR.
1043:Generated_Source\PSoC4/I2C_1_I2C_MASTER.c **** *
1044:Generated_Source\PSoC4/I2C_1_I2C_MASTER.c **** * \return
1045:Generated_Source\PSoC4/I2C_1_I2C_MASTER.c **** * Error status.
1046:Generated_Source\PSoC4/I2C_1_I2C_MASTER.c **** * See I2C_1_I2CMasterSendStart() function for constants.
1047:Generated_Source\PSoC4/I2C_1_I2C_MASTER.c **** *
1048:Generated_Source\PSoC4/I2C_1_I2C_MASTER.c **** *******************************************************************************/
1049:Generated_Source\PSoC4/I2C_1_I2C_MASTER.c **** static uint32 I2C_1_I2CMasterHandleStatus(uint32 status)
1050:Generated_Source\PSoC4/I2C_1_I2C_MASTER.c **** {
1051:Generated_Source\PSoC4/I2C_1_I2C_MASTER.c ****     uint32 retStatus;
1052:Generated_Source\PSoC4/I2C_1_I2C_MASTER.c ****     uint32 resetBlock = 0u;
1053:Generated_Source\PSoC4/I2C_1_I2C_MASTER.c **** 
1054:Generated_Source\PSoC4/I2C_1_I2C_MASTER.c ****     if (0u != (status & I2C_1_I2C_MASTER_TIMEOUT))
1055:Generated_Source\PSoC4/I2C_1_I2C_MASTER.c ****     {
1056:Generated_Source\PSoC4/I2C_1_I2C_MASTER.c ****         retStatus  = I2C_1_I2C_MASTER_TIMEOUT;
1057:Generated_Source\PSoC4/I2C_1_I2C_MASTER.c ****         resetBlock = I2C_1_I2C_RESET_ERROR;
ARM GAS  C:\Users\austc\AppData\Local\Temp\cciIEsvk.s 			page 20


1058:Generated_Source\PSoC4/I2C_1_I2C_MASTER.c ****     }
1059:Generated_Source\PSoC4/I2C_1_I2C_MASTER.c ****     else if (0u != (I2C_1_SLAVE_INTR_I2C_ADDR & status))
1060:Generated_Source\PSoC4/I2C_1_I2C_MASTER.c ****     {
1061:Generated_Source\PSoC4/I2C_1_I2C_MASTER.c ****         /* Abort the master operation, the slave was addressed first */
1062:Generated_Source\PSoC4/I2C_1_I2C_MASTER.c ****         retStatus = I2C_1_I2C_MSTR_ERR_ABORT_START;
1063:Generated_Source\PSoC4/I2C_1_I2C_MASTER.c **** 
1064:Generated_Source\PSoC4/I2C_1_I2C_MASTER.c ****         I2C_1_I2C_MASTER_CMD_REG = 0u;
1065:Generated_Source\PSoC4/I2C_1_I2C_MASTER.c **** 
1066:Generated_Source\PSoC4/I2C_1_I2C_MASTER.c ****         I2C_1_state = I2C_1_I2C_FSM_IDLE;
1067:Generated_Source\PSoC4/I2C_1_I2C_MASTER.c ****     }
1068:Generated_Source\PSoC4/I2C_1_I2C_MASTER.c ****     else if (0u != (status & I2C_1_INTR_MASTER_I2C_ARB_LOST))
1069:Generated_Source\PSoC4/I2C_1_I2C_MASTER.c ****     {
1070:Generated_Source\PSoC4/I2C_1_I2C_MASTER.c ****         retStatus  = I2C_1_I2C_MSTR_ERR_ARB_LOST;
1071:Generated_Source\PSoC4/I2C_1_I2C_MASTER.c **** 
1072:Generated_Source\PSoC4/I2C_1_I2C_MASTER.c ****         if (I2C_1_CHECK_I2C_FSM_ADDR)
1073:Generated_Source\PSoC4/I2C_1_I2C_MASTER.c ****         {
1074:Generated_Source\PSoC4/I2C_1_I2C_MASTER.c ****             /* If slave is not enabled reset IP, otherwise give it a chance to match address */
1075:Generated_Source\PSoC4/I2C_1_I2C_MASTER.c ****             if (0u == (I2C_1_I2C_CTRL_REG & I2C_1_I2C_CTRL_SLAVE_MODE))
1076:Generated_Source\PSoC4/I2C_1_I2C_MASTER.c ****             {
1077:Generated_Source\PSoC4/I2C_1_I2C_MASTER.c ****                 resetBlock = I2C_1_I2C_RESET_ERROR;
1078:Generated_Source\PSoC4/I2C_1_I2C_MASTER.c ****             }
1079:Generated_Source\PSoC4/I2C_1_I2C_MASTER.c **** 
1080:Generated_Source\PSoC4/I2C_1_I2C_MASTER.c ****             I2C_1_state = I2C_1_I2C_FSM_IDLE;
1081:Generated_Source\PSoC4/I2C_1_I2C_MASTER.c ****         }
1082:Generated_Source\PSoC4/I2C_1_I2C_MASTER.c ****         else
1083:Generated_Source\PSoC4/I2C_1_I2C_MASTER.c ****         {
1084:Generated_Source\PSoC4/I2C_1_I2C_MASTER.c ****             /* Reset IP block when on address stage */
1085:Generated_Source\PSoC4/I2C_1_I2C_MASTER.c ****             resetBlock = I2C_1_I2C_RESET_ERROR;
1086:Generated_Source\PSoC4/I2C_1_I2C_MASTER.c ****         }
1087:Generated_Source\PSoC4/I2C_1_I2C_MASTER.c ****     }
1088:Generated_Source\PSoC4/I2C_1_I2C_MASTER.c ****     else if (0u != (status & I2C_1_INTR_MASTER_I2C_BUS_ERROR))
1089:Generated_Source\PSoC4/I2C_1_I2C_MASTER.c ****     {
1090:Generated_Source\PSoC4/I2C_1_I2C_MASTER.c ****         retStatus  = I2C_1_I2C_MSTR_ERR_BUS_ERR;
1091:Generated_Source\PSoC4/I2C_1_I2C_MASTER.c ****         resetBlock = I2C_1_I2C_RESET_ERROR;
1092:Generated_Source\PSoC4/I2C_1_I2C_MASTER.c ****     }
1093:Generated_Source\PSoC4/I2C_1_I2C_MASTER.c ****     else if (0u != (status & I2C_1_INTR_MASTER_I2C_NACK))
1094:Generated_Source\PSoC4/I2C_1_I2C_MASTER.c ****     {
1095:Generated_Source\PSoC4/I2C_1_I2C_MASTER.c ****         retStatus = I2C_1_I2C_MSTR_ERR_LB_NAK;
1096:Generated_Source\PSoC4/I2C_1_I2C_MASTER.c ****     }
1097:Generated_Source\PSoC4/I2C_1_I2C_MASTER.c ****     else /* Includes: INTR_MASTER_I2C_STOP and INTR_MASTER_I2C_ACK */
1098:Generated_Source\PSoC4/I2C_1_I2C_MASTER.c ****     {
1099:Generated_Source\PSoC4/I2C_1_I2C_MASTER.c ****         retStatus = I2C_1_I2C_MSTR_NO_ERROR;
1100:Generated_Source\PSoC4/I2C_1_I2C_MASTER.c **** 
1101:Generated_Source\PSoC4/I2C_1_I2C_MASTER.c ****         if (0u != (status & I2C_1_INTR_MASTER_I2C_STOP))
1102:Generated_Source\PSoC4/I2C_1_I2C_MASTER.c ****         {
1103:Generated_Source\PSoC4/I2C_1_I2C_MASTER.c ****             /* Stop: end of transaction, go to idle state */
1104:Generated_Source\PSoC4/I2C_1_I2C_MASTER.c ****             I2C_1_state = I2C_1_I2C_FSM_IDLE;
1105:Generated_Source\PSoC4/I2C_1_I2C_MASTER.c ****         }
1106:Generated_Source\PSoC4/I2C_1_I2C_MASTER.c ****         else
1107:Generated_Source\PSoC4/I2C_1_I2C_MASTER.c ****         {
1108:Generated_Source\PSoC4/I2C_1_I2C_MASTER.c ****             /* ACK: continue transaction */
1109:Generated_Source\PSoC4/I2C_1_I2C_MASTER.c ****             if (I2C_1_CHECK_I2C_FSM_ADDR)
1110:Generated_Source\PSoC4/I2C_1_I2C_MASTER.c ****             {
1111:Generated_Source\PSoC4/I2C_1_I2C_MASTER.c ****                 /* Move from address state to data */
1112:Generated_Source\PSoC4/I2C_1_I2C_MASTER.c ****                 I2C_1_state = (I2C_1_CHECK_I2C_FSM_RD) ?
1113:Generated_Source\PSoC4/I2C_1_I2C_MASTER.c ****                                           I2C_1_I2C_FSM_MSTR_RD_DATA : I2C_1_I2C_FSM_MSTR_WR_DATA;
1114:Generated_Source\PSoC4/I2C_1_I2C_MASTER.c ****             }
ARM GAS  C:\Users\austc\AppData\Local\Temp\cciIEsvk.s 			page 21


1115:Generated_Source\PSoC4/I2C_1_I2C_MASTER.c ****         }
1116:Generated_Source\PSoC4/I2C_1_I2C_MASTER.c ****     }
1117:Generated_Source\PSoC4/I2C_1_I2C_MASTER.c **** 
1118:Generated_Source\PSoC4/I2C_1_I2C_MASTER.c ****     if (I2C_1_I2C_RESET_ERROR == resetBlock)
1119:Generated_Source\PSoC4/I2C_1_I2C_MASTER.c ****     {
1120:Generated_Source\PSoC4/I2C_1_I2C_MASTER.c ****         I2C_1_I2CFwBlockReset();
1121:Generated_Source\PSoC4/I2C_1_I2C_MASTER.c ****     }
1122:Generated_Source\PSoC4/I2C_1_I2C_MASTER.c ****     else
1123:Generated_Source\PSoC4/I2C_1_I2C_MASTER.c ****     {
1124:Generated_Source\PSoC4/I2C_1_I2C_MASTER.c ****         I2C_1_ClearMasterInterruptSource(I2C_1_INTR_MASTER_ALL);
1125:Generated_Source\PSoC4/I2C_1_I2C_MASTER.c ****     }
1126:Generated_Source\PSoC4/I2C_1_I2C_MASTER.c **** 
1127:Generated_Source\PSoC4/I2C_1_I2C_MASTER.c ****     return (retStatus);
1128:Generated_Source\PSoC4/I2C_1_I2C_MASTER.c **** }
1129:Generated_Source\PSoC4/I2C_1_I2C_MASTER.c **** 
1130:Generated_Source\PSoC4/I2C_1_I2C_MASTER.c **** 
1131:Generated_Source\PSoC4/I2C_1_I2C_MASTER.c **** /******************************************************************************
1132:Generated_Source\PSoC4/I2C_1_I2C_MASTER.c **** * Function Name: I2CMasterWaitOneUnit
1133:Generated_Source\PSoC4/I2C_1_I2C_MASTER.c **** ****************************************************************************//**
1134:Generated_Source\PSoC4/I2C_1_I2C_MASTER.c **** *
1135:Generated_Source\PSoC4/I2C_1_I2C_MASTER.c **** * Waits for one unit before unblock code execution.
1136:Generated_Source\PSoC4/I2C_1_I2C_MASTER.c **** * Note If a timeout value is 0, this function does nothing and returns 0.
1137:Generated_Source\PSoC4/I2C_1_I2C_MASTER.c **** *
1138:Generated_Source\PSoC4/I2C_1_I2C_MASTER.c **** * \param timeout
1139:Generated_Source\PSoC4/I2C_1_I2C_MASTER.c **** * The pointer to a timeout value.
1140:Generated_Source\PSoC4/I2C_1_I2C_MASTER.c **** *
1141:Generated_Source\PSoC4/I2C_1_I2C_MASTER.c **** * \return
1142:Generated_Source\PSoC4/I2C_1_I2C_MASTER.c **** * Returns 0 if a timeout does not expire or the timeout mask.
1143:Generated_Source\PSoC4/I2C_1_I2C_MASTER.c **** *
1144:Generated_Source\PSoC4/I2C_1_I2C_MASTER.c **** *******************************************************************************/
1145:Generated_Source\PSoC4/I2C_1_I2C_MASTER.c **** static uint32 I2C_1_I2CMasterWaitOneUnit(uint32 *timeout)
1146:Generated_Source\PSoC4/I2C_1_I2C_MASTER.c **** {
  27              		.loc 1 1146 0
  28              		.cfi_startproc
  29              		@ args = 0, pretend = 0, frame = 0
  30              		@ frame_needed = 0, uses_anonymous_args = 0
  31              	.LVL0:
  32 0000 10B5     		push	{r4, lr}
  33              		.cfi_def_cfa_offset 8
  34              		.cfi_offset 4, -8
  35              		.cfi_offset 14, -4
  36 0002 0400     		movs	r4, r0
  37              	.LVL1:
1147:Generated_Source\PSoC4/I2C_1_I2C_MASTER.c ****     const uint16 oneUnit = 1u;
1148:Generated_Source\PSoC4/I2C_1_I2C_MASTER.c ****     uint32 status = 0u;
1149:Generated_Source\PSoC4/I2C_1_I2C_MASTER.c **** 
1150:Generated_Source\PSoC4/I2C_1_I2C_MASTER.c ****     /* If the timeout equal to 0. Ignore the timeout */
1151:Generated_Source\PSoC4/I2C_1_I2C_MASTER.c ****     if (*timeout > 0u)
  38              		.loc 1 1151 0
  39 0004 0368     		ldr	r3, [r0]
  40 0006 002B     		cmp	r3, #0
  41 0008 09D0     		beq	.L3
1152:Generated_Source\PSoC4/I2C_1_I2C_MASTER.c ****     {
1153:Generated_Source\PSoC4/I2C_1_I2C_MASTER.c ****         CyDelayUs(oneUnit);
  42              		.loc 1 1153 0
  43 000a 0120     		movs	r0, #1
  44              	.LVL2:
ARM GAS  C:\Users\austc\AppData\Local\Temp\cciIEsvk.s 			page 22


  45 000c FFF7FEFF 		bl	CyDelayUs
  46              	.LVL3:
1154:Generated_Source\PSoC4/I2C_1_I2C_MASTER.c ****         --(*timeout);
  47              		.loc 1 1154 0
  48 0010 2368     		ldr	r3, [r4]
  49 0012 013B     		subs	r3, r3, #1
  50 0014 2360     		str	r3, [r4]
1155:Generated_Source\PSoC4/I2C_1_I2C_MASTER.c **** 
1156:Generated_Source\PSoC4/I2C_1_I2C_MASTER.c ****         if (0u == *timeout)
  51              		.loc 1 1156 0
  52 0016 002B     		cmp	r3, #0
  53 0018 03D0     		beq	.L4
1148:Generated_Source\PSoC4/I2C_1_I2C_MASTER.c **** 
  54              		.loc 1 1148 0
  55 001a 0020     		movs	r0, #0
  56 001c 03E0     		b	.L2
  57              	.LVL4:
  58              	.L3:
  59 001e 0020     		movs	r0, #0
  60              	.LVL5:
  61 0020 01E0     		b	.L2
  62              	.L4:
1157:Generated_Source\PSoC4/I2C_1_I2C_MASTER.c ****         {
1158:Generated_Source\PSoC4/I2C_1_I2C_MASTER.c ****             status = I2C_1_I2C_MASTER_TIMEOUT;
  63              		.loc 1 1158 0
  64 0022 8020     		movs	r0, #128
  65 0024 0006     		lsls	r0, r0, #24
  66              	.L2:
  67              	.LVL6:
1159:Generated_Source\PSoC4/I2C_1_I2C_MASTER.c ****         }
1160:Generated_Source\PSoC4/I2C_1_I2C_MASTER.c ****     }
1161:Generated_Source\PSoC4/I2C_1_I2C_MASTER.c **** 
1162:Generated_Source\PSoC4/I2C_1_I2C_MASTER.c ****     return (status);
1163:Generated_Source\PSoC4/I2C_1_I2C_MASTER.c **** }
  68              		.loc 1 1163 0
  69              		@ sp needed
  70              	.LVL7:
  71 0026 10BD     		pop	{r4, pc}
  72              		.cfi_endproc
  73              	.LFE16:
  74              		.size	I2C_1_I2CMasterWaitOneUnit, .-I2C_1_I2CMasterWaitOneUnit
  75              		.section	.text.I2C_1_I2CMasterHandleStatus,"ax",%progbits
  76              		.align	2
  77              		.code	16
  78              		.thumb_func
  79              		.type	I2C_1_I2CMasterHandleStatus, %function
  80              	I2C_1_I2CMasterHandleStatus:
  81              	.LFB15:
1050:Generated_Source\PSoC4/I2C_1_I2C_MASTER.c ****     uint32 retStatus;
  82              		.loc 1 1050 0
  83              		.cfi_startproc
  84              		@ args = 0, pretend = 0, frame = 0
  85              		@ frame_needed = 0, uses_anonymous_args = 0
  86              	.LVL8:
  87 0000 10B5     		push	{r4, lr}
  88              		.cfi_def_cfa_offset 8
  89              		.cfi_offset 4, -8
ARM GAS  C:\Users\austc\AppData\Local\Temp\cciIEsvk.s 			page 23


  90              		.cfi_offset 14, -4
  91              	.LVL9:
1054:Generated_Source\PSoC4/I2C_1_I2C_MASTER.c ****     {
  92              		.loc 1 1054 0
  93 0002 0028     		cmp	r0, #0
  94 0004 39DB     		blt	.L14
1059:Generated_Source\PSoC4/I2C_1_I2C_MASTER.c ****     {
  95              		.loc 1 1059 0
  96 0006 C023     		movs	r3, #192
  97 0008 0342     		tst	r3, r0
  98 000a 08D0     		beq	.L7
  99              	.LVL10:
1064:Generated_Source\PSoC4/I2C_1_I2C_MASTER.c **** 
 100              		.loc 1 1064 0
 101 000c 0022     		movs	r2, #0
 102 000e 284B     		ldr	r3, .L21
 103 0010 1A60     		str	r2, [r3]
1066:Generated_Source\PSoC4/I2C_1_I2C_MASTER.c ****     }
 104              		.loc 1 1066 0
 105 0012 1032     		adds	r2, r2, #16
 106 0014 274B     		ldr	r3, .L21+4
 107 0016 1A70     		strb	r2, [r3]
1052:Generated_Source\PSoC4/I2C_1_I2C_MASTER.c **** 
 108              		.loc 1 1052 0
 109 0018 0023     		movs	r3, #0
1062:Generated_Source\PSoC4/I2C_1_I2C_MASTER.c **** 
 110              		.loc 1 1062 0
 111 001a 1024     		movs	r4, #16
 112 001c 3DE0     		b	.L6
 113              	.LVL11:
 114              	.L7:
1068:Generated_Source\PSoC4/I2C_1_I2C_MASTER.c ****     {
 115              		.loc 1 1068 0
 116 001e C307     		lsls	r3, r0, #31
 117 0020 0FD5     		bpl	.L8
 118              	.LVL12:
1072:Generated_Source\PSoC4/I2C_1_I2C_MASTER.c ****         {
 119              		.loc 1 1072 0
 120 0022 244B     		ldr	r3, .L21+4
 121 0024 1B78     		ldrb	r3, [r3]
 122 0026 1B07     		lsls	r3, r3, #28
 123 0028 2BD5     		bpl	.L15
1075:Generated_Source\PSoC4/I2C_1_I2C_MASTER.c ****             {
 124              		.loc 1 1075 0
 125 002a 234B     		ldr	r3, .L21+8
 126 002c 1B68     		ldr	r3, [r3]
 127 002e 5B00     		lsls	r3, r3, #1
 128 0030 01D5     		bpl	.L16
1052:Generated_Source\PSoC4/I2C_1_I2C_MASTER.c **** 
 129              		.loc 1 1052 0
 130 0032 0023     		movs	r3, #0
 131 0034 00E0     		b	.L9
 132              	.L16:
1077:Generated_Source\PSoC4/I2C_1_I2C_MASTER.c ****             }
 133              		.loc 1 1077 0
 134 0036 0123     		movs	r3, #1
 135              	.L9:
ARM GAS  C:\Users\austc\AppData\Local\Temp\cciIEsvk.s 			page 24


 136              	.LVL13:
1080:Generated_Source\PSoC4/I2C_1_I2C_MASTER.c ****         }
 137              		.loc 1 1080 0
 138 0038 1021     		movs	r1, #16
 139 003a 1E4A     		ldr	r2, .L21+4
 140 003c 1170     		strb	r1, [r2]
1070:Generated_Source\PSoC4/I2C_1_I2C_MASTER.c **** 
 141              		.loc 1 1070 0
 142 003e 0124     		movs	r4, #1
 143 0040 2BE0     		b	.L6
 144              	.LVL14:
 145              	.L8:
1088:Generated_Source\PSoC4/I2C_1_I2C_MASTER.c ****     {
 146              		.loc 1 1088 0
 147 0042 C305     		lsls	r3, r0, #23
 148 0044 20D4     		bmi	.L17
1093:Generated_Source\PSoC4/I2C_1_I2C_MASTER.c ****     {
 149              		.loc 1 1093 0
 150 0046 8307     		lsls	r3, r0, #30
 151 0048 22D4     		bmi	.L18
 152              	.LVL15:
1101:Generated_Source\PSoC4/I2C_1_I2C_MASTER.c ****         {
 153              		.loc 1 1101 0
 154 004a C306     		lsls	r3, r0, #27
 155 004c 05D5     		bpl	.L10
1104:Generated_Source\PSoC4/I2C_1_I2C_MASTER.c ****         }
 156              		.loc 1 1104 0
 157 004e 1022     		movs	r2, #16
 158 0050 184B     		ldr	r3, .L21+4
 159 0052 1A70     		strb	r2, [r3]
1052:Generated_Source\PSoC4/I2C_1_I2C_MASTER.c **** 
 160              		.loc 1 1052 0
 161 0054 0023     		movs	r3, #0
1099:Generated_Source\PSoC4/I2C_1_I2C_MASTER.c **** 
 162              		.loc 1 1099 0
 163 0056 0024     		movs	r4, #0
 164 0058 1FE0     		b	.L6
 165              	.L10:
1109:Generated_Source\PSoC4/I2C_1_I2C_MASTER.c ****             {
 166              		.loc 1 1109 0
 167 005a 164B     		ldr	r3, .L21+4
 168 005c 1B78     		ldrb	r3, [r3]
 169 005e 1B07     		lsls	r3, r3, #28
 170 0060 19D5     		bpl	.L19
1112:Generated_Source\PSoC4/I2C_1_I2C_MASTER.c ****                                           I2C_1_I2C_FSM_MSTR_RD_DATA : I2C_1_I2C_FSM_MSTR_WR_DATA;
 171              		.loc 1 1112 0
 172 0062 144B     		ldr	r3, .L21+4
 173 0064 1B78     		ldrb	r3, [r3]
 174 0066 DB07     		lsls	r3, r3, #31
 175 0068 01D5     		bpl	.L20
 176 006a 2522     		movs	r2, #37
 177 006c 00E0     		b	.L11
 178              	.L20:
 179 006e 2422     		movs	r2, #36
 180              	.L11:
1112:Generated_Source\PSoC4/I2C_1_I2C_MASTER.c ****                                           I2C_1_I2C_FSM_MSTR_RD_DATA : I2C_1_I2C_FSM_MSTR_WR_DATA;
 181              		.loc 1 1112 0 is_stmt 0 discriminator 4
ARM GAS  C:\Users\austc\AppData\Local\Temp\cciIEsvk.s 			page 25


 182 0070 104B     		ldr	r3, .L21+4
 183 0072 1A70     		strb	r2, [r3]
1052:Generated_Source\PSoC4/I2C_1_I2C_MASTER.c **** 
 184              		.loc 1 1052 0 is_stmt 1 discriminator 4
 185 0074 0023     		movs	r3, #0
1099:Generated_Source\PSoC4/I2C_1_I2C_MASTER.c **** 
 186              		.loc 1 1099 0 discriminator 4
 187 0076 0024     		movs	r4, #0
 188 0078 0FE0     		b	.L6
 189              	.LVL16:
 190              	.L14:
1057:Generated_Source\PSoC4/I2C_1_I2C_MASTER.c ****     }
 191              		.loc 1 1057 0
 192 007a 0123     		movs	r3, #1
1056:Generated_Source\PSoC4/I2C_1_I2C_MASTER.c ****         resetBlock = I2C_1_I2C_RESET_ERROR;
 193              		.loc 1 1056 0
 194 007c 8024     		movs	r4, #128
 195 007e 2406     		lsls	r4, r4, #24
 196 0080 0BE0     		b	.L6
 197              	.LVL17:
 198              	.L15:
1085:Generated_Source\PSoC4/I2C_1_I2C_MASTER.c ****         }
 199              		.loc 1 1085 0
 200 0082 0123     		movs	r3, #1
1070:Generated_Source\PSoC4/I2C_1_I2C_MASTER.c **** 
 201              		.loc 1 1070 0
 202 0084 0124     		movs	r4, #1
 203 0086 08E0     		b	.L6
 204              	.LVL18:
 205              	.L17:
1091:Generated_Source\PSoC4/I2C_1_I2C_MASTER.c ****     }
 206              		.loc 1 1091 0
 207 0088 0123     		movs	r3, #1
1090:Generated_Source\PSoC4/I2C_1_I2C_MASTER.c ****         resetBlock = I2C_1_I2C_RESET_ERROR;
 208              		.loc 1 1090 0
 209 008a 8024     		movs	r4, #128
 210 008c 6400     		lsls	r4, r4, #1
 211 008e 04E0     		b	.L6
 212              	.L18:
1052:Generated_Source\PSoC4/I2C_1_I2C_MASTER.c **** 
 213              		.loc 1 1052 0
 214 0090 0023     		movs	r3, #0
1095:Generated_Source\PSoC4/I2C_1_I2C_MASTER.c ****     }
 215              		.loc 1 1095 0
 216 0092 0224     		movs	r4, #2
 217 0094 01E0     		b	.L6
 218              	.LVL19:
 219              	.L19:
1052:Generated_Source\PSoC4/I2C_1_I2C_MASTER.c **** 
 220              		.loc 1 1052 0
 221 0096 0023     		movs	r3, #0
1099:Generated_Source\PSoC4/I2C_1_I2C_MASTER.c **** 
 222              		.loc 1 1099 0
 223 0098 0024     		movs	r4, #0
 224              	.LVL20:
 225              	.L6:
1118:Generated_Source\PSoC4/I2C_1_I2C_MASTER.c ****     {
ARM GAS  C:\Users\austc\AppData\Local\Temp\cciIEsvk.s 			page 26


 226              		.loc 1 1118 0
 227 009a 012B     		cmp	r3, #1
 228 009c 02D1     		bne	.L12
1120:Generated_Source\PSoC4/I2C_1_I2C_MASTER.c ****     }
 229              		.loc 1 1120 0
 230 009e FFF7FEFF 		bl	I2C_1_I2CFwBlockReset
 231              	.LVL21:
 232 00a2 02E0     		b	.L13
 233              	.LVL22:
 234              	.L12:
1124:Generated_Source\PSoC4/I2C_1_I2C_MASTER.c ****     }
 235              		.loc 1 1124 0
 236 00a4 054A     		ldr	r2, .L21+12
 237 00a6 064B     		ldr	r3, .L21+16
 238              	.LVL23:
 239 00a8 1A60     		str	r2, [r3]
 240              	.LVL24:
 241              	.L13:
1128:Generated_Source\PSoC4/I2C_1_I2C_MASTER.c **** 
 242              		.loc 1 1128 0
 243 00aa 2000     		movs	r0, r4
 244              		@ sp needed
 245              	.LVL25:
 246 00ac 10BD     		pop	{r4, pc}
 247              	.L22:
 248 00ae C046     		.align	2
 249              	.L21:
 250 00b0 68002440 		.word	1076101224
 251 00b4 00000000 		.word	I2C_1_state
 252 00b8 60002440 		.word	1076101216
 253 00bc 17030000 		.word	791
 254 00c0 000F2440 		.word	1076104960
 255              		.cfi_endproc
 256              	.LFE15:
 257              		.size	I2C_1_I2CMasterHandleStatus, .-I2C_1_I2CMasterHandleStatus
 258              		.section	.text.I2C_1_I2CMasterSendStart,"ax",%progbits
 259              		.align	2
 260              		.global	I2C_1_I2CMasterSendStart
 261              		.code	16
 262              		.thumb_func
 263              		.type	I2C_1_I2CMasterSendStart, %function
 264              	I2C_1_I2CMasterSendStart:
 265              	.LFB3:
 346:Generated_Source\PSoC4/I2C_1_I2C_MASTER.c ****     uint32 errStatus = I2C_1_I2C_MSTR_NOT_READY;
 266              		.loc 1 346 0
 267              		.cfi_startproc
 268              		@ args = 0, pretend = 0, frame = 8
 269              		@ frame_needed = 0, uses_anonymous_args = 0
 270              	.LVL26:
 271 0000 70B5     		push	{r4, r5, r6, lr}
 272              		.cfi_def_cfa_offset 16
 273              		.cfi_offset 4, -16
 274              		.cfi_offset 5, -12
 275              		.cfi_offset 6, -8
 276              		.cfi_offset 14, -4
 277 0002 82B0     		sub	sp, sp, #8
 278              		.cfi_def_cfa_offset 24
ARM GAS  C:\Users\austc\AppData\Local\Temp\cciIEsvk.s 			page 27


 279 0004 0400     		movs	r4, r0
 280 0006 0D00     		movs	r5, r1
 281 0008 1600     		movs	r6, r2
 282              	.LVL27:
 349:Generated_Source\PSoC4/I2C_1_I2C_MASTER.c ****     {
 283              		.loc 1 349 0
 284 000a 244B     		ldr	r3, .L31
 285 000c 1B78     		ldrb	r3, [r3]
 286 000e 102B     		cmp	r3, #16
 287 0010 40D1     		bne	.L29
 351:Generated_Source\PSoC4/I2C_1_I2C_MASTER.c **** 
 288              		.loc 1 351 0
 289 0012 0920     		movs	r0, #9
 290              	.LVL28:
 291 0014 FFF7FEFF 		bl	CyIntDisable
 292              	.LVL29:
 353:Generated_Source\PSoC4/I2C_1_I2C_MASTER.c ****         {
 293              		.loc 1 353 0
 294 0018 214B     		ldr	r3, .L31+4
 295 001a 1B68     		ldr	r3, [r3]
 296 001c DB07     		lsls	r3, r3, #31
 297 001e 34D4     		bmi	.L30
 298              	.LBB2:
 360:Generated_Source\PSoC4/I2C_1_I2C_MASTER.c **** 
 299              		.loc 1 360 0
 300 0020 FA23     		movs	r3, #250
 301 0022 9B00     		lsls	r3, r3, #2
 302 0024 5E43     		muls	r6, r3
 303              	.LVL30:
 304 0026 0196     		str	r6, [sp, #4]
 366:Generated_Source\PSoC4/I2C_1_I2C_MASTER.c ****             I2C_1_ClearMasterInterruptSource(I2C_1_INTR_MASTER_ALL);
 305              		.loc 1 366 0
 306 0028 0022     		movs	r2, #0
 307 002a 1E4B     		ldr	r3, .L31+8
 308 002c 1A60     		str	r2, [r3]
 367:Generated_Source\PSoC4/I2C_1_I2C_MASTER.c ****             I2C_1_ClearRxInterruptSource    (I2C_1_INTR_RX_ALL);
 309              		.loc 1 367 0
 310 002e 1E4A     		ldr	r2, .L31+12
 311 0030 1E4B     		ldr	r3, .L31+16
 312 0032 1A60     		str	r2, [r3]
 368:Generated_Source\PSoC4/I2C_1_I2C_MASTER.c **** 
 313              		.loc 1 368 0
 314 0034 1E4A     		ldr	r2, .L31+20
 315 0036 1F4B     		ldr	r3, .L31+24
 316 0038 1A60     		str	r2, [r3]
 370:Generated_Source\PSoC4/I2C_1_I2C_MASTER.c **** 
 317              		.loc 1 370 0
 318 003a 6400     		lsls	r4, r4, #1
 319              	.LVL31:
 320 003c FF23     		movs	r3, #255
 321 003e 1C40     		ands	r4, r3
 322              	.LVL32:
 372:Generated_Source\PSoC4/I2C_1_I2C_MASTER.c ****             {
 323              		.loc 1 372 0
 324 0040 002D     		cmp	r5, #0
 325 0042 03D1     		bne	.L26
 374:Generated_Source\PSoC4/I2C_1_I2C_MASTER.c ****             }
ARM GAS  C:\Users\austc\AppData\Local\Temp\cciIEsvk.s 			page 28


 326              		.loc 1 374 0
 327 0044 2422     		movs	r2, #36
 328 0046 154B     		ldr	r3, .L31
 329 0048 1A70     		strb	r2, [r3]
 330 004a 04E0     		b	.L27
 331              	.L26:
 378:Generated_Source\PSoC4/I2C_1_I2C_MASTER.c ****                          slaveAddress |= I2C_1_I2C_READ_FLAG;
 332              		.loc 1 378 0
 333 004c 2522     		movs	r2, #37
 334 004e 134B     		ldr	r3, .L31
 335 0050 1A70     		strb	r2, [r3]
 379:Generated_Source\PSoC4/I2C_1_I2C_MASTER.c ****             }
 336              		.loc 1 379 0
 337 0052 0123     		movs	r3, #1
 338 0054 1C43     		orrs	r4, r3
 339              	.LVL33:
 340              	.L27:
 385:Generated_Source\PSoC4/I2C_1_I2C_MASTER.c ****             I2C_1_I2C_MASTER_GENERATE_START;
 341              		.loc 1 385 0
 342 0056 184B     		ldr	r3, .L31+28
 343 0058 1C60     		str	r4, [r3]
 386:Generated_Source\PSoC4/I2C_1_I2C_MASTER.c **** 
 344              		.loc 1 386 0
 345 005a 0222     		movs	r2, #2
 346 005c 174B     		ldr	r3, .L31+32
 347 005e 1A60     		str	r2, [r3]
 348              	.LVL34:
 349              	.L28:
 391:Generated_Source\PSoC4/I2C_1_I2C_MASTER.c ****                 locStatus |= I2C_1_GetSlaveInterruptSource() & I2C_1_SLAVE_INTR_I2C_ADDR;
 350              		.loc 1 391 0 discriminator 1
 351 0060 124B     		ldr	r3, .L31+16
 352 0062 1C68     		ldr	r4, [r3]
 353 0064 0823     		movs	r3, #8
 354 0066 FF33     		adds	r3, r3, #255
 355 0068 2000     		movs	r0, r4
 356 006a 1840     		ands	r0, r3
 357              	.LVL35:
 392:Generated_Source\PSoC4/I2C_1_I2C_MASTER.c ****                 locStatus |= I2C_1_I2CMasterWaitOneUnit(&timeout);
 358              		.loc 1 392 0 discriminator 1
 359 006c 144B     		ldr	r3, .L31+36
 360 006e 1B68     		ldr	r3, [r3]
 361 0070 C024     		movs	r4, #192
 362 0072 2340     		ands	r3, r4
 363 0074 1843     		orrs	r0, r3
 364              	.LVL36:
 365 0076 0400     		movs	r4, r0
 366              	.LVL37:
 393:Generated_Source\PSoC4/I2C_1_I2C_MASTER.c ****             }
 367              		.loc 1 393 0 discriminator 1
 368 0078 01A8     		add	r0, sp, #4
 369              	.LVL38:
 370 007a FFF7FEFF 		bl	I2C_1_I2CMasterWaitOneUnit
 371              	.LVL39:
 372 007e 2043     		orrs	r0, r4
 373              	.LVL40:
 395:Generated_Source\PSoC4/I2C_1_I2C_MASTER.c **** 
 374              		.loc 1 395 0 discriminator 1
ARM GAS  C:\Users\austc\AppData\Local\Temp\cciIEsvk.s 			page 29


 375 0080 EED0     		beq	.L28
 398:Generated_Source\PSoC4/I2C_1_I2C_MASTER.c ****         }
 376              		.loc 1 398 0
 377 0082 FFF7FEFF 		bl	I2C_1_I2CMasterHandleStatus
 378              	.LVL41:
 379 0086 0400     		movs	r4, r0
 380              	.LVL42:
 381 0088 00E0     		b	.L25
 382              	.LVL43:
 383              	.L30:
 384              	.LBE2:
 355:Generated_Source\PSoC4/I2C_1_I2C_MASTER.c ****         }
 385              		.loc 1 355 0
 386 008a 0824     		movs	r4, #8
 387              	.LVL44:
 388              	.L25:
 401:Generated_Source\PSoC4/I2C_1_I2C_MASTER.c ****     }
 389              		.loc 1 401 0
 390 008c 0920     		movs	r0, #9
 391 008e FFF7FEFF 		bl	CyIntEnable
 392              	.LVL45:
 393 0092 00E0     		b	.L24
 394              	.LVL46:
 395              	.L29:
 347:Generated_Source\PSoC4/I2C_1_I2C_MASTER.c **** 
 396              		.loc 1 347 0
 397 0094 0424     		movs	r4, #4
 398              	.LVL47:
 399              	.L24:
 405:Generated_Source\PSoC4/I2C_1_I2C_MASTER.c **** 
 400              		.loc 1 405 0
 401 0096 2000     		movs	r0, r4
 402 0098 02B0     		add	sp, sp, #8
 403              		@ sp needed
 404              	.LVL48:
 405              	.LVL49:
 406 009a 70BD     		pop	{r4, r5, r6, pc}
 407              	.L32:
 408              		.align	2
 409              	.L31:
 410 009c 00000000 		.word	I2C_1_state
 411 00a0 64002440 		.word	1076101220
 412 00a4 080F2440 		.word	1076104968
 413 00a8 17030000 		.word	791
 414 00ac 000F2440 		.word	1076104960
 415 00b0 ED0F0000 		.word	4077
 416 00b4 C00F2440 		.word	1076105152
 417 00b8 40022440 		.word	1076101696
 418 00bc 68002440 		.word	1076101224
 419 00c0 400F2440 		.word	1076105024
 420              		.cfi_endproc
 421              	.LFE3:
 422              		.size	I2C_1_I2CMasterSendStart, .-I2C_1_I2CMasterSendStart
 423              		.section	.text.I2C_1_I2CMasterSendStop,"ax",%progbits
 424              		.align	2
 425              		.global	I2C_1_I2CMasterSendStop
 426              		.code	16
ARM GAS  C:\Users\austc\AppData\Local\Temp\cciIEsvk.s 			page 30


 427              		.thumb_func
 428              		.type	I2C_1_I2CMasterSendStop, %function
 429              	I2C_1_I2CMasterSendStop:
 430              	.LFB5:
 524:Generated_Source\PSoC4/I2C_1_I2C_MASTER.c ****     uint32 errStatus = I2C_1_I2C_MSTR_NOT_READY;
 431              		.loc 1 524 0
 432              		.cfi_startproc
 433              		@ args = 0, pretend = 0, frame = 8
 434              		@ frame_needed = 0, uses_anonymous_args = 0
 435              	.LVL50:
 436 0000 10B5     		push	{r4, lr}
 437              		.cfi_def_cfa_offset 8
 438              		.cfi_offset 4, -8
 439              		.cfi_offset 14, -4
 440 0002 82B0     		sub	sp, sp, #8
 441              		.cfi_def_cfa_offset 16
 442              	.LVL51:
 528:Generated_Source\PSoC4/I2C_1_I2C_MASTER.c ****     {
 443              		.loc 1 528 0
 444 0004 104B     		ldr	r3, .L39
 445 0006 1B78     		ldrb	r3, [r3]
 446 0008 9B06     		lsls	r3, r3, #26
 447 000a 1AD5     		bpl	.L37
 448              	.LBB3:
 531:Generated_Source\PSoC4/I2C_1_I2C_MASTER.c **** 
 449              		.loc 1 531 0
 450 000c FA23     		movs	r3, #250
 451 000e 9B00     		lsls	r3, r3, #2
 452 0010 5843     		muls	r0, r3
 453              	.LVL52:
 454 0012 0190     		str	r0, [sp, #4]
 534:Generated_Source\PSoC4/I2C_1_I2C_MASTER.c **** 
 455              		.loc 1 534 0
 456 0014 0D4B     		ldr	r3, .L39+4
 457 0016 1B68     		ldr	r3, [r3]
 458 0018 9B06     		lsls	r3, r3, #26
 459 001a 01D5     		bpl	.L38
 460 001c 1822     		movs	r2, #24
 461 001e 00E0     		b	.L35
 462              	.L38:
 463 0020 1022     		movs	r2, #16
 464              	.L35:
 534:Generated_Source\PSoC4/I2C_1_I2C_MASTER.c **** 
 465              		.loc 1 534 0 is_stmt 0 discriminator 4
 466 0022 0B4B     		ldr	r3, .L39+8
 467 0024 1A60     		str	r2, [r3]
 468              	.L36:
 539:Generated_Source\PSoC4/I2C_1_I2C_MASTER.c ****             locStatus |= I2C_1_I2CMasterWaitOneUnit(&timeout);
 469              		.loc 1 539 0 is_stmt 1 discriminator 1
 470 0026 0B4B     		ldr	r3, .L39+12
 471 0028 1868     		ldr	r0, [r3]
 472 002a 1223     		movs	r3, #18
 473 002c FF33     		adds	r3, r3, #255
 474 002e 1840     		ands	r0, r3
 475 0030 0400     		movs	r4, r0
 476              	.LVL53:
 540:Generated_Source\PSoC4/I2C_1_I2C_MASTER.c ****         }
ARM GAS  C:\Users\austc\AppData\Local\Temp\cciIEsvk.s 			page 31


 477              		.loc 1 540 0 discriminator 1
 478 0032 01A8     		add	r0, sp, #4
 479              	.LVL54:
 480 0034 FFF7FEFF 		bl	I2C_1_I2CMasterWaitOneUnit
 481              	.LVL55:
 482 0038 2043     		orrs	r0, r4
 483              	.LVL56:
 542:Generated_Source\PSoC4/I2C_1_I2C_MASTER.c **** 
 484              		.loc 1 542 0 discriminator 1
 485 003a F4D0     		beq	.L36
 545:Generated_Source\PSoC4/I2C_1_I2C_MASTER.c ****     }
 486              		.loc 1 545 0
 487 003c FFF7FEFF 		bl	I2C_1_I2CMasterHandleStatus
 488              	.LVL57:
 489 0040 00E0     		b	.L34
 490              	.LVL58:
 491              	.L37:
 492              	.LBE3:
 525:Generated_Source\PSoC4/I2C_1_I2C_MASTER.c **** 
 493              		.loc 1 525 0
 494 0042 0420     		movs	r0, #4
 495              	.LVL59:
 496              	.L34:
 549:Generated_Source\PSoC4/I2C_1_I2C_MASTER.c **** 
 497              		.loc 1 549 0
 498 0044 02B0     		add	sp, sp, #8
 499              		@ sp needed
 500 0046 10BD     		pop	{r4, pc}
 501              	.L40:
 502              		.align	2
 503              	.L39:
 504 0048 00000000 		.word	I2C_1_state
 505 004c 64002440 		.word	1076101220
 506 0050 68002440 		.word	1076101224
 507 0054 000F2440 		.word	1076104960
 508              		.cfi_endproc
 509              	.LFE5:
 510              		.size	I2C_1_I2CMasterSendStop, .-I2C_1_I2CMasterSendStop
 511              		.section	.text.I2C_1_I2CMasterWriteByte,"ax",%progbits
 512              		.align	2
 513              		.global	I2C_1_I2CMasterWriteByte
 514              		.code	16
 515              		.thumb_func
 516              		.type	I2C_1_I2CMasterWriteByte, %function
 517              	I2C_1_I2CMasterWriteByte:
 518              	.LFB6:
 583:Generated_Source\PSoC4/I2C_1_I2C_MASTER.c ****     uint32 errStatus = I2C_1_I2C_MSTR_NOT_READY;
 519              		.loc 1 583 0
 520              		.cfi_startproc
 521              		@ args = 0, pretend = 0, frame = 8
 522              		@ frame_needed = 0, uses_anonymous_args = 0
 523              	.LVL60:
 524 0000 10B5     		push	{r4, lr}
 525              		.cfi_def_cfa_offset 8
 526              		.cfi_offset 4, -8
 527              		.cfi_offset 14, -4
 528 0002 82B0     		sub	sp, sp, #8
ARM GAS  C:\Users\austc\AppData\Local\Temp\cciIEsvk.s 			page 32


 529              		.cfi_def_cfa_offset 16
 530              	.LVL61:
 587:Generated_Source\PSoC4/I2C_1_I2C_MASTER.c ****     {
 531              		.loc 1 587 0
 532 0004 0D4B     		ldr	r3, .L45
 533 0006 1B78     		ldrb	r3, [r3]
 534 0008 9B06     		lsls	r3, r3, #26
 535 000a 13D5     		bpl	.L44
 536              	.LBB4:
 590:Generated_Source\PSoC4/I2C_1_I2C_MASTER.c **** 
 537              		.loc 1 590 0
 538 000c FA23     		movs	r3, #250
 539 000e 9B00     		lsls	r3, r3, #2
 540 0010 5943     		muls	r1, r3
 541              	.LVL62:
 542 0012 0191     		str	r1, [sp, #4]
 592:Generated_Source\PSoC4/I2C_1_I2C_MASTER.c **** 
 543              		.loc 1 592 0
 544 0014 0A4B     		ldr	r3, .L45+4
 545 0016 1860     		str	r0, [r3]
 546              	.LVL63:
 547              	.L43:
 597:Generated_Source\PSoC4/I2C_1_I2C_MASTER.c ****             locStatus |= I2C_1_I2CMasterWaitOneUnit(&timeout);
 548              		.loc 1 597 0 discriminator 1
 549 0018 0A4B     		ldr	r3, .L45+8
 550 001a 1868     		ldr	r0, [r3]
 551 001c 0823     		movs	r3, #8
 552 001e FF33     		adds	r3, r3, #255
 553 0020 1840     		ands	r0, r3
 554 0022 0400     		movs	r4, r0
 555              	.LVL64:
 598:Generated_Source\PSoC4/I2C_1_I2C_MASTER.c ****         }
 556              		.loc 1 598 0 discriminator 1
 557 0024 01A8     		add	r0, sp, #4
 558              	.LVL65:
 559 0026 FFF7FEFF 		bl	I2C_1_I2CMasterWaitOneUnit
 560              	.LVL66:
 561 002a 2043     		orrs	r0, r4
 562              	.LVL67:
 600:Generated_Source\PSoC4/I2C_1_I2C_MASTER.c **** 
 563              		.loc 1 600 0 discriminator 1
 564 002c F4D0     		beq	.L43
 603:Generated_Source\PSoC4/I2C_1_I2C_MASTER.c ****     }
 565              		.loc 1 603 0
 566 002e FFF7FEFF 		bl	I2C_1_I2CMasterHandleStatus
 567              	.LVL68:
 568 0032 00E0     		b	.L42
 569              	.LVL69:
 570              	.L44:
 571              	.LBE4:
 584:Generated_Source\PSoC4/I2C_1_I2C_MASTER.c **** 
 572              		.loc 1 584 0
 573 0034 0420     		movs	r0, #4
 574              	.LVL70:
 575              	.L42:
 607:Generated_Source\PSoC4/I2C_1_I2C_MASTER.c **** 
 576              		.loc 1 607 0
ARM GAS  C:\Users\austc\AppData\Local\Temp\cciIEsvk.s 			page 33


 577 0036 02B0     		add	sp, sp, #8
 578              		@ sp needed
 579 0038 10BD     		pop	{r4, pc}
 580              	.L46:
 581 003a C046     		.align	2
 582              	.L45:
 583 003c 00000000 		.word	I2C_1_state
 584 0040 40022440 		.word	1076101696
 585 0044 000F2440 		.word	1076104960
 586              		.cfi_endproc
 587              	.LFE6:
 588              		.size	I2C_1_I2CMasterWriteByte, .-I2C_1_I2CMasterWriteByte
 589              		.section	.text.I2C_1_I2CMasterReadByte,"ax",%progbits
 590              		.align	2
 591              		.global	I2C_1_I2CMasterReadByte
 592              		.code	16
 593              		.thumb_func
 594              		.type	I2C_1_I2CMasterReadByte, %function
 595              	I2C_1_I2CMasterReadByte:
 596              	.LFB7:
 654:Generated_Source\PSoC4/I2C_1_I2C_MASTER.c ****     uint32 errStatus = I2C_1_I2C_MSTR_NOT_READY;
 597              		.loc 1 654 0
 598              		.cfi_startproc
 599              		@ args = 0, pretend = 0, frame = 8
 600              		@ frame_needed = 0, uses_anonymous_args = 0
 601              	.LVL71:
 602 0000 F0B5     		push	{r4, r5, r6, r7, lr}
 603              		.cfi_def_cfa_offset 20
 604              		.cfi_offset 4, -20
 605              		.cfi_offset 5, -16
 606              		.cfi_offset 6, -12
 607              		.cfi_offset 7, -8
 608              		.cfi_offset 14, -4
 609 0002 83B0     		sub	sp, sp, #12
 610              		.cfi_def_cfa_offset 32
 611 0004 0400     		movs	r4, r0
 612 0006 0D00     		movs	r5, r1
 613              	.LVL72:
 658:Generated_Source\PSoC4/I2C_1_I2C_MASTER.c ****     {
 614              		.loc 1 658 0
 615 0008 164B     		ldr	r3, .L53
 616 000a 1B78     		ldrb	r3, [r3]
 617 000c 9B06     		lsls	r3, r3, #26
 618 000e 26D5     		bpl	.L52
 619              	.LBB5:
 662:Generated_Source\PSoC4/I2C_1_I2C_MASTER.c **** 
 620              		.loc 1 662 0
 621 0010 FA23     		movs	r3, #250
 622 0012 9B00     		lsls	r3, r3, #2
 623 0014 5A43     		muls	r2, r3
 624              	.LVL73:
 625 0016 0192     		str	r2, [sp, #4]
 626              	.LVL74:
 627              	.L49:
 667:Generated_Source\PSoC4/I2C_1_I2C_MASTER.c ****             rxNotEmpty = I2C_1_GetRxInterruptSource() & I2C_1_INTR_RX_NOT_EMPTY;
 628              		.loc 1 667 0 discriminator 1
 629 0018 134B     		ldr	r3, .L53+4
ARM GAS  C:\Users\austc\AppData\Local\Temp\cciIEsvk.s 			page 34


 630 001a 1868     		ldr	r0, [r3]
 631 001c 0223     		movs	r3, #2
 632 001e FF33     		adds	r3, r3, #255
 633 0020 1840     		ands	r0, r3
 634 0022 0700     		movs	r7, r0
 635              	.LVL75:
 668:Generated_Source\PSoC4/I2C_1_I2C_MASTER.c ****             locStatus |= I2C_1_I2CMasterWaitOneUnit(&timeout);
 636              		.loc 1 668 0 discriminator 1
 637 0024 114B     		ldr	r3, .L53+8
 638 0026 1B68     		ldr	r3, [r3]
 639 0028 0426     		movs	r6, #4
 640 002a 1E40     		ands	r6, r3
 641              	.LVL76:
 669:Generated_Source\PSoC4/I2C_1_I2C_MASTER.c ****         }
 642              		.loc 1 669 0 discriminator 1
 643 002c 01A8     		add	r0, sp, #4
 644              	.LVL77:
 645 002e FFF7FEFF 		bl	I2C_1_I2CMasterWaitOneUnit
 646              	.LVL78:
 647 0032 3843     		orrs	r0, r7
 648              	.LVL79:
 671:Generated_Source\PSoC4/I2C_1_I2C_MASTER.c **** 
 649              		.loc 1 671 0 discriminator 1
 650 0034 3300     		movs	r3, r6
 651 0036 0343     		orrs	r3, r0
 652 0038 EED0     		beq	.L49
 674:Generated_Source\PSoC4/I2C_1_I2C_MASTER.c ****         {
 653              		.loc 1 674 0
 654 003a 002E     		cmp	r6, #0
 655 003c 05D0     		beq	.L50
 676:Generated_Source\PSoC4/I2C_1_I2C_MASTER.c ****             I2C_1_ClearRxInterruptSource(I2C_1_INTR_RX_ALL);
 656              		.loc 1 676 0
 657 003e 0C4B     		ldr	r3, .L53+12
 658 0040 1B68     		ldr	r3, [r3]
 659 0042 2B70     		strb	r3, [r5]
 677:Generated_Source\PSoC4/I2C_1_I2C_MASTER.c ****         }
 660              		.loc 1 677 0
 661 0044 0B4A     		ldr	r2, .L53+16
 662 0046 094B     		ldr	r3, .L53+8
 663 0048 1A60     		str	r2, [r3]
 664              	.L50:
 681:Generated_Source\PSoC4/I2C_1_I2C_MASTER.c **** 
 665              		.loc 1 681 0
 666 004a FFF7FEFF 		bl	I2C_1_I2CMasterHandleStatus
 667              	.LVL80:
 683:Generated_Source\PSoC4/I2C_1_I2C_MASTER.c ****         {
 668              		.loc 1 683 0
 669 004e 0028     		cmp	r0, #0
 670 0050 06D1     		bne	.L48
 685:Generated_Source\PSoC4/I2C_1_I2C_MASTER.c ****             {
 671              		.loc 1 685 0
 672 0052 002C     		cmp	r4, #0
 673 0054 04D1     		bne	.L48
 687:Generated_Source\PSoC4/I2C_1_I2C_MASTER.c ****             }
 674              		.loc 1 687 0
 675 0056 0422     		movs	r2, #4
 676 0058 074B     		ldr	r3, .L53+20
ARM GAS  C:\Users\austc\AppData\Local\Temp\cciIEsvk.s 			page 35


 677 005a 1A60     		str	r2, [r3]
 678 005c 00E0     		b	.L48
 679              	.LVL81:
 680              	.L52:
 681              	.LBE5:
 655:Generated_Source\PSoC4/I2C_1_I2C_MASTER.c **** 
 682              		.loc 1 655 0
 683 005e 0420     		movs	r0, #4
 684              	.LVL82:
 685              	.L48:
 697:Generated_Source\PSoC4/I2C_1_I2C_MASTER.c **** 
 686              		.loc 1 697 0
 687 0060 03B0     		add	sp, sp, #12
 688              		@ sp needed
 689              	.LVL83:
 690              	.LVL84:
 691 0062 F0BD     		pop	{r4, r5, r6, r7, pc}
 692              	.L54:
 693              		.align	2
 694              	.L53:
 695 0064 00000000 		.word	I2C_1_state
 696 0068 000F2440 		.word	1076104960
 697 006c C00F2440 		.word	1076105152
 698 0070 40032440 		.word	1076101952
 699 0074 ED0F0000 		.word	4077
 700 0078 68002440 		.word	1076101224
 701              		.cfi_endproc
 702              	.LFE7:
 703              		.size	I2C_1_I2CMasterReadByte, .-I2C_1_I2CMasterReadByte
 704              		.section	.text.I2C_1_I2CMasterGetReadBufSize,"ax",%progbits
 705              		.align	2
 706              		.global	I2C_1_I2CMasterGetReadBufSize
 707              		.code	16
 708              		.thumb_func
 709              		.type	I2C_1_I2CMasterGetReadBufSize, %function
 710              	I2C_1_I2CMasterGetReadBufSize:
 711              	.LFB8:
 722:Generated_Source\PSoC4/I2C_1_I2C_MASTER.c ****     return(I2C_1_mstrRdBufIndex);
 712              		.loc 1 722 0
 713              		.cfi_startproc
 714              		@ args = 0, pretend = 0, frame = 0
 715              		@ frame_needed = 0, uses_anonymous_args = 0
 716              		@ link register save eliminated.
 723:Generated_Source\PSoC4/I2C_1_I2C_MASTER.c **** }
 717              		.loc 1 723 0
 718 0000 014B     		ldr	r3, .L56
 719 0002 1868     		ldr	r0, [r3]
 724:Generated_Source\PSoC4/I2C_1_I2C_MASTER.c **** 
 720              		.loc 1 724 0
 721              		@ sp needed
 722 0004 7047     		bx	lr
 723              	.L57:
 724 0006 C046     		.align	2
 725              	.L56:
 726 0008 00000000 		.word	I2C_1_mstrRdBufIndex
 727              		.cfi_endproc
 728              	.LFE8:
ARM GAS  C:\Users\austc\AppData\Local\Temp\cciIEsvk.s 			page 36


 729              		.size	I2C_1_I2CMasterGetReadBufSize, .-I2C_1_I2CMasterGetReadBufSize
 730              		.section	.text.I2C_1_I2CMasterGetWriteBufSize,"ax",%progbits
 731              		.align	2
 732              		.global	I2C_1_I2CMasterGetWriteBufSize
 733              		.code	16
 734              		.thumb_func
 735              		.type	I2C_1_I2CMasterGetWriteBufSize, %function
 736              	I2C_1_I2CMasterGetWriteBufSize:
 737              	.LFB9:
 749:Generated_Source\PSoC4/I2C_1_I2C_MASTER.c ****     return(I2C_1_mstrWrBufIndex);
 738              		.loc 1 749 0
 739              		.cfi_startproc
 740              		@ args = 0, pretend = 0, frame = 0
 741              		@ frame_needed = 0, uses_anonymous_args = 0
 742              		@ link register save eliminated.
 750:Generated_Source\PSoC4/I2C_1_I2C_MASTER.c **** }
 743              		.loc 1 750 0
 744 0000 014B     		ldr	r3, .L59
 745 0002 1868     		ldr	r0, [r3]
 751:Generated_Source\PSoC4/I2C_1_I2C_MASTER.c **** 
 746              		.loc 1 751 0
 747              		@ sp needed
 748 0004 7047     		bx	lr
 749              	.L60:
 750 0006 C046     		.align	2
 751              	.L59:
 752 0008 00000000 		.word	I2C_1_mstrWrBufIndex
 753              		.cfi_endproc
 754              	.LFE9:
 755              		.size	I2C_1_I2CMasterGetWriteBufSize, .-I2C_1_I2CMasterGetWriteBufSize
 756              		.section	.text.I2C_1_I2CMasterClearReadBuf,"ax",%progbits
 757              		.align	2
 758              		.global	I2C_1_I2CMasterClearReadBuf
 759              		.code	16
 760              		.thumb_func
 761              		.type	I2C_1_I2CMasterClearReadBuf, %function
 762              	I2C_1_I2CMasterClearReadBuf:
 763              	.LFB10:
 767:Generated_Source\PSoC4/I2C_1_I2C_MASTER.c ****     I2C_1_DisableInt();  /* Lock from interruption */
 764              		.loc 1 767 0
 765              		.cfi_startproc
 766              		@ args = 0, pretend = 0, frame = 0
 767              		@ frame_needed = 0, uses_anonymous_args = 0
 768 0000 10B5     		push	{r4, lr}
 769              		.cfi_def_cfa_offset 8
 770              		.cfi_offset 4, -8
 771              		.cfi_offset 14, -4
 768:Generated_Source\PSoC4/I2C_1_I2C_MASTER.c **** 
 772              		.loc 1 768 0
 773 0002 0920     		movs	r0, #9
 774 0004 FFF7FEFF 		bl	CyIntDisable
 775              	.LVL85:
 770:Generated_Source\PSoC4/I2C_1_I2C_MASTER.c ****     I2C_1_mstrStatus    &= (uint16) ~I2C_1_I2C_MSTAT_RD_CMPLT;
 776              		.loc 1 770 0
 777 0008 0022     		movs	r2, #0
 778 000a 054B     		ldr	r3, .L62
 779 000c 1A60     		str	r2, [r3]
ARM GAS  C:\Users\austc\AppData\Local\Temp\cciIEsvk.s 			page 37


 771:Generated_Source\PSoC4/I2C_1_I2C_MASTER.c **** 
 780              		.loc 1 771 0
 781 000e 054A     		ldr	r2, .L62+4
 782 0010 1388     		ldrh	r3, [r2]
 783 0012 0121     		movs	r1, #1
 784 0014 8B43     		bics	r3, r1
 785 0016 1380     		strh	r3, [r2]
 773:Generated_Source\PSoC4/I2C_1_I2C_MASTER.c **** }
 786              		.loc 1 773 0
 787 0018 0920     		movs	r0, #9
 788 001a FFF7FEFF 		bl	CyIntEnable
 789              	.LVL86:
 774:Generated_Source\PSoC4/I2C_1_I2C_MASTER.c **** 
 790              		.loc 1 774 0
 791              		@ sp needed
 792 001e 10BD     		pop	{r4, pc}
 793              	.L63:
 794              		.align	2
 795              	.L62:
 796 0020 00000000 		.word	I2C_1_mstrRdBufIndex
 797 0024 00000000 		.word	I2C_1_mstrStatus
 798              		.cfi_endproc
 799              	.LFE10:
 800              		.size	I2C_1_I2CMasterClearReadBuf, .-I2C_1_I2CMasterClearReadBuf
 801              		.section	.text.I2C_1_I2CMasterClearWriteBuf,"ax",%progbits
 802              		.align	2
 803              		.global	I2C_1_I2CMasterClearWriteBuf
 804              		.code	16
 805              		.thumb_func
 806              		.type	I2C_1_I2CMasterClearWriteBuf, %function
 807              	I2C_1_I2CMasterClearWriteBuf:
 808              	.LFB11:
 790:Generated_Source\PSoC4/I2C_1_I2C_MASTER.c ****     I2C_1_DisableInt();  /* Lock from interruption */
 809              		.loc 1 790 0
 810              		.cfi_startproc
 811              		@ args = 0, pretend = 0, frame = 0
 812              		@ frame_needed = 0, uses_anonymous_args = 0
 813 0000 10B5     		push	{r4, lr}
 814              		.cfi_def_cfa_offset 8
 815              		.cfi_offset 4, -8
 816              		.cfi_offset 14, -4
 791:Generated_Source\PSoC4/I2C_1_I2C_MASTER.c **** 
 817              		.loc 1 791 0
 818 0002 0920     		movs	r0, #9
 819 0004 FFF7FEFF 		bl	CyIntDisable
 820              	.LVL87:
 793:Generated_Source\PSoC4/I2C_1_I2C_MASTER.c ****     I2C_1_mstrStatus    &= (uint16) ~I2C_1_I2C_MSTAT_WR_CMPLT;
 821              		.loc 1 793 0
 822 0008 0022     		movs	r2, #0
 823 000a 054B     		ldr	r3, .L65
 824 000c 1A60     		str	r2, [r3]
 794:Generated_Source\PSoC4/I2C_1_I2C_MASTER.c **** 
 825              		.loc 1 794 0
 826 000e 054A     		ldr	r2, .L65+4
 827 0010 1388     		ldrh	r3, [r2]
 828 0012 0221     		movs	r1, #2
 829 0014 8B43     		bics	r3, r1
ARM GAS  C:\Users\austc\AppData\Local\Temp\cciIEsvk.s 			page 38


 830 0016 1380     		strh	r3, [r2]
 796:Generated_Source\PSoC4/I2C_1_I2C_MASTER.c **** }
 831              		.loc 1 796 0
 832 0018 0920     		movs	r0, #9
 833 001a FFF7FEFF 		bl	CyIntEnable
 834              	.LVL88:
 797:Generated_Source\PSoC4/I2C_1_I2C_MASTER.c **** 
 835              		.loc 1 797 0
 836              		@ sp needed
 837 001e 10BD     		pop	{r4, pc}
 838              	.L66:
 839              		.align	2
 840              	.L65:
 841 0020 00000000 		.word	I2C_1_mstrWrBufIndex
 842 0024 00000000 		.word	I2C_1_mstrStatus
 843              		.cfi_endproc
 844              	.LFE11:
 845              		.size	I2C_1_I2CMasterClearWriteBuf, .-I2C_1_I2CMasterClearWriteBuf
 846              		.section	.text.I2C_1_I2CMasterStatus,"ax",%progbits
 847              		.align	2
 848              		.global	I2C_1_I2CMasterStatus
 849              		.code	16
 850              		.thumb_func
 851              		.type	I2C_1_I2CMasterStatus, %function
 852              	I2C_1_I2CMasterStatus:
 853              	.LFB12:
 842:Generated_Source\PSoC4/I2C_1_I2C_MASTER.c ****     uint32 status;
 854              		.loc 1 842 0
 855              		.cfi_startproc
 856              		@ args = 0, pretend = 0, frame = 0
 857              		@ frame_needed = 0, uses_anonymous_args = 0
 858 0000 10B5     		push	{r4, lr}
 859              		.cfi_def_cfa_offset 8
 860              		.cfi_offset 4, -8
 861              		.cfi_offset 14, -4
 845:Generated_Source\PSoC4/I2C_1_I2C_MASTER.c **** 
 862              		.loc 1 845 0
 863 0002 0920     		movs	r0, #9
 864 0004 FFF7FEFF 		bl	CyIntDisable
 865              	.LVL89:
 847:Generated_Source\PSoC4/I2C_1_I2C_MASTER.c **** 
 866              		.loc 1 847 0
 867 0008 074B     		ldr	r3, .L69
 868 000a 1C88     		ldrh	r4, [r3]
 869 000c A2B2     		uxth	r2, r4
 870 000e 1400     		movs	r4, r2
 871              	.LVL90:
 849:Generated_Source\PSoC4/I2C_1_I2C_MASTER.c ****     {
 872              		.loc 1 849 0
 873 0010 064B     		ldr	r3, .L69+4
 874 0012 1B78     		ldrb	r3, [r3]
 875 0014 9B06     		lsls	r3, r3, #26
 876 0016 02D5     		bpl	.L68
 852:Generated_Source\PSoC4/I2C_1_I2C_MASTER.c ****     }
 877              		.loc 1 852 0
 878 0018 0423     		movs	r3, #4
 879 001a 1A43     		orrs	r2, r3
ARM GAS  C:\Users\austc\AppData\Local\Temp\cciIEsvk.s 			page 39


 880              	.LVL91:
 881 001c 94B2     		uxth	r4, r2
 882              	.LVL92:
 883              	.L68:
 855:Generated_Source\PSoC4/I2C_1_I2C_MASTER.c **** 
 884              		.loc 1 855 0
 885 001e 0920     		movs	r0, #9
 886 0020 FFF7FEFF 		bl	CyIntEnable
 887              	.LVL93:
 858:Generated_Source\PSoC4/I2C_1_I2C_MASTER.c **** 
 888              		.loc 1 858 0
 889 0024 2000     		movs	r0, r4
 890              		@ sp needed
 891              	.LVL94:
 892 0026 10BD     		pop	{r4, pc}
 893              	.L70:
 894              		.align	2
 895              	.L69:
 896 0028 00000000 		.word	I2C_1_mstrStatus
 897 002c 00000000 		.word	I2C_1_state
 898              		.cfi_endproc
 899              	.LFE12:
 900              		.size	I2C_1_I2CMasterStatus, .-I2C_1_I2CMasterStatus
 901              		.section	.text.I2C_1_I2CMasterClearStatus,"ax",%progbits
 902              		.align	2
 903              		.global	I2C_1_I2CMasterClearStatus
 904              		.code	16
 905              		.thumb_func
 906              		.type	I2C_1_I2CMasterClearStatus, %function
 907              	I2C_1_I2CMasterClearStatus:
 908              	.LFB13:
 876:Generated_Source\PSoC4/I2C_1_I2C_MASTER.c ****     uint32 status;
 909              		.loc 1 876 0
 910              		.cfi_startproc
 911              		@ args = 0, pretend = 0, frame = 0
 912              		@ frame_needed = 0, uses_anonymous_args = 0
 913 0000 10B5     		push	{r4, lr}
 914              		.cfi_def_cfa_offset 8
 915              		.cfi_offset 4, -8
 916              		.cfi_offset 14, -4
 879:Generated_Source\PSoC4/I2C_1_I2C_MASTER.c **** 
 917              		.loc 1 879 0
 918 0002 0920     		movs	r0, #9
 919 0004 FFF7FEFF 		bl	CyIntDisable
 920              	.LVL95:
 882:Generated_Source\PSoC4/I2C_1_I2C_MASTER.c ****     I2C_1_mstrStatus = I2C_1_I2C_MSTAT_CLEAR;
 921              		.loc 1 882 0
 922 0008 044B     		ldr	r3, .L72
 923 000a 1C88     		ldrh	r4, [r3]
 924 000c A4B2     		uxth	r4, r4
 925              	.LVL96:
 883:Generated_Source\PSoC4/I2C_1_I2C_MASTER.c **** 
 926              		.loc 1 883 0
 927 000e 0022     		movs	r2, #0
 928 0010 1A80     		strh	r2, [r3]
 885:Generated_Source\PSoC4/I2C_1_I2C_MASTER.c **** 
 929              		.loc 1 885 0
ARM GAS  C:\Users\austc\AppData\Local\Temp\cciIEsvk.s 			page 40


 930 0012 0920     		movs	r0, #9
 931 0014 FFF7FEFF 		bl	CyIntEnable
 932              	.LVL97:
 888:Generated_Source\PSoC4/I2C_1_I2C_MASTER.c **** 
 933              		.loc 1 888 0
 934 0018 2000     		movs	r0, r4
 935              		@ sp needed
 936              	.LVL98:
 937 001a 10BD     		pop	{r4, pc}
 938              	.L73:
 939              		.align	2
 940              	.L72:
 941 001c 00000000 		.word	I2C_1_mstrStatus
 942              		.cfi_endproc
 943              	.LFE13:
 944              		.size	I2C_1_I2CMasterClearStatus, .-I2C_1_I2CMasterClearStatus
 945              		.section	.text.I2C_1_I2CReStartGeneration,"ax",%progbits
 946              		.align	2
 947              		.global	I2C_1_I2CReStartGeneration
 948              		.code	16
 949              		.thumb_func
 950              		.type	I2C_1_I2CReStartGeneration, %function
 951              	I2C_1_I2CReStartGeneration:
 952              	.LFB14:
 920:Generated_Source\PSoC4/I2C_1_I2C_MASTER.c **** #if(I2C_1_CY_SCBIP_V0)
 953              		.loc 1 920 0
 954              		.cfi_startproc
 955              		@ args = 0, pretend = 0, frame = 0
 956              		@ frame_needed = 0, uses_anonymous_args = 0
 957              		@ link register save eliminated.
 958              	.LVL99:
 997:Generated_Source\PSoC4/I2C_1_I2C_MASTER.c ****                 (I2C_1_I2C_MASTER_CMD_M_NACK) : (0u);
 959              		.loc 1 997 0
 960 0000 054B     		ldr	r3, .L76
 961 0002 1B68     		ldr	r3, [r3]
 962 0004 2022     		movs	r2, #32
 963 0006 1340     		ands	r3, r2
 998:Generated_Source\PSoC4/I2C_1_I2C_MASTER.c **** 
 964              		.loc 1 998 0
 965 0008 00D0     		beq	.L75
 966 000a 0823     		movs	r3, #8
 967              	.L75:
 997:Generated_Source\PSoC4/I2C_1_I2C_MASTER.c ****                 (I2C_1_I2C_MASTER_CMD_M_NACK) : (0u);
 968              		.loc 1 997 0 discriminator 4
 969 000c 0122     		movs	r2, #1
 970 000e 1343     		orrs	r3, r2
 971              	.LVL100:
1000:Generated_Source\PSoC4/I2C_1_I2C_MASTER.c **** #endif /* (I2C_1_CY_SCBIP_V1) */
 972              		.loc 1 1000 0 discriminator 4
 973 0010 024A     		ldr	r2, .L76+4
 974 0012 1360     		str	r3, [r2]
1002:Generated_Source\PSoC4/I2C_1_I2C_MASTER.c **** 
 975              		.loc 1 1002 0 discriminator 4
 976              		@ sp needed
 977 0014 7047     		bx	lr
 978              	.L77:
 979 0016 C046     		.align	2
ARM GAS  C:\Users\austc\AppData\Local\Temp\cciIEsvk.s 			page 41


 980              	.L76:
 981 0018 64002440 		.word	1076101220
 982 001c 68002440 		.word	1076101224
 983              		.cfi_endproc
 984              	.LFE14:
 985              		.size	I2C_1_I2CReStartGeneration, .-I2C_1_I2CReStartGeneration
 986              		.section	.text.I2C_1_I2CMasterWriteBuf,"ax",%progbits
 987              		.align	2
 988              		.global	I2C_1_I2CMasterWriteBuf
 989              		.code	16
 990              		.thumb_func
 991              		.type	I2C_1_I2CMasterWriteBuf, %function
 992              	I2C_1_I2CMasterWriteBuf:
 993              	.LFB1:
 104:Generated_Source\PSoC4/I2C_1_I2C_MASTER.c ****     uint32 errStatus;
 994              		.loc 1 104 0
 995              		.cfi_startproc
 996              		@ args = 0, pretend = 0, frame = 8
 997              		@ frame_needed = 0, uses_anonymous_args = 0
 998              	.LVL101:
 999 0000 F0B5     		push	{r4, r5, r6, r7, lr}
 1000              		.cfi_def_cfa_offset 20
 1001              		.cfi_offset 4, -20
 1002              		.cfi_offset 5, -16
 1003              		.cfi_offset 6, -12
 1004              		.cfi_offset 7, -8
 1005              		.cfi_offset 14, -4
 1006 0002 83B0     		sub	sp, sp, #12
 1007              		.cfi_def_cfa_offset 32
 1008 0004 0190     		str	r0, [sp, #4]
 1009 0006 0C00     		movs	r4, r1
 1010 0008 1700     		movs	r7, r2
 1011 000a 1D00     		movs	r5, r3
 1012              	.LVL102:
 109:Generated_Source\PSoC4/I2C_1_I2C_MASTER.c ****     {
 1013              		.loc 1 109 0
 1014 000c 0029     		cmp	r1, #0
 1015 000e 17D0     		beq	.L83
 112:Generated_Source\PSoC4/I2C_1_I2C_MASTER.c ****         {
 1016              		.loc 1 112 0
 1017 0010 2A4B     		ldr	r3, .L86
 1018              	.LVL103:
 1019 0012 1B78     		ldrb	r3, [r3]
 1020 0014 102B     		cmp	r3, #16
 1021 0016 08D1     		bne	.L80
 114:Generated_Source\PSoC4/I2C_1_I2C_MASTER.c **** 
 1022              		.loc 1 114 0
 1023 0018 0920     		movs	r0, #9
 1024              	.LVL104:
 1025 001a FFF7FEFF 		bl	CyIntDisable
 1026              	.LVL105:
 117:Generated_Source\PSoC4/I2C_1_I2C_MASTER.c ****                             I2C_1_I2C_MSTR_BUS_BUSY : I2C_1_I2C_MSTR_NO_ERROR;
 1027              		.loc 1 117 0
 1028 001e 284B     		ldr	r3, .L86+4
 1029 0020 1B68     		ldr	r3, [r3]
 1030 0022 DB07     		lsls	r3, r3, #31
 1031 0024 0ED5     		bpl	.L84
ARM GAS  C:\Users\austc\AppData\Local\Temp\cciIEsvk.s 			page 42


 1032 0026 0826     		movs	r6, #8
 1033 0028 0FE0     		b	.L79
 1034              	.LVL106:
 1035              	.L80:
 120:Generated_Source\PSoC4/I2C_1_I2C_MASTER.c ****         {
 1036              		.loc 1 120 0
 1037 002a 244B     		ldr	r3, .L86
 1038 002c 1B78     		ldrb	r3, [r3]
 1039 002e 602B     		cmp	r3, #96
 1040 0030 0AD1     		bne	.L85
 122:Generated_Source\PSoC4/I2C_1_I2C_MASTER.c ****                               errStatus  = I2C_1_I2C_MSTR_NO_ERROR;
 1041              		.loc 1 122 0
 1042 0032 244A     		ldr	r2, .L86+8
 1043              	.LVL107:
 1044 0034 1388     		ldrh	r3, [r2]
 1045 0036 0821     		movs	r1, #8
 1046              	.LVL108:
 1047 0038 8B43     		bics	r3, r1
 1048 003a 1380     		strh	r3, [r2]
 1049              	.LVL109:
 123:Generated_Source\PSoC4/I2C_1_I2C_MASTER.c ****         }
 1050              		.loc 1 123 0
 1051 003c 0026     		movs	r6, #0
 1052 003e 04E0     		b	.L79
 1053              	.LVL110:
 1054              	.L83:
 107:Generated_Source\PSoC4/I2C_1_I2C_MASTER.c **** 
 1055              		.loc 1 107 0
 1056 0040 0426     		movs	r6, #4
 1057 0042 02E0     		b	.L79
 1058              	.LVL111:
 1059              	.L84:
 117:Generated_Source\PSoC4/I2C_1_I2C_MASTER.c ****                             I2C_1_I2C_MSTR_BUS_BUSY : I2C_1_I2C_MSTR_NO_ERROR;
 1060              		.loc 1 117 0
 1061 0044 0026     		movs	r6, #0
 1062 0046 00E0     		b	.L79
 1063              	.LVL112:
 1064              	.L85:
 107:Generated_Source\PSoC4/I2C_1_I2C_MASTER.c **** 
 1065              		.loc 1 107 0
 1066 0048 0426     		movs	r6, #4
 1067              	.LVL113:
 1068              	.L79:
 132:Generated_Source\PSoC4/I2C_1_I2C_MASTER.c ****     {
 1069              		.loc 1 132 0
 1070 004a 002E     		cmp	r6, #0
 1071 004c 2FD1     		bne	.L81
 138:Generated_Source\PSoC4/I2C_1_I2C_MASTER.c ****         I2C_1_mstrWrBufIndexTmp = 0u;
 1072              		.loc 1 138 0
 1073 004e 2822     		movs	r2, #40
 1074 0050 1A4B     		ldr	r3, .L86
 1075 0052 1A70     		strb	r2, [r3]
 139:Generated_Source\PSoC4/I2C_1_I2C_MASTER.c ****         I2C_1_mstrWrBufIndex    = 0u;
 1076              		.loc 1 139 0
 1077 0054 0023     		movs	r3, #0
 1078 0056 1C4A     		ldr	r2, .L86+12
 1079 0058 1360     		str	r3, [r2]
ARM GAS  C:\Users\austc\AppData\Local\Temp\cciIEsvk.s 			page 43


 140:Generated_Source\PSoC4/I2C_1_I2C_MASTER.c ****         I2C_1_mstrWrBufSize     = cnt;
 1080              		.loc 1 140 0
 1081 005a 1C4A     		ldr	r2, .L86+16
 1082 005c 1360     		str	r3, [r2]
 141:Generated_Source\PSoC4/I2C_1_I2C_MASTER.c ****         I2C_1_mstrWrBufPtr      = (volatile uint8 *) wrData;
 1083              		.loc 1 141 0
 1084 005e 1C4B     		ldr	r3, .L86+20
 1085 0060 1F60     		str	r7, [r3]
 142:Generated_Source\PSoC4/I2C_1_I2C_MASTER.c ****         I2C_1_mstrControl       = (uint8) mode;
 1086              		.loc 1 142 0
 1087 0062 1C4B     		ldr	r3, .L86+24
 1088 0064 1C60     		str	r4, [r3]
 143:Generated_Source\PSoC4/I2C_1_I2C_MASTER.c **** 
 1089              		.loc 1 143 0
 1090 0066 EAB2     		uxtb	r2, r5
 1091 0068 1B4B     		ldr	r3, .L86+28
 1092 006a 1A70     		strb	r2, [r3]
 145:Generated_Source\PSoC4/I2C_1_I2C_MASTER.c **** 
 1093              		.loc 1 145 0
 1094 006c 019B     		ldr	r3, [sp, #4]
 1095 006e 5C00     		lsls	r4, r3, #1
 1096              	.LVL114:
 1097 0070 FF23     		movs	r3, #255
 1098 0072 1C40     		ands	r4, r3
 1099              	.LVL115:
 147:Generated_Source\PSoC4/I2C_1_I2C_MASTER.c **** 
 1100              		.loc 1 147 0
 1101 0074 134A     		ldr	r2, .L86+8
 1102 0076 1388     		ldrh	r3, [r2]
 1103 0078 0221     		movs	r1, #2
 1104 007a 8B43     		bics	r3, r1
 1105 007c 1380     		strh	r3, [r2]
 149:Generated_Source\PSoC4/I2C_1_I2C_MASTER.c ****         I2C_1_ClearMasterInterruptSource(I2C_1_INTR_MASTER_ALL);
 1106              		.loc 1 149 0
 1107 007e 4023     		movs	r3, #64
 1108 0080 164A     		ldr	r2, .L86+32
 1109 0082 1360     		str	r3, [r2]
 1110              	.LVL116:
 150:Generated_Source\PSoC4/I2C_1_I2C_MASTER.c ****         I2C_1_SetMasterInterruptMode    (I2C_1_I2C_INTR_MASTER_MASK);
 1111              		.loc 1 150 0
 1112 0084 1649     		ldr	r1, .L86+36
 1113 0086 174A     		ldr	r2, .L86+40
 1114 0088 1160     		str	r1, [r2]
 151:Generated_Source\PSoC4/I2C_1_I2C_MASTER.c **** 
 1115              		.loc 1 151 0
 1116 008a 1421     		movs	r1, #20
 1117 008c FF31     		adds	r1, r1, #255
 1118 008e 164A     		ldr	r2, .L86+44
 1119 0090 1160     		str	r1, [r2]
 156:Generated_Source\PSoC4/I2C_1_I2C_MASTER.c **** 
 1120              		.loc 1 156 0
 1121 0092 164A     		ldr	r2, .L86+48
 1122 0094 1360     		str	r3, [r2]
 159:Generated_Source\PSoC4/I2C_1_I2C_MASTER.c ****         {
 1123              		.loc 1 159 0
 1124 0096 EB07     		lsls	r3, r5, #31
 1125 0098 04D5     		bpl	.L82
ARM GAS  C:\Users\austc\AppData\Local\Temp\cciIEsvk.s 			page 44


 161:Generated_Source\PSoC4/I2C_1_I2C_MASTER.c ****             I2C_1_TX_FIFO_WR_REG = slaveAddress;
 1126              		.loc 1 161 0
 1127 009a FFF7FEFF 		bl	I2C_1_I2CReStartGeneration
 1128              	.LVL117:
 162:Generated_Source\PSoC4/I2C_1_I2C_MASTER.c ****         }
 1129              		.loc 1 162 0
 1130 009e 144B     		ldr	r3, .L86+52
 1131 00a0 1C60     		str	r4, [r3]
 1132 00a2 04E0     		b	.L81
 1133              	.L82:
 166:Generated_Source\PSoC4/I2C_1_I2C_MASTER.c ****             I2C_1_I2C_MASTER_GENERATE_START;
 1134              		.loc 1 166 0
 1135 00a4 124B     		ldr	r3, .L86+52
 1136 00a6 1C60     		str	r4, [r3]
 167:Generated_Source\PSoC4/I2C_1_I2C_MASTER.c ****         }
 1137              		.loc 1 167 0
 1138 00a8 0222     		movs	r2, #2
 1139 00aa 124B     		ldr	r3, .L86+56
 1140 00ac 1A60     		str	r2, [r3]
 1141              	.LVL118:
 1142              	.L81:
 171:Generated_Source\PSoC4/I2C_1_I2C_MASTER.c **** 
 1143              		.loc 1 171 0
 1144 00ae 0920     		movs	r0, #9
 1145 00b0 FFF7FEFF 		bl	CyIntEnable
 1146              	.LVL119:
 174:Generated_Source\PSoC4/I2C_1_I2C_MASTER.c **** 
 1147              		.loc 1 174 0
 1148 00b4 3000     		movs	r0, r6
 1149 00b6 03B0     		add	sp, sp, #12
 1150              		@ sp needed
 1151              	.LVL120:
 1152              	.LVL121:
 1153              	.LVL122:
 1154 00b8 F0BD     		pop	{r4, r5, r6, r7, pc}
 1155              	.L87:
 1156 00ba C046     		.align	2
 1157              	.L86:
 1158 00bc 00000000 		.word	I2C_1_state
 1159 00c0 64002440 		.word	1076101220
 1160 00c4 00000000 		.word	I2C_1_mstrStatus
 1161 00c8 00000000 		.word	I2C_1_mstrWrBufIndexTmp
 1162 00cc 00000000 		.word	I2C_1_mstrWrBufIndex
 1163 00d0 00000000 		.word	I2C_1_mstrWrBufSize
 1164 00d4 00000000 		.word	I2C_1_mstrWrBufPtr
 1165 00d8 00000000 		.word	I2C_1_mstrControl
 1166 00dc 800F2440 		.word	1076105088
 1167 00e0 17030000 		.word	791
 1168 00e4 000F2440 		.word	1076104960
 1169 00e8 080F2440 		.word	1076104968
 1170 00ec 880F2440 		.word	1076105096
 1171 00f0 40022440 		.word	1076101696
 1172 00f4 68002440 		.word	1076101224
 1173              		.cfi_endproc
 1174              	.LFE1:
 1175              		.size	I2C_1_I2CMasterWriteBuf, .-I2C_1_I2CMasterWriteBuf
 1176              		.section	.text.I2C_1_I2CMasterReadBuf,"ax",%progbits
ARM GAS  C:\Users\austc\AppData\Local\Temp\cciIEsvk.s 			page 45


 1177              		.align	2
 1178              		.global	I2C_1_I2CMasterReadBuf
 1179              		.code	16
 1180              		.thumb_func
 1181              		.type	I2C_1_I2CMasterReadBuf, %function
 1182              	I2C_1_I2CMasterReadBuf:
 1183              	.LFB2:
 214:Generated_Source\PSoC4/I2C_1_I2C_MASTER.c ****     uint32 errStatus;
 1184              		.loc 1 214 0
 1185              		.cfi_startproc
 1186              		@ args = 0, pretend = 0, frame = 8
 1187              		@ frame_needed = 0, uses_anonymous_args = 0
 1188              	.LVL123:
 1189 0000 F0B5     		push	{r4, r5, r6, r7, lr}
 1190              		.cfi_def_cfa_offset 20
 1191              		.cfi_offset 4, -20
 1192              		.cfi_offset 5, -16
 1193              		.cfi_offset 6, -12
 1194              		.cfi_offset 7, -8
 1195              		.cfi_offset 14, -4
 1196 0002 83B0     		sub	sp, sp, #12
 1197              		.cfi_def_cfa_offset 32
 1198 0004 0190     		str	r0, [sp, #4]
 1199 0006 0C00     		movs	r4, r1
 1200 0008 1700     		movs	r7, r2
 1201 000a 1D00     		movs	r5, r3
 1202              	.LVL124:
 219:Generated_Source\PSoC4/I2C_1_I2C_MASTER.c ****     {
 1203              		.loc 1 219 0
 1204 000c 0029     		cmp	r1, #0
 1205 000e 17D0     		beq	.L95
 222:Generated_Source\PSoC4/I2C_1_I2C_MASTER.c ****         {
 1206              		.loc 1 222 0
 1207 0010 2F4B     		ldr	r3, .L98
 1208              	.LVL125:
 1209 0012 1B78     		ldrb	r3, [r3]
 1210 0014 102B     		cmp	r3, #16
 1211 0016 08D1     		bne	.L90
 224:Generated_Source\PSoC4/I2C_1_I2C_MASTER.c **** 
 1212              		.loc 1 224 0
 1213 0018 0920     		movs	r0, #9
 1214              	.LVL126:
 1215 001a FFF7FEFF 		bl	CyIntDisable
 1216              	.LVL127:
 227:Generated_Source\PSoC4/I2C_1_I2C_MASTER.c ****                             I2C_1_I2C_MSTR_BUS_BUSY : I2C_1_I2C_MSTR_NO_ERROR;
 1217              		.loc 1 227 0
 1218 001e 2D4B     		ldr	r3, .L98+4
 1219 0020 1B68     		ldr	r3, [r3]
 1220 0022 DB07     		lsls	r3, r3, #31
 1221 0024 0ED5     		bpl	.L96
 1222 0026 0826     		movs	r6, #8
 1223 0028 0FE0     		b	.L89
 1224              	.LVL128:
 1225              	.L90:
 230:Generated_Source\PSoC4/I2C_1_I2C_MASTER.c ****         {
 1226              		.loc 1 230 0
 1227 002a 294B     		ldr	r3, .L98
ARM GAS  C:\Users\austc\AppData\Local\Temp\cciIEsvk.s 			page 46


 1228 002c 1B78     		ldrb	r3, [r3]
 1229 002e 602B     		cmp	r3, #96
 1230 0030 0AD1     		bne	.L97
 232:Generated_Source\PSoC4/I2C_1_I2C_MASTER.c ****                               errStatus  =  I2C_1_I2C_MSTR_NO_ERROR;
 1231              		.loc 1 232 0
 1232 0032 294A     		ldr	r2, .L98+8
 1233              	.LVL129:
 1234 0034 1388     		ldrh	r3, [r2]
 1235 0036 0821     		movs	r1, #8
 1236              	.LVL130:
 1237 0038 8B43     		bics	r3, r1
 1238 003a 1380     		strh	r3, [r2]
 1239              	.LVL131:
 233:Generated_Source\PSoC4/I2C_1_I2C_MASTER.c ****         }
 1240              		.loc 1 233 0
 1241 003c 0026     		movs	r6, #0
 1242 003e 04E0     		b	.L89
 1243              	.LVL132:
 1244              	.L95:
 217:Generated_Source\PSoC4/I2C_1_I2C_MASTER.c **** 
 1245              		.loc 1 217 0
 1246 0040 0426     		movs	r6, #4
 1247 0042 02E0     		b	.L89
 1248              	.LVL133:
 1249              	.L96:
 227:Generated_Source\PSoC4/I2C_1_I2C_MASTER.c ****                             I2C_1_I2C_MSTR_BUS_BUSY : I2C_1_I2C_MSTR_NO_ERROR;
 1250              		.loc 1 227 0
 1251 0044 0026     		movs	r6, #0
 1252 0046 00E0     		b	.L89
 1253              	.LVL134:
 1254              	.L97:
 217:Generated_Source\PSoC4/I2C_1_I2C_MASTER.c **** 
 1255              		.loc 1 217 0
 1256 0048 0426     		movs	r6, #4
 1257              	.LVL135:
 1258              	.L89:
 242:Generated_Source\PSoC4/I2C_1_I2C_MASTER.c ****     {
 1259              		.loc 1 242 0
 1260 004a 002E     		cmp	r6, #0
 1261 004c 39D1     		bne	.L91
 248:Generated_Source\PSoC4/I2C_1_I2C_MASTER.c ****         I2C_1_mstrRdBufIndex = 0u;
 1262              		.loc 1 248 0
 1263 004e 2922     		movs	r2, #41
 1264 0050 1F4B     		ldr	r3, .L98
 1265 0052 1A70     		strb	r2, [r3]
 249:Generated_Source\PSoC4/I2C_1_I2C_MASTER.c ****         I2C_1_mstrRdBufSize  = cnt;
 1266              		.loc 1 249 0
 1267 0054 0022     		movs	r2, #0
 1268 0056 214B     		ldr	r3, .L98+12
 1269 0058 1A60     		str	r2, [r3]
 250:Generated_Source\PSoC4/I2C_1_I2C_MASTER.c ****         I2C_1_mstrRdBufPtr   = (volatile uint8 *) rdData;
 1270              		.loc 1 250 0
 1271 005a 214A     		ldr	r2, .L98+16
 1272 005c 1760     		str	r7, [r2]
 251:Generated_Source\PSoC4/I2C_1_I2C_MASTER.c ****         I2C_1_mstrControl    = (uint8) mode;
 1273              		.loc 1 251 0
 1274 005e 214B     		ldr	r3, .L98+20
ARM GAS  C:\Users\austc\AppData\Local\Temp\cciIEsvk.s 			page 47


 1275 0060 1C60     		str	r4, [r3]
 252:Generated_Source\PSoC4/I2C_1_I2C_MASTER.c **** 
 1276              		.loc 1 252 0
 1277 0062 EBB2     		uxtb	r3, r5
 1278 0064 2049     		ldr	r1, .L98+24
 1279 0066 0B70     		strb	r3, [r1]
 254:Generated_Source\PSoC4/I2C_1_I2C_MASTER.c **** 
 1280              		.loc 1 254 0
 1281 0068 019B     		ldr	r3, [sp, #4]
 1282 006a 5C00     		lsls	r4, r3, #1
 1283              	.LVL136:
 1284 006c FF23     		movs	r3, #255
 1285 006e 1C40     		ands	r4, r3
 1286 0070 0120     		movs	r0, #1
 1287 0072 0443     		orrs	r4, r0
 1288              	.LVL137:
 256:Generated_Source\PSoC4/I2C_1_I2C_MASTER.c **** 
 1289              		.loc 1 256 0
 1290 0074 1849     		ldr	r1, .L98+8
 1291 0076 0B88     		ldrh	r3, [r1]
 1292 0078 8343     		bics	r3, r0
 1293 007a 0B80     		strh	r3, [r1]
 258:Generated_Source\PSoC4/I2C_1_I2C_MASTER.c ****         I2C_1_SetMasterInterruptMode    (I2C_1_I2C_INTR_MASTER_MASK);
 1294              		.loc 1 258 0
 1295 007c 1B49     		ldr	r1, .L98+28
 1296 007e 1C4B     		ldr	r3, .L98+32
 1297 0080 1960     		str	r1, [r3]
 1298              	.LVL138:
 259:Generated_Source\PSoC4/I2C_1_I2C_MASTER.c **** 
 1299              		.loc 1 259 0
 1300 0082 1421     		movs	r1, #20
 1301 0084 FF31     		adds	r1, r1, #255
 1302 0086 1B4B     		ldr	r3, .L98+36
 1303 0088 1960     		str	r1, [r3]
 264:Generated_Source\PSoC4/I2C_1_I2C_MASTER.c ****         {
 1304              		.loc 1 264 0
 1305 008a 1368     		ldr	r3, [r2]
 1306 008c 072B     		cmp	r3, #7
 1307 008e 03D8     		bhi	.L92
 267:Generated_Source\PSoC4/I2C_1_I2C_MASTER.c ****         }
 1308              		.loc 1 267 0
 1309 0090 0422     		movs	r2, #4
 1310 0092 194B     		ldr	r3, .L98+40
 1311 0094 1A60     		str	r2, [r3]
 1312 0096 08E0     		b	.L93
 1313              	.L92:
 272:Generated_Source\PSoC4/I2C_1_I2C_MASTER.c ****             I2C_1_SetRxInterruptMode(I2C_1_INTR_RX_FULL);
 1314              		.loc 1 272 0
 1315 0098 184A     		ldr	r2, .L98+44
 1316 009a 1368     		ldr	r3, [r2]
 1317 009c 8021     		movs	r1, #128
 1318 009e 4900     		lsls	r1, r1, #1
 1319 00a0 0B43     		orrs	r3, r1
 1320 00a2 1360     		str	r3, [r2]
 273:Generated_Source\PSoC4/I2C_1_I2C_MASTER.c ****         }
 1321              		.loc 1 273 0
 1322 00a4 0822     		movs	r2, #8
ARM GAS  C:\Users\austc\AppData\Local\Temp\cciIEsvk.s 			page 48


 1323 00a6 144B     		ldr	r3, .L98+40
 1324 00a8 1A60     		str	r2, [r3]
 1325              	.L93:
 277:Generated_Source\PSoC4/I2C_1_I2C_MASTER.c ****         {
 1326              		.loc 1 277 0
 1327 00aa EB07     		lsls	r3, r5, #31
 1328 00ac 04D5     		bpl	.L94
 279:Generated_Source\PSoC4/I2C_1_I2C_MASTER.c ****             I2C_1_TX_FIFO_WR_REG = slaveAddress;
 1329              		.loc 1 279 0
 1330 00ae FFF7FEFF 		bl	I2C_1_I2CReStartGeneration
 1331              	.LVL139:
 280:Generated_Source\PSoC4/I2C_1_I2C_MASTER.c ****         }
 1332              		.loc 1 280 0
 1333 00b2 134B     		ldr	r3, .L98+48
 1334 00b4 1C60     		str	r4, [r3]
 1335 00b6 04E0     		b	.L91
 1336              	.L94:
 284:Generated_Source\PSoC4/I2C_1_I2C_MASTER.c ****             I2C_1_I2C_MASTER_GENERATE_START;
 1337              		.loc 1 284 0
 1338 00b8 114B     		ldr	r3, .L98+48
 1339 00ba 1C60     		str	r4, [r3]
 285:Generated_Source\PSoC4/I2C_1_I2C_MASTER.c ****         }
 1340              		.loc 1 285 0
 1341 00bc 0222     		movs	r2, #2
 1342 00be 114B     		ldr	r3, .L98+52
 1343 00c0 1A60     		str	r2, [r3]
 1344              	.LVL140:
 1345              	.L91:
 289:Generated_Source\PSoC4/I2C_1_I2C_MASTER.c **** 
 1346              		.loc 1 289 0
 1347 00c2 0920     		movs	r0, #9
 1348 00c4 FFF7FEFF 		bl	CyIntEnable
 1349              	.LVL141:
 292:Generated_Source\PSoC4/I2C_1_I2C_MASTER.c **** 
 1350              		.loc 1 292 0
 1351 00c8 3000     		movs	r0, r6
 1352 00ca 03B0     		add	sp, sp, #12
 1353              		@ sp needed
 1354              	.LVL142:
 1355              	.LVL143:
 1356              	.LVL144:
 1357 00cc F0BD     		pop	{r4, r5, r6, r7, pc}
 1358              	.L99:
 1359 00ce C046     		.align	2
 1360              	.L98:
 1361 00d0 00000000 		.word	I2C_1_state
 1362 00d4 64002440 		.word	1076101220
 1363 00d8 00000000 		.word	I2C_1_mstrStatus
 1364 00dc 00000000 		.word	I2C_1_mstrRdBufIndex
 1365 00e0 00000000 		.word	I2C_1_mstrRdBufSize
 1366 00e4 00000000 		.word	I2C_1_mstrRdBufPtr
 1367 00e8 00000000 		.word	I2C_1_mstrControl
 1368 00ec 17030000 		.word	791
 1369 00f0 000F2440 		.word	1076104960
 1370 00f4 080F2440 		.word	1076104968
 1371 00f8 C80F2440 		.word	1076105160
 1372 00fc 60002440 		.word	1076101216
ARM GAS  C:\Users\austc\AppData\Local\Temp\cciIEsvk.s 			page 49


 1373 0100 40022440 		.word	1076101696
 1374 0104 68002440 		.word	1076101224
 1375              		.cfi_endproc
 1376              	.LFE2:
 1377              		.size	I2C_1_I2CMasterReadBuf, .-I2C_1_I2CMasterReadBuf
 1378              		.section	.text.I2C_1_I2CMasterSendRestart,"ax",%progbits
 1379              		.align	2
 1380              		.global	I2C_1_I2CMasterSendRestart
 1381              		.code	16
 1382              		.thumb_func
 1383              		.type	I2C_1_I2CMasterSendRestart, %function
 1384              	I2C_1_I2CMasterSendRestart:
 1385              	.LFB4:
 445:Generated_Source\PSoC4/I2C_1_I2C_MASTER.c ****     uint32 errStatus = I2C_1_I2C_MSTR_NOT_READY;
 1386              		.loc 1 445 0
 1387              		.cfi_startproc
 1388              		@ args = 0, pretend = 0, frame = 8
 1389              		@ frame_needed = 0, uses_anonymous_args = 0
 1390              	.LVL145:
 1391 0000 10B5     		push	{r4, lr}
 1392              		.cfi_def_cfa_offset 8
 1393              		.cfi_offset 4, -8
 1394              		.cfi_offset 14, -4
 1395 0002 82B0     		sub	sp, sp, #8
 1396              		.cfi_def_cfa_offset 16
 1397              	.LVL146:
 449:Generated_Source\PSoC4/I2C_1_I2C_MASTER.c ****     {
 1398              		.loc 1 449 0
 1399 0004 154B     		ldr	r3, .L106
 1400 0006 1B78     		ldrb	r3, [r3]
 1401 0008 9B06     		lsls	r3, r3, #26
 1402 000a 23D5     		bpl	.L105
 1403              	.LBB6:
 452:Generated_Source\PSoC4/I2C_1_I2C_MASTER.c **** 
 1404              		.loc 1 452 0
 1405 000c FA23     		movs	r3, #250
 1406 000e 9B00     		lsls	r3, r3, #2
 1407 0010 5A43     		muls	r2, r3
 1408              	.LVL147:
 1409 0012 0192     		str	r2, [sp, #4]
 454:Generated_Source\PSoC4/I2C_1_I2C_MASTER.c **** 
 1410              		.loc 1 454 0
 1411 0014 4000     		lsls	r0, r0, #1
 1412              	.LVL148:
 1413 0016 FF24     		movs	r4, #255
 1414 0018 0440     		ands	r4, r0
 1415              	.LVL149:
 456:Generated_Source\PSoC4/I2C_1_I2C_MASTER.c ****         {
 1416              		.loc 1 456 0
 1417 001a 0029     		cmp	r1, #0
 1418 001c 03D1     		bne	.L102
 458:Generated_Source\PSoC4/I2C_1_I2C_MASTER.c ****         }
 1419              		.loc 1 458 0
 1420 001e 2422     		movs	r2, #36
 1421 0020 0E4B     		ldr	r3, .L106
 1422 0022 1A70     		strb	r2, [r3]
 1423 0024 04E0     		b	.L103
ARM GAS  C:\Users\austc\AppData\Local\Temp\cciIEsvk.s 			page 50


 1424              	.L102:
 462:Generated_Source\PSoC4/I2C_1_I2C_MASTER.c ****                       slaveAddress |= I2C_1_I2C_READ_FLAG;
 1425              		.loc 1 462 0
 1426 0026 2522     		movs	r2, #37
 1427 0028 0C4B     		ldr	r3, .L106
 1428 002a 1A70     		strb	r2, [r3]
 463:Generated_Source\PSoC4/I2C_1_I2C_MASTER.c ****         }
 1429              		.loc 1 463 0
 1430 002c 0123     		movs	r3, #1
 1431 002e 1C43     		orrs	r4, r3
 1432              	.LVL150:
 1433              	.L103:
 471:Generated_Source\PSoC4/I2C_1_I2C_MASTER.c ****         I2C_1_TX_FIFO_WR_REG = slaveAddress;
 1434              		.loc 1 471 0
 1435 0030 FFF7FEFF 		bl	I2C_1_I2CReStartGeneration
 1436              	.LVL151:
 472:Generated_Source\PSoC4/I2C_1_I2C_MASTER.c **** 
 1437              		.loc 1 472 0
 1438 0034 0A4B     		ldr	r3, .L106+4
 1439 0036 1C60     		str	r4, [r3]
 1440              	.LVL152:
 1441              	.L104:
 477:Generated_Source\PSoC4/I2C_1_I2C_MASTER.c ****             locStatus |= I2C_1_I2CMasterWaitOneUnit(&timeout);
 1442              		.loc 1 477 0 discriminator 1
 1443 0038 0A4B     		ldr	r3, .L106+8
 1444 003a 1868     		ldr	r0, [r3]
 1445 003c 0823     		movs	r3, #8
 1446 003e FF33     		adds	r3, r3, #255
 1447 0040 1840     		ands	r0, r3
 1448 0042 0400     		movs	r4, r0
 1449              	.LVL153:
 478:Generated_Source\PSoC4/I2C_1_I2C_MASTER.c ****         }
 1450              		.loc 1 478 0 discriminator 1
 1451 0044 01A8     		add	r0, sp, #4
 1452              	.LVL154:
 1453 0046 FFF7FEFF 		bl	I2C_1_I2CMasterWaitOneUnit
 1454              	.LVL155:
 1455 004a 2043     		orrs	r0, r4
 1456              	.LVL156:
 480:Generated_Source\PSoC4/I2C_1_I2C_MASTER.c **** 
 1457              		.loc 1 480 0 discriminator 1
 1458 004c F4D0     		beq	.L104
 484:Generated_Source\PSoC4/I2C_1_I2C_MASTER.c ****     }
 1459              		.loc 1 484 0
 1460 004e FFF7FEFF 		bl	I2C_1_I2CMasterHandleStatus
 1461              	.LVL157:
 1462 0052 00E0     		b	.L101
 1463              	.LVL158:
 1464              	.L105:
 1465              	.LBE6:
 446:Generated_Source\PSoC4/I2C_1_I2C_MASTER.c **** 
 1466              		.loc 1 446 0
 1467 0054 0420     		movs	r0, #4
 1468              	.LVL159:
 1469              	.L101:
 488:Generated_Source\PSoC4/I2C_1_I2C_MASTER.c **** 
 1470              		.loc 1 488 0
ARM GAS  C:\Users\austc\AppData\Local\Temp\cciIEsvk.s 			page 51


 1471 0056 02B0     		add	sp, sp, #8
 1472              		@ sp needed
 1473 0058 10BD     		pop	{r4, pc}
 1474              	.L107:
 1475 005a C046     		.align	2
 1476              	.L106:
 1477 005c 00000000 		.word	I2C_1_state
 1478 0060 40022440 		.word	1076101696
 1479 0064 000F2440 		.word	1076104960
 1480              		.cfi_endproc
 1481              	.LFE4:
 1482              		.size	I2C_1_I2CMasterSendRestart, .-I2C_1_I2CMasterSendRestart
 1483              		.comm	I2C_1_mstrWrBufIndexTmp,4,4
 1484              		.comm	I2C_1_mstrWrBufIndex,4,4
 1485              		.comm	I2C_1_mstrWrBufSize,4,4
 1486              		.comm	I2C_1_mstrWrBufPtr,4,4
 1487              		.comm	I2C_1_mstrRdBufIndex,4,4
 1488              		.comm	I2C_1_mstrRdBufSize,4,4
 1489              		.comm	I2C_1_mstrRdBufPtr,4,4
 1490              		.comm	I2C_1_mstrControl,1,1
 1491              		.comm	I2C_1_mstrStatus,2,2
 1492              		.text
 1493              	.Letext0:
 1494              		.file 2 "Generated_Source\\PSoC4/cytypes.h"
 1495              		.file 3 "Generated_Source\\PSoC4\\I2C_1_I2C_PVT.h"
 1496              		.file 4 "Generated_Source\\PSoC4/CyLib.h"
 1497              		.section	.debug_info,"",%progbits
 1498              	.Ldebug_info0:
 1499 0000 0F080000 		.4byte	0x80f
 1500 0004 0400     		.2byte	0x4
 1501 0006 00000000 		.4byte	.Ldebug_abbrev0
 1502 000a 04       		.byte	0x4
 1503 000b 01       		.uleb128 0x1
 1504 000c 43000000 		.4byte	.LASF65
 1505 0010 0C       		.byte	0xc
 1506 0011 A8030000 		.4byte	.LASF66
 1507 0015 12020000 		.4byte	.LASF67
 1508 0019 00000000 		.4byte	.Ldebug_ranges0+0
 1509 001d 00000000 		.4byte	0
 1510 0021 00000000 		.4byte	.Ldebug_line0
 1511 0025 02       		.uleb128 0x2
 1512 0026 01       		.byte	0x1
 1513 0027 06       		.byte	0x6
 1514 0028 01010000 		.4byte	.LASF0
 1515 002c 02       		.uleb128 0x2
 1516 002d 01       		.byte	0x1
 1517 002e 08       		.byte	0x8
 1518 002f 6A030000 		.4byte	.LASF1
 1519 0033 02       		.uleb128 0x2
 1520 0034 02       		.byte	0x2
 1521 0035 05       		.byte	0x5
 1522 0036 9E030000 		.4byte	.LASF2
 1523 003a 02       		.uleb128 0x2
 1524 003b 02       		.byte	0x2
 1525 003c 07       		.byte	0x7
 1526 003d FF010000 		.4byte	.LASF3
 1527 0041 02       		.uleb128 0x2
ARM GAS  C:\Users\austc\AppData\Local\Temp\cciIEsvk.s 			page 52


 1528 0042 04       		.byte	0x4
 1529 0043 05       		.byte	0x5
 1530 0044 29010000 		.4byte	.LASF4
 1531 0048 02       		.uleb128 0x2
 1532 0049 04       		.byte	0x4
 1533 004a 07       		.byte	0x7
 1534 004b A6010000 		.4byte	.LASF5
 1535 004f 02       		.uleb128 0x2
 1536 0050 08       		.byte	0x8
 1537 0051 05       		.byte	0x5
 1538 0052 F3000000 		.4byte	.LASF6
 1539 0056 02       		.uleb128 0x2
 1540 0057 08       		.byte	0x8
 1541 0058 07       		.byte	0x7
 1542 0059 D1000000 		.4byte	.LASF7
 1543 005d 03       		.uleb128 0x3
 1544 005e 04       		.byte	0x4
 1545 005f 05       		.byte	0x5
 1546 0060 696E7400 		.ascii	"int\000"
 1547 0064 02       		.uleb128 0x2
 1548 0065 04       		.byte	0x4
 1549 0066 07       		.byte	0x7
 1550 0067 83010000 		.4byte	.LASF8
 1551 006b 04       		.uleb128 0x4
 1552 006c 3F010000 		.4byte	.LASF9
 1553 0070 02       		.byte	0x2
 1554 0071 E401     		.2byte	0x1e4
 1555 0073 2C000000 		.4byte	0x2c
 1556 0077 04       		.uleb128 0x4
 1557 0078 14000000 		.4byte	.LASF10
 1558 007c 02       		.byte	0x2
 1559 007d E501     		.2byte	0x1e5
 1560 007f 3A000000 		.4byte	0x3a
 1561 0083 04       		.uleb128 0x4
 1562 0084 56010000 		.4byte	.LASF11
 1563 0088 02       		.byte	0x2
 1564 0089 E601     		.2byte	0x1e6
 1565 008b 48000000 		.4byte	0x48
 1566 008f 02       		.uleb128 0x2
 1567 0090 04       		.byte	0x4
 1568 0091 04       		.byte	0x4
 1569 0092 EF020000 		.4byte	.LASF12
 1570 0096 02       		.uleb128 0x2
 1571 0097 08       		.byte	0x8
 1572 0098 04       		.byte	0x4
 1573 0099 4F010000 		.4byte	.LASF13
 1574 009d 02       		.uleb128 0x2
 1575 009e 01       		.byte	0x1
 1576 009f 08       		.byte	0x8
 1577 00a0 19040000 		.4byte	.LASF14
 1578 00a4 05       		.uleb128 0x5
 1579 00a5 6B000000 		.4byte	0x6b
 1580 00a9 05       		.uleb128 0x5
 1581 00aa 77000000 		.4byte	0x77
 1582 00ae 04       		.uleb128 0x4
 1583 00af 90020000 		.4byte	.LASF15
 1584 00b3 02       		.byte	0x2
ARM GAS  C:\Users\austc\AppData\Local\Temp\cciIEsvk.s 			page 53


 1585 00b4 9002     		.2byte	0x290
 1586 00b6 BA000000 		.4byte	0xba
 1587 00ba 05       		.uleb128 0x5
 1588 00bb 83000000 		.4byte	0x83
 1589 00bf 02       		.uleb128 0x2
 1590 00c0 08       		.byte	0x8
 1591 00c1 04       		.byte	0x4
 1592 00c2 9F020000 		.4byte	.LASF16
 1593 00c6 02       		.uleb128 0x2
 1594 00c7 04       		.byte	0x4
 1595 00c8 07       		.byte	0x7
 1596 00c9 96020000 		.4byte	.LASF17
 1597 00cd 06       		.uleb128 0x6
 1598 00ce B7020000 		.4byte	.LASF20
 1599 00d2 01       		.byte	0x1
 1600 00d3 7904     		.2byte	0x479
 1601 00d5 83000000 		.4byte	0x83
 1602 00d9 00000000 		.4byte	.LFB16
 1603 00dd 28000000 		.4byte	.LFE16-.LFB16
 1604 00e1 01       		.uleb128 0x1
 1605 00e2 9C       		.byte	0x9c
 1606 00e3 24010000 		.4byte	0x124
 1607 00e7 07       		.uleb128 0x7
 1608 00e8 D5010000 		.4byte	.LASF22
 1609 00ec 01       		.byte	0x1
 1610 00ed 7904     		.2byte	0x479
 1611 00ef 24010000 		.4byte	0x124
 1612 00f3 00000000 		.4byte	.LLST0
 1613 00f7 08       		.uleb128 0x8
 1614 00f8 1B000000 		.4byte	.LASF18
 1615 00fc 01       		.byte	0x1
 1616 00fd 7B04     		.2byte	0x47b
 1617 00ff 2A010000 		.4byte	0x12a
 1618 0103 01       		.byte	0x1
 1619 0104 09       		.uleb128 0x9
 1620 0105 7D040000 		.4byte	.LASF19
 1621 0109 01       		.byte	0x1
 1622 010a 7C04     		.2byte	0x47c
 1623 010c 83000000 		.4byte	0x83
 1624 0110 42000000 		.4byte	.LLST1
 1625 0114 0A       		.uleb128 0xa
 1626 0115 10000000 		.4byte	.LVL3
 1627 0119 E6070000 		.4byte	0x7e6
 1628 011d 0B       		.uleb128 0xb
 1629 011e 01       		.uleb128 0x1
 1630 011f 50       		.byte	0x50
 1631 0120 01       		.uleb128 0x1
 1632 0121 31       		.byte	0x31
 1633 0122 00       		.byte	0
 1634 0123 00       		.byte	0
 1635 0124 0C       		.uleb128 0xc
 1636 0125 04       		.byte	0x4
 1637 0126 83000000 		.4byte	0x83
 1638 012a 0D       		.uleb128 0xd
 1639 012b 77000000 		.4byte	0x77
 1640 012f 06       		.uleb128 0x6
 1641 0130 50040000 		.4byte	.LASF21
ARM GAS  C:\Users\austc\AppData\Local\Temp\cciIEsvk.s 			page 54


 1642 0134 01       		.byte	0x1
 1643 0135 1904     		.2byte	0x419
 1644 0137 83000000 		.4byte	0x83
 1645 013b 00000000 		.4byte	.LFB15
 1646 013f C4000000 		.4byte	.LFE15-.LFB15
 1647 0143 01       		.uleb128 0x1
 1648 0144 9C       		.byte	0x9c
 1649 0145 83010000 		.4byte	0x183
 1650 0149 07       		.uleb128 0x7
 1651 014a 7D040000 		.4byte	.LASF19
 1652 014e 01       		.byte	0x1
 1653 014f 1904     		.2byte	0x419
 1654 0151 83000000 		.4byte	0x83
 1655 0155 61000000 		.4byte	.LLST2
 1656 0159 09       		.uleb128 0x9
 1657 015a FE040000 		.4byte	.LASF23
 1658 015e 01       		.byte	0x1
 1659 015f 1B04     		.2byte	0x41b
 1660 0161 83000000 		.4byte	0x83
 1661 0165 9B000000 		.4byte	.LLST3
 1662 0169 09       		.uleb128 0x9
 1663 016a 78010000 		.4byte	.LASF24
 1664 016e 01       		.byte	0x1
 1665 016f 1C04     		.2byte	0x41c
 1666 0171 83000000 		.4byte	0x83
 1667 0175 F5000000 		.4byte	.LLST4
 1668 0179 0E       		.uleb128 0xe
 1669 017a A2000000 		.4byte	.LVL21
 1670 017e F1070000 		.4byte	0x7f1
 1671 0182 00       		.byte	0
 1672 0183 0F       		.uleb128 0xf
 1673 0184 23000000 		.4byte	.LASF30
 1674 0188 01       		.byte	0x1
 1675 0189 5901     		.2byte	0x159
 1676 018b 83000000 		.4byte	0x83
 1677 018f 00000000 		.4byte	.LFB3
 1678 0193 C4000000 		.4byte	.LFE3-.LFB3
 1679 0197 01       		.uleb128 0x1
 1680 0198 9C       		.byte	0x9c
 1681 0199 4A020000 		.4byte	0x24a
 1682 019d 07       		.uleb128 0x7
 1683 019e 5D030000 		.4byte	.LASF25
 1684 01a2 01       		.byte	0x1
 1685 01a3 5901     		.2byte	0x159
 1686 01a5 83000000 		.4byte	0x83
 1687 01a9 36010000 		.4byte	.LLST5
 1688 01ad 07       		.uleb128 0x7
 1689 01ae 89020000 		.4byte	.LASF26
 1690 01b2 01       		.byte	0x1
 1691 01b3 5901     		.2byte	0x159
 1692 01b5 83000000 		.4byte	0x83
 1693 01b9 83010000 		.4byte	.LLST6
 1694 01bd 07       		.uleb128 0x7
 1695 01be 6C040000 		.4byte	.LASF27
 1696 01c2 01       		.byte	0x1
 1697 01c3 5901     		.2byte	0x159
 1698 01c5 83000000 		.4byte	0x83
ARM GAS  C:\Users\austc\AppData\Local\Temp\cciIEsvk.s 			page 55


 1699 01c9 C5010000 		.4byte	.LLST7
 1700 01cd 09       		.uleb128 0x9
 1701 01ce F5010000 		.4byte	.LASF28
 1702 01d2 01       		.byte	0x1
 1703 01d3 5B01     		.2byte	0x15b
 1704 01d5 83000000 		.4byte	0x83
 1705 01d9 23020000 		.4byte	.LLST8
 1706 01dd 10       		.uleb128 0x10
 1707 01de 20000000 		.4byte	.LBB2
 1708 01e2 6A000000 		.4byte	.LBE2-.LBB2
 1709 01e6 27020000 		.4byte	0x227
 1710 01ea 09       		.uleb128 0x9
 1711 01eb 08040000 		.4byte	.LASF29
 1712 01ef 01       		.byte	0x1
 1713 01f0 6701     		.2byte	0x167
 1714 01f2 83000000 		.4byte	0x83
 1715 01f6 7B020000 		.4byte	.LLST9
 1716 01fa 11       		.uleb128 0x11
 1717 01fb D5010000 		.4byte	.LASF22
 1718 01ff 01       		.byte	0x1
 1719 0200 6801     		.2byte	0x168
 1720 0202 83000000 		.4byte	0x83
 1721 0206 02       		.uleb128 0x2
 1722 0207 91       		.byte	0x91
 1723 0208 6C       		.sleb128 -20
 1724 0209 12       		.uleb128 0x12
 1725 020a 7E000000 		.4byte	.LVL39
 1726 020e CD000000 		.4byte	0xcd
 1727 0212 1D020000 		.4byte	0x21d
 1728 0216 0B       		.uleb128 0xb
 1729 0217 01       		.uleb128 0x1
 1730 0218 50       		.byte	0x50
 1731 0219 02       		.uleb128 0x2
 1732 021a 91       		.byte	0x91
 1733 021b 6C       		.sleb128 -20
 1734 021c 00       		.byte	0
 1735 021d 0E       		.uleb128 0xe
 1736 021e 86000000 		.4byte	.LVL41
 1737 0222 2F010000 		.4byte	0x12f
 1738 0226 00       		.byte	0
 1739 0227 12       		.uleb128 0x12
 1740 0228 18000000 		.4byte	.LVL29
 1741 022c FC070000 		.4byte	0x7fc
 1742 0230 3A020000 		.4byte	0x23a
 1743 0234 0B       		.uleb128 0xb
 1744 0235 01       		.uleb128 0x1
 1745 0236 50       		.byte	0x50
 1746 0237 01       		.uleb128 0x1
 1747 0238 39       		.byte	0x39
 1748 0239 00       		.byte	0
 1749 023a 0A       		.uleb128 0xa
 1750 023b 92000000 		.4byte	.LVL45
 1751 023f 07080000 		.4byte	0x807
 1752 0243 0B       		.uleb128 0xb
 1753 0244 01       		.uleb128 0x1
 1754 0245 50       		.byte	0x50
 1755 0246 01       		.uleb128 0x1
ARM GAS  C:\Users\austc\AppData\Local\Temp\cciIEsvk.s 			page 56


 1756 0247 39       		.byte	0x39
 1757 0248 00       		.byte	0
 1758 0249 00       		.byte	0
 1759 024a 0F       		.uleb128 0xf
 1760 024b 2E030000 		.4byte	.LASF31
 1761 024f 01       		.byte	0x1
 1762 0250 0B02     		.2byte	0x20b
 1763 0252 83000000 		.4byte	0x83
 1764 0256 00000000 		.4byte	.LFB5
 1765 025a 58000000 		.4byte	.LFE5-.LFB5
 1766 025e 01       		.uleb128 0x1
 1767 025f 9C       		.byte	0x9c
 1768 0260 CB020000 		.4byte	0x2cb
 1769 0264 07       		.uleb128 0x7
 1770 0265 6C040000 		.4byte	.LASF27
 1771 0269 01       		.byte	0x1
 1772 026a 0B02     		.2byte	0x20b
 1773 026c 83000000 		.4byte	0x83
 1774 0270 AF020000 		.4byte	.LLST10
 1775 0274 09       		.uleb128 0x9
 1776 0275 F5010000 		.4byte	.LASF28
 1777 0279 01       		.byte	0x1
 1778 027a 0D02     		.2byte	0x20d
 1779 027c 83000000 		.4byte	0x83
 1780 0280 E9020000 		.4byte	.LLST11
 1781 0284 13       		.uleb128 0x13
 1782 0285 0C000000 		.4byte	.LBB3
 1783 0289 36000000 		.4byte	.LBE3-.LBB3
 1784 028d 09       		.uleb128 0x9
 1785 028e 08040000 		.4byte	.LASF29
 1786 0292 01       		.byte	0x1
 1787 0293 1202     		.2byte	0x212
 1788 0295 83000000 		.4byte	0x83
 1789 0299 1F030000 		.4byte	.LLST12
 1790 029d 11       		.uleb128 0x11
 1791 029e D5010000 		.4byte	.LASF22
 1792 02a2 01       		.byte	0x1
 1793 02a3 1302     		.2byte	0x213
 1794 02a5 83000000 		.4byte	0x83
 1795 02a9 02       		.uleb128 0x2
 1796 02aa 91       		.byte	0x91
 1797 02ab 74       		.sleb128 -12
 1798 02ac 12       		.uleb128 0x12
 1799 02ad 38000000 		.4byte	.LVL55
 1800 02b1 CD000000 		.4byte	0xcd
 1801 02b5 C0020000 		.4byte	0x2c0
 1802 02b9 0B       		.uleb128 0xb
 1803 02ba 01       		.uleb128 0x1
 1804 02bb 50       		.byte	0x50
 1805 02bc 02       		.uleb128 0x2
 1806 02bd 91       		.byte	0x91
 1807 02be 74       		.sleb128 -12
 1808 02bf 00       		.byte	0
 1809 02c0 0E       		.uleb128 0xe
 1810 02c1 40000000 		.4byte	.LVL57
 1811 02c5 2F010000 		.4byte	0x12f
 1812 02c9 00       		.byte	0
ARM GAS  C:\Users\austc\AppData\Local\Temp\cciIEsvk.s 			page 57


 1813 02ca 00       		.byte	0
 1814 02cb 0F       		.uleb128 0xf
 1815 02cc B7040000 		.4byte	.LASF32
 1816 02d0 01       		.byte	0x1
 1817 02d1 4602     		.2byte	0x246
 1818 02d3 83000000 		.4byte	0x83
 1819 02d7 00000000 		.4byte	.LFB6
 1820 02db 48000000 		.4byte	.LFE6-.LFB6
 1821 02df 01       		.uleb128 0x1
 1822 02e0 9C       		.byte	0x9c
 1823 02e1 5C030000 		.4byte	0x35c
 1824 02e5 07       		.uleb128 0x7
 1825 02e6 12040000 		.4byte	.LASF33
 1826 02ea 01       		.byte	0x1
 1827 02eb 4602     		.2byte	0x246
 1828 02ed 83000000 		.4byte	0x83
 1829 02f1 48030000 		.4byte	.LLST13
 1830 02f5 07       		.uleb128 0x7
 1831 02f6 6C040000 		.4byte	.LASF27
 1832 02fa 01       		.byte	0x1
 1833 02fb 4602     		.2byte	0x246
 1834 02fd 83000000 		.4byte	0x83
 1835 0301 82030000 		.4byte	.LLST14
 1836 0305 09       		.uleb128 0x9
 1837 0306 F5010000 		.4byte	.LASF28
 1838 030a 01       		.byte	0x1
 1839 030b 4802     		.2byte	0x248
 1840 030d 83000000 		.4byte	0x83
 1841 0311 BC030000 		.4byte	.LLST15
 1842 0315 13       		.uleb128 0x13
 1843 0316 0C000000 		.4byte	.LBB4
 1844 031a 28000000 		.4byte	.LBE4-.LBB4
 1845 031e 09       		.uleb128 0x9
 1846 031f 08040000 		.4byte	.LASF29
 1847 0323 01       		.byte	0x1
 1848 0324 4D02     		.2byte	0x24d
 1849 0326 83000000 		.4byte	0x83
 1850 032a F2030000 		.4byte	.LLST16
 1851 032e 11       		.uleb128 0x11
 1852 032f D5010000 		.4byte	.LASF22
 1853 0333 01       		.byte	0x1
 1854 0334 4E02     		.2byte	0x24e
 1855 0336 83000000 		.4byte	0x83
 1856 033a 02       		.uleb128 0x2
 1857 033b 91       		.byte	0x91
 1858 033c 74       		.sleb128 -12
 1859 033d 12       		.uleb128 0x12
 1860 033e 2A000000 		.4byte	.LVL66
 1861 0342 CD000000 		.4byte	0xcd
 1862 0346 51030000 		.4byte	0x351
 1863 034a 0B       		.uleb128 0xb
 1864 034b 01       		.uleb128 0x1
 1865 034c 50       		.byte	0x50
 1866 034d 02       		.uleb128 0x2
 1867 034e 91       		.byte	0x91
 1868 034f 74       		.sleb128 -12
 1869 0350 00       		.byte	0
ARM GAS  C:\Users\austc\AppData\Local\Temp\cciIEsvk.s 			page 58


 1870 0351 0E       		.uleb128 0xe
 1871 0352 32000000 		.4byte	.LVL68
 1872 0356 2F010000 		.4byte	0x12f
 1873 035a 00       		.byte	0
 1874 035b 00       		.byte	0
 1875 035c 0F       		.uleb128 0xf
 1876 035d F0030000 		.4byte	.LASF34
 1877 0361 01       		.byte	0x1
 1878 0362 8D02     		.2byte	0x28d
 1879 0364 83000000 		.4byte	0x83
 1880 0368 00000000 		.4byte	.LFB7
 1881 036c 7C000000 		.4byte	.LFE7-.LFB7
 1882 0370 01       		.uleb128 0x1
 1883 0371 9C       		.byte	0x9c
 1884 0372 0D040000 		.4byte	0x40d
 1885 0376 07       		.uleb128 0x7
 1886 0377 CD010000 		.4byte	.LASF35
 1887 037b 01       		.byte	0x1
 1888 037c 8D02     		.2byte	0x28d
 1889 037e 83000000 		.4byte	0x83
 1890 0382 1B040000 		.4byte	.LLST17
 1891 0386 07       		.uleb128 0x7
 1892 0387 3C000000 		.4byte	.LASF36
 1893 038b 01       		.byte	0x1
 1894 038c 8D02     		.2byte	0x28d
 1895 038e 0D040000 		.4byte	0x40d
 1896 0392 5D040000 		.4byte	.LLST18
 1897 0396 07       		.uleb128 0x7
 1898 0397 6C040000 		.4byte	.LASF27
 1899 039b 01       		.byte	0x1
 1900 039c 8D02     		.2byte	0x28d
 1901 039e 83000000 		.4byte	0x83
 1902 03a2 9F040000 		.4byte	.LLST19
 1903 03a6 09       		.uleb128 0x9
 1904 03a7 F5010000 		.4byte	.LASF28
 1905 03ab 01       		.byte	0x1
 1906 03ac 8F02     		.2byte	0x28f
 1907 03ae 83000000 		.4byte	0x83
 1908 03b2 D9040000 		.4byte	.LLST20
 1909 03b6 13       		.uleb128 0x13
 1910 03b7 10000000 		.4byte	.LBB5
 1911 03bb 4E000000 		.4byte	.LBE5-.LBB5
 1912 03bf 09       		.uleb128 0x9
 1913 03c0 08040000 		.4byte	.LASF29
 1914 03c4 01       		.byte	0x1
 1915 03c5 9402     		.2byte	0x294
 1916 03c7 83000000 		.4byte	0x83
 1917 03cb 0F050000 		.4byte	.LLST21
 1918 03cf 09       		.uleb128 0x9
 1919 03d0 E8000000 		.4byte	.LASF37
 1920 03d4 01       		.byte	0x1
 1921 03d5 9502     		.2byte	0x295
 1922 03d7 83000000 		.4byte	0x83
 1923 03db 38050000 		.4byte	.LLST22
 1924 03df 11       		.uleb128 0x11
 1925 03e0 D5010000 		.4byte	.LASF22
 1926 03e4 01       		.byte	0x1
ARM GAS  C:\Users\austc\AppData\Local\Temp\cciIEsvk.s 			page 59


 1927 03e5 9602     		.2byte	0x296
 1928 03e7 83000000 		.4byte	0x83
 1929 03eb 02       		.uleb128 0x2
 1930 03ec 91       		.byte	0x91
 1931 03ed 64       		.sleb128 -28
 1932 03ee 12       		.uleb128 0x12
 1933 03ef 32000000 		.4byte	.LVL78
 1934 03f3 CD000000 		.4byte	0xcd
 1935 03f7 02040000 		.4byte	0x402
 1936 03fb 0B       		.uleb128 0xb
 1937 03fc 01       		.uleb128 0x1
 1938 03fd 50       		.byte	0x50
 1939 03fe 02       		.uleb128 0x2
 1940 03ff 91       		.byte	0x91
 1941 0400 64       		.sleb128 -28
 1942 0401 00       		.byte	0
 1943 0402 0E       		.uleb128 0xe
 1944 0403 4E000000 		.4byte	.LVL80
 1945 0407 2F010000 		.4byte	0x12f
 1946 040b 00       		.byte	0
 1947 040c 00       		.byte	0
 1948 040d 0C       		.uleb128 0xc
 1949 040e 04       		.byte	0x4
 1950 040f 6B000000 		.4byte	0x6b
 1951 0413 14       		.uleb128 0x14
 1952 0414 F5020000 		.4byte	.LASF38
 1953 0418 01       		.byte	0x1
 1954 0419 D102     		.2byte	0x2d1
 1955 041b 83000000 		.4byte	0x83
 1956 041f 00000000 		.4byte	.LFB8
 1957 0423 0C000000 		.4byte	.LFE8-.LFB8
 1958 0427 01       		.uleb128 0x1
 1959 0428 9C       		.byte	0x9c
 1960 0429 14       		.uleb128 0x14
 1961 042a 84040000 		.4byte	.LASF39
 1962 042e 01       		.byte	0x1
 1963 042f EC02     		.2byte	0x2ec
 1964 0431 83000000 		.4byte	0x83
 1965 0435 00000000 		.4byte	.LFB9
 1966 0439 0C000000 		.4byte	.LFE9-.LFB9
 1967 043d 01       		.uleb128 0x1
 1968 043e 9C       		.byte	0x9c
 1969 043f 15       		.uleb128 0x15
 1970 0440 34040000 		.4byte	.LASF40
 1971 0444 01       		.byte	0x1
 1972 0445 FE02     		.2byte	0x2fe
 1973 0447 00000000 		.4byte	.LFB10
 1974 044b 28000000 		.4byte	.LFE10-.LFB10
 1975 044f 01       		.uleb128 0x1
 1976 0450 9C       		.byte	0x9c
 1977 0451 78040000 		.4byte	0x478
 1978 0455 12       		.uleb128 0x12
 1979 0456 08000000 		.4byte	.LVL85
 1980 045a FC070000 		.4byte	0x7fc
 1981 045e 68040000 		.4byte	0x468
 1982 0462 0B       		.uleb128 0xb
 1983 0463 01       		.uleb128 0x1
ARM GAS  C:\Users\austc\AppData\Local\Temp\cciIEsvk.s 			page 60


 1984 0464 50       		.byte	0x50
 1985 0465 01       		.uleb128 0x1
 1986 0466 39       		.byte	0x39
 1987 0467 00       		.byte	0
 1988 0468 0A       		.uleb128 0xa
 1989 0469 1E000000 		.4byte	.LVL86
 1990 046d 07080000 		.4byte	0x807
 1991 0471 0B       		.uleb128 0xb
 1992 0472 01       		.uleb128 0x1
 1993 0473 50       		.byte	0x50
 1994 0474 01       		.uleb128 0x1
 1995 0475 39       		.byte	0x39
 1996 0476 00       		.byte	0
 1997 0477 00       		.byte	0
 1998 0478 15       		.uleb128 0x15
 1999 0479 D2020000 		.4byte	.LASF41
 2000 047d 01       		.byte	0x1
 2001 047e 1503     		.2byte	0x315
 2002 0480 00000000 		.4byte	.LFB11
 2003 0484 28000000 		.4byte	.LFE11-.LFB11
 2004 0488 01       		.uleb128 0x1
 2005 0489 9C       		.byte	0x9c
 2006 048a B1040000 		.4byte	0x4b1
 2007 048e 12       		.uleb128 0x12
 2008 048f 08000000 		.4byte	.LVL87
 2009 0493 FC070000 		.4byte	0x7fc
 2010 0497 A1040000 		.4byte	0x4a1
 2011 049b 0B       		.uleb128 0xb
 2012 049c 01       		.uleb128 0x1
 2013 049d 50       		.byte	0x50
 2014 049e 01       		.uleb128 0x1
 2015 049f 39       		.byte	0x39
 2016 04a0 00       		.byte	0
 2017 04a1 0A       		.uleb128 0xa
 2018 04a2 1E000000 		.4byte	.LVL88
 2019 04a6 07080000 		.4byte	0x807
 2020 04aa 0B       		.uleb128 0xb
 2021 04ab 01       		.uleb128 0x1
 2022 04ac 50       		.byte	0x50
 2023 04ad 01       		.uleb128 0x1
 2024 04ae 39       		.byte	0x39
 2025 04af 00       		.byte	0
 2026 04b0 00       		.byte	0
 2027 04b1 0F       		.uleb128 0xf
 2028 04b2 D0040000 		.4byte	.LASF42
 2029 04b6 01       		.byte	0x1
 2030 04b7 4903     		.2byte	0x349
 2031 04b9 83000000 		.4byte	0x83
 2032 04bd 00000000 		.4byte	.LFB12
 2033 04c1 30000000 		.4byte	.LFE12-.LFB12
 2034 04c5 01       		.uleb128 0x1
 2035 04c6 9C       		.byte	0x9c
 2036 04c7 FE040000 		.4byte	0x4fe
 2037 04cb 09       		.uleb128 0x9
 2038 04cc 7D040000 		.4byte	.LASF19
 2039 04d0 01       		.byte	0x1
 2040 04d1 4B03     		.2byte	0x34b
ARM GAS  C:\Users\austc\AppData\Local\Temp\cciIEsvk.s 			page 61


 2041 04d3 83000000 		.4byte	0x83
 2042 04d7 4B050000 		.4byte	.LLST23
 2043 04db 12       		.uleb128 0x12
 2044 04dc 08000000 		.4byte	.LVL89
 2045 04e0 FC070000 		.4byte	0x7fc
 2046 04e4 EE040000 		.4byte	0x4ee
 2047 04e8 0B       		.uleb128 0xb
 2048 04e9 01       		.uleb128 0x1
 2049 04ea 50       		.byte	0x50
 2050 04eb 01       		.uleb128 0x1
 2051 04ec 39       		.byte	0x39
 2052 04ed 00       		.byte	0
 2053 04ee 0A       		.uleb128 0xa
 2054 04ef 24000000 		.4byte	.LVL93
 2055 04f3 07080000 		.4byte	0x807
 2056 04f7 0B       		.uleb128 0xb
 2057 04f8 01       		.uleb128 0x1
 2058 04f9 50       		.byte	0x50
 2059 04fa 01       		.uleb128 0x1
 2060 04fb 39       		.byte	0x39
 2061 04fc 00       		.byte	0
 2062 04fd 00       		.byte	0
 2063 04fe 0F       		.uleb128 0xf
 2064 04ff 5D010000 		.4byte	.LASF43
 2065 0503 01       		.byte	0x1
 2066 0504 6B03     		.2byte	0x36b
 2067 0506 83000000 		.4byte	0x83
 2068 050a 00000000 		.4byte	.LFB13
 2069 050e 20000000 		.4byte	.LFE13-.LFB13
 2070 0512 01       		.uleb128 0x1
 2071 0513 9C       		.byte	0x9c
 2072 0514 4B050000 		.4byte	0x54b
 2073 0518 09       		.uleb128 0x9
 2074 0519 7D040000 		.4byte	.LASF19
 2075 051d 01       		.byte	0x1
 2076 051e 6D03     		.2byte	0x36d
 2077 0520 83000000 		.4byte	0x83
 2078 0524 74050000 		.4byte	.LLST24
 2079 0528 12       		.uleb128 0x12
 2080 0529 08000000 		.4byte	.LVL95
 2081 052d FC070000 		.4byte	0x7fc
 2082 0531 3B050000 		.4byte	0x53b
 2083 0535 0B       		.uleb128 0xb
 2084 0536 01       		.uleb128 0x1
 2085 0537 50       		.byte	0x50
 2086 0538 01       		.uleb128 0x1
 2087 0539 39       		.byte	0x39
 2088 053a 00       		.byte	0
 2089 053b 0A       		.uleb128 0xa
 2090 053c 18000000 		.4byte	.LVL97
 2091 0540 07080000 		.4byte	0x807
 2092 0544 0B       		.uleb128 0xb
 2093 0545 01       		.uleb128 0x1
 2094 0546 50       		.byte	0x50
 2095 0547 01       		.uleb128 0x1
 2096 0548 39       		.byte	0x39
 2097 0549 00       		.byte	0
ARM GAS  C:\Users\austc\AppData\Local\Temp\cciIEsvk.s 			page 62


 2098 054a 00       		.byte	0
 2099 054b 15       		.uleb128 0x15
 2100 054c 6E020000 		.4byte	.LASF44
 2101 0550 01       		.byte	0x1
 2102 0551 9703     		.2byte	0x397
 2103 0553 00000000 		.4byte	.LFB14
 2104 0557 20000000 		.4byte	.LFE14-.LFB14
 2105 055b 01       		.uleb128 0x1
 2106 055c 9C       		.byte	0x9c
 2107 055d 72050000 		.4byte	0x572
 2108 0561 16       		.uleb128 0x16
 2109 0562 636D6400 		.ascii	"cmd\000"
 2110 0566 01       		.byte	0x1
 2111 0567 E103     		.2byte	0x3e1
 2112 0569 83000000 		.4byte	0x83
 2113 056d 92050000 		.4byte	.LLST25
 2114 0571 00       		.byte	0
 2115 0572 17       		.uleb128 0x17
 2116 0573 DD010000 		.4byte	.LASF45
 2117 0577 01       		.byte	0x1
 2118 0578 67       		.byte	0x67
 2119 0579 83000000 		.4byte	0x83
 2120 057d 00000000 		.4byte	.LFB1
 2121 0581 F8000000 		.4byte	.LFE1-.LFB1
 2122 0585 01       		.uleb128 0x1
 2123 0586 9C       		.byte	0x9c
 2124 0587 02060000 		.4byte	0x602
 2125 058b 18       		.uleb128 0x18
 2126 058c 5D030000 		.4byte	.LASF25
 2127 0590 01       		.byte	0x1
 2128 0591 67       		.byte	0x67
 2129 0592 83000000 		.4byte	0x83
 2130 0596 B1050000 		.4byte	.LLST26
 2131 059a 18       		.uleb128 0x18
 2132 059b 76040000 		.4byte	.LASF46
 2133 059f 01       		.byte	0x1
 2134 05a0 67       		.byte	0x67
 2135 05a1 0D040000 		.4byte	0x40d
 2136 05a5 09060000 		.4byte	.LLST27
 2137 05a9 19       		.uleb128 0x19
 2138 05aa 636E7400 		.ascii	"cnt\000"
 2139 05ae 01       		.byte	0x1
 2140 05af 67       		.byte	0x67
 2141 05b0 83000000 		.4byte	0x83
 2142 05b4 86060000 		.4byte	.LLST28
 2143 05b8 18       		.uleb128 0x18
 2144 05b9 1E040000 		.4byte	.LASF47
 2145 05bd 01       		.byte	0x1
 2146 05be 67       		.byte	0x67
 2147 05bf 83000000 		.4byte	0x83
 2148 05c3 F4060000 		.4byte	.LLST29
 2149 05c7 1A       		.uleb128 0x1a
 2150 05c8 F5010000 		.4byte	.LASF28
 2151 05cc 01       		.byte	0x1
 2152 05cd 69       		.byte	0x69
 2153 05ce 83000000 		.4byte	0x83
 2154 05d2 36070000 		.4byte	.LLST30
ARM GAS  C:\Users\austc\AppData\Local\Temp\cciIEsvk.s 			page 63


 2155 05d6 12       		.uleb128 0x12
 2156 05d7 1E000000 		.4byte	.LVL105
 2157 05db FC070000 		.4byte	0x7fc
 2158 05df E9050000 		.4byte	0x5e9
 2159 05e3 0B       		.uleb128 0xb
 2160 05e4 01       		.uleb128 0x1
 2161 05e5 50       		.byte	0x50
 2162 05e6 01       		.uleb128 0x1
 2163 05e7 39       		.byte	0x39
 2164 05e8 00       		.byte	0
 2165 05e9 0E       		.uleb128 0xe
 2166 05ea 9E000000 		.4byte	.LVL117
 2167 05ee 4B050000 		.4byte	0x54b
 2168 05f2 0A       		.uleb128 0xa
 2169 05f3 B4000000 		.4byte	.LVL119
 2170 05f7 07080000 		.4byte	0x807
 2171 05fb 0B       		.uleb128 0xb
 2172 05fc 01       		.uleb128 0x1
 2173 05fd 50       		.byte	0x50
 2174 05fe 01       		.uleb128 0x1
 2175 05ff 39       		.byte	0x39
 2176 0600 00       		.byte	0
 2177 0601 00       		.byte	0
 2178 0602 17       		.uleb128 0x17
 2179 0603 46030000 		.4byte	.LASF48
 2180 0607 01       		.byte	0x1
 2181 0608 D5       		.byte	0xd5
 2182 0609 83000000 		.4byte	0x83
 2183 060d 00000000 		.4byte	.LFB2
 2184 0611 08010000 		.4byte	.LFE2-.LFB2
 2185 0615 01       		.uleb128 0x1
 2186 0616 9C       		.byte	0x9c
 2187 0617 92060000 		.4byte	0x692
 2188 061b 18       		.uleb128 0x18
 2189 061c 5D030000 		.4byte	.LASF25
 2190 0620 01       		.byte	0x1
 2191 0621 D5       		.byte	0xd5
 2192 0622 83000000 		.4byte	0x83
 2193 0626 78070000 		.4byte	.LLST31
 2194 062a 18       		.uleb128 0x18
 2195 062b 0D010000 		.4byte	.LASF49
 2196 062f 01       		.byte	0x1
 2197 0630 D5       		.byte	0xd5
 2198 0631 0D040000 		.4byte	0x40d
 2199 0635 D0070000 		.4byte	.LLST32
 2200 0639 19       		.uleb128 0x19
 2201 063a 636E7400 		.ascii	"cnt\000"
 2202 063e 01       		.byte	0x1
 2203 063f D5       		.byte	0xd5
 2204 0640 83000000 		.4byte	0x83
 2205 0644 4D080000 		.4byte	.LLST33
 2206 0648 18       		.uleb128 0x18
 2207 0649 1E040000 		.4byte	.LASF47
 2208 064d 01       		.byte	0x1
 2209 064e D5       		.byte	0xd5
 2210 064f 83000000 		.4byte	0x83
 2211 0653 BB080000 		.4byte	.LLST34
ARM GAS  C:\Users\austc\AppData\Local\Temp\cciIEsvk.s 			page 64


 2212 0657 1A       		.uleb128 0x1a
 2213 0658 F5010000 		.4byte	.LASF28
 2214 065c 01       		.byte	0x1
 2215 065d D7       		.byte	0xd7
 2216 065e 83000000 		.4byte	0x83
 2217 0662 FD080000 		.4byte	.LLST35
 2218 0666 12       		.uleb128 0x12
 2219 0667 1E000000 		.4byte	.LVL127
 2220 066b FC070000 		.4byte	0x7fc
 2221 066f 79060000 		.4byte	0x679
 2222 0673 0B       		.uleb128 0xb
 2223 0674 01       		.uleb128 0x1
 2224 0675 50       		.byte	0x50
 2225 0676 01       		.uleb128 0x1
 2226 0677 39       		.byte	0x39
 2227 0678 00       		.byte	0
 2228 0679 0E       		.uleb128 0xe
 2229 067a B2000000 		.4byte	.LVL139
 2230 067e 4B050000 		.4byte	0x54b
 2231 0682 0A       		.uleb128 0xa
 2232 0683 C8000000 		.4byte	.LVL141
 2233 0687 07080000 		.4byte	0x807
 2234 068b 0B       		.uleb128 0xb
 2235 068c 01       		.uleb128 0x1
 2236 068d 50       		.byte	0x50
 2237 068e 01       		.uleb128 0x1
 2238 068f 39       		.byte	0x39
 2239 0690 00       		.byte	0
 2240 0691 00       		.byte	0
 2241 0692 0F       		.uleb128 0xf
 2242 0693 13030000 		.4byte	.LASF50
 2243 0697 01       		.byte	0x1
 2244 0698 BC01     		.2byte	0x1bc
 2245 069a 83000000 		.4byte	0x83
 2246 069e 00000000 		.4byte	.LFB4
 2247 06a2 68000000 		.4byte	.LFE4-.LFB4
 2248 06a6 01       		.uleb128 0x1
 2249 06a7 9C       		.byte	0x9c
 2250 06a8 3C070000 		.4byte	0x73c
 2251 06ac 07       		.uleb128 0x7
 2252 06ad 5D030000 		.4byte	.LASF25
 2253 06b1 01       		.byte	0x1
 2254 06b2 BC01     		.2byte	0x1bc
 2255 06b4 83000000 		.4byte	0x83
 2256 06b8 3F090000 		.4byte	.LLST36
 2257 06bc 07       		.uleb128 0x7
 2258 06bd 89020000 		.4byte	.LASF26
 2259 06c1 01       		.byte	0x1
 2260 06c2 BC01     		.2byte	0x1bc
 2261 06c4 83000000 		.4byte	0x83
 2262 06c8 76090000 		.4byte	.LLST37
 2263 06cc 07       		.uleb128 0x7
 2264 06cd 6C040000 		.4byte	.LASF27
 2265 06d1 01       		.byte	0x1
 2266 06d2 BC01     		.2byte	0x1bc
 2267 06d4 83000000 		.4byte	0x83
 2268 06d8 B0090000 		.4byte	.LLST38
ARM GAS  C:\Users\austc\AppData\Local\Temp\cciIEsvk.s 			page 65


 2269 06dc 09       		.uleb128 0x9
 2270 06dd F5010000 		.4byte	.LASF28
 2271 06e1 01       		.byte	0x1
 2272 06e2 BE01     		.2byte	0x1be
 2273 06e4 83000000 		.4byte	0x83
 2274 06e8 EA090000 		.4byte	.LLST39
 2275 06ec 13       		.uleb128 0x13
 2276 06ed 0C000000 		.4byte	.LBB6
 2277 06f1 48000000 		.4byte	.LBE6-.LBB6
 2278 06f5 09       		.uleb128 0x9
 2279 06f6 08040000 		.4byte	.LASF29
 2280 06fa 01       		.byte	0x1
 2281 06fb C301     		.2byte	0x1c3
 2282 06fd 83000000 		.4byte	0x83
 2283 0701 200A0000 		.4byte	.LLST40
 2284 0705 11       		.uleb128 0x11
 2285 0706 D5010000 		.4byte	.LASF22
 2286 070a 01       		.byte	0x1
 2287 070b C401     		.2byte	0x1c4
 2288 070d 83000000 		.4byte	0x83
 2289 0711 02       		.uleb128 0x2
 2290 0712 91       		.byte	0x91
 2291 0713 74       		.sleb128 -12
 2292 0714 0E       		.uleb128 0xe
 2293 0715 34000000 		.4byte	.LVL151
 2294 0719 4B050000 		.4byte	0x54b
 2295 071d 12       		.uleb128 0x12
 2296 071e 4A000000 		.4byte	.LVL155
 2297 0722 CD000000 		.4byte	0xcd
 2298 0726 31070000 		.4byte	0x731
 2299 072a 0B       		.uleb128 0xb
 2300 072b 01       		.uleb128 0x1
 2301 072c 50       		.byte	0x50
 2302 072d 02       		.uleb128 0x2
 2303 072e 91       		.byte	0x91
 2304 072f 74       		.sleb128 -12
 2305 0730 00       		.byte	0
 2306 0731 0E       		.uleb128 0xe
 2307 0732 52000000 		.4byte	.LVL157
 2308 0736 2F010000 		.4byte	0x12f
 2309 073a 00       		.byte	0
 2310 073b 00       		.byte	0
 2311 073c 1B       		.uleb128 0x1b
 2312 073d E4030000 		.4byte	.LASF51
 2313 0741 03       		.byte	0x3
 2314 0742 1E       		.byte	0x1e
 2315 0743 A4000000 		.4byte	0xa4
 2316 0747 1C       		.uleb128 0x1c
 2317 0748 23040000 		.4byte	.LASF52
 2318 074c 01       		.byte	0x1
 2319 074d 1D       		.byte	0x1d
 2320 074e A9000000 		.4byte	0xa9
 2321 0752 05       		.uleb128 0x5
 2322 0753 03       		.byte	0x3
 2323 0754 00000000 		.4byte	I2C_1_mstrStatus
 2324 0758 1C       		.uleb128 0x1c
 2325 0759 D2030000 		.4byte	.LASF53
ARM GAS  C:\Users\austc\AppData\Local\Temp\cciIEsvk.s 			page 66


 2326 075d 01       		.byte	0x1
 2327 075e 1E       		.byte	0x1e
 2328 075f A4000000 		.4byte	0xa4
 2329 0763 05       		.uleb128 0x5
 2330 0764 03       		.byte	0x3
 2331 0765 00000000 		.4byte	I2C_1_mstrControl
 2332 0769 1C       		.uleb128 0x1c
 2333 076a 8B030000 		.4byte	.LASF54
 2334 076e 01       		.byte	0x1
 2335 076f 21       		.byte	0x21
 2336 0770 7A070000 		.4byte	0x77a
 2337 0774 05       		.uleb128 0x5
 2338 0775 03       		.byte	0x3
 2339 0776 00000000 		.4byte	I2C_1_mstrRdBufPtr
 2340 077a 0C       		.uleb128 0xc
 2341 077b 04       		.byte	0x4
 2342 077c A4000000 		.4byte	0xa4
 2343 0780 1C       		.uleb128 0x1c
 2344 0781 A3040000 		.4byte	.LASF55
 2345 0785 01       		.byte	0x1
 2346 0786 22       		.byte	0x22
 2347 0787 BA000000 		.4byte	0xba
 2348 078b 05       		.uleb128 0x5
 2349 078c 03       		.byte	0x3
 2350 078d 00000000 		.4byte	I2C_1_mstrRdBufSize
 2351 0791 1C       		.uleb128 0x1c
 2352 0792 B8010000 		.4byte	.LASF56
 2353 0796 01       		.byte	0x1
 2354 0797 23       		.byte	0x23
 2355 0798 BA000000 		.4byte	0xba
 2356 079c 05       		.uleb128 0x5
 2357 079d 03       		.byte	0x3
 2358 079e 00000000 		.4byte	I2C_1_mstrRdBufIndex
 2359 07a2 1C       		.uleb128 0x1c
 2360 07a3 78030000 		.4byte	.LASF57
 2361 07a7 01       		.byte	0x1
 2362 07a8 26       		.byte	0x26
 2363 07a9 7A070000 		.4byte	0x77a
 2364 07ad 05       		.uleb128 0x5
 2365 07ae 03       		.byte	0x3
 2366 07af 00000000 		.4byte	I2C_1_mstrWrBufPtr
 2367 07b3 1C       		.uleb128 0x1c
 2368 07b4 00000000 		.4byte	.LASF58
 2369 07b8 01       		.byte	0x1
 2370 07b9 27       		.byte	0x27
 2371 07ba BA000000 		.4byte	0xba
 2372 07be 05       		.uleb128 0x5
 2373 07bf 03       		.byte	0x3
 2374 07c0 00000000 		.4byte	I2C_1_mstrWrBufSize
 2375 07c4 1C       		.uleb128 0x1c
 2376 07c5 14010000 		.4byte	.LASF59
 2377 07c9 01       		.byte	0x1
 2378 07ca 28       		.byte	0x28
 2379 07cb BA000000 		.4byte	0xba
 2380 07cf 05       		.uleb128 0x5
 2381 07d0 03       		.byte	0x3
 2382 07d1 00000000 		.4byte	I2C_1_mstrWrBufIndex
ARM GAS  C:\Users\austc\AppData\Local\Temp\cciIEsvk.s 			page 67


 2383 07d5 1C       		.uleb128 0x1c
 2384 07d6 E6040000 		.4byte	.LASF60
 2385 07da 01       		.byte	0x1
 2386 07db 29       		.byte	0x29
 2387 07dc BA000000 		.4byte	0xba
 2388 07e0 05       		.uleb128 0x5
 2389 07e1 03       		.byte	0x3
 2390 07e2 00000000 		.4byte	I2C_1_mstrWrBufIndexTmp
 2391 07e6 1D       		.uleb128 0x1d
 2392 07e7 45010000 		.4byte	.LASF61
 2393 07eb 45010000 		.4byte	.LASF61
 2394 07ef 04       		.byte	0x4
 2395 07f0 DA       		.byte	0xda
 2396 07f1 1D       		.uleb128 0x1d
 2397 07f2 90010000 		.4byte	.LASF62
 2398 07f6 90010000 		.4byte	.LASF62
 2399 07fa 03       		.byte	0x3
 2400 07fb 4D       		.byte	0x4d
 2401 07fc 1D       		.uleb128 0x1d
 2402 07fd 32010000 		.4byte	.LASF63
 2403 0801 32010000 		.4byte	.LASF63
 2404 0805 04       		.byte	0x4
 2405 0806 C5       		.byte	0xc5
 2406 0807 1D       		.uleb128 0x1d
 2407 0808 AB020000 		.4byte	.LASF64
 2408 080c AB020000 		.4byte	.LASF64
 2409 0810 04       		.byte	0x4
 2410 0811 C3       		.byte	0xc3
 2411 0812 00       		.byte	0
 2412              		.section	.debug_abbrev,"",%progbits
 2413              	.Ldebug_abbrev0:
 2414 0000 01       		.uleb128 0x1
 2415 0001 11       		.uleb128 0x11
 2416 0002 01       		.byte	0x1
 2417 0003 25       		.uleb128 0x25
 2418 0004 0E       		.uleb128 0xe
 2419 0005 13       		.uleb128 0x13
 2420 0006 0B       		.uleb128 0xb
 2421 0007 03       		.uleb128 0x3
 2422 0008 0E       		.uleb128 0xe
 2423 0009 1B       		.uleb128 0x1b
 2424 000a 0E       		.uleb128 0xe
 2425 000b 55       		.uleb128 0x55
 2426 000c 17       		.uleb128 0x17
 2427 000d 11       		.uleb128 0x11
 2428 000e 01       		.uleb128 0x1
 2429 000f 10       		.uleb128 0x10
 2430 0010 17       		.uleb128 0x17
 2431 0011 00       		.byte	0
 2432 0012 00       		.byte	0
 2433 0013 02       		.uleb128 0x2
 2434 0014 24       		.uleb128 0x24
 2435 0015 00       		.byte	0
 2436 0016 0B       		.uleb128 0xb
 2437 0017 0B       		.uleb128 0xb
 2438 0018 3E       		.uleb128 0x3e
 2439 0019 0B       		.uleb128 0xb
ARM GAS  C:\Users\austc\AppData\Local\Temp\cciIEsvk.s 			page 68


 2440 001a 03       		.uleb128 0x3
 2441 001b 0E       		.uleb128 0xe
 2442 001c 00       		.byte	0
 2443 001d 00       		.byte	0
 2444 001e 03       		.uleb128 0x3
 2445 001f 24       		.uleb128 0x24
 2446 0020 00       		.byte	0
 2447 0021 0B       		.uleb128 0xb
 2448 0022 0B       		.uleb128 0xb
 2449 0023 3E       		.uleb128 0x3e
 2450 0024 0B       		.uleb128 0xb
 2451 0025 03       		.uleb128 0x3
 2452 0026 08       		.uleb128 0x8
 2453 0027 00       		.byte	0
 2454 0028 00       		.byte	0
 2455 0029 04       		.uleb128 0x4
 2456 002a 16       		.uleb128 0x16
 2457 002b 00       		.byte	0
 2458 002c 03       		.uleb128 0x3
 2459 002d 0E       		.uleb128 0xe
 2460 002e 3A       		.uleb128 0x3a
 2461 002f 0B       		.uleb128 0xb
 2462 0030 3B       		.uleb128 0x3b
 2463 0031 05       		.uleb128 0x5
 2464 0032 49       		.uleb128 0x49
 2465 0033 13       		.uleb128 0x13
 2466 0034 00       		.byte	0
 2467 0035 00       		.byte	0
 2468 0036 05       		.uleb128 0x5
 2469 0037 35       		.uleb128 0x35
 2470 0038 00       		.byte	0
 2471 0039 49       		.uleb128 0x49
 2472 003a 13       		.uleb128 0x13
 2473 003b 00       		.byte	0
 2474 003c 00       		.byte	0
 2475 003d 06       		.uleb128 0x6
 2476 003e 2E       		.uleb128 0x2e
 2477 003f 01       		.byte	0x1
 2478 0040 03       		.uleb128 0x3
 2479 0041 0E       		.uleb128 0xe
 2480 0042 3A       		.uleb128 0x3a
 2481 0043 0B       		.uleb128 0xb
 2482 0044 3B       		.uleb128 0x3b
 2483 0045 05       		.uleb128 0x5
 2484 0046 27       		.uleb128 0x27
 2485 0047 19       		.uleb128 0x19
 2486 0048 49       		.uleb128 0x49
 2487 0049 13       		.uleb128 0x13
 2488 004a 11       		.uleb128 0x11
 2489 004b 01       		.uleb128 0x1
 2490 004c 12       		.uleb128 0x12
 2491 004d 06       		.uleb128 0x6
 2492 004e 40       		.uleb128 0x40
 2493 004f 18       		.uleb128 0x18
 2494 0050 9742     		.uleb128 0x2117
 2495 0052 19       		.uleb128 0x19
 2496 0053 01       		.uleb128 0x1
ARM GAS  C:\Users\austc\AppData\Local\Temp\cciIEsvk.s 			page 69


 2497 0054 13       		.uleb128 0x13
 2498 0055 00       		.byte	0
 2499 0056 00       		.byte	0
 2500 0057 07       		.uleb128 0x7
 2501 0058 05       		.uleb128 0x5
 2502 0059 00       		.byte	0
 2503 005a 03       		.uleb128 0x3
 2504 005b 0E       		.uleb128 0xe
 2505 005c 3A       		.uleb128 0x3a
 2506 005d 0B       		.uleb128 0xb
 2507 005e 3B       		.uleb128 0x3b
 2508 005f 05       		.uleb128 0x5
 2509 0060 49       		.uleb128 0x49
 2510 0061 13       		.uleb128 0x13
 2511 0062 02       		.uleb128 0x2
 2512 0063 17       		.uleb128 0x17
 2513 0064 00       		.byte	0
 2514 0065 00       		.byte	0
 2515 0066 08       		.uleb128 0x8
 2516 0067 34       		.uleb128 0x34
 2517 0068 00       		.byte	0
 2518 0069 03       		.uleb128 0x3
 2519 006a 0E       		.uleb128 0xe
 2520 006b 3A       		.uleb128 0x3a
 2521 006c 0B       		.uleb128 0xb
 2522 006d 3B       		.uleb128 0x3b
 2523 006e 05       		.uleb128 0x5
 2524 006f 49       		.uleb128 0x49
 2525 0070 13       		.uleb128 0x13
 2526 0071 1C       		.uleb128 0x1c
 2527 0072 0B       		.uleb128 0xb
 2528 0073 00       		.byte	0
 2529 0074 00       		.byte	0
 2530 0075 09       		.uleb128 0x9
 2531 0076 34       		.uleb128 0x34
 2532 0077 00       		.byte	0
 2533 0078 03       		.uleb128 0x3
 2534 0079 0E       		.uleb128 0xe
 2535 007a 3A       		.uleb128 0x3a
 2536 007b 0B       		.uleb128 0xb
 2537 007c 3B       		.uleb128 0x3b
 2538 007d 05       		.uleb128 0x5
 2539 007e 49       		.uleb128 0x49
 2540 007f 13       		.uleb128 0x13
 2541 0080 02       		.uleb128 0x2
 2542 0081 17       		.uleb128 0x17
 2543 0082 00       		.byte	0
 2544 0083 00       		.byte	0
 2545 0084 0A       		.uleb128 0xa
 2546 0085 898201   		.uleb128 0x4109
 2547 0088 01       		.byte	0x1
 2548 0089 11       		.uleb128 0x11
 2549 008a 01       		.uleb128 0x1
 2550 008b 31       		.uleb128 0x31
 2551 008c 13       		.uleb128 0x13
 2552 008d 00       		.byte	0
 2553 008e 00       		.byte	0
ARM GAS  C:\Users\austc\AppData\Local\Temp\cciIEsvk.s 			page 70


 2554 008f 0B       		.uleb128 0xb
 2555 0090 8A8201   		.uleb128 0x410a
 2556 0093 00       		.byte	0
 2557 0094 02       		.uleb128 0x2
 2558 0095 18       		.uleb128 0x18
 2559 0096 9142     		.uleb128 0x2111
 2560 0098 18       		.uleb128 0x18
 2561 0099 00       		.byte	0
 2562 009a 00       		.byte	0
 2563 009b 0C       		.uleb128 0xc
 2564 009c 0F       		.uleb128 0xf
 2565 009d 00       		.byte	0
 2566 009e 0B       		.uleb128 0xb
 2567 009f 0B       		.uleb128 0xb
 2568 00a0 49       		.uleb128 0x49
 2569 00a1 13       		.uleb128 0x13
 2570 00a2 00       		.byte	0
 2571 00a3 00       		.byte	0
 2572 00a4 0D       		.uleb128 0xd
 2573 00a5 26       		.uleb128 0x26
 2574 00a6 00       		.byte	0
 2575 00a7 49       		.uleb128 0x49
 2576 00a8 13       		.uleb128 0x13
 2577 00a9 00       		.byte	0
 2578 00aa 00       		.byte	0
 2579 00ab 0E       		.uleb128 0xe
 2580 00ac 898201   		.uleb128 0x4109
 2581 00af 00       		.byte	0
 2582 00b0 11       		.uleb128 0x11
 2583 00b1 01       		.uleb128 0x1
 2584 00b2 31       		.uleb128 0x31
 2585 00b3 13       		.uleb128 0x13
 2586 00b4 00       		.byte	0
 2587 00b5 00       		.byte	0
 2588 00b6 0F       		.uleb128 0xf
 2589 00b7 2E       		.uleb128 0x2e
 2590 00b8 01       		.byte	0x1
 2591 00b9 3F       		.uleb128 0x3f
 2592 00ba 19       		.uleb128 0x19
 2593 00bb 03       		.uleb128 0x3
 2594 00bc 0E       		.uleb128 0xe
 2595 00bd 3A       		.uleb128 0x3a
 2596 00be 0B       		.uleb128 0xb
 2597 00bf 3B       		.uleb128 0x3b
 2598 00c0 05       		.uleb128 0x5
 2599 00c1 27       		.uleb128 0x27
 2600 00c2 19       		.uleb128 0x19
 2601 00c3 49       		.uleb128 0x49
 2602 00c4 13       		.uleb128 0x13
 2603 00c5 11       		.uleb128 0x11
 2604 00c6 01       		.uleb128 0x1
 2605 00c7 12       		.uleb128 0x12
 2606 00c8 06       		.uleb128 0x6
 2607 00c9 40       		.uleb128 0x40
 2608 00ca 18       		.uleb128 0x18
 2609 00cb 9742     		.uleb128 0x2117
 2610 00cd 19       		.uleb128 0x19
ARM GAS  C:\Users\austc\AppData\Local\Temp\cciIEsvk.s 			page 71


 2611 00ce 01       		.uleb128 0x1
 2612 00cf 13       		.uleb128 0x13
 2613 00d0 00       		.byte	0
 2614 00d1 00       		.byte	0
 2615 00d2 10       		.uleb128 0x10
 2616 00d3 0B       		.uleb128 0xb
 2617 00d4 01       		.byte	0x1
 2618 00d5 11       		.uleb128 0x11
 2619 00d6 01       		.uleb128 0x1
 2620 00d7 12       		.uleb128 0x12
 2621 00d8 06       		.uleb128 0x6
 2622 00d9 01       		.uleb128 0x1
 2623 00da 13       		.uleb128 0x13
 2624 00db 00       		.byte	0
 2625 00dc 00       		.byte	0
 2626 00dd 11       		.uleb128 0x11
 2627 00de 34       		.uleb128 0x34
 2628 00df 00       		.byte	0
 2629 00e0 03       		.uleb128 0x3
 2630 00e1 0E       		.uleb128 0xe
 2631 00e2 3A       		.uleb128 0x3a
 2632 00e3 0B       		.uleb128 0xb
 2633 00e4 3B       		.uleb128 0x3b
 2634 00e5 05       		.uleb128 0x5
 2635 00e6 49       		.uleb128 0x49
 2636 00e7 13       		.uleb128 0x13
 2637 00e8 02       		.uleb128 0x2
 2638 00e9 18       		.uleb128 0x18
 2639 00ea 00       		.byte	0
 2640 00eb 00       		.byte	0
 2641 00ec 12       		.uleb128 0x12
 2642 00ed 898201   		.uleb128 0x4109
 2643 00f0 01       		.byte	0x1
 2644 00f1 11       		.uleb128 0x11
 2645 00f2 01       		.uleb128 0x1
 2646 00f3 31       		.uleb128 0x31
 2647 00f4 13       		.uleb128 0x13
 2648 00f5 01       		.uleb128 0x1
 2649 00f6 13       		.uleb128 0x13
 2650 00f7 00       		.byte	0
 2651 00f8 00       		.byte	0
 2652 00f9 13       		.uleb128 0x13
 2653 00fa 0B       		.uleb128 0xb
 2654 00fb 01       		.byte	0x1
 2655 00fc 11       		.uleb128 0x11
 2656 00fd 01       		.uleb128 0x1
 2657 00fe 12       		.uleb128 0x12
 2658 00ff 06       		.uleb128 0x6
 2659 0100 00       		.byte	0
 2660 0101 00       		.byte	0
 2661 0102 14       		.uleb128 0x14
 2662 0103 2E       		.uleb128 0x2e
 2663 0104 00       		.byte	0
 2664 0105 3F       		.uleb128 0x3f
 2665 0106 19       		.uleb128 0x19
 2666 0107 03       		.uleb128 0x3
 2667 0108 0E       		.uleb128 0xe
ARM GAS  C:\Users\austc\AppData\Local\Temp\cciIEsvk.s 			page 72


 2668 0109 3A       		.uleb128 0x3a
 2669 010a 0B       		.uleb128 0xb
 2670 010b 3B       		.uleb128 0x3b
 2671 010c 05       		.uleb128 0x5
 2672 010d 27       		.uleb128 0x27
 2673 010e 19       		.uleb128 0x19
 2674 010f 49       		.uleb128 0x49
 2675 0110 13       		.uleb128 0x13
 2676 0111 11       		.uleb128 0x11
 2677 0112 01       		.uleb128 0x1
 2678 0113 12       		.uleb128 0x12
 2679 0114 06       		.uleb128 0x6
 2680 0115 40       		.uleb128 0x40
 2681 0116 18       		.uleb128 0x18
 2682 0117 9742     		.uleb128 0x2117
 2683 0119 19       		.uleb128 0x19
 2684 011a 00       		.byte	0
 2685 011b 00       		.byte	0
 2686 011c 15       		.uleb128 0x15
 2687 011d 2E       		.uleb128 0x2e
 2688 011e 01       		.byte	0x1
 2689 011f 3F       		.uleb128 0x3f
 2690 0120 19       		.uleb128 0x19
 2691 0121 03       		.uleb128 0x3
 2692 0122 0E       		.uleb128 0xe
 2693 0123 3A       		.uleb128 0x3a
 2694 0124 0B       		.uleb128 0xb
 2695 0125 3B       		.uleb128 0x3b
 2696 0126 05       		.uleb128 0x5
 2697 0127 27       		.uleb128 0x27
 2698 0128 19       		.uleb128 0x19
 2699 0129 11       		.uleb128 0x11
 2700 012a 01       		.uleb128 0x1
 2701 012b 12       		.uleb128 0x12
 2702 012c 06       		.uleb128 0x6
 2703 012d 40       		.uleb128 0x40
 2704 012e 18       		.uleb128 0x18
 2705 012f 9742     		.uleb128 0x2117
 2706 0131 19       		.uleb128 0x19
 2707 0132 01       		.uleb128 0x1
 2708 0133 13       		.uleb128 0x13
 2709 0134 00       		.byte	0
 2710 0135 00       		.byte	0
 2711 0136 16       		.uleb128 0x16
 2712 0137 34       		.uleb128 0x34
 2713 0138 00       		.byte	0
 2714 0139 03       		.uleb128 0x3
 2715 013a 08       		.uleb128 0x8
 2716 013b 3A       		.uleb128 0x3a
 2717 013c 0B       		.uleb128 0xb
 2718 013d 3B       		.uleb128 0x3b
 2719 013e 05       		.uleb128 0x5
 2720 013f 49       		.uleb128 0x49
 2721 0140 13       		.uleb128 0x13
 2722 0141 02       		.uleb128 0x2
 2723 0142 17       		.uleb128 0x17
 2724 0143 00       		.byte	0
ARM GAS  C:\Users\austc\AppData\Local\Temp\cciIEsvk.s 			page 73


 2725 0144 00       		.byte	0
 2726 0145 17       		.uleb128 0x17
 2727 0146 2E       		.uleb128 0x2e
 2728 0147 01       		.byte	0x1
 2729 0148 3F       		.uleb128 0x3f
 2730 0149 19       		.uleb128 0x19
 2731 014a 03       		.uleb128 0x3
 2732 014b 0E       		.uleb128 0xe
 2733 014c 3A       		.uleb128 0x3a
 2734 014d 0B       		.uleb128 0xb
 2735 014e 3B       		.uleb128 0x3b
 2736 014f 0B       		.uleb128 0xb
 2737 0150 27       		.uleb128 0x27
 2738 0151 19       		.uleb128 0x19
 2739 0152 49       		.uleb128 0x49
 2740 0153 13       		.uleb128 0x13
 2741 0154 11       		.uleb128 0x11
 2742 0155 01       		.uleb128 0x1
 2743 0156 12       		.uleb128 0x12
 2744 0157 06       		.uleb128 0x6
 2745 0158 40       		.uleb128 0x40
 2746 0159 18       		.uleb128 0x18
 2747 015a 9742     		.uleb128 0x2117
 2748 015c 19       		.uleb128 0x19
 2749 015d 01       		.uleb128 0x1
 2750 015e 13       		.uleb128 0x13
 2751 015f 00       		.byte	0
 2752 0160 00       		.byte	0
 2753 0161 18       		.uleb128 0x18
 2754 0162 05       		.uleb128 0x5
 2755 0163 00       		.byte	0
 2756 0164 03       		.uleb128 0x3
 2757 0165 0E       		.uleb128 0xe
 2758 0166 3A       		.uleb128 0x3a
 2759 0167 0B       		.uleb128 0xb
 2760 0168 3B       		.uleb128 0x3b
 2761 0169 0B       		.uleb128 0xb
 2762 016a 49       		.uleb128 0x49
 2763 016b 13       		.uleb128 0x13
 2764 016c 02       		.uleb128 0x2
 2765 016d 17       		.uleb128 0x17
 2766 016e 00       		.byte	0
 2767 016f 00       		.byte	0
 2768 0170 19       		.uleb128 0x19
 2769 0171 05       		.uleb128 0x5
 2770 0172 00       		.byte	0
 2771 0173 03       		.uleb128 0x3
 2772 0174 08       		.uleb128 0x8
 2773 0175 3A       		.uleb128 0x3a
 2774 0176 0B       		.uleb128 0xb
 2775 0177 3B       		.uleb128 0x3b
 2776 0178 0B       		.uleb128 0xb
 2777 0179 49       		.uleb128 0x49
 2778 017a 13       		.uleb128 0x13
 2779 017b 02       		.uleb128 0x2
 2780 017c 17       		.uleb128 0x17
 2781 017d 00       		.byte	0
ARM GAS  C:\Users\austc\AppData\Local\Temp\cciIEsvk.s 			page 74


 2782 017e 00       		.byte	0
 2783 017f 1A       		.uleb128 0x1a
 2784 0180 34       		.uleb128 0x34
 2785 0181 00       		.byte	0
 2786 0182 03       		.uleb128 0x3
 2787 0183 0E       		.uleb128 0xe
 2788 0184 3A       		.uleb128 0x3a
 2789 0185 0B       		.uleb128 0xb
 2790 0186 3B       		.uleb128 0x3b
 2791 0187 0B       		.uleb128 0xb
 2792 0188 49       		.uleb128 0x49
 2793 0189 13       		.uleb128 0x13
 2794 018a 02       		.uleb128 0x2
 2795 018b 17       		.uleb128 0x17
 2796 018c 00       		.byte	0
 2797 018d 00       		.byte	0
 2798 018e 1B       		.uleb128 0x1b
 2799 018f 34       		.uleb128 0x34
 2800 0190 00       		.byte	0
 2801 0191 03       		.uleb128 0x3
 2802 0192 0E       		.uleb128 0xe
 2803 0193 3A       		.uleb128 0x3a
 2804 0194 0B       		.uleb128 0xb
 2805 0195 3B       		.uleb128 0x3b
 2806 0196 0B       		.uleb128 0xb
 2807 0197 49       		.uleb128 0x49
 2808 0198 13       		.uleb128 0x13
 2809 0199 3F       		.uleb128 0x3f
 2810 019a 19       		.uleb128 0x19
 2811 019b 3C       		.uleb128 0x3c
 2812 019c 19       		.uleb128 0x19
 2813 019d 00       		.byte	0
 2814 019e 00       		.byte	0
 2815 019f 1C       		.uleb128 0x1c
 2816 01a0 34       		.uleb128 0x34
 2817 01a1 00       		.byte	0
 2818 01a2 03       		.uleb128 0x3
 2819 01a3 0E       		.uleb128 0xe
 2820 01a4 3A       		.uleb128 0x3a
 2821 01a5 0B       		.uleb128 0xb
 2822 01a6 3B       		.uleb128 0x3b
 2823 01a7 0B       		.uleb128 0xb
 2824 01a8 49       		.uleb128 0x49
 2825 01a9 13       		.uleb128 0x13
 2826 01aa 3F       		.uleb128 0x3f
 2827 01ab 19       		.uleb128 0x19
 2828 01ac 02       		.uleb128 0x2
 2829 01ad 18       		.uleb128 0x18
 2830 01ae 00       		.byte	0
 2831 01af 00       		.byte	0
 2832 01b0 1D       		.uleb128 0x1d
 2833 01b1 2E       		.uleb128 0x2e
 2834 01b2 00       		.byte	0
 2835 01b3 3F       		.uleb128 0x3f
 2836 01b4 19       		.uleb128 0x19
 2837 01b5 3C       		.uleb128 0x3c
 2838 01b6 19       		.uleb128 0x19
ARM GAS  C:\Users\austc\AppData\Local\Temp\cciIEsvk.s 			page 75


 2839 01b7 6E       		.uleb128 0x6e
 2840 01b8 0E       		.uleb128 0xe
 2841 01b9 03       		.uleb128 0x3
 2842 01ba 0E       		.uleb128 0xe
 2843 01bb 3A       		.uleb128 0x3a
 2844 01bc 0B       		.uleb128 0xb
 2845 01bd 3B       		.uleb128 0x3b
 2846 01be 0B       		.uleb128 0xb
 2847 01bf 00       		.byte	0
 2848 01c0 00       		.byte	0
 2849 01c1 00       		.byte	0
 2850              		.section	.debug_loc,"",%progbits
 2851              	.Ldebug_loc0:
 2852              	.LLST0:
 2853 0000 00000000 		.4byte	.LVL0
 2854 0004 0C000000 		.4byte	.LVL2
 2855 0008 0100     		.2byte	0x1
 2856 000a 50       		.byte	0x50
 2857 000b 0C000000 		.4byte	.LVL2
 2858 000f 1E000000 		.4byte	.LVL4
 2859 0013 0100     		.2byte	0x1
 2860 0015 54       		.byte	0x54
 2861 0016 1E000000 		.4byte	.LVL4
 2862 001a 20000000 		.4byte	.LVL5
 2863 001e 0100     		.2byte	0x1
 2864 0020 50       		.byte	0x50
 2865 0021 20000000 		.4byte	.LVL5
 2866 0025 26000000 		.4byte	.LVL7
 2867 0029 0100     		.2byte	0x1
 2868 002b 54       		.byte	0x54
 2869 002c 26000000 		.4byte	.LVL7
 2870 0030 28000000 		.4byte	.LFE16
 2871 0034 0400     		.2byte	0x4
 2872 0036 F3       		.byte	0xf3
 2873 0037 01       		.uleb128 0x1
 2874 0038 50       		.byte	0x50
 2875 0039 9F       		.byte	0x9f
 2876 003a 00000000 		.4byte	0
 2877 003e 00000000 		.4byte	0
 2878              	.LLST1:
 2879 0042 04000000 		.4byte	.LVL1
 2880 0046 26000000 		.4byte	.LVL6
 2881 004a 0200     		.2byte	0x2
 2882 004c 30       		.byte	0x30
 2883 004d 9F       		.byte	0x9f
 2884 004e 26000000 		.4byte	.LVL6
 2885 0052 28000000 		.4byte	.LFE16
 2886 0056 0100     		.2byte	0x1
 2887 0058 50       		.byte	0x50
 2888 0059 00000000 		.4byte	0
 2889 005d 00000000 		.4byte	0
 2890              	.LLST2:
 2891 0061 00000000 		.4byte	.LVL8
 2892 0065 A1000000 		.4byte	.LVL21-1
 2893 0069 0100     		.2byte	0x1
 2894 006b 50       		.byte	0x50
 2895 006c A1000000 		.4byte	.LVL21-1
ARM GAS  C:\Users\austc\AppData\Local\Temp\cciIEsvk.s 			page 76


 2896 0070 A4000000 		.4byte	.LVL22
 2897 0074 0400     		.2byte	0x4
 2898 0076 F3       		.byte	0xf3
 2899 0077 01       		.uleb128 0x1
 2900 0078 50       		.byte	0x50
 2901 0079 9F       		.byte	0x9f
 2902 007a A4000000 		.4byte	.LVL22
 2903 007e AA000000 		.4byte	.LVL24
 2904 0082 0100     		.2byte	0x1
 2905 0084 50       		.byte	0x50
 2906 0085 AA000000 		.4byte	.LVL24
 2907 0089 C4000000 		.4byte	.LFE15
 2908 008d 0400     		.2byte	0x4
 2909 008f F3       		.byte	0xf3
 2910 0090 01       		.uleb128 0x1
 2911 0091 50       		.byte	0x50
 2912 0092 9F       		.byte	0x9f
 2913 0093 00000000 		.4byte	0
 2914 0097 00000000 		.4byte	0
 2915              	.LLST3:
 2916 009b 0C000000 		.4byte	.LVL10
 2917 009f 1E000000 		.4byte	.LVL11
 2918 00a3 0200     		.2byte	0x2
 2919 00a5 40       		.byte	0x40
 2920 00a6 9F       		.byte	0x9f
 2921 00a7 22000000 		.4byte	.LVL12
 2922 00ab 42000000 		.4byte	.LVL14
 2923 00af 0200     		.2byte	0x2
 2924 00b1 31       		.byte	0x31
 2925 00b2 9F       		.byte	0x9f
 2926 00b3 4A000000 		.4byte	.LVL15
 2927 00b7 7A000000 		.4byte	.LVL16
 2928 00bb 0200     		.2byte	0x2
 2929 00bd 30       		.byte	0x30
 2930 00be 9F       		.byte	0x9f
 2931 00bf 82000000 		.4byte	.LVL17
 2932 00c3 88000000 		.4byte	.LVL18
 2933 00c7 0200     		.2byte	0x2
 2934 00c9 31       		.byte	0x31
 2935 00ca 9F       		.byte	0x9f
 2936 00cb 96000000 		.4byte	.LVL19
 2937 00cf 9A000000 		.4byte	.LVL20
 2938 00d3 0200     		.2byte	0x2
 2939 00d5 30       		.byte	0x30
 2940 00d6 9F       		.byte	0x9f
 2941 00d7 9A000000 		.4byte	.LVL20
 2942 00db AC000000 		.4byte	.LVL25
 2943 00df 0100     		.2byte	0x1
 2944 00e1 54       		.byte	0x54
 2945 00e2 AC000000 		.4byte	.LVL25
 2946 00e6 C4000000 		.4byte	.LFE15
 2947 00ea 0100     		.2byte	0x1
 2948 00ec 50       		.byte	0x50
 2949 00ed 00000000 		.4byte	0
 2950 00f1 00000000 		.4byte	0
 2951              	.LLST4:
 2952 00f5 02000000 		.4byte	.LVL9
ARM GAS  C:\Users\austc\AppData\Local\Temp\cciIEsvk.s 			page 77


 2953 00f9 38000000 		.4byte	.LVL13
 2954 00fd 0200     		.2byte	0x2
 2955 00ff 30       		.byte	0x30
 2956 0100 9F       		.byte	0x9f
 2957 0101 38000000 		.4byte	.LVL13
 2958 0105 42000000 		.4byte	.LVL14
 2959 0109 0100     		.2byte	0x1
 2960 010b 53       		.byte	0x53
 2961 010c 42000000 		.4byte	.LVL14
 2962 0110 9A000000 		.4byte	.LVL20
 2963 0114 0200     		.2byte	0x2
 2964 0116 30       		.byte	0x30
 2965 0117 9F       		.byte	0x9f
 2966 0118 9A000000 		.4byte	.LVL20
 2967 011c A1000000 		.4byte	.LVL21-1
 2968 0120 0100     		.2byte	0x1
 2969 0122 53       		.byte	0x53
 2970 0123 A4000000 		.4byte	.LVL22
 2971 0127 A8000000 		.4byte	.LVL23
 2972 012b 0100     		.2byte	0x1
 2973 012d 53       		.byte	0x53
 2974 012e 00000000 		.4byte	0
 2975 0132 00000000 		.4byte	0
 2976              	.LLST5:
 2977 0136 00000000 		.4byte	.LVL26
 2978 013a 14000000 		.4byte	.LVL28
 2979 013e 0100     		.2byte	0x1
 2980 0140 50       		.byte	0x50
 2981 0141 14000000 		.4byte	.LVL28
 2982 0145 3C000000 		.4byte	.LVL31
 2983 0149 0100     		.2byte	0x1
 2984 014b 54       		.byte	0x54
 2985 014c 3C000000 		.4byte	.LVL31
 2986 0150 40000000 		.4byte	.LVL32
 2987 0154 0400     		.2byte	0x4
 2988 0156 F3       		.byte	0xf3
 2989 0157 01       		.uleb128 0x1
 2990 0158 50       		.byte	0x50
 2991 0159 9F       		.byte	0x9f
 2992 015a 40000000 		.4byte	.LVL32
 2993 015e 60000000 		.4byte	.LVL34
 2994 0162 0100     		.2byte	0x1
 2995 0164 54       		.byte	0x54
 2996 0165 8A000000 		.4byte	.LVL43
 2997 0169 8C000000 		.4byte	.LVL44
 2998 016d 0100     		.2byte	0x1
 2999 016f 54       		.byte	0x54
 3000 0170 94000000 		.4byte	.LVL46
 3001 0174 96000000 		.4byte	.LVL47
 3002 0178 0100     		.2byte	0x1
 3003 017a 50       		.byte	0x50
 3004 017b 00000000 		.4byte	0
 3005 017f 00000000 		.4byte	0
 3006              	.LLST6:
 3007 0183 00000000 		.4byte	.LVL26
 3008 0187 17000000 		.4byte	.LVL29-1
 3009 018b 0100     		.2byte	0x1
ARM GAS  C:\Users\austc\AppData\Local\Temp\cciIEsvk.s 			page 78


 3010 018d 51       		.byte	0x51
 3011 018e 17000000 		.4byte	.LVL29-1
 3012 0192 94000000 		.4byte	.LVL46
 3013 0196 0100     		.2byte	0x1
 3014 0198 55       		.byte	0x55
 3015 0199 94000000 		.4byte	.LVL46
 3016 019d 96000000 		.4byte	.LVL47
 3017 01a1 0100     		.2byte	0x1
 3018 01a3 51       		.byte	0x51
 3019 01a4 96000000 		.4byte	.LVL47
 3020 01a8 9A000000 		.4byte	.LVL49
 3021 01ac 0100     		.2byte	0x1
 3022 01ae 55       		.byte	0x55
 3023 01af 9A000000 		.4byte	.LVL49
 3024 01b3 C4000000 		.4byte	.LFE3
 3025 01b7 0400     		.2byte	0x4
 3026 01b9 F3       		.byte	0xf3
 3027 01ba 01       		.uleb128 0x1
 3028 01bb 51       		.byte	0x51
 3029 01bc 9F       		.byte	0x9f
 3030 01bd 00000000 		.4byte	0
 3031 01c1 00000000 		.4byte	0
 3032              	.LLST7:
 3033 01c5 00000000 		.4byte	.LVL26
 3034 01c9 17000000 		.4byte	.LVL29-1
 3035 01cd 0100     		.2byte	0x1
 3036 01cf 52       		.byte	0x52
 3037 01d0 17000000 		.4byte	.LVL29-1
 3038 01d4 26000000 		.4byte	.LVL30
 3039 01d8 0100     		.2byte	0x1
 3040 01da 56       		.byte	0x56
 3041 01db 26000000 		.4byte	.LVL30
 3042 01df 8A000000 		.4byte	.LVL43
 3043 01e3 0400     		.2byte	0x4
 3044 01e5 F3       		.byte	0xf3
 3045 01e6 01       		.uleb128 0x1
 3046 01e7 52       		.byte	0x52
 3047 01e8 9F       		.byte	0x9f
 3048 01e9 8A000000 		.4byte	.LVL43
 3049 01ed 8C000000 		.4byte	.LVL44
 3050 01f1 0100     		.2byte	0x1
 3051 01f3 56       		.byte	0x56
 3052 01f4 8C000000 		.4byte	.LVL44
 3053 01f8 94000000 		.4byte	.LVL46
 3054 01fc 0400     		.2byte	0x4
 3055 01fe F3       		.byte	0xf3
 3056 01ff 01       		.uleb128 0x1
 3057 0200 52       		.byte	0x52
 3058 0201 9F       		.byte	0x9f
 3059 0202 94000000 		.4byte	.LVL46
 3060 0206 96000000 		.4byte	.LVL47
 3061 020a 0100     		.2byte	0x1
 3062 020c 52       		.byte	0x52
 3063 020d 96000000 		.4byte	.LVL47
 3064 0211 C4000000 		.4byte	.LFE3
 3065 0215 0400     		.2byte	0x4
 3066 0217 F3       		.byte	0xf3
ARM GAS  C:\Users\austc\AppData\Local\Temp\cciIEsvk.s 			page 79


 3067 0218 01       		.uleb128 0x1
 3068 0219 52       		.byte	0x52
 3069 021a 9F       		.byte	0x9f
 3070 021b 00000000 		.4byte	0
 3071 021f 00000000 		.4byte	0
 3072              	.LLST8:
 3073 0223 0A000000 		.4byte	.LVL27
 3074 0227 88000000 		.4byte	.LVL42
 3075 022b 0200     		.2byte	0x2
 3076 022d 34       		.byte	0x34
 3077 022e 9F       		.byte	0x9f
 3078 022f 88000000 		.4byte	.LVL42
 3079 0233 8A000000 		.4byte	.LVL43
 3080 0237 0100     		.2byte	0x1
 3081 0239 50       		.byte	0x50
 3082 023a 8A000000 		.4byte	.LVL43
 3083 023e 8C000000 		.4byte	.LVL44
 3084 0242 0200     		.2byte	0x2
 3085 0244 34       		.byte	0x34
 3086 0245 9F       		.byte	0x9f
 3087 0246 8C000000 		.4byte	.LVL44
 3088 024a 94000000 		.4byte	.LVL46
 3089 024e 0100     		.2byte	0x1
 3090 0250 54       		.byte	0x54
 3091 0251 94000000 		.4byte	.LVL46
 3092 0255 96000000 		.4byte	.LVL47
 3093 0259 0200     		.2byte	0x2
 3094 025b 34       		.byte	0x34
 3095 025c 9F       		.byte	0x9f
 3096 025d 96000000 		.4byte	.LVL47
 3097 0261 9A000000 		.4byte	.LVL48
 3098 0265 0100     		.2byte	0x1
 3099 0267 54       		.byte	0x54
 3100 0268 9A000000 		.4byte	.LVL48
 3101 026c C4000000 		.4byte	.LFE3
 3102 0270 0100     		.2byte	0x1
 3103 0272 50       		.byte	0x50
 3104 0273 00000000 		.4byte	0
 3105 0277 00000000 		.4byte	0
 3106              	.LLST9:
 3107 027b 6C000000 		.4byte	.LVL35
 3108 027f 76000000 		.4byte	.LVL36
 3109 0283 0100     		.2byte	0x1
 3110 0285 50       		.byte	0x50
 3111 0286 78000000 		.4byte	.LVL37
 3112 028a 7A000000 		.4byte	.LVL38
 3113 028e 0100     		.2byte	0x1
 3114 0290 50       		.byte	0x50
 3115 0291 7A000000 		.4byte	.LVL38
 3116 0295 80000000 		.4byte	.LVL40
 3117 0299 0100     		.2byte	0x1
 3118 029b 54       		.byte	0x54
 3119 029c 80000000 		.4byte	.LVL40
 3120 02a0 85000000 		.4byte	.LVL41-1
 3121 02a4 0100     		.2byte	0x1
 3122 02a6 50       		.byte	0x50
 3123 02a7 00000000 		.4byte	0
ARM GAS  C:\Users\austc\AppData\Local\Temp\cciIEsvk.s 			page 80


 3124 02ab 00000000 		.4byte	0
 3125              	.LLST10:
 3126 02af 00000000 		.4byte	.LVL50
 3127 02b3 12000000 		.4byte	.LVL52
 3128 02b7 0100     		.2byte	0x1
 3129 02b9 50       		.byte	0x50
 3130 02ba 12000000 		.4byte	.LVL52
 3131 02be 42000000 		.4byte	.LVL58
 3132 02c2 0400     		.2byte	0x4
 3133 02c4 F3       		.byte	0xf3
 3134 02c5 01       		.uleb128 0x1
 3135 02c6 50       		.byte	0x50
 3136 02c7 9F       		.byte	0x9f
 3137 02c8 42000000 		.4byte	.LVL58
 3138 02cc 44000000 		.4byte	.LVL59
 3139 02d0 0100     		.2byte	0x1
 3140 02d2 50       		.byte	0x50
 3141 02d3 44000000 		.4byte	.LVL59
 3142 02d7 58000000 		.4byte	.LFE5
 3143 02db 0400     		.2byte	0x4
 3144 02dd F3       		.byte	0xf3
 3145 02de 01       		.uleb128 0x1
 3146 02df 50       		.byte	0x50
 3147 02e0 9F       		.byte	0x9f
 3148 02e1 00000000 		.4byte	0
 3149 02e5 00000000 		.4byte	0
 3150              	.LLST11:
 3151 02e9 04000000 		.4byte	.LVL51
 3152 02ed 40000000 		.4byte	.LVL57
 3153 02f1 0200     		.2byte	0x2
 3154 02f3 34       		.byte	0x34
 3155 02f4 9F       		.byte	0x9f
 3156 02f5 40000000 		.4byte	.LVL57
 3157 02f9 42000000 		.4byte	.LVL58
 3158 02fd 0100     		.2byte	0x1
 3159 02ff 50       		.byte	0x50
 3160 0300 42000000 		.4byte	.LVL58
 3161 0304 44000000 		.4byte	.LVL59
 3162 0308 0200     		.2byte	0x2
 3163 030a 34       		.byte	0x34
 3164 030b 9F       		.byte	0x9f
 3165 030c 44000000 		.4byte	.LVL59
 3166 0310 58000000 		.4byte	.LFE5
 3167 0314 0100     		.2byte	0x1
 3168 0316 50       		.byte	0x50
 3169 0317 00000000 		.4byte	0
 3170 031b 00000000 		.4byte	0
 3171              	.LLST12:
 3172 031f 32000000 		.4byte	.LVL53
 3173 0323 34000000 		.4byte	.LVL54
 3174 0327 0100     		.2byte	0x1
 3175 0329 50       		.byte	0x50
 3176 032a 34000000 		.4byte	.LVL54
 3177 032e 3A000000 		.4byte	.LVL56
 3178 0332 0100     		.2byte	0x1
 3179 0334 54       		.byte	0x54
 3180 0335 3A000000 		.4byte	.LVL56
ARM GAS  C:\Users\austc\AppData\Local\Temp\cciIEsvk.s 			page 81


 3181 0339 3F000000 		.4byte	.LVL57-1
 3182 033d 0100     		.2byte	0x1
 3183 033f 50       		.byte	0x50
 3184 0340 00000000 		.4byte	0
 3185 0344 00000000 		.4byte	0
 3186              	.LLST13:
 3187 0348 00000000 		.4byte	.LVL60
 3188 034c 18000000 		.4byte	.LVL63
 3189 0350 0100     		.2byte	0x1
 3190 0352 50       		.byte	0x50
 3191 0353 18000000 		.4byte	.LVL63
 3192 0357 34000000 		.4byte	.LVL69
 3193 035b 0400     		.2byte	0x4
 3194 035d F3       		.byte	0xf3
 3195 035e 01       		.uleb128 0x1
 3196 035f 50       		.byte	0x50
 3197 0360 9F       		.byte	0x9f
 3198 0361 34000000 		.4byte	.LVL69
 3199 0365 36000000 		.4byte	.LVL70
 3200 0369 0100     		.2byte	0x1
 3201 036b 50       		.byte	0x50
 3202 036c 36000000 		.4byte	.LVL70
 3203 0370 48000000 		.4byte	.LFE6
 3204 0374 0400     		.2byte	0x4
 3205 0376 F3       		.byte	0xf3
 3206 0377 01       		.uleb128 0x1
 3207 0378 50       		.byte	0x50
 3208 0379 9F       		.byte	0x9f
 3209 037a 00000000 		.4byte	0
 3210 037e 00000000 		.4byte	0
 3211              	.LLST14:
 3212 0382 00000000 		.4byte	.LVL60
 3213 0386 12000000 		.4byte	.LVL62
 3214 038a 0100     		.2byte	0x1
 3215 038c 51       		.byte	0x51
 3216 038d 12000000 		.4byte	.LVL62
 3217 0391 34000000 		.4byte	.LVL69
 3218 0395 0400     		.2byte	0x4
 3219 0397 F3       		.byte	0xf3
 3220 0398 01       		.uleb128 0x1
 3221 0399 51       		.byte	0x51
 3222 039a 9F       		.byte	0x9f
 3223 039b 34000000 		.4byte	.LVL69
 3224 039f 36000000 		.4byte	.LVL70
 3225 03a3 0100     		.2byte	0x1
 3226 03a5 51       		.byte	0x51
 3227 03a6 36000000 		.4byte	.LVL70
 3228 03aa 48000000 		.4byte	.LFE6
 3229 03ae 0400     		.2byte	0x4
 3230 03b0 F3       		.byte	0xf3
 3231 03b1 01       		.uleb128 0x1
 3232 03b2 51       		.byte	0x51
 3233 03b3 9F       		.byte	0x9f
 3234 03b4 00000000 		.4byte	0
 3235 03b8 00000000 		.4byte	0
 3236              	.LLST15:
 3237 03bc 04000000 		.4byte	.LVL61
ARM GAS  C:\Users\austc\AppData\Local\Temp\cciIEsvk.s 			page 82


 3238 03c0 32000000 		.4byte	.LVL68
 3239 03c4 0200     		.2byte	0x2
 3240 03c6 34       		.byte	0x34
 3241 03c7 9F       		.byte	0x9f
 3242 03c8 32000000 		.4byte	.LVL68
 3243 03cc 34000000 		.4byte	.LVL69
 3244 03d0 0100     		.2byte	0x1
 3245 03d2 50       		.byte	0x50
 3246 03d3 34000000 		.4byte	.LVL69
 3247 03d7 36000000 		.4byte	.LVL70
 3248 03db 0200     		.2byte	0x2
 3249 03dd 34       		.byte	0x34
 3250 03de 9F       		.byte	0x9f
 3251 03df 36000000 		.4byte	.LVL70
 3252 03e3 48000000 		.4byte	.LFE6
 3253 03e7 0100     		.2byte	0x1
 3254 03e9 50       		.byte	0x50
 3255 03ea 00000000 		.4byte	0
 3256 03ee 00000000 		.4byte	0
 3257              	.LLST16:
 3258 03f2 24000000 		.4byte	.LVL64
 3259 03f6 26000000 		.4byte	.LVL65
 3260 03fa 0100     		.2byte	0x1
 3261 03fc 50       		.byte	0x50
 3262 03fd 26000000 		.4byte	.LVL65
 3263 0401 2C000000 		.4byte	.LVL67
 3264 0405 0100     		.2byte	0x1
 3265 0407 54       		.byte	0x54
 3266 0408 2C000000 		.4byte	.LVL67
 3267 040c 31000000 		.4byte	.LVL68-1
 3268 0410 0100     		.2byte	0x1
 3269 0412 50       		.byte	0x50
 3270 0413 00000000 		.4byte	0
 3271 0417 00000000 		.4byte	0
 3272              	.LLST17:
 3273 041b 00000000 		.4byte	.LVL71
 3274 041f 18000000 		.4byte	.LVL74
 3275 0423 0100     		.2byte	0x1
 3276 0425 50       		.byte	0x50
 3277 0426 18000000 		.4byte	.LVL74
 3278 042a 5E000000 		.4byte	.LVL81
 3279 042e 0100     		.2byte	0x1
 3280 0430 54       		.byte	0x54
 3281 0431 5E000000 		.4byte	.LVL81
 3282 0435 60000000 		.4byte	.LVL82
 3283 0439 0100     		.2byte	0x1
 3284 043b 50       		.byte	0x50
 3285 043c 60000000 		.4byte	.LVL82
 3286 0440 62000000 		.4byte	.LVL83
 3287 0444 0100     		.2byte	0x1
 3288 0446 54       		.byte	0x54
 3289 0447 62000000 		.4byte	.LVL83
 3290 044b 7C000000 		.4byte	.LFE7
 3291 044f 0400     		.2byte	0x4
 3292 0451 F3       		.byte	0xf3
 3293 0452 01       		.uleb128 0x1
 3294 0453 50       		.byte	0x50
ARM GAS  C:\Users\austc\AppData\Local\Temp\cciIEsvk.s 			page 83


 3295 0454 9F       		.byte	0x9f
 3296 0455 00000000 		.4byte	0
 3297 0459 00000000 		.4byte	0
 3298              	.LLST18:
 3299 045d 00000000 		.4byte	.LVL71
 3300 0461 18000000 		.4byte	.LVL74
 3301 0465 0100     		.2byte	0x1
 3302 0467 51       		.byte	0x51
 3303 0468 18000000 		.4byte	.LVL74
 3304 046c 5E000000 		.4byte	.LVL81
 3305 0470 0100     		.2byte	0x1
 3306 0472 55       		.byte	0x55
 3307 0473 5E000000 		.4byte	.LVL81
 3308 0477 60000000 		.4byte	.LVL82
 3309 047b 0100     		.2byte	0x1
 3310 047d 51       		.byte	0x51
 3311 047e 60000000 		.4byte	.LVL82
 3312 0482 62000000 		.4byte	.LVL84
 3313 0486 0100     		.2byte	0x1
 3314 0488 55       		.byte	0x55
 3315 0489 62000000 		.4byte	.LVL84
 3316 048d 7C000000 		.4byte	.LFE7
 3317 0491 0400     		.2byte	0x4
 3318 0493 F3       		.byte	0xf3
 3319 0494 01       		.uleb128 0x1
 3320 0495 51       		.byte	0x51
 3321 0496 9F       		.byte	0x9f
 3322 0497 00000000 		.4byte	0
 3323 049b 00000000 		.4byte	0
 3324              	.LLST19:
 3325 049f 00000000 		.4byte	.LVL71
 3326 04a3 16000000 		.4byte	.LVL73
 3327 04a7 0100     		.2byte	0x1
 3328 04a9 52       		.byte	0x52
 3329 04aa 16000000 		.4byte	.LVL73
 3330 04ae 5E000000 		.4byte	.LVL81
 3331 04b2 0400     		.2byte	0x4
 3332 04b4 F3       		.byte	0xf3
 3333 04b5 01       		.uleb128 0x1
 3334 04b6 52       		.byte	0x52
 3335 04b7 9F       		.byte	0x9f
 3336 04b8 5E000000 		.4byte	.LVL81
 3337 04bc 60000000 		.4byte	.LVL82
 3338 04c0 0100     		.2byte	0x1
 3339 04c2 52       		.byte	0x52
 3340 04c3 60000000 		.4byte	.LVL82
 3341 04c7 7C000000 		.4byte	.LFE7
 3342 04cb 0400     		.2byte	0x4
 3343 04cd F3       		.byte	0xf3
 3344 04ce 01       		.uleb128 0x1
 3345 04cf 52       		.byte	0x52
 3346 04d0 9F       		.byte	0x9f
 3347 04d1 00000000 		.4byte	0
 3348 04d5 00000000 		.4byte	0
 3349              	.LLST20:
 3350 04d9 08000000 		.4byte	.LVL72
 3351 04dd 4E000000 		.4byte	.LVL80
ARM GAS  C:\Users\austc\AppData\Local\Temp\cciIEsvk.s 			page 84


 3352 04e1 0200     		.2byte	0x2
 3353 04e3 34       		.byte	0x34
 3354 04e4 9F       		.byte	0x9f
 3355 04e5 4E000000 		.4byte	.LVL80
 3356 04e9 5E000000 		.4byte	.LVL81
 3357 04ed 0100     		.2byte	0x1
 3358 04ef 50       		.byte	0x50
 3359 04f0 5E000000 		.4byte	.LVL81
 3360 04f4 60000000 		.4byte	.LVL82
 3361 04f8 0200     		.2byte	0x2
 3362 04fa 34       		.byte	0x34
 3363 04fb 9F       		.byte	0x9f
 3364 04fc 60000000 		.4byte	.LVL82
 3365 0500 7C000000 		.4byte	.LFE7
 3366 0504 0100     		.2byte	0x1
 3367 0506 50       		.byte	0x50
 3368 0507 00000000 		.4byte	0
 3369 050b 00000000 		.4byte	0
 3370              	.LLST21:
 3371 050f 24000000 		.4byte	.LVL75
 3372 0513 2E000000 		.4byte	.LVL77
 3373 0517 0100     		.2byte	0x1
 3374 0519 50       		.byte	0x50
 3375 051a 2E000000 		.4byte	.LVL77
 3376 051e 34000000 		.4byte	.LVL79
 3377 0522 0100     		.2byte	0x1
 3378 0524 57       		.byte	0x57
 3379 0525 34000000 		.4byte	.LVL79
 3380 0529 4D000000 		.4byte	.LVL80-1
 3381 052d 0100     		.2byte	0x1
 3382 052f 50       		.byte	0x50
 3383 0530 00000000 		.4byte	0
 3384 0534 00000000 		.4byte	0
 3385              	.LLST22:
 3386 0538 2C000000 		.4byte	.LVL76
 3387 053c 5E000000 		.4byte	.LVL81
 3388 0540 0100     		.2byte	0x1
 3389 0542 56       		.byte	0x56
 3390 0543 00000000 		.4byte	0
 3391 0547 00000000 		.4byte	0
 3392              	.LLST23:
 3393 054b 10000000 		.4byte	.LVL90
 3394 054f 1C000000 		.4byte	.LVL91
 3395 0553 0100     		.2byte	0x1
 3396 0555 52       		.byte	0x52
 3397 0556 1C000000 		.4byte	.LVL91
 3398 055a 26000000 		.4byte	.LVL94
 3399 055e 0100     		.2byte	0x1
 3400 0560 54       		.byte	0x54
 3401 0561 26000000 		.4byte	.LVL94
 3402 0565 30000000 		.4byte	.LFE12
 3403 0569 0100     		.2byte	0x1
 3404 056b 50       		.byte	0x50
 3405 056c 00000000 		.4byte	0
 3406 0570 00000000 		.4byte	0
 3407              	.LLST24:
 3408 0574 0E000000 		.4byte	.LVL96
ARM GAS  C:\Users\austc\AppData\Local\Temp\cciIEsvk.s 			page 85


 3409 0578 1A000000 		.4byte	.LVL98
 3410 057c 0100     		.2byte	0x1
 3411 057e 54       		.byte	0x54
 3412 057f 1A000000 		.4byte	.LVL98
 3413 0583 20000000 		.4byte	.LFE13
 3414 0587 0100     		.2byte	0x1
 3415 0589 50       		.byte	0x50
 3416 058a 00000000 		.4byte	0
 3417 058e 00000000 		.4byte	0
 3418              	.LLST25:
 3419 0592 00000000 		.4byte	.LVL99
 3420 0596 10000000 		.4byte	.LVL100
 3421 059a 0200     		.2byte	0x2
 3422 059c 31       		.byte	0x31
 3423 059d 9F       		.byte	0x9f
 3424 059e 10000000 		.4byte	.LVL100
 3425 05a2 20000000 		.4byte	.LFE14
 3426 05a6 0100     		.2byte	0x1
 3427 05a8 53       		.byte	0x53
 3428 05a9 00000000 		.4byte	0
 3429 05ad 00000000 		.4byte	0
 3430              	.LLST26:
 3431 05b1 00000000 		.4byte	.LVL101
 3432 05b5 1A000000 		.4byte	.LVL104
 3433 05b9 0100     		.2byte	0x1
 3434 05bb 50       		.byte	0x50
 3435 05bc 1A000000 		.4byte	.LVL104
 3436 05c0 2A000000 		.4byte	.LVL106
 3437 05c4 0200     		.2byte	0x2
 3438 05c6 91       		.byte	0x91
 3439 05c7 64       		.sleb128 -28
 3440 05c8 2A000000 		.4byte	.LVL106
 3441 05cc 44000000 		.4byte	.LVL111
 3442 05d0 0100     		.2byte	0x1
 3443 05d2 50       		.byte	0x50
 3444 05d3 44000000 		.4byte	.LVL111
 3445 05d7 48000000 		.4byte	.LVL112
 3446 05db 0200     		.2byte	0x2
 3447 05dd 91       		.byte	0x91
 3448 05de 64       		.sleb128 -28
 3449 05df 48000000 		.4byte	.LVL112
 3450 05e3 4A000000 		.4byte	.LVL113
 3451 05e7 0100     		.2byte	0x1
 3452 05e9 50       		.byte	0x50
 3453 05ea 4A000000 		.4byte	.LVL113
 3454 05ee 74000000 		.4byte	.LVL115
 3455 05f2 0200     		.2byte	0x2
 3456 05f4 91       		.byte	0x91
 3457 05f5 64       		.sleb128 -28
 3458 05f6 74000000 		.4byte	.LVL115
 3459 05fa AE000000 		.4byte	.LVL118
 3460 05fe 0100     		.2byte	0x1
 3461 0600 54       		.byte	0x54
 3462 0601 00000000 		.4byte	0
 3463 0605 00000000 		.4byte	0
 3464              	.LLST27:
 3465 0609 00000000 		.4byte	.LVL101
ARM GAS  C:\Users\austc\AppData\Local\Temp\cciIEsvk.s 			page 86


 3466 060d 1D000000 		.4byte	.LVL105-1
 3467 0611 0100     		.2byte	0x1
 3468 0613 51       		.byte	0x51
 3469 0614 1D000000 		.4byte	.LVL105-1
 3470 0618 2A000000 		.4byte	.LVL106
 3471 061c 0100     		.2byte	0x1
 3472 061e 54       		.byte	0x54
 3473 061f 2A000000 		.4byte	.LVL106
 3474 0623 38000000 		.4byte	.LVL108
 3475 0627 0100     		.2byte	0x1
 3476 0629 51       		.byte	0x51
 3477 062a 38000000 		.4byte	.LVL108
 3478 062e 40000000 		.4byte	.LVL110
 3479 0632 0100     		.2byte	0x1
 3480 0634 54       		.byte	0x54
 3481 0635 40000000 		.4byte	.LVL110
 3482 0639 44000000 		.4byte	.LVL111
 3483 063d 0100     		.2byte	0x1
 3484 063f 51       		.byte	0x51
 3485 0640 44000000 		.4byte	.LVL111
 3486 0644 48000000 		.4byte	.LVL112
 3487 0648 0100     		.2byte	0x1
 3488 064a 54       		.byte	0x54
 3489 064b 48000000 		.4byte	.LVL112
 3490 064f 4A000000 		.4byte	.LVL113
 3491 0653 0100     		.2byte	0x1
 3492 0655 51       		.byte	0x51
 3493 0656 4A000000 		.4byte	.LVL113
 3494 065a 70000000 		.4byte	.LVL114
 3495 065e 0100     		.2byte	0x1
 3496 0660 54       		.byte	0x54
 3497 0661 70000000 		.4byte	.LVL114
 3498 0665 84000000 		.4byte	.LVL116
 3499 0669 0500     		.2byte	0x5
 3500 066b 03       		.byte	0x3
 3501 066c 00000000 		.4byte	I2C_1_mstrWrBufPtr
 3502 0670 84000000 		.4byte	.LVL116
 3503 0674 F8000000 		.4byte	.LFE1
 3504 0678 0400     		.2byte	0x4
 3505 067a F3       		.byte	0xf3
 3506 067b 01       		.uleb128 0x1
 3507 067c 51       		.byte	0x51
 3508 067d 9F       		.byte	0x9f
 3509 067e 00000000 		.4byte	0
 3510 0682 00000000 		.4byte	0
 3511              	.LLST28:
 3512 0686 00000000 		.4byte	.LVL101
 3513 068a 1D000000 		.4byte	.LVL105-1
 3514 068e 0100     		.2byte	0x1
 3515 0690 52       		.byte	0x52
 3516 0691 1D000000 		.4byte	.LVL105-1
 3517 0695 2A000000 		.4byte	.LVL106
 3518 0699 0100     		.2byte	0x1
 3519 069b 57       		.byte	0x57
 3520 069c 2A000000 		.4byte	.LVL106
 3521 06a0 34000000 		.4byte	.LVL107
 3522 06a4 0100     		.2byte	0x1
ARM GAS  C:\Users\austc\AppData\Local\Temp\cciIEsvk.s 			page 87


 3523 06a6 52       		.byte	0x52
 3524 06a7 34000000 		.4byte	.LVL107
 3525 06ab 40000000 		.4byte	.LVL110
 3526 06af 0100     		.2byte	0x1
 3527 06b1 57       		.byte	0x57
 3528 06b2 40000000 		.4byte	.LVL110
 3529 06b6 44000000 		.4byte	.LVL111
 3530 06ba 0100     		.2byte	0x1
 3531 06bc 52       		.byte	0x52
 3532 06bd 44000000 		.4byte	.LVL111
 3533 06c1 48000000 		.4byte	.LVL112
 3534 06c5 0100     		.2byte	0x1
 3535 06c7 57       		.byte	0x57
 3536 06c8 48000000 		.4byte	.LVL112
 3537 06cc 4A000000 		.4byte	.LVL113
 3538 06d0 0100     		.2byte	0x1
 3539 06d2 52       		.byte	0x52
 3540 06d3 4A000000 		.4byte	.LVL113
 3541 06d7 B8000000 		.4byte	.LVL122
 3542 06db 0100     		.2byte	0x1
 3543 06dd 57       		.byte	0x57
 3544 06de B8000000 		.4byte	.LVL122
 3545 06e2 F8000000 		.4byte	.LFE1
 3546 06e6 0400     		.2byte	0x4
 3547 06e8 F3       		.byte	0xf3
 3548 06e9 01       		.uleb128 0x1
 3549 06ea 52       		.byte	0x52
 3550 06eb 9F       		.byte	0x9f
 3551 06ec 00000000 		.4byte	0
 3552 06f0 00000000 		.4byte	0
 3553              	.LLST29:
 3554 06f4 00000000 		.4byte	.LVL101
 3555 06f8 12000000 		.4byte	.LVL103
 3556 06fc 0100     		.2byte	0x1
 3557 06fe 53       		.byte	0x53
 3558 06ff 12000000 		.4byte	.LVL103
 3559 0703 40000000 		.4byte	.LVL110
 3560 0707 0100     		.2byte	0x1
 3561 0709 55       		.byte	0x55
 3562 070a 40000000 		.4byte	.LVL110
 3563 070e 44000000 		.4byte	.LVL111
 3564 0712 0100     		.2byte	0x1
 3565 0714 53       		.byte	0x53
 3566 0715 44000000 		.4byte	.LVL111
 3567 0719 B8000000 		.4byte	.LVL120
 3568 071d 0100     		.2byte	0x1
 3569 071f 55       		.byte	0x55
 3570 0720 B8000000 		.4byte	.LVL120
 3571 0724 F8000000 		.4byte	.LFE1
 3572 0728 0400     		.2byte	0x4
 3573 072a F3       		.byte	0xf3
 3574 072b 01       		.uleb128 0x1
 3575 072c 53       		.byte	0x53
 3576 072d 9F       		.byte	0x9f
 3577 072e 00000000 		.4byte	0
 3578 0732 00000000 		.4byte	0
 3579              	.LLST30:
ARM GAS  C:\Users\austc\AppData\Local\Temp\cciIEsvk.s 			page 88


 3580 0736 0C000000 		.4byte	.LVL102
 3581 073a 3C000000 		.4byte	.LVL109
 3582 073e 0200     		.2byte	0x2
 3583 0740 34       		.byte	0x34
 3584 0741 9F       		.byte	0x9f
 3585 0742 3C000000 		.4byte	.LVL109
 3586 0746 40000000 		.4byte	.LVL110
 3587 074a 0200     		.2byte	0x2
 3588 074c 30       		.byte	0x30
 3589 074d 9F       		.byte	0x9f
 3590 074e 40000000 		.4byte	.LVL110
 3591 0752 4A000000 		.4byte	.LVL113
 3592 0756 0200     		.2byte	0x2
 3593 0758 34       		.byte	0x34
 3594 0759 9F       		.byte	0x9f
 3595 075a 4A000000 		.4byte	.LVL113
 3596 075e B8000000 		.4byte	.LVL121
 3597 0762 0100     		.2byte	0x1
 3598 0764 56       		.byte	0x56
 3599 0765 B8000000 		.4byte	.LVL121
 3600 0769 F8000000 		.4byte	.LFE1
 3601 076d 0100     		.2byte	0x1
 3602 076f 50       		.byte	0x50
 3603 0770 00000000 		.4byte	0
 3604 0774 00000000 		.4byte	0
 3605              	.LLST31:
 3606 0778 00000000 		.4byte	.LVL123
 3607 077c 1A000000 		.4byte	.LVL126
 3608 0780 0100     		.2byte	0x1
 3609 0782 50       		.byte	0x50
 3610 0783 1A000000 		.4byte	.LVL126
 3611 0787 2A000000 		.4byte	.LVL128
 3612 078b 0200     		.2byte	0x2
 3613 078d 91       		.byte	0x91
 3614 078e 64       		.sleb128 -28
 3615 078f 2A000000 		.4byte	.LVL128
 3616 0793 44000000 		.4byte	.LVL133
 3617 0797 0100     		.2byte	0x1
 3618 0799 50       		.byte	0x50
 3619 079a 44000000 		.4byte	.LVL133
 3620 079e 48000000 		.4byte	.LVL134
 3621 07a2 0200     		.2byte	0x2
 3622 07a4 91       		.byte	0x91
 3623 07a5 64       		.sleb128 -28
 3624 07a6 48000000 		.4byte	.LVL134
 3625 07aa 4A000000 		.4byte	.LVL135
 3626 07ae 0100     		.2byte	0x1
 3627 07b0 50       		.byte	0x50
 3628 07b1 4A000000 		.4byte	.LVL135
 3629 07b5 74000000 		.4byte	.LVL137
 3630 07b9 0200     		.2byte	0x2
 3631 07bb 91       		.byte	0x91
 3632 07bc 64       		.sleb128 -28
 3633 07bd 74000000 		.4byte	.LVL137
 3634 07c1 C2000000 		.4byte	.LVL140
 3635 07c5 0100     		.2byte	0x1
 3636 07c7 54       		.byte	0x54
ARM GAS  C:\Users\austc\AppData\Local\Temp\cciIEsvk.s 			page 89


 3637 07c8 00000000 		.4byte	0
 3638 07cc 00000000 		.4byte	0
 3639              	.LLST32:
 3640 07d0 00000000 		.4byte	.LVL123
 3641 07d4 1D000000 		.4byte	.LVL127-1
 3642 07d8 0100     		.2byte	0x1
 3643 07da 51       		.byte	0x51
 3644 07db 1D000000 		.4byte	.LVL127-1
 3645 07df 2A000000 		.4byte	.LVL128
 3646 07e3 0100     		.2byte	0x1
 3647 07e5 54       		.byte	0x54
 3648 07e6 2A000000 		.4byte	.LVL128
 3649 07ea 38000000 		.4byte	.LVL130
 3650 07ee 0100     		.2byte	0x1
 3651 07f0 51       		.byte	0x51
 3652 07f1 38000000 		.4byte	.LVL130
 3653 07f5 40000000 		.4byte	.LVL132
 3654 07f9 0100     		.2byte	0x1
 3655 07fb 54       		.byte	0x54
 3656 07fc 40000000 		.4byte	.LVL132
 3657 0800 44000000 		.4byte	.LVL133
 3658 0804 0100     		.2byte	0x1
 3659 0806 51       		.byte	0x51
 3660 0807 44000000 		.4byte	.LVL133
 3661 080b 48000000 		.4byte	.LVL134
 3662 080f 0100     		.2byte	0x1
 3663 0811 54       		.byte	0x54
 3664 0812 48000000 		.4byte	.LVL134
 3665 0816 4A000000 		.4byte	.LVL135
 3666 081a 0100     		.2byte	0x1
 3667 081c 51       		.byte	0x51
 3668 081d 4A000000 		.4byte	.LVL135
 3669 0821 6C000000 		.4byte	.LVL136
 3670 0825 0100     		.2byte	0x1
 3671 0827 54       		.byte	0x54
 3672 0828 6C000000 		.4byte	.LVL136
 3673 082c 82000000 		.4byte	.LVL138
 3674 0830 0500     		.2byte	0x5
 3675 0832 03       		.byte	0x3
 3676 0833 00000000 		.4byte	I2C_1_mstrRdBufPtr
 3677 0837 82000000 		.4byte	.LVL138
 3678 083b 08010000 		.4byte	.LFE2
 3679 083f 0400     		.2byte	0x4
 3680 0841 F3       		.byte	0xf3
 3681 0842 01       		.uleb128 0x1
 3682 0843 51       		.byte	0x51
 3683 0844 9F       		.byte	0x9f
 3684 0845 00000000 		.4byte	0
 3685 0849 00000000 		.4byte	0
 3686              	.LLST33:
 3687 084d 00000000 		.4byte	.LVL123
 3688 0851 1D000000 		.4byte	.LVL127-1
 3689 0855 0100     		.2byte	0x1
 3690 0857 52       		.byte	0x52
 3691 0858 1D000000 		.4byte	.LVL127-1
 3692 085c 2A000000 		.4byte	.LVL128
 3693 0860 0100     		.2byte	0x1
ARM GAS  C:\Users\austc\AppData\Local\Temp\cciIEsvk.s 			page 90


 3694 0862 57       		.byte	0x57
 3695 0863 2A000000 		.4byte	.LVL128
 3696 0867 34000000 		.4byte	.LVL129
 3697 086b 0100     		.2byte	0x1
 3698 086d 52       		.byte	0x52
 3699 086e 34000000 		.4byte	.LVL129
 3700 0872 40000000 		.4byte	.LVL132
 3701 0876 0100     		.2byte	0x1
 3702 0878 57       		.byte	0x57
 3703 0879 40000000 		.4byte	.LVL132
 3704 087d 44000000 		.4byte	.LVL133
 3705 0881 0100     		.2byte	0x1
 3706 0883 52       		.byte	0x52
 3707 0884 44000000 		.4byte	.LVL133
 3708 0888 48000000 		.4byte	.LVL134
 3709 088c 0100     		.2byte	0x1
 3710 088e 57       		.byte	0x57
 3711 088f 48000000 		.4byte	.LVL134
 3712 0893 4A000000 		.4byte	.LVL135
 3713 0897 0100     		.2byte	0x1
 3714 0899 52       		.byte	0x52
 3715 089a 4A000000 		.4byte	.LVL135
 3716 089e CC000000 		.4byte	.LVL144
 3717 08a2 0100     		.2byte	0x1
 3718 08a4 57       		.byte	0x57
 3719 08a5 CC000000 		.4byte	.LVL144
 3720 08a9 08010000 		.4byte	.LFE2
 3721 08ad 0400     		.2byte	0x4
 3722 08af F3       		.byte	0xf3
 3723 08b0 01       		.uleb128 0x1
 3724 08b1 52       		.byte	0x52
 3725 08b2 9F       		.byte	0x9f
 3726 08b3 00000000 		.4byte	0
 3727 08b7 00000000 		.4byte	0
 3728              	.LLST34:
 3729 08bb 00000000 		.4byte	.LVL123
 3730 08bf 12000000 		.4byte	.LVL125
 3731 08c3 0100     		.2byte	0x1
 3732 08c5 53       		.byte	0x53
 3733 08c6 12000000 		.4byte	.LVL125
 3734 08ca 40000000 		.4byte	.LVL132
 3735 08ce 0100     		.2byte	0x1
 3736 08d0 55       		.byte	0x55
 3737 08d1 40000000 		.4byte	.LVL132
 3738 08d5 44000000 		.4byte	.LVL133
 3739 08d9 0100     		.2byte	0x1
 3740 08db 53       		.byte	0x53
 3741 08dc 44000000 		.4byte	.LVL133
 3742 08e0 CC000000 		.4byte	.LVL142
 3743 08e4 0100     		.2byte	0x1
 3744 08e6 55       		.byte	0x55
 3745 08e7 CC000000 		.4byte	.LVL142
 3746 08eb 08010000 		.4byte	.LFE2
 3747 08ef 0400     		.2byte	0x4
 3748 08f1 F3       		.byte	0xf3
 3749 08f2 01       		.uleb128 0x1
 3750 08f3 53       		.byte	0x53
ARM GAS  C:\Users\austc\AppData\Local\Temp\cciIEsvk.s 			page 91


 3751 08f4 9F       		.byte	0x9f
 3752 08f5 00000000 		.4byte	0
 3753 08f9 00000000 		.4byte	0
 3754              	.LLST35:
 3755 08fd 0C000000 		.4byte	.LVL124
 3756 0901 3C000000 		.4byte	.LVL131
 3757 0905 0200     		.2byte	0x2
 3758 0907 34       		.byte	0x34
 3759 0908 9F       		.byte	0x9f
 3760 0909 3C000000 		.4byte	.LVL131
 3761 090d 40000000 		.4byte	.LVL132
 3762 0911 0200     		.2byte	0x2
 3763 0913 30       		.byte	0x30
 3764 0914 9F       		.byte	0x9f
 3765 0915 40000000 		.4byte	.LVL132
 3766 0919 4A000000 		.4byte	.LVL135
 3767 091d 0200     		.2byte	0x2
 3768 091f 34       		.byte	0x34
 3769 0920 9F       		.byte	0x9f
 3770 0921 4A000000 		.4byte	.LVL135
 3771 0925 CC000000 		.4byte	.LVL143
 3772 0929 0100     		.2byte	0x1
 3773 092b 56       		.byte	0x56
 3774 092c CC000000 		.4byte	.LVL143
 3775 0930 08010000 		.4byte	.LFE2
 3776 0934 0100     		.2byte	0x1
 3777 0936 50       		.byte	0x50
 3778 0937 00000000 		.4byte	0
 3779 093b 00000000 		.4byte	0
 3780              	.LLST36:
 3781 093f 00000000 		.4byte	.LVL145
 3782 0943 16000000 		.4byte	.LVL148
 3783 0947 0100     		.2byte	0x1
 3784 0949 50       		.byte	0x50
 3785 094a 16000000 		.4byte	.LVL148
 3786 094e 1A000000 		.4byte	.LVL149
 3787 0952 0400     		.2byte	0x4
 3788 0954 F3       		.byte	0xf3
 3789 0955 01       		.uleb128 0x1
 3790 0956 50       		.byte	0x50
 3791 0957 9F       		.byte	0x9f
 3792 0958 1A000000 		.4byte	.LVL149
 3793 095c 38000000 		.4byte	.LVL152
 3794 0960 0100     		.2byte	0x1
 3795 0962 54       		.byte	0x54
 3796 0963 54000000 		.4byte	.LVL158
 3797 0967 56000000 		.4byte	.LVL159
 3798 096b 0100     		.2byte	0x1
 3799 096d 50       		.byte	0x50
 3800 096e 00000000 		.4byte	0
 3801 0972 00000000 		.4byte	0
 3802              	.LLST37:
 3803 0976 00000000 		.4byte	.LVL145
 3804 097a 33000000 		.4byte	.LVL151-1
 3805 097e 0100     		.2byte	0x1
 3806 0980 51       		.byte	0x51
 3807 0981 33000000 		.4byte	.LVL151-1
ARM GAS  C:\Users\austc\AppData\Local\Temp\cciIEsvk.s 			page 92


 3808 0985 54000000 		.4byte	.LVL158
 3809 0989 0400     		.2byte	0x4
 3810 098b F3       		.byte	0xf3
 3811 098c 01       		.uleb128 0x1
 3812 098d 51       		.byte	0x51
 3813 098e 9F       		.byte	0x9f
 3814 098f 54000000 		.4byte	.LVL158
 3815 0993 56000000 		.4byte	.LVL159
 3816 0997 0100     		.2byte	0x1
 3817 0999 51       		.byte	0x51
 3818 099a 56000000 		.4byte	.LVL159
 3819 099e 68000000 		.4byte	.LFE4
 3820 09a2 0400     		.2byte	0x4
 3821 09a4 F3       		.byte	0xf3
 3822 09a5 01       		.uleb128 0x1
 3823 09a6 51       		.byte	0x51
 3824 09a7 9F       		.byte	0x9f
 3825 09a8 00000000 		.4byte	0
 3826 09ac 00000000 		.4byte	0
 3827              	.LLST38:
 3828 09b0 00000000 		.4byte	.LVL145
 3829 09b4 12000000 		.4byte	.LVL147
 3830 09b8 0100     		.2byte	0x1
 3831 09ba 52       		.byte	0x52
 3832 09bb 12000000 		.4byte	.LVL147
 3833 09bf 54000000 		.4byte	.LVL158
 3834 09c3 0400     		.2byte	0x4
 3835 09c5 F3       		.byte	0xf3
 3836 09c6 01       		.uleb128 0x1
 3837 09c7 52       		.byte	0x52
 3838 09c8 9F       		.byte	0x9f
 3839 09c9 54000000 		.4byte	.LVL158
 3840 09cd 56000000 		.4byte	.LVL159
 3841 09d1 0100     		.2byte	0x1
 3842 09d3 52       		.byte	0x52
 3843 09d4 56000000 		.4byte	.LVL159
 3844 09d8 68000000 		.4byte	.LFE4
 3845 09dc 0400     		.2byte	0x4
 3846 09de F3       		.byte	0xf3
 3847 09df 01       		.uleb128 0x1
 3848 09e0 52       		.byte	0x52
 3849 09e1 9F       		.byte	0x9f
 3850 09e2 00000000 		.4byte	0
 3851 09e6 00000000 		.4byte	0
 3852              	.LLST39:
 3853 09ea 04000000 		.4byte	.LVL146
 3854 09ee 52000000 		.4byte	.LVL157
 3855 09f2 0200     		.2byte	0x2
 3856 09f4 34       		.byte	0x34
 3857 09f5 9F       		.byte	0x9f
 3858 09f6 52000000 		.4byte	.LVL157
 3859 09fa 54000000 		.4byte	.LVL158
 3860 09fe 0100     		.2byte	0x1
 3861 0a00 50       		.byte	0x50
 3862 0a01 54000000 		.4byte	.LVL158
 3863 0a05 56000000 		.4byte	.LVL159
 3864 0a09 0200     		.2byte	0x2
ARM GAS  C:\Users\austc\AppData\Local\Temp\cciIEsvk.s 			page 93


 3865 0a0b 34       		.byte	0x34
 3866 0a0c 9F       		.byte	0x9f
 3867 0a0d 56000000 		.4byte	.LVL159
 3868 0a11 68000000 		.4byte	.LFE4
 3869 0a15 0100     		.2byte	0x1
 3870 0a17 50       		.byte	0x50
 3871 0a18 00000000 		.4byte	0
 3872 0a1c 00000000 		.4byte	0
 3873              	.LLST40:
 3874 0a20 44000000 		.4byte	.LVL153
 3875 0a24 46000000 		.4byte	.LVL154
 3876 0a28 0100     		.2byte	0x1
 3877 0a2a 50       		.byte	0x50
 3878 0a2b 46000000 		.4byte	.LVL154
 3879 0a2f 4C000000 		.4byte	.LVL156
 3880 0a33 0100     		.2byte	0x1
 3881 0a35 54       		.byte	0x54
 3882 0a36 4C000000 		.4byte	.LVL156
 3883 0a3a 51000000 		.4byte	.LVL157-1
 3884 0a3e 0100     		.2byte	0x1
 3885 0a40 50       		.byte	0x50
 3886 0a41 00000000 		.4byte	0
 3887 0a45 00000000 		.4byte	0
 3888              		.section	.debug_aranges,"",%progbits
 3889 0000 94000000 		.4byte	0x94
 3890 0004 0200     		.2byte	0x2
 3891 0006 00000000 		.4byte	.Ldebug_info0
 3892 000a 04       		.byte	0x4
 3893 000b 00       		.byte	0
 3894 000c 0000     		.2byte	0
 3895 000e 0000     		.2byte	0
 3896 0010 00000000 		.4byte	.LFB16
 3897 0014 28000000 		.4byte	.LFE16-.LFB16
 3898 0018 00000000 		.4byte	.LFB15
 3899 001c C4000000 		.4byte	.LFE15-.LFB15
 3900 0020 00000000 		.4byte	.LFB3
 3901 0024 C4000000 		.4byte	.LFE3-.LFB3
 3902 0028 00000000 		.4byte	.LFB5
 3903 002c 58000000 		.4byte	.LFE5-.LFB5
 3904 0030 00000000 		.4byte	.LFB6
 3905 0034 48000000 		.4byte	.LFE6-.LFB6
 3906 0038 00000000 		.4byte	.LFB7
 3907 003c 7C000000 		.4byte	.LFE7-.LFB7
 3908 0040 00000000 		.4byte	.LFB8
 3909 0044 0C000000 		.4byte	.LFE8-.LFB8
 3910 0048 00000000 		.4byte	.LFB9
 3911 004c 0C000000 		.4byte	.LFE9-.LFB9
 3912 0050 00000000 		.4byte	.LFB10
 3913 0054 28000000 		.4byte	.LFE10-.LFB10
 3914 0058 00000000 		.4byte	.LFB11
 3915 005c 28000000 		.4byte	.LFE11-.LFB11
 3916 0060 00000000 		.4byte	.LFB12
 3917 0064 30000000 		.4byte	.LFE12-.LFB12
 3918 0068 00000000 		.4byte	.LFB13
 3919 006c 20000000 		.4byte	.LFE13-.LFB13
 3920 0070 00000000 		.4byte	.LFB14
 3921 0074 20000000 		.4byte	.LFE14-.LFB14
ARM GAS  C:\Users\austc\AppData\Local\Temp\cciIEsvk.s 			page 94


 3922 0078 00000000 		.4byte	.LFB1
 3923 007c F8000000 		.4byte	.LFE1-.LFB1
 3924 0080 00000000 		.4byte	.LFB2
 3925 0084 08010000 		.4byte	.LFE2-.LFB2
 3926 0088 00000000 		.4byte	.LFB4
 3927 008c 68000000 		.4byte	.LFE4-.LFB4
 3928 0090 00000000 		.4byte	0
 3929 0094 00000000 		.4byte	0
 3930              		.section	.debug_ranges,"",%progbits
 3931              	.Ldebug_ranges0:
 3932 0000 00000000 		.4byte	.LFB16
 3933 0004 28000000 		.4byte	.LFE16
 3934 0008 00000000 		.4byte	.LFB15
 3935 000c C4000000 		.4byte	.LFE15
 3936 0010 00000000 		.4byte	.LFB3
 3937 0014 C4000000 		.4byte	.LFE3
 3938 0018 00000000 		.4byte	.LFB5
 3939 001c 58000000 		.4byte	.LFE5
 3940 0020 00000000 		.4byte	.LFB6
 3941 0024 48000000 		.4byte	.LFE6
 3942 0028 00000000 		.4byte	.LFB7
 3943 002c 7C000000 		.4byte	.LFE7
 3944 0030 00000000 		.4byte	.LFB8
 3945 0034 0C000000 		.4byte	.LFE8
 3946 0038 00000000 		.4byte	.LFB9
 3947 003c 0C000000 		.4byte	.LFE9
 3948 0040 00000000 		.4byte	.LFB10
 3949 0044 28000000 		.4byte	.LFE10
 3950 0048 00000000 		.4byte	.LFB11
 3951 004c 28000000 		.4byte	.LFE11
 3952 0050 00000000 		.4byte	.LFB12
 3953 0054 30000000 		.4byte	.LFE12
 3954 0058 00000000 		.4byte	.LFB13
 3955 005c 20000000 		.4byte	.LFE13
 3956 0060 00000000 		.4byte	.LFB14
 3957 0064 20000000 		.4byte	.LFE14
 3958 0068 00000000 		.4byte	.LFB1
 3959 006c F8000000 		.4byte	.LFE1
 3960 0070 00000000 		.4byte	.LFB2
 3961 0074 08010000 		.4byte	.LFE2
 3962 0078 00000000 		.4byte	.LFB4
 3963 007c 68000000 		.4byte	.LFE4
 3964 0080 00000000 		.4byte	0
 3965 0084 00000000 		.4byte	0
 3966              		.section	.debug_line,"",%progbits
 3967              	.Ldebug_line0:
 3968 0000 FC020000 		.section	.debug_str,"MS",%progbits,1
 3968      02006B00 
 3968      00000201 
 3968      FB0E0D00 
 3968      01010101 
 3969              	.LASF58:
 3970 0000 4932435F 		.ascii	"I2C_1_mstrWrBufSize\000"
 3970      315F6D73 
 3970      74725772 
 3970      42756653 
 3970      697A6500 
ARM GAS  C:\Users\austc\AppData\Local\Temp\cciIEsvk.s 			page 95


 3971              	.LASF10:
 3972 0014 75696E74 		.ascii	"uint16\000"
 3972      313600
 3973              	.LASF18:
 3974 001b 6F6E6555 		.ascii	"oneUnit\000"
 3974      6E697400 
 3975              	.LASF30:
 3976 0023 4932435F 		.ascii	"I2C_1_I2CMasterSendStart\000"
 3976      315F4932 
 3976      434D6173 
 3976      74657253 
 3976      656E6453 
 3977              	.LASF36:
 3978 003c 72644279 		.ascii	"rdByte\000"
 3978      746500
 3979              	.LASF65:
 3980 0043 474E5520 		.ascii	"GNU C11 5.4.1 20160609 (release) [ARM/embedded-5-br"
 3980      43313120 
 3980      352E342E 
 3980      31203230 
 3980      31363036 
 3981 0076 616E6368 		.ascii	"anch revision 237715] -mcpu=cortex-m0 -mthumb -g -O"
 3981      20726576 
 3981      6973696F 
 3981      6E203233 
 3981      37373135 
 3982 00a9 67202D66 		.ascii	"g -ffunction-sections -ffat-lto-objects\000"
 3982      66756E63 
 3982      74696F6E 
 3982      2D736563 
 3982      74696F6E 
 3983              	.LASF7:
 3984 00d1 6C6F6E67 		.ascii	"long long unsigned int\000"
 3984      206C6F6E 
 3984      6720756E 
 3984      7369676E 
 3984      65642069 
 3985              	.LASF37:
 3986 00e8 72784E6F 		.ascii	"rxNotEmpty\000"
 3986      74456D70 
 3986      747900
 3987              	.LASF6:
 3988 00f3 6C6F6E67 		.ascii	"long long int\000"
 3988      206C6F6E 
 3988      6720696E 
 3988      7400
 3989              	.LASF0:
 3990 0101 7369676E 		.ascii	"signed char\000"
 3990      65642063 
 3990      68617200 
 3991              	.LASF49:
 3992 010d 72644461 		.ascii	"rdData\000"
 3992      746100
 3993              	.LASF59:
 3994 0114 4932435F 		.ascii	"I2C_1_mstrWrBufIndex\000"
 3994      315F6D73 
 3994      74725772 
ARM GAS  C:\Users\austc\AppData\Local\Temp\cciIEsvk.s 			page 96


 3994      42756649 
 3994      6E646578 
 3995              	.LASF4:
 3996 0129 6C6F6E67 		.ascii	"long int\000"
 3996      20696E74 
 3996      00
 3997              	.LASF63:
 3998 0132 4379496E 		.ascii	"CyIntDisable\000"
 3998      74446973 
 3998      61626C65 
 3998      00
 3999              	.LASF9:
 4000 013f 75696E74 		.ascii	"uint8\000"
 4000      3800
 4001              	.LASF61:
 4002 0145 43794465 		.ascii	"CyDelayUs\000"
 4002      6C617955 
 4002      7300
 4003              	.LASF13:
 4004 014f 646F7562 		.ascii	"double\000"
 4004      6C6500
 4005              	.LASF11:
 4006 0156 75696E74 		.ascii	"uint32\000"
 4006      333200
 4007              	.LASF43:
 4008 015d 4932435F 		.ascii	"I2C_1_I2CMasterClearStatus\000"
 4008      315F4932 
 4008      434D6173 
 4008      74657243 
 4008      6C656172 
 4009              	.LASF24:
 4010 0178 72657365 		.ascii	"resetBlock\000"
 4010      74426C6F 
 4010      636B00
 4011              	.LASF8:
 4012 0183 756E7369 		.ascii	"unsigned int\000"
 4012      676E6564 
 4012      20696E74 
 4012      00
 4013              	.LASF62:
 4014 0190 4932435F 		.ascii	"I2C_1_I2CFwBlockReset\000"
 4014      315F4932 
 4014      43467742 
 4014      6C6F636B 
 4014      52657365 
 4015              	.LASF5:
 4016 01a6 6C6F6E67 		.ascii	"long unsigned int\000"
 4016      20756E73 
 4016      69676E65 
 4016      6420696E 
 4016      7400
 4017              	.LASF56:
 4018 01b8 4932435F 		.ascii	"I2C_1_mstrRdBufIndex\000"
 4018      315F6D73 
 4018      74725264 
 4018      42756649 
 4018      6E646578 
ARM GAS  C:\Users\austc\AppData\Local\Temp\cciIEsvk.s 			page 97


 4019              	.LASF35:
 4020 01cd 61636B4E 		.ascii	"ackNack\000"
 4020      61636B00 
 4021              	.LASF22:
 4022 01d5 74696D65 		.ascii	"timeout\000"
 4022      6F757400 
 4023              	.LASF45:
 4024 01dd 4932435F 		.ascii	"I2C_1_I2CMasterWriteBuf\000"
 4024      315F4932 
 4024      434D6173 
 4024      74657257 
 4024      72697465 
 4025              	.LASF28:
 4026 01f5 65727253 		.ascii	"errStatus\000"
 4026      74617475 
 4026      7300
 4027              	.LASF3:
 4028 01ff 73686F72 		.ascii	"short unsigned int\000"
 4028      7420756E 
 4028      7369676E 
 4028      65642069 
 4028      6E7400
 4029              	.LASF67:
 4030 0212 433A5C55 		.ascii	"C:\\Users\\austc\\OneDrive\\Documents\\GitHub\\Elec"
 4030      73657273 
 4030      5C617573 
 4030      74635C4F 
 4030      6E654472 
 4031 023f 74726F6E 		.ascii	"tronics2018-19\\Psoc Arm\\Motor Board Rev1.cydsn\000"
 4031      69637332 
 4031      3031382D 
 4031      31395C50 
 4031      736F6320 
 4032              	.LASF44:
 4033 026e 4932435F 		.ascii	"I2C_1_I2CReStartGeneration\000"
 4033      315F4932 
 4033      43526553 
 4033      74617274 
 4033      47656E65 
 4034              	.LASF26:
 4035 0289 62697452 		.ascii	"bitRnW\000"
 4035      6E5700
 4036              	.LASF15:
 4037 0290 72656733 		.ascii	"reg32\000"
 4037      3200
 4038              	.LASF17:
 4039 0296 73697A65 		.ascii	"sizetype\000"
 4039      74797065 
 4039      00
 4040              	.LASF16:
 4041 029f 6C6F6E67 		.ascii	"long double\000"
 4041      20646F75 
 4041      626C6500 
 4042              	.LASF64:
 4043 02ab 4379496E 		.ascii	"CyIntEnable\000"
 4043      74456E61 
 4043      626C6500 
ARM GAS  C:\Users\austc\AppData\Local\Temp\cciIEsvk.s 			page 98


 4044              	.LASF20:
 4045 02b7 4932435F 		.ascii	"I2C_1_I2CMasterWaitOneUnit\000"
 4045      315F4932 
 4045      434D6173 
 4045      74657257 
 4045      6169744F 
 4046              	.LASF41:
 4047 02d2 4932435F 		.ascii	"I2C_1_I2CMasterClearWriteBuf\000"
 4047      315F4932 
 4047      434D6173 
 4047      74657243 
 4047      6C656172 
 4048              	.LASF12:
 4049 02ef 666C6F61 		.ascii	"float\000"
 4049      7400
 4050              	.LASF38:
 4051 02f5 4932435F 		.ascii	"I2C_1_I2CMasterGetReadBufSize\000"
 4051      315F4932 
 4051      434D6173 
 4051      74657247 
 4051      65745265 
 4052              	.LASF50:
 4053 0313 4932435F 		.ascii	"I2C_1_I2CMasterSendRestart\000"
 4053      315F4932 
 4053      434D6173 
 4053      74657253 
 4053      656E6452 
 4054              	.LASF31:
 4055 032e 4932435F 		.ascii	"I2C_1_I2CMasterSendStop\000"
 4055      315F4932 
 4055      434D6173 
 4055      74657253 
 4055      656E6453 
 4056              	.LASF48:
 4057 0346 4932435F 		.ascii	"I2C_1_I2CMasterReadBuf\000"
 4057      315F4932 
 4057      434D6173 
 4057      74657252 
 4057      65616442 
 4058              	.LASF25:
 4059 035d 736C6176 		.ascii	"slaveAddress\000"
 4059      65416464 
 4059      72657373 
 4059      00
 4060              	.LASF1:
 4061 036a 756E7369 		.ascii	"unsigned char\000"
 4061      676E6564 
 4061      20636861 
 4061      7200
 4062              	.LASF57:
 4063 0378 4932435F 		.ascii	"I2C_1_mstrWrBufPtr\000"
 4063      315F6D73 
 4063      74725772 
 4063      42756650 
 4063      747200
 4064              	.LASF54:
 4065 038b 4932435F 		.ascii	"I2C_1_mstrRdBufPtr\000"
ARM GAS  C:\Users\austc\AppData\Local\Temp\cciIEsvk.s 			page 99


 4065      315F6D73 
 4065      74725264 
 4065      42756650 
 4065      747200
 4066              	.LASF2:
 4067 039e 73686F72 		.ascii	"short int\000"
 4067      7420696E 
 4067      7400
 4068              	.LASF66:
 4069 03a8 47656E65 		.ascii	"Generated_Source\\PSoC4\\I2C_1_I2C_MASTER.c\000"
 4069      72617465 
 4069      645F536F 
 4069      75726365 
 4069      5C50536F 
 4070              	.LASF53:
 4071 03d2 4932435F 		.ascii	"I2C_1_mstrControl\000"
 4071      315F6D73 
 4071      7472436F 
 4071      6E74726F 
 4071      6C00
 4072              	.LASF51:
 4073 03e4 4932435F 		.ascii	"I2C_1_state\000"
 4073      315F7374 
 4073      61746500 
 4074              	.LASF34:
 4075 03f0 4932435F 		.ascii	"I2C_1_I2CMasterReadByte\000"
 4075      315F4932 
 4075      434D6173 
 4075      74657252 
 4075      65616442 
 4076              	.LASF29:
 4077 0408 6C6F6353 		.ascii	"locStatus\000"
 4077      74617475 
 4077      7300
 4078              	.LASF33:
 4079 0412 77724279 		.ascii	"wrByte\000"
 4079      746500
 4080              	.LASF14:
 4081 0419 63686172 		.ascii	"char\000"
 4081      00
 4082              	.LASF47:
 4083 041e 6D6F6465 		.ascii	"mode\000"
 4083      00
 4084              	.LASF52:
 4085 0423 4932435F 		.ascii	"I2C_1_mstrStatus\000"
 4085      315F6D73 
 4085      74725374 
 4085      61747573 
 4085      00
 4086              	.LASF40:
 4087 0434 4932435F 		.ascii	"I2C_1_I2CMasterClearReadBuf\000"
 4087      315F4932 
 4087      434D6173 
 4087      74657243 
 4087      6C656172 
 4088              	.LASF21:
 4089 0450 4932435F 		.ascii	"I2C_1_I2CMasterHandleStatus\000"
ARM GAS  C:\Users\austc\AppData\Local\Temp\cciIEsvk.s 			page 100


 4089      315F4932 
 4089      434D6173 
 4089      74657248 
 4089      616E646C 
 4090              	.LASF27:
 4091 046c 74696D65 		.ascii	"timeoutMs\000"
 4091      6F75744D 
 4091      7300
 4092              	.LASF46:
 4093 0476 77724461 		.ascii	"wrData\000"
 4093      746100
 4094              	.LASF19:
 4095 047d 73746174 		.ascii	"status\000"
 4095      757300
 4096              	.LASF39:
 4097 0484 4932435F 		.ascii	"I2C_1_I2CMasterGetWriteBufSize\000"
 4097      315F4932 
 4097      434D6173 
 4097      74657247 
 4097      65745772 
 4098              	.LASF55:
 4099 04a3 4932435F 		.ascii	"I2C_1_mstrRdBufSize\000"
 4099      315F6D73 
 4099      74725264 
 4099      42756653 
 4099      697A6500 
 4100              	.LASF32:
 4101 04b7 4932435F 		.ascii	"I2C_1_I2CMasterWriteByte\000"
 4101      315F4932 
 4101      434D6173 
 4101      74657257 
 4101      72697465 
 4102              	.LASF42:
 4103 04d0 4932435F 		.ascii	"I2C_1_I2CMasterStatus\000"
 4103      315F4932 
 4103      434D6173 
 4103      74657253 
 4103      74617475 
 4104              	.LASF60:
 4105 04e6 4932435F 		.ascii	"I2C_1_mstrWrBufIndexTmp\000"
 4105      315F6D73 
 4105      74725772 
 4105      42756649 
 4105      6E646578 
 4106              	.LASF23:
 4107 04fe 72657453 		.ascii	"retStatus\000"
 4107      74617475 
 4107      7300
 4108              		.ident	"GCC: (GNU Tools for ARM Embedded Processors) 5.4.1 20160609 (release) [ARM/embedded-5-bran
