ARM GAS  C:\Users\austc\AppData\Local\Temp\ccxzq70h.s 			page 1


   1              		.syntax unified
   2              		.cpu cortex-m0
   3              		.fpu softvfp
   4              		.eabi_attribute 20, 1
   5              		.eabi_attribute 21, 1
   6              		.eabi_attribute 23, 3
   7              		.eabi_attribute 24, 1
   8              		.eabi_attribute 25, 1
   9              		.eabi_attribute 26, 1
  10              		.eabi_attribute 30, 1
  11              		.eabi_attribute 34, 0
  12              		.eabi_attribute 18, 4
  13              		.thumb
  14              		.syntax unified
  15              		.file	"main.c"
  16              		.text
  17              	.Ltext0:
  18              		.cfi_sections	.debug_frame
  19              		.section	.text.ISR_CAN,"ax",%progbits
  20              		.align	2
  21              		.global	ISR_CAN
  22              		.code	16
  23              		.thumb_func
  24              		.type	ISR_CAN, %function
  25              	ISR_CAN:
  26              	.LFB47:
  27              		.file 1 "main.c"
   1:main.c        **** /* ========================================
   2:main.c        ****  *
   3:main.c        ****  * Copyright YOUR COMPANY, THE YEAR
   4:main.c        ****  * All Rights Reserved
   5:main.c        ****  * UNPUBLISHED, LICENSED SOFTWARE.
   6:main.c        ****  *
   7:main.c        ****  * CONFIDENTIAL AND PROPRIETARY INFORMATION
   8:main.c        ****  * WHICH IS THE PROPERTY OF your company.
   9:main.c        ****  *
  10:main.c        ****  * ========================================
  11:main.c        **** */
  12:main.c        **** #include <project.h>
  13:main.c        **** #include "cyapicallbacks.h"
  14:main.c        **** #include <stdio.h>
  15:main.c        **** 
  16:main.c        **** //#define REV2
  17:main.c        **** #define LED_ON   (0u)
  18:main.c        **** #define LED_OFF  (1u)
  19:main.c        **** 
  20:main.c        **** //LED
  21:main.c        **** uint8 time_LED = 0;
  22:main.c        **** 
  23:main.c        **** //CAN variables
  24:main.c        **** uint32 message_id = 0;
  25:main.c        **** #define MESSAGE_IDE             (0u)    /* Standard message */
  26:main.c        **** #define MESSAGE_IRQ             (0u)    /* No transmit IRQ */
  27:main.c        **** #define MESSAGE_RTR             (0u)    /* No RTR */
  28:main.c        **** uint16 CAN_RX_MAILBOX_1_SHIFT  = 0b1;
  29:main.c        **** uint32 CAN_RX_MAILBOX_0_SHIFT  = 0b10000000;
  30:main.c        **** uint16 CAN_RX_MAILBOX_1 = 0u;
ARM GAS  C:\Users\austc\AppData\Local\Temp\ccxzq70h.s 			page 2


  31:main.c        **** uint16 CAN_RX_MAILBOX_0 = 7u;
  32:main.c        **** int CAN_TIMEOUT;
  33:main.c        **** 
  34:main.c        **** CY_ISR_PROTO(ISR_CAN);
  35:main.c        **** 
  36:main.c        **** //Uart variables
  37:main.c        **** volatile uint8 uart_debug = 2;
  38:main.c        **** #define TX_DATA_SIZE            (100u)
  39:main.c        **** #define PWM_PERIOD = 255;
  40:main.c        **** 
  41:main.c        **** 
  42:main.c        **** //drive varaible
  43:main.c        **** int GEAR_RATIO;
  44:main.c        **** int pwm_compare;
  45:main.c        **** uint8 invalidate = 0;
  46:main.c        **** 
  47:main.c        **** //PID varaibles
  48:main.c        **** int8 flipEncoder = 1;
  49:main.c        **** int16 final_angle = 0;
  50:main.c        **** int i = 0;
  51:main.c        **** int lastp = 0;
  52:main.c        **** int kp;
  53:main.c        **** int ki;
  54:main.c        **** int kd;
  55:main.c        **** double ratio;
  56:main.c        **** uint8 complete = 0;
  57:main.c        **** uint8 maxV = 0;
  58:main.c        **** 
  59:main.c        **** //drive mode
  60:main.c        **** uint8 mode = 2;
  61:main.c        **** 
  62:main.c        **** //flags
  63:main.c        **** uint8 send_data = 1;
  64:main.c        **** uint8 model_req = 0;
  65:main.c        **** uint8 disable_limit = 0;
  66:main.c        **** 
  67:main.c        **** //Status and Data Structs
  68:main.c        **** struct Can_data Can_rx_pwm, Can_rx_angle;
  69:main.c        **** struct Error stall;
  70:main.c        **** struct Error command_failed;
  71:main.c        **** struct Error invalid_arg;
  72:main.c        **** 
  73:main.c        **** 
  74:main.c        **** int mailbox = 0x000;
  75:main.c        **** uint8 emergency = 0;
  76:main.c        **** char8 txData[TX_DATA_SIZE];
  77:main.c        **** /* Global variables used to store configuration and data for BASIC CAN mailbox */
  78:main.c        **** CAN_DATA_BYTES_MSG data;
  79:main.c        **** CAN_TX_MSG message;
  80:main.c        **** 
  81:main.c        **** volatile uint8 drive = 0;
  82:main.c        **** 
  83:main.c        **** 
  84:main.c        **** CY_ISR(Period_Reset_Handler) {
  85:main.c        ****     int timer = Timer_1_ReadStatusRegister();
  86:main.c        ****     if(uart_debug) {
  87:main.c        ****         sprintf(txData,"Period interupt triggerd %x\r\n", timer);
ARM GAS  C:\Users\austc\AppData\Local\Temp\ccxzq70h.s 			page 3


  88:main.c        ****         //UART_UartPutString(txData);
  89:main.c        ****     }
  90:main.c        ****     send_data = 1;
  91:main.c        ****     invalidate++;
  92:main.c        ****     time_LED++;
  93:main.c        ****     if(invalidate >= 20){
  94:main.c        ****         set_PWM(0);   
  95:main.c        ****         Can_rx_pwm.done = 1;
  96:main.c        ****     }
  97:main.c        ****     
  98:main.c        ****     #ifdef REV2
  99:main.c        ****         if(time_LED >= 5){
 100:main.c        ****             Test_LED_Write(LED_OFF);
 101:main.c        ****             
 102:main.c        ****             
 103:main.c        ****         }
 104:main.c        ****     #endif
 105:main.c        **** }
 106:main.c        ****   
 107:main.c        **** CY_ISR(Pin_Limit_Handler){
 108:main.c        ****     if(uart_debug) {
 109:main.c        ****         sprintf(txData,"Limit interupt triggerd\r\n");
 110:main.c        ****         UART_UartPutString(txData);
 111:main.c        ****     }
 112:main.c        ****     set_PWM(pwm_compare);
 113:main.c        ****     QuadDec_SetCounter(0);
 114:main.c        **** }
 115:main.c        **** 
 116:main.c        **** int main(void)
 117:main.c        **** { 
 118:main.c        ****     #ifdef REV2
 119:main.c        ****         Test_LED_Write(LED_ON);
 120:main.c        ****         Error_Write(LED_ON);
 121:main.c        ****     #endif
 122:main.c        ****     stall.code = 0x01;
 123:main.c        ****     stall.done = 1;
 124:main.c        ****     command_failed.code = 0x02;
 125:main.c        ****     command_failed.done = 1;
 126:main.c        ****     invalid_arg.code = 0x03;
 127:main.c        ****     invalid_arg.done = 1;
 128:main.c        ****     uint8 error;
 129:main.c        ****         /* BASIC CAN mailbox configuration */
 130:main.c        ****     message.dlc = 5u;
 131:main.c        ****     message.ide = MESSAGE_IDE;
 132:main.c        ****     message.irq = MESSAGE_IRQ;
 133:main.c        ****     message.msg = &data;
 134:main.c        ****     message.rtr = MESSAGE_RTR;
 135:main.c        ****     
 136:main.c        ****     #ifdef REV2
 137:main.c        ****         Test_LED_Write(0);
 138:main.c        ****         Error_Write(0);
 139:main.c        ****     #endif
 140:main.c        **** 
 141:main.c        ****     initialize();
 142:main.c        ****     initialize_can_addr();
 143:main.c        ****     int up = 0;
 144:main.c        ****     int test = 0;
ARM GAS  C:\Users\austc\AppData\Local\Temp\ccxzq70h.s 			page 4


 145:main.c        ****     pwm_compare = 0;
 146:main.c        ****     set_PWM(0);
 147:main.c        ****     
 148:main.c        ****     #ifdef REV2
 149:main.c        ****         Test_LED_Write(LED_OFF);
 150:main.c        ****         Error_Write(LED_OFF);
 151:main.c        ****     #endif
 152:main.c        ****     
 153:main.c        ****     for(;;)
 154:main.c        ****     {
 155:main.c        ****         if(!emergency) {
 156:main.c        **** 
 157:main.c        ****             //Tests if there are still drive packets that still need to be done
 158:main.c        ****             //drive = !Can_rx_pwm.done | !Can_rx_angle.done;
 159:main.c        ****             
 160:main.c        ****             //Handles Can drive recieve packets
 161:main.c        ****             //if (drive)
 162:main.c        ****             //{           
 163:main.c        ****                 //Mode 0 packets
 164:main.c        ****                 if(!Can_rx_pwm.done) {
 165:main.c        ****                     if(mode == 0) {
 166:main.c        ****                         if(uart_debug) {
 167:main.c        ****                             sprintf(txData, "B1: %d, B2: %d done %x\r\n",Can_rx_pwm.b1, Can_rx_pwm.
 168:main.c        ****                             UART_UartPutString(txData);
 169:main.c        ****                         }
 170:main.c        ****                         Can_rx_pwm.done = 1;
 171:main.c        ****                         if(Can_rx_pwm.b2 & 0b01) {
 172:main.c        ****                             set_PWM((int)Can_rx_pwm.b1);
 173:main.c        ****                         }
 174:main.c        ****                         else {
 175:main.c        ****                             set_PWM(-(int)Can_rx_pwm.b1);
 176:main.c        ****                         }
 177:main.c        ****                     } else {
 178:main.c        ****                         command_failed.done = 0;
 179:main.c        ****                         command_failed.param = 0x02;
 180:main.c        ****                         if(uart_debug) {
 181:main.c        ****                             sprintf(txData, "Mode is not set to 0, mode is %d\r\n",mode);
 182:main.c        ****                             UART_UartPutString(txData);
 183:main.c        ****                         }
 184:main.c        ****                     }
 185:main.c        ****                 }
 186:main.c        ****                 
 187:main.c        ****                 // Mode 1 packets
 188:main.c        ****                // if(!Can_rx_angle.done){
 189:main.c        ****                     if(mode == 1){
 190:main.c        ****                         if(uart_debug) {
 191:main.c        ****                             sprintf(txData, "B1: %d, B3: %d done %x\r\n",Can_rx_angle.b1, Can_rx_an
 192:main.c        ****                             UART_UartPutString(txData);
 193:main.c        ****                         }
 194:main.c        ****                         //Can_rx_angle.done = 1;
 195:main.c        ****                         complete = 0;
 196:main.c        ****                         maxV = Can_rx_angle.b3;
 197:main.c        ****                         i = 0;
 198:main.c        ****                         
 199:main.c        ****                        // final_angle = final_angle | (int16)Can_rx_angle.b2 << 8;
 200:main.c        ****                        // final_angle = final_angle | (int16)Can_rx_angle.b1;
 201:main.c        ****                         final_angle = ((uint16_t)Can_rx_angle.b2) << 8 | Can_rx_angle.b1;
ARM GAS  C:\Users\austc\AppData\Local\Temp\ccxzq70h.s 			page 5


 202:main.c        ****                         set_Position(final_angle);
 203:main.c        ****                     }
 204:main.c        ****                     else if(!Can_rx_pwm.done) {
 205:main.c        ****                         command_failed.done = 0;
 206:main.c        ****                         command_failed.param = 0x04;
 207:main.c        ****                         if(uart_debug) {
 208:main.c        ****                             sprintf(txData, "Mode is not set to 1, mode is %d\r\n", mode);
 209:main.c        ****                             UART_UartPutString(txData);
 210:main.c        ****                         }
 211:main.c        ****                     }
 212:main.c        ****                 //}
 213:main.c        ****                 
 214:main.c        ****                 if(mode != 1 && mode != 0) {
 215:main.c        ****                     Can_rx_angle.done = 1;
 216:main.c        ****                     Can_rx_pwm.done = 1;
 217:main.c        ****                 }
 218:main.c        ****             //}
 219:main.c        ****             
 220:main.c        ****             //Tests if there are any errors
 221:main.c        ****           //  error = !stall.done | !invalid_arg.done | !command_failed.done; 
 222:main.c        ****             
 223:main.c        ****             //sends errors over CAN
 224:main.c        ****             /*if(error){
 225:main.c        ****                 if(!stall.done) {
 226:main.c        ****                     CAN_Send_Error(stall.code, stall.param);
 227:main.c        ****                     stall.done = 1;
 228:main.c        ****                 }
 229:main.c        ****                 if(!invalid_arg.done) {
 230:main.c        ****                     CAN_Send_Error(invalid_arg.code, invalid_arg.param);
 231:main.c        ****                     invalid_arg.done = 1;
 232:main.c        ****                 }
 233:main.c        ****                 if(!command_failed.done) {
 234:main.c        ****                     CAN_Send_Error(command_failed.code, command_failed.param);
 235:main.c        ****                     command_failed.done = 1;
 236:main.c        ****                 }
 237:main.c        ****             }*/
 238:main.c        ****             
 239:main.c        ****             //Sends periodic data
 240:main.c        ****             if(send_data) {
 241:main.c        ****                 if(uart_debug) {
 242:main.c        ****                     sprintf(txData,"\nSending Data... \r\n");
 243:main.c        ****                    // UART_UartPutString(txData);
 244:main.c        ****                 }
 245:main.c        ****                 CAN_Send_Encoder(); 
 246:main.c        ****                 send_data = 0;
 247:main.c        ****             }
 248:main.c        ****             
 249:main.c        ****             //Sends model
 250:main.c        ****             if(model_req) {
 251:main.c        ****                 CAN_Send_Model();
 252:main.c        ****                 model_req = 0;
 253:main.c        ****             }
 254:main.c        ****             //PWM test code
 255:main.c        ****             /*CyDelay(100);
 256:main.c        ****             if(up){
 257:main.c        ****                 test += 10;
 258:main.c        ****             } else {
ARM GAS  C:\Users\austc\AppData\Local\Temp\ccxzq70h.s 			page 6


 259:main.c        ****                 test -= 10;   
 260:main.c        ****             }
 261:main.c        ****             if(test > 255) {
 262:main.c        ****                 up = 0;   
 263:main.c        ****             } else if (test < -255) {
 264:main.c        ****                 up = 1;
 265:main.c        ****             }
 266:main.c        ****             set_PWM(test);
 267:main.c        ****             */
 268:main.c        **** 
 269:main.c        ****         }
 270:main.c        ****     }
 271:main.c        **** }
 272:main.c        **** 
 273:main.c        **** void emergency_halt(void) {
 274:main.c        ****     PWM_Motor_Stop();
 275:main.c        ****     emergency = 1;
 276:main.c        ****     // stops all motors;
 277:main.c        ****     // waits for restart CAN signal.
 278:main.c        **** }
 279:main.c        **** 
 280:main.c        **** void initialize(void) {
 281:main.c        ****     
 282:main.c        ****     int can_start = CAN_Start();
 283:main.c        ****     Status_Reg_Switches_InterruptEnable();
 284:main.c        ****     Timer_1_Start();
 285:main.c        ****    // ADC_SAR_Seq_1_Start();
 286:main.c        ****     //ADC_SAR_Seq_1_StartConvert();
 287:main.c        ****     QuadDec_Start();
 288:main.c        ****     PWM_Motor_Start();  
 289:main.c        ****     
 290:main.c        ****     CAN_GlobalIntEnable();
 291:main.c        ****     CyIntSetVector(CAN_ISR_NUMBER, ISR_CAN);
 292:main.c        ****     CyGlobalIntEnable; /* Enable global interrupts. */
 293:main.c        ****     isr_Limit_1_StartEx(Pin_Limit_Handler);
 294:main.c        ****     isr_period_StartEx(Period_Reset_Handler);
 295:main.c        ****     
 296:main.c        ****     if(uart_debug) {
 297:main.c        ****         UART_Start();
 298:main.c        ****         sprintf(txData, "CAN_Start():  %u\r\n",can_start);
 299:main.c        ****         UART_UartPutString(txData); 
 300:main.c        ****     }
 301:main.c        **** }
 302:main.c        **** 
 303:main.c        **** //Recieve:
 304:main.c        **** //1 00010 11010 0x45A General
 305:main.c        **** //1 00010 10000 0x450 BBB to base rotation
 306:main.c        **** //1 00010 10001 0x451 
 307:main.c        **** //1 00010 10010 0x452
 308:main.c        **** //1 00010 10011 0x453
 309:main.c        **** //1 00010 10100 0x454
 310:main.c        **** //1 00010 10101 0x455
 311:main.c        **** //1 00010 10110 0x456
 312:main.c        **** //Send:
 313:main.c        **** //1 10000 00010 0x602 base rotation to BBB 
 314:main.c        **** //1 10001 00010 0x622 shoulder to BBB
 315:main.c        **** //1 10010 00010 0x642 elbow ""
ARM GAS  C:\Users\austc\AppData\Local\Temp\ccxzq70h.s 			page 7


 316:main.c        **** //1 10011 00010 0x662 forearm rotation ""
 317:main.c        **** //1 10100 00010 0x682 diff wrist 1 ""
 318:main.c        **** //1 10101 00010 0x6A2 diff wrist 2 ""
 319:main.c        **** //1 10110 00010 0x6C2 hand ""
 320:main.c        **** void initialize_can_addr(void) {
 321:main.c        ****     uint8 setting = Can_addr_Read();
 322:main.c        ****     uint8 shift = 0;
 323:main.c        ****     switch(Can_addr_Read()) {
 324:main.c        ****         case 0b000: //Base rotation
 325:main.c        ****             message_id = 0b10000;
 326:main.c        ****             shift = 0;
 327:main.c        ****             ratio = 1;
 328:main.c        ****             break;
 329:main.c        ****         case 0b001: // shoulder
 330:main.c        ****             message_id = 0b10001;
 331:main.c        ****             shift = 1;
 332:main.c        ****             ratio = 14.45;
 333:main.c        ****             #ifdef REV2
 334:main.c        ****                 flipEncoder = 1;
 335:main.c        ****             #endif
 336:main.c        ****             kp = 50;
 337:main.c        ****             ki = 12;
 338:main.c        ****             kd = 10;
 339:main.c        ****             break;
 340:main.c        ****         case 0b010: // elbow
 341:main.c        ****             message_id = 0b10010;
 342:main.c        ****             shift = 2;
 343:main.c        ****             ratio = 2.8;
 344:main.c        ****             break;
 345:main.c        ****         case 0b011: // forearm rotation
 346:main.c        ****             message_id = 0b10011;
 347:main.c        ****             disable_limit = 1;
 348:main.c        ****             shift = 3;
 349:main.c        ****             ratio = 1;
 350:main.c        **** 
 351:main.c        ****             break;
 352:main.c        ****         case 0b100: // diff wrist 1
 353:main.c        ****             message_id = 0b10100;
 354:main.c        ****             disable_limit = 1;
 355:main.c        ****             shift = 4;
 356:main.c        ****             ratio = 1.3888;
 357:main.c        ****             kp = 20;
 358:main.c        ****             ki = 30;
 359:main.c        ****             kd = 10;
 360:main.c        ****             flipEncoder = -1;
 361:main.c        ****             break;
 362:main.c        ****         case 0b101: // diff wrist 2
 363:main.c        ****             message_id = 0b10101;
 364:main.c        ****             disable_limit = 1;
 365:main.c        ****             flipEncoder = -1;
 366:main.c        ****             shift = 5;
 367:main.c        ****             ratio = 1.3888;
 368:main.c        ****             kp = 50;
 369:main.c        ****             ki = 40;
 370:main.c        ****             kd = 10;
 371:main.c        ****             break;
 372:main.c        ****         case 0b110: // hand
ARM GAS  C:\Users\austc\AppData\Local\Temp\ccxzq70h.s 			page 8


 373:main.c        ****             message_id = 0b10110;
 374:main.c        ****             shift = 6;
 375:main.c        ****             ratio = 1;
 376:main.c        ****             break;
 377:main.c        ****         default:
 378:main.c        ****             message_id = 0b11010;
 379:main.c        ****             shift = 7;
 380:main.c        ****             CAN_RX_MAILBOX_1_SHIFT = 0b10000000 << shift;
 381:main.c        ****             CAN_RX_MAILBOX_0_SHIFT = 0b10000000 << (shift+1);
 382:main.c        ****             CAN_RX_MAILBOX_0 = 15u;
 383:main.c        ****             CAN_RX_MAILBOX_1 = 14u;
 384:main.c        ****             break;
 385:main.c        ****     }
 386:main.c        ****     
 387:main.c        ****     if(shift != 7) {
 388:main.c        ****     CAN_RX_MAILBOX_0_SHIFT = CAN_RX_MAILBOX_0_SHIFT << shift;
 389:main.c        ****     CAN_RX_MAILBOX_1_SHIFT = CAN_RX_MAILBOX_1_SHIFT << shift;
 390:main.c        ****     CAN_RX_MAILBOX_0 += shift;
 391:main.c        ****     CAN_RX_MAILBOX_1 += shift;
 392:main.c        ****     }
 393:main.c        ****     set_CAN_ID(0b1);
 394:main.c        ****     
 395:main.c        ****     if(uart_debug) {
 396:main.c        ****         sprintf(txData, "CAN dip setting:  %x Message ID: %ld\r\n",setting, message_id);
 397:main.c        ****         UART_UartPutString(txData); 
 398:main.c        ****         sprintf(txData, "Can shift: %d   P0Mailbox: %d P1Mailbox %d\r\n",shift, CAN_RX_MAILBOX_0, C
 399:main.c        ****         UART_UartPutString(txData); 
 400:main.c        ****         sprintf(txData, "disable_limit: %d\r\n",disable_limit);
 401:main.c        ****         UART_UartPutString(txData); 
 402:main.c        ****     }
 403:main.c        **** }
 404:main.c        **** 
 405:main.c        **** void set_CAN_ID(uint32 priority) {
 406:main.c        ****     message.id = (priority << 10) | (message_id << 5) | 0b00010;
 407:main.c        **** }
 408:main.c        **** 
 409:main.c        ****     // takes between -255 and 255
 410:main.c        **** void set_PWM(int compare) {
 411:main.c        ****     pwm_compare = compare;
 412:main.c        ****     #ifdef REV2
 413:main.c        ****     compare = -compare;
 414:main.c        ****     #endif
 415:main.c        ****      if(uart_debug) {
 416:main.c        ****         sprintf(txData, "PWM:%d disable_limit: %d\r\n",compare,disable_limit);
 417:main.c        ****         UART_UartPutString(txData); 
 418:main.c        ****     }
 419:main.c        ****     invalidate = 0;
 420:main.c        ****     if (compare < -255 || compare > 255) { return; }
 421:main.c        ****     uint8 status = Status_Reg_Switches_Read();
 422:main.c        ****     if (compare < 0 && (!(status & 0b01) || disable_limit) ) {
 423:main.c        ****         Pin_Direction_Write(0);
 424:main.c        ****         PWM_Motor_WriteCompare(-compare);
 425:main.c        ****     } else if (compare > 0 && (!(status & 0b10) || disable_limit) ){
 426:main.c        ****         Pin_Direction_Write(1);
 427:main.c        ****         PWM_Motor_WriteCompare(compare);
 428:main.c        ****     } else {
 429:main.c        ****         PWM_Motor_WriteCompare(0);
ARM GAS  C:\Users\austc\AppData\Local\Temp\ccxzq70h.s 			page 9


 430:main.c        ****         
 431:main.c        ****     }
 432:main.c        **** }
 433:main.c        **** 
 434:main.c        **** void CAN_Send_Encoder(void){
 435:main.c        ****     int16 ticks = QuadDec_GetCounter();
 436:main.c        ****     int16 angle = (((double)ticks)/ratio)*10;
 437:main.c        ****     data.byte[0u] = 0x14u;
 438:main.c        ****     data.byte[1u] = LO8(angle);
 439:main.c        ****     data.byte[2u] = HI8(angle);
 440:main.c        ****     data.byte[3u] = 0;
 441:main.c        ****     data.byte[4u] = 0;
 442:main.c        ****     CAN_SendMsg(&message);
 443:main.c        ****     if(uart_debug == 2) {
 444:main.c        ****         sprintf(txData, "CAN_Send_Encoder: byte[0u] %x byte[1u] %x byte[2u] %x QuadDec Count %d\r\n
 445:main.c        ****             data.byte[0u],data.byte[1u],data.byte[2u],
 446:main.c        ****             QuadDec_GetCounter());
 447:main.c        ****         UART_UartPutString(txData);    
 448:main.c        ****     }
 449:main.c        **** }
 450:main.c        **** 
 451:main.c        **** void CAN_Send_Telemetry(void) {
 452:main.c        ****     data.byte[0u] = 0x18u;
 453:main.c        ****     data.byte[1u] = 0;
 454:main.c        ****     data.byte[2u] = 0;
 455:main.c        ****     data.byte[3u] = 0;
 456:main.c        ****     data.byte[4u] = 0;
 457:main.c        ****     CAN_SendMsg(&message);
 458:main.c        ****     if(uart_debug == 2) {
 459:main.c        ****         sprintf(txData, "Telemerty: byte[0u] %x byte[1u] %x\r\n",(uint8)data.byte[0u],(uint8)data.b
 460:main.c        ****         UART_UartPutString(txData); 
 461:main.c        ****     }
 462:main.c        **** }
 463:main.c        **** 
 464:main.c        **** void CAN_Send_Model(void) {
 465:main.c        ****     data.byte[0u] = 0x12u;
 466:main.c        ****     data.byte[1u] = 0x00u;
 467:main.c        ****     data.byte[2u] = 0;
 468:main.c        ****     data.byte[3u] = 0;
 469:main.c        ****     data.byte[4u] = 0;
 470:main.c        ****     CAN_SendMsg(&message);
 471:main.c        ****     if(uart_debug == 2) {
 472:main.c        ****         sprintf(txData, "Model: byte[0u] %x byte[1u] %x\r\n",data.byte[0u],data.byte[1u]);
 473:main.c        ****         UART_UartPutString(txData); 
 474:main.c        ****     }
 475:main.c        **** }
 476:main.c        **** 
 477:main.c        **** void CAN_Send_Error(uint8 code, uint8 param) {
 478:main.c        ****     data.byte[0u] = 0xffu;
 479:main.c        ****     data.byte[1u] = code;
 480:main.c        ****     data.byte[2u] = param;
 481:main.c        ****     data.byte[3u] = 0;
 482:main.c        ****     data.byte[4u] = 0;
 483:main.c        ****     CAN_SendMsg(&message);
 484:main.c        ****     if(uart_debug == 2) {
 485:main.c        ****         sprintf(txData, "Error: byte[0u] %x byte[1u] %x byte[2u] %x\r\n",data.byte[0u],data.byte[1u
 486:main.c        ****         UART_UartPutString(txData); 
ARM GAS  C:\Users\austc\AppData\Local\Temp\ccxzq70h.s 			page 10


 487:main.c        ****     }
 488:main.c        **** }
 489:main.c        **** 
 490:main.c        **** CY_ISR(ISR_CAN)
 491:main.c        **** {
  28              		.loc 1 491 0
  29              		.cfi_startproc
  30              		@ args = 0, pretend = 0, frame = 0
  31              		@ frame_needed = 0, uses_anonymous_args = 0
  32 0000 10B5     		push	{r4, lr}
  33              		.cfi_def_cfa_offset 8
  34              		.cfi_offset 4, -8
  35              		.cfi_offset 14, -4
 492:main.c        ****     /* Clear Receive Message flag */
 493:main.c        ****     CAN_INT_SR_REG = CAN_RX_MESSAGE_MASK;
  36              		.loc 1 493 0
  37 0002 8022     		movs	r2, #128
  38 0004 5201     		lsls	r2, r2, #5
  39 0006 854B     		ldr	r3, .L23
  40 0008 1A60     		str	r2, [r3]
 494:main.c        ****     if(uart_debug) {
  41              		.loc 1 494 0
  42 000a 854B     		ldr	r3, .L23+4
  43 000c 1B78     		ldrb	r3, [r3]
  44 000e 002B     		cmp	r3, #0
  45 0010 02D0     		beq	.L2
 495:main.c        ****         UART_UartPutString("\n Can rx triggered\n");   
  46              		.loc 1 495 0
  47 0012 8448     		ldr	r0, .L23+8
  48 0014 FFF7FEFF 		bl	UART_UartPutString
  49              	.LVL0:
  50              	.L2:
 496:main.c        ****     }
 497:main.c        ****     /* Switch status message received */
 498:main.c        ****     if ((CAN_BUF_SR_REG & CAN_RX_MAILBOX_0_SHIFT) != 0u)
  51              		.loc 1 498 0
  52 0018 834B     		ldr	r3, .L23+12
  53 001a 1B68     		ldr	r3, [r3]
  54 001c 804A     		ldr	r2, .L23+4
  55 001e 5268     		ldr	r2, [r2, #4]
  56 0020 1A42     		tst	r2, r3
  57 0022 79D0     		beq	.L3
 499:main.c        ****     {   
 500:main.c        ****         if(uart_debug){
  58              		.loc 1 500 0
  59 0024 7E4B     		ldr	r3, .L23+4
  60 0026 1B78     		ldrb	r3, [r3]
  61 0028 002B     		cmp	r3, #0
  62 002a 02D0     		beq	.L4
 501:main.c        ****             UART_UartPutString("P0 recieved\n");    
  63              		.loc 1 501 0
  64 002c 7F48     		ldr	r0, .L23+16
  65 002e FFF7FEFF 		bl	UART_UartPutString
  66              	.LVL1:
  67              	.L4:
 502:main.c        ****         }
 503:main.c        ****         #ifdef REV2
ARM GAS  C:\Users\austc\AppData\Local\Temp\ccxzq70h.s 			page 11


 504:main.c        ****         time_LED = 0;
 505:main.c        ****         Test_LED_Write(LED_ON);
 506:main.c        ****         #endif
 507:main.c        ****         set_data(CAN_RX_MAILBOX_0);
  68              		.loc 1 507 0
  69 0032 7B4B     		ldr	r3, .L23+4
  70 0034 1B89     		ldrh	r3, [r3, #8]
  71              	.LVL2:
  72              	.LBB6:
  73              	.LBB7:
 508:main.c        ****         /* Acknowledges receipt of new message */
 509:main.c        ****         CAN_RX_ACK_MESSAGE(CAN_RX_MAILBOX_0);
 510:main.c        ****     }
 511:main.c        **** 
 512:main.c        ****     if ((CAN_BUF_SR_REG & CAN_RX_MAILBOX_1_SHIFT) != 0u)
 513:main.c        ****     {
 514:main.c        ****         if(uart_debug){
 515:main.c        ****             UART_UartPutString("P1 recieved\n\n");    
 516:main.c        ****         }
 517:main.c        ****         #ifdef REV2
 518:main.c        ****         time_LED = 0;
 519:main.c        ****         Test_LED_Write(LED_ON);
 520:main.c        ****         #endif
 521:main.c        ****         set_data(CAN_RX_MAILBOX_1);
 522:main.c        ****         /* Acknowledges receipt of new message */
 523:main.c        ****         CAN_RX_ACK_MESSAGE(CAN_RX_MAILBOX_1);
 524:main.c        ****     }
 525:main.c        ****     
 526:main.c        **** }
 527:main.c        **** 
 528:main.c        **** inline void set_data(uint16 addr){
 529:main.c        ****         //set mode
 530:main.c        ****         if(CAN_RX_DATA_BYTE1(addr) == 0x00) {
  74              		.loc 1 530 0
  75 0036 5B01     		lsls	r3, r3, #5
  76              	.LVL3:
  77 0038 7D4A     		ldr	r2, .L23+20
  78 003a 9446     		mov	ip, r2
  79 003c 6344     		add	r3, r3, ip
  80 003e 9A68     		ldr	r2, [r3, #8]
  81 0040 120E     		lsrs	r2, r2, #24
  82 0042 23D1     		bne	.L5
 531:main.c        ****             if(CAN_RX_DATA_BYTE2(addr) == 1 || CAN_RX_DATA_BYTE2(addr) == 0) {
  83              		.loc 1 531 0
  84 0044 9A68     		ldr	r2, [r3, #8]
  85 0046 120C     		lsrs	r2, r2, #16
  86 0048 FF21     		movs	r1, #255
  87 004a 0A40     		ands	r2, r1
  88 004c 012A     		cmp	r2, #1
  89 004e 03D0     		beq	.L6
  90 0050 9A68     		ldr	r2, [r3, #8]
  91 0052 120C     		lsrs	r2, r2, #16
  92 0054 1142     		tst	r1, r2
  93 0056 11D1     		bne	.L7
  94              	.L6:
 532:main.c        ****                 mode = CAN_RX_DATA_BYTE2(addr);
  95              		.loc 1 532 0
ARM GAS  C:\Users\austc\AppData\Local\Temp\ccxzq70h.s 			page 12


  96 0058 9B68     		ldr	r3, [r3, #8]
  97 005a 1B0C     		lsrs	r3, r3, #16
  98 005c DBB2     		uxtb	r3, r3
  99 005e 704A     		ldr	r2, .L23+4
 100 0060 9372     		strb	r3, [r2, #10]
 533:main.c        ****                 if(mode == 1){
 101              		.loc 1 533 0
 102 0062 012B     		cmp	r3, #1
 103 0064 0ED1     		bne	.L8
 534:main.c        ****                     final_angle = QuadDec_GetCounter() * flipEncoder;
 104              		.loc 1 534 0
 105 0066 FFF7FEFF 		bl	QuadDec_GetCounter
 106              	.LVL4:
 107 006a 724A     		ldr	r2, .L23+24
 108 006c 6C4B     		ldr	r3, .L23+4
 109 006e DB7A     		ldrb	r3, [r3, #11]
 110 0070 5BB2     		sxtb	r3, r3
 111 0072 5843     		muls	r0, r3
 112 0074 1080     		strh	r0, [r2]
 535:main.c        ****                     i = 0;
 113              		.loc 1 535 0
 114 0076 0023     		movs	r3, #0
 115 0078 5360     		str	r3, [r2, #4]
 116 007a 03E0     		b	.L8
 117              	.LVL5:
 118              	.L7:
 536:main.c        ****                 }
 537:main.c        ****             }
 538:main.c        ****             else {
 539:main.c        ****                 invalid_arg.param = 0x00;
 119              		.loc 1 539 0
 120 007c 6E4B     		ldr	r3, .L23+28
 121 007e 0022     		movs	r2, #0
 122 0080 5A70     		strb	r2, [r3, #1]
 540:main.c        ****                 invalid_arg.done = 0;
 123              		.loc 1 540 0
 124 0082 9A70     		strb	r2, [r3, #2]
 125              	.LVL6:
 126              	.L8:
 541:main.c        ****             }
 542:main.c        ****             complete = 1;
 127              		.loc 1 542 0
 128 0084 0122     		movs	r2, #1
 129 0086 6B4B     		ldr	r3, .L23+24
 130 0088 1A72     		strb	r2, [r3, #8]
 131 008a 3BE0     		b	.L9
 132              	.LVL7:
 133              	.L5:
 543:main.c        ****         } 
 544:main.c        ****         //pwm
 545:main.c        ****         else if(CAN_RX_DATA_BYTE1(addr) == 0x02) {
 134              		.loc 1 545 0
 135 008c 9A68     		ldr	r2, [r3, #8]
 136 008e 120E     		lsrs	r2, r2, #24
 137 0090 022A     		cmp	r2, #2
 138 0092 0ED1     		bne	.L10
 546:main.c        ****             Can_rx_pwm.b1 = CAN_RX_DATA_BYTE2(addr);
ARM GAS  C:\Users\austc\AppData\Local\Temp\ccxzq70h.s 			page 13


 139              		.loc 1 546 0
 140 0094 9968     		ldr	r1, [r3, #8]
 141 0096 090C     		lsrs	r1, r1, #16
 142 0098 684A     		ldr	r2, .L23+32
 143 009a 5170     		strb	r1, [r2, #1]
 547:main.c        ****             Can_rx_pwm.b2 = CAN_RX_DATA_BYTE3(addr);
 144              		.loc 1 547 0
 145 009c 9968     		ldr	r1, [r3, #8]
 146 009e 090A     		lsrs	r1, r1, #8
 147 00a0 9170     		strb	r1, [r2, #2]
 548:main.c        ****             Can_rx_pwm.b3 = CAN_RX_DATA_BYTE4(addr);
 148              		.loc 1 548 0
 149 00a2 9968     		ldr	r1, [r3, #8]
 150 00a4 D170     		strb	r1, [r2, #3]
 549:main.c        ****             Can_rx_pwm.b4 = CAN_RX_DATA_BYTE5(addr);
 151              		.loc 1 549 0
 152 00a6 DB68     		ldr	r3, [r3, #12]
 153 00a8 1B0E     		lsrs	r3, r3, #24
 154 00aa 1371     		strb	r3, [r2, #4]
 550:main.c        ****             Can_rx_pwm.done = 0;
 155              		.loc 1 550 0
 156 00ac 0023     		movs	r3, #0
 157 00ae 5371     		strb	r3, [r2, #5]
 158 00b0 28E0     		b	.L9
 159              	.L10:
 551:main.c        ****         } 
 552:main.c        ****         //angle
 553:main.c        ****         else if(CAN_RX_DATA_BYTE1(addr) == 0x04) {
 160              		.loc 1 553 0
 161 00b2 9A68     		ldr	r2, [r3, #8]
 162 00b4 120E     		lsrs	r2, r2, #24
 163 00b6 042A     		cmp	r2, #4
 164 00b8 1DD1     		bne	.L11
 554:main.c        ****             Can_rx_angle.b1 = CAN_RX_DATA_BYTE2(addr);
 165              		.loc 1 554 0
 166 00ba 9A68     		ldr	r2, [r3, #8]
 167 00bc 120C     		lsrs	r2, r2, #16
 168 00be D0B2     		uxtb	r0, r2
 169 00c0 5F4C     		ldr	r4, .L23+36
 170 00c2 6070     		strb	r0, [r4, #1]
 555:main.c        ****             Can_rx_angle.b2 = CAN_RX_DATA_BYTE3(addr);
 171              		.loc 1 555 0
 172 00c4 9968     		ldr	r1, [r3, #8]
 173 00c6 090A     		lsrs	r1, r1, #8
 174 00c8 CAB2     		uxtb	r2, r1
 175 00ca A270     		strb	r2, [r4, #2]
 556:main.c        ****             Can_rx_angle.b3 = CAN_RX_DATA_BYTE4(addr);
 176              		.loc 1 556 0
 177 00cc 9968     		ldr	r1, [r3, #8]
 178 00ce E170     		strb	r1, [r4, #3]
 557:main.c        ****             Can_rx_angle.b4 = CAN_RX_DATA_BYTE5(addr);
 179              		.loc 1 557 0
 180 00d0 DB68     		ldr	r3, [r3, #12]
 181 00d2 1B0E     		lsrs	r3, r3, #24
 182 00d4 2371     		strb	r3, [r4, #4]
 558:main.c        ****             Can_rx_angle.done = 0;
 183              		.loc 1 558 0
ARM GAS  C:\Users\austc\AppData\Local\Temp\ccxzq70h.s 			page 14


 184 00d6 0023     		movs	r3, #0
 185 00d8 6371     		strb	r3, [r4, #5]
 559:main.c        ****             if((((uint16_t)Can_rx_angle.b2) << 8 | Can_rx_angle.b1) != final_angle){
 186              		.loc 1 559 0
 187 00da 1202     		lsls	r2, r2, #8
 188 00dc 0243     		orrs	r2, r0
 189 00de 554B     		ldr	r3, .L23+24
 190 00e0 0021     		movs	r1, #0
 191 00e2 5B5E     		ldrsh	r3, [r3, r1]
 192 00e4 9A42     		cmp	r2, r3
 193 00e6 02D0     		beq	.L12
 560:main.c        ****                  i=0;
 194              		.loc 1 560 0
 195 00e8 0022     		movs	r2, #0
 196 00ea 524B     		ldr	r3, .L23+24
 197 00ec 5A60     		str	r2, [r3, #4]
 198              	.L12:
 561:main.c        ****             }
 562:main.c        ****             complete = 1;
 199              		.loc 1 562 0
 200 00ee 0122     		movs	r2, #1
 201 00f0 504B     		ldr	r3, .L23+24
 202 00f2 1A72     		strb	r2, [r3, #8]
 203 00f4 06E0     		b	.L9
 204              	.L11:
 563:main.c        ****         } 
 564:main.c        ****         //model requst
 565:main.c        ****         else if (CAN_RX_DATA_BYTE1(addr) == 0x10){
 205              		.loc 1 565 0
 206 00f6 9B68     		ldr	r3, [r3, #8]
 207 00f8 1B0E     		lsrs	r3, r3, #24
 208 00fa 102B     		cmp	r3, #16
 209 00fc 02D1     		bne	.L9
 566:main.c        ****             model_req = 1;
 210              		.loc 1 566 0
 211 00fe 0122     		movs	r2, #1
 212 0100 4C4B     		ldr	r3, .L23+24
 213 0102 5A72     		strb	r2, [r3, #9]
 214              	.LVL8:
 215              	.L9:
 216              	.LBE7:
 217              	.LBE6:
 509:main.c        ****     }
 218              		.loc 1 509 0
 219 0104 464B     		ldr	r3, .L23+4
 220 0106 1B89     		ldrh	r3, [r3, #8]
 221 0108 5B01     		lsls	r3, r3, #5
 222 010a 494A     		ldr	r2, .L23+20
 223 010c 9446     		mov	ip, r2
 224 010e 6344     		add	r3, r3, ip
 225 0110 1968     		ldr	r1, [r3]
 226 0112 0122     		movs	r2, #1
 227 0114 0A43     		orrs	r2, r1
 228 0116 1A60     		str	r2, [r3]
 229              	.L3:
 512:main.c        ****     {
 230              		.loc 1 512 0
ARM GAS  C:\Users\austc\AppData\Local\Temp\ccxzq70h.s 			page 15


 231 0118 434B     		ldr	r3, .L23+12
 232 011a 1A68     		ldr	r2, [r3]
 233 011c 404B     		ldr	r3, .L23+4
 234 011e 9B89     		ldrh	r3, [r3, #12]
 235 0120 1A42     		tst	r2, r3
 236 0122 79D0     		beq	.L1
 514:main.c        ****             UART_UartPutString("P1 recieved\n\n");    
 237              		.loc 1 514 0
 238 0124 3E4B     		ldr	r3, .L23+4
 239 0126 1B78     		ldrb	r3, [r3]
 240 0128 002B     		cmp	r3, #0
 241 012a 02D0     		beq	.L14
 515:main.c        ****         }
 242              		.loc 1 515 0
 243 012c 4548     		ldr	r0, .L23+40
 244 012e FFF7FEFF 		bl	UART_UartPutString
 245              	.LVL9:
 246              	.L14:
 521:main.c        ****         /* Acknowledges receipt of new message */
 247              		.loc 1 521 0
 248 0132 404B     		ldr	r3, .L23+24
 249 0134 5B89     		ldrh	r3, [r3, #10]
 250              	.LVL10:
 251              	.LBB8:
 252              	.LBB9:
 530:main.c        ****             if(CAN_RX_DATA_BYTE2(addr) == 1 || CAN_RX_DATA_BYTE2(addr) == 0) {
 253              		.loc 1 530 0
 254 0136 5B01     		lsls	r3, r3, #5
 255              	.LVL11:
 256 0138 3D4A     		ldr	r2, .L23+20
 257 013a 9446     		mov	ip, r2
 258 013c 6344     		add	r3, r3, ip
 259 013e 9A68     		ldr	r2, [r3, #8]
 260 0140 120E     		lsrs	r2, r2, #24
 261 0142 23D1     		bne	.L15
 531:main.c        ****                 mode = CAN_RX_DATA_BYTE2(addr);
 262              		.loc 1 531 0
 263 0144 9A68     		ldr	r2, [r3, #8]
 264 0146 120C     		lsrs	r2, r2, #16
 265 0148 FF21     		movs	r1, #255
 266 014a 0A40     		ands	r2, r1
 267 014c 012A     		cmp	r2, #1
 268 014e 03D0     		beq	.L16
 269 0150 9A68     		ldr	r2, [r3, #8]
 270 0152 120C     		lsrs	r2, r2, #16
 271 0154 1142     		tst	r1, r2
 272 0156 11D1     		bne	.L17
 273              	.L16:
 532:main.c        ****                 if(mode == 1){
 274              		.loc 1 532 0
 275 0158 9B68     		ldr	r3, [r3, #8]
 276 015a 1B0C     		lsrs	r3, r3, #16
 277 015c DBB2     		uxtb	r3, r3
 278 015e 304A     		ldr	r2, .L23+4
 279 0160 9372     		strb	r3, [r2, #10]
 533:main.c        ****                     final_angle = QuadDec_GetCounter() * flipEncoder;
 280              		.loc 1 533 0
ARM GAS  C:\Users\austc\AppData\Local\Temp\ccxzq70h.s 			page 16


 281 0162 012B     		cmp	r3, #1
 282 0164 0ED1     		bne	.L18
 534:main.c        ****                     i = 0;
 283              		.loc 1 534 0
 284 0166 FFF7FEFF 		bl	QuadDec_GetCounter
 285              	.LVL12:
 286 016a 324A     		ldr	r2, .L23+24
 287 016c 2C4B     		ldr	r3, .L23+4
 288 016e DB7A     		ldrb	r3, [r3, #11]
 289 0170 5BB2     		sxtb	r3, r3
 290 0172 5843     		muls	r0, r3
 291 0174 1080     		strh	r0, [r2]
 535:main.c        ****                 }
 292              		.loc 1 535 0
 293 0176 0023     		movs	r3, #0
 294 0178 5360     		str	r3, [r2, #4]
 295 017a 03E0     		b	.L18
 296              	.LVL13:
 297              	.L17:
 539:main.c        ****                 invalid_arg.done = 0;
 298              		.loc 1 539 0
 299 017c 2E4B     		ldr	r3, .L23+28
 300 017e 0022     		movs	r2, #0
 301 0180 5A70     		strb	r2, [r3, #1]
 540:main.c        ****             }
 302              		.loc 1 540 0
 303 0182 9A70     		strb	r2, [r3, #2]
 304              	.LVL14:
 305              	.L18:
 542:main.c        ****         } 
 306              		.loc 1 542 0
 307 0184 0122     		movs	r2, #1
 308 0186 2B4B     		ldr	r3, .L23+24
 309 0188 1A72     		strb	r2, [r3, #8]
 310 018a 3BE0     		b	.L19
 311              	.LVL15:
 312              	.L15:
 545:main.c        ****             Can_rx_pwm.b1 = CAN_RX_DATA_BYTE2(addr);
 313              		.loc 1 545 0
 314 018c 9A68     		ldr	r2, [r3, #8]
 315 018e 120E     		lsrs	r2, r2, #24
 316 0190 022A     		cmp	r2, #2
 317 0192 0ED1     		bne	.L20
 546:main.c        ****             Can_rx_pwm.b2 = CAN_RX_DATA_BYTE3(addr);
 318              		.loc 1 546 0
 319 0194 9968     		ldr	r1, [r3, #8]
 320 0196 090C     		lsrs	r1, r1, #16
 321 0198 284A     		ldr	r2, .L23+32
 322 019a 5170     		strb	r1, [r2, #1]
 547:main.c        ****             Can_rx_pwm.b3 = CAN_RX_DATA_BYTE4(addr);
 323              		.loc 1 547 0
 324 019c 9968     		ldr	r1, [r3, #8]
 325 019e 090A     		lsrs	r1, r1, #8
 326 01a0 9170     		strb	r1, [r2, #2]
 548:main.c        ****             Can_rx_pwm.b4 = CAN_RX_DATA_BYTE5(addr);
 327              		.loc 1 548 0
 328 01a2 9968     		ldr	r1, [r3, #8]
ARM GAS  C:\Users\austc\AppData\Local\Temp\ccxzq70h.s 			page 17


 329 01a4 D170     		strb	r1, [r2, #3]
 549:main.c        ****             Can_rx_pwm.done = 0;
 330              		.loc 1 549 0
 331 01a6 DB68     		ldr	r3, [r3, #12]
 332 01a8 1B0E     		lsrs	r3, r3, #24
 333 01aa 1371     		strb	r3, [r2, #4]
 550:main.c        ****         } 
 334              		.loc 1 550 0
 335 01ac 0023     		movs	r3, #0
 336 01ae 5371     		strb	r3, [r2, #5]
 337 01b0 28E0     		b	.L19
 338              	.L20:
 553:main.c        ****             Can_rx_angle.b1 = CAN_RX_DATA_BYTE2(addr);
 339              		.loc 1 553 0
 340 01b2 9A68     		ldr	r2, [r3, #8]
 341 01b4 120E     		lsrs	r2, r2, #24
 342 01b6 042A     		cmp	r2, #4
 343 01b8 1DD1     		bne	.L21
 554:main.c        ****             Can_rx_angle.b2 = CAN_RX_DATA_BYTE3(addr);
 344              		.loc 1 554 0
 345 01ba 9A68     		ldr	r2, [r3, #8]
 346 01bc 120C     		lsrs	r2, r2, #16
 347 01be D0B2     		uxtb	r0, r2
 348 01c0 1F4C     		ldr	r4, .L23+36
 349 01c2 6070     		strb	r0, [r4, #1]
 555:main.c        ****             Can_rx_angle.b3 = CAN_RX_DATA_BYTE4(addr);
 350              		.loc 1 555 0
 351 01c4 9968     		ldr	r1, [r3, #8]
 352 01c6 090A     		lsrs	r1, r1, #8
 353 01c8 CAB2     		uxtb	r2, r1
 354 01ca A270     		strb	r2, [r4, #2]
 556:main.c        ****             Can_rx_angle.b4 = CAN_RX_DATA_BYTE5(addr);
 355              		.loc 1 556 0
 356 01cc 9968     		ldr	r1, [r3, #8]
 357 01ce E170     		strb	r1, [r4, #3]
 557:main.c        ****             Can_rx_angle.done = 0;
 358              		.loc 1 557 0
 359 01d0 DB68     		ldr	r3, [r3, #12]
 360 01d2 1B0E     		lsrs	r3, r3, #24
 361 01d4 2371     		strb	r3, [r4, #4]
 558:main.c        ****             if((((uint16_t)Can_rx_angle.b2) << 8 | Can_rx_angle.b1) != final_angle){
 362              		.loc 1 558 0
 363 01d6 0023     		movs	r3, #0
 364 01d8 6371     		strb	r3, [r4, #5]
 559:main.c        ****                  i=0;
 365              		.loc 1 559 0
 366 01da 1202     		lsls	r2, r2, #8
 367 01dc 0243     		orrs	r2, r0
 368 01de 154B     		ldr	r3, .L23+24
 369 01e0 0021     		movs	r1, #0
 370 01e2 5B5E     		ldrsh	r3, [r3, r1]
 371 01e4 9A42     		cmp	r2, r3
 372 01e6 02D0     		beq	.L22
 560:main.c        ****             }
 373              		.loc 1 560 0
 374 01e8 0022     		movs	r2, #0
 375 01ea 124B     		ldr	r3, .L23+24
ARM GAS  C:\Users\austc\AppData\Local\Temp\ccxzq70h.s 			page 18


 376 01ec 5A60     		str	r2, [r3, #4]
 377              	.L22:
 562:main.c        ****         } 
 378              		.loc 1 562 0
 379 01ee 0122     		movs	r2, #1
 380 01f0 104B     		ldr	r3, .L23+24
 381 01f2 1A72     		strb	r2, [r3, #8]
 382 01f4 06E0     		b	.L19
 383              	.L21:
 565:main.c        ****             model_req = 1;
 384              		.loc 1 565 0
 385 01f6 9B68     		ldr	r3, [r3, #8]
 386 01f8 1B0E     		lsrs	r3, r3, #24
 387 01fa 102B     		cmp	r3, #16
 388 01fc 02D1     		bne	.L19
 389              		.loc 1 566 0
 390 01fe 0122     		movs	r2, #1
 391 0200 0C4B     		ldr	r3, .L23+24
 392 0202 5A72     		strb	r2, [r3, #9]
 393              	.LVL16:
 394              	.L19:
 395              	.LBE9:
 396              	.LBE8:
 523:main.c        ****     }
 397              		.loc 1 523 0
 398 0204 0B4B     		ldr	r3, .L23+24
 399 0206 5B89     		ldrh	r3, [r3, #10]
 400 0208 5B01     		lsls	r3, r3, #5
 401 020a 094A     		ldr	r2, .L23+20
 402 020c 9446     		mov	ip, r2
 403 020e 6344     		add	r3, r3, ip
 404 0210 1968     		ldr	r1, [r3]
 405 0212 0122     		movs	r2, #1
 406 0214 0A43     		orrs	r2, r1
 407 0216 1A60     		str	r2, [r3]
 408              	.L1:
 526:main.c        **** 
 409              		.loc 1 526 0
 410              		@ sp needed
 411 0218 10BD     		pop	{r4, pc}
 412              	.L24:
 413 021a C046     		.align	2
 414              	.L23:
 415 021c 00002F40 		.word	1076822016
 416 0220 00000000 		.word	.LANCHOR0
 417 0224 00000000 		.word	.LC1
 418 0228 08002F40 		.word	1076822024
 419 022c 14000000 		.word	.LC3
 420 0230 A0002F40 		.word	1076822176
 421 0234 00000000 		.word	.LANCHOR1
 422 0238 00000000 		.word	invalid_arg
 423 023c 00000000 		.word	Can_rx_pwm
 424 0240 00000000 		.word	Can_rx_angle
 425 0244 24000000 		.word	.LC9
 426              		.cfi_endproc
 427              	.LFE47:
 428              		.size	ISR_CAN, .-ISR_CAN
ARM GAS  C:\Users\austc\AppData\Local\Temp\ccxzq70h.s 			page 19


 429              		.section	.text.emergency_halt,"ax",%progbits
 430              		.align	2
 431              		.global	emergency_halt
 432              		.code	16
 433              		.thumb_func
 434              		.type	emergency_halt, %function
 435              	emergency_halt:
 436              	.LFB38:
 273:main.c        ****     PWM_Motor_Stop();
 437              		.loc 1 273 0
 438              		.cfi_startproc
 439              		@ args = 0, pretend = 0, frame = 0
 440              		@ frame_needed = 0, uses_anonymous_args = 0
 441 0000 10B5     		push	{r4, lr}
 442              		.cfi_def_cfa_offset 8
 443              		.cfi_offset 4, -8
 444              		.cfi_offset 14, -4
 274:main.c        ****     emergency = 1;
 445              		.loc 1 274 0
 446 0002 FFF7FEFF 		bl	PWM_Motor_Stop
 447              	.LVL17:
 275:main.c        ****     // stops all motors;
 448              		.loc 1 275 0
 449 0006 0122     		movs	r2, #1
 450 0008 014B     		ldr	r3, .L26
 451 000a 1A73     		strb	r2, [r3, #12]
 278:main.c        **** 
 452              		.loc 1 278 0
 453              		@ sp needed
 454 000c 10BD     		pop	{r4, pc}
 455              	.L27:
 456 000e C046     		.align	2
 457              	.L26:
 458 0010 00000000 		.word	.LANCHOR1
 459              		.cfi_endproc
 460              	.LFE38:
 461              		.size	emergency_halt, .-emergency_halt
 462              		.section	.text.initialize,"ax",%progbits
 463              		.align	2
 464              		.global	initialize
 465              		.code	16
 466              		.thumb_func
 467              		.type	initialize, %function
 468              	initialize:
 469              	.LFB39:
 280:main.c        ****     
 470              		.loc 1 280 0
 471              		.cfi_startproc
 472              		@ args = 0, pretend = 0, frame = 0
 473              		@ frame_needed = 0, uses_anonymous_args = 0
 474 0000 70B5     		push	{r4, r5, r6, lr}
 475              		.cfi_def_cfa_offset 16
 476              		.cfi_offset 4, -16
 477              		.cfi_offset 5, -12
 478              		.cfi_offset 6, -8
 479              		.cfi_offset 14, -4
 282:main.c        ****     Status_Reg_Switches_InterruptEnable();
ARM GAS  C:\Users\austc\AppData\Local\Temp\ccxzq70h.s 			page 20


 480              		.loc 1 282 0
 481 0002 FFF7FEFF 		bl	CAN_Start
 482              	.LVL18:
 483 0006 0400     		movs	r4, r0
 484              	.LVL19:
 283:main.c        ****     Timer_1_Start();
 485              		.loc 1 283 0
 486 0008 FFF7FEFF 		bl	Status_Reg_Switches_InterruptEnable
 487              	.LVL20:
 284:main.c        ****    // ADC_SAR_Seq_1_Start();
 488              		.loc 1 284 0
 489 000c FFF7FEFF 		bl	Timer_1_Start
 490              	.LVL21:
 287:main.c        ****     PWM_Motor_Start();  
 491              		.loc 1 287 0
 492 0010 FFF7FEFF 		bl	QuadDec_Start
 493              	.LVL22:
 288:main.c        ****     
 494              		.loc 1 288 0
 495 0014 FFF7FEFF 		bl	PWM_Motor_Start
 496              	.LVL23:
 290:main.c        ****     CyIntSetVector(CAN_ISR_NUMBER, ISR_CAN);
 497              		.loc 1 290 0
 498 0018 FFF7FEFF 		bl	CAN_GlobalIntEnable
 499              	.LVL24:
 291:main.c        ****     CyGlobalIntEnable; /* Enable global interrupts. */
 500              		.loc 1 291 0
 501 001c 0D49     		ldr	r1, .L30
 502 001e 1D20     		movs	r0, #29
 503 0020 FFF7FEFF 		bl	CyIntSetVector
 504              	.LVL25:
 292:main.c        ****     isr_Limit_1_StartEx(Pin_Limit_Handler);
 505              		.loc 1 292 0
 506              		.syntax divided
 507              	@ 292 "main.c" 1
 508 0024 62B6     		CPSIE   i
 509              	@ 0 "" 2
 293:main.c        ****     isr_period_StartEx(Period_Reset_Handler);
 510              		.loc 1 293 0
 511              		.thumb
 512              		.syntax unified
 513 0026 0C48     		ldr	r0, .L30+4
 514 0028 FFF7FEFF 		bl	isr_Limit_1_StartEx
 515              	.LVL26:
 294:main.c        ****     
 516              		.loc 1 294 0
 517 002c 0B48     		ldr	r0, .L30+8
 518 002e FFF7FEFF 		bl	isr_period_StartEx
 519              	.LVL27:
 296:main.c        ****         UART_Start();
 520              		.loc 1 296 0
 521 0032 0B4B     		ldr	r3, .L30+12
 522 0034 1B78     		ldrb	r3, [r3]
 523 0036 002B     		cmp	r3, #0
 524 0038 0AD0     		beq	.L28
 297:main.c        ****         sprintf(txData, "CAN_Start():  %u\r\n",can_start);
 525              		.loc 1 297 0
ARM GAS  C:\Users\austc\AppData\Local\Temp\ccxzq70h.s 			page 21


 526 003a FFF7FEFF 		bl	UART_Start
 527              	.LVL28:
 298:main.c        ****         UART_UartPutString(txData); 
 528              		.loc 1 298 0
 529 003e 094D     		ldr	r5, .L30+16
 530 0040 2200     		movs	r2, r4
 531 0042 0949     		ldr	r1, .L30+20
 532 0044 2800     		movs	r0, r5
 533 0046 FFF7FEFF 		bl	sprintf
 534              	.LVL29:
 299:main.c        ****     }
 535              		.loc 1 299 0
 536 004a 2800     		movs	r0, r5
 537 004c FFF7FEFF 		bl	UART_UartPutString
 538              	.LVL30:
 539              	.L28:
 301:main.c        **** 
 540              		.loc 1 301 0
 541              		@ sp needed
 542              	.LVL31:
 543 0050 70BD     		pop	{r4, r5, r6, pc}
 544              	.L31:
 545 0052 C046     		.align	2
 546              	.L30:
 547 0054 00000000 		.word	ISR_CAN
 548 0058 00000000 		.word	Pin_Limit_Handler
 549 005c 00000000 		.word	Period_Reset_Handler
 550 0060 00000000 		.word	.LANCHOR0
 551 0064 00000000 		.word	txData
 552 0068 34000000 		.word	.LC16
 553              		.cfi_endproc
 554              	.LFE39:
 555              		.size	initialize, .-initialize
 556              		.section	.text.set_CAN_ID,"ax",%progbits
 557              		.align	2
 558              		.global	set_CAN_ID
 559              		.code	16
 560              		.thumb_func
 561              		.type	set_CAN_ID, %function
 562              	set_CAN_ID:
 563              	.LFB41:
 405:main.c        ****     message.id = (priority << 10) | (message_id << 5) | 0b00010;
 564              		.loc 1 405 0
 565              		.cfi_startproc
 566              		@ args = 0, pretend = 0, frame = 0
 567              		@ frame_needed = 0, uses_anonymous_args = 0
 568              		@ link register save eliminated.
 569              	.LVL32:
 406:main.c        **** }
 570              		.loc 1 406 0
 571 0000 8002     		lsls	r0, r0, #10
 572              	.LVL33:
 573 0002 044B     		ldr	r3, .L33
 574 0004 1B69     		ldr	r3, [r3, #16]
 575 0006 5B01     		lsls	r3, r3, #5
 576 0008 1843     		orrs	r0, r3
 577 000a 0223     		movs	r3, #2
ARM GAS  C:\Users\austc\AppData\Local\Temp\ccxzq70h.s 			page 22


 578 000c 1843     		orrs	r0, r3
 579 000e 024B     		ldr	r3, .L33+4
 580 0010 1860     		str	r0, [r3]
 407:main.c        **** 
 581              		.loc 1 407 0
 582              		@ sp needed
 583 0012 7047     		bx	lr
 584              	.L34:
 585              		.align	2
 586              	.L33:
 587 0014 00000000 		.word	.LANCHOR1
 588 0018 00000000 		.word	message
 589              		.cfi_endproc
 590              	.LFE41:
 591              		.size	set_CAN_ID, .-set_CAN_ID
 592              		.section	.text.initialize_can_addr,"ax",%progbits
 593              		.align	2
 594              		.global	initialize_can_addr
 595              		.code	16
 596              		.thumb_func
 597              		.type	initialize_can_addr, %function
 598              	initialize_can_addr:
 599              	.LFB40:
 320:main.c        ****     uint8 setting = Can_addr_Read();
 600              		.loc 1 320 0
 601              		.cfi_startproc
 602              		@ args = 0, pretend = 0, frame = 0
 603              		@ frame_needed = 0, uses_anonymous_args = 0
 604 0000 F0B5     		push	{r4, r5, r6, r7, lr}
 605              		.cfi_def_cfa_offset 20
 606              		.cfi_offset 4, -20
 607              		.cfi_offset 5, -16
 608              		.cfi_offset 6, -12
 609              		.cfi_offset 7, -8
 610              		.cfi_offset 14, -4
 611 0002 83B0     		sub	sp, sp, #12
 612              		.cfi_def_cfa_offset 32
 321:main.c        ****     uint8 shift = 0;
 613              		.loc 1 321 0
 614 0004 FFF7FEFF 		bl	Can_addr_Read
 615              	.LVL34:
 616 0008 0400     		movs	r4, r0
 617              	.LVL35:
 323:main.c        ****         case 0b000: //Base rotation
 618              		.loc 1 323 0
 619 000a FFF7FEFF 		bl	Can_addr_Read
 620              	.LVL36:
 621 000e 0628     		cmp	r0, #6
 622 0010 6FD8     		bhi	.L36
 623 0012 8000     		lsls	r0, r0, #2
 624 0014 5B4B     		ldr	r3, .L48
 625 0016 1B58     		ldr	r3, [r3, r0]
 626 0018 9F46     		mov	pc, r3
 627              		.section	.rodata
 628              		.align	2
 629              	.L38:
 630 0000 1A000000 		.word	.L37
ARM GAS  C:\Users\austc\AppData\Local\Temp\ccxzq70h.s 			page 23


 631 0004 2E000000 		.word	.L39
 632 0008 54000000 		.word	.L40
 633 000c 68000000 		.word	.L41
 634 0010 80000000 		.word	.L42
 635 0014 AE000000 		.word	.L43
 636 0018 DE000000 		.word	.L44
 637              		.section	.text.initialize_can_addr
 638              	.L37:
 325:main.c        ****             shift = 0;
 639              		.loc 1 325 0
 640 001a 1022     		movs	r2, #16
 641 001c 5A4B     		ldr	r3, .L48+4
 642 001e 1A61     		str	r2, [r3, #16]
 327:main.c        ****             break;
 643              		.loc 1 327 0
 644 0020 0020     		movs	r0, #0
 645 0022 5A49     		ldr	r1, .L48+8
 646 0024 5A4B     		ldr	r3, .L48+12
 647 0026 1860     		str	r0, [r3]
 648 0028 5960     		str	r1, [r3, #4]
 326:main.c        ****             ratio = 1;
 649              		.loc 1 326 0
 650 002a 0025     		movs	r5, #0
 328:main.c        ****         case 0b001: // shoulder
 651              		.loc 1 328 0
 652 002c 70E0     		b	.L45
 653              	.L39:
 330:main.c        ****             shift = 1;
 654              		.loc 1 330 0
 655 002e 1122     		movs	r2, #17
 656 0030 554B     		ldr	r3, .L48+4
 657 0032 1A61     		str	r2, [r3, #16]
 658              	.LVL37:
 332:main.c        ****             #ifdef REV2
 659              		.loc 1 332 0
 660 0034 5748     		ldr	r0, .L48+16
 661 0036 5849     		ldr	r1, .L48+20
 662 0038 554B     		ldr	r3, .L48+12
 663 003a 1860     		str	r0, [r3]
 664 003c 5960     		str	r1, [r3, #4]
 336:main.c        ****             ki = 12;
 665              		.loc 1 336 0
 666 003e 2132     		adds	r2, r2, #33
 667 0040 564B     		ldr	r3, .L48+24
 668 0042 1A60     		str	r2, [r3]
 337:main.c        ****             kd = 10;
 669              		.loc 1 337 0
 670 0044 263A     		subs	r2, r2, #38
 671 0046 564B     		ldr	r3, .L48+28
 672 0048 1A60     		str	r2, [r3]
 338:main.c        ****             break;
 673              		.loc 1 338 0
 674 004a 023A     		subs	r2, r2, #2
 675 004c 554B     		ldr	r3, .L48+32
 676 004e 1A60     		str	r2, [r3]
 331:main.c        ****             ratio = 14.45;
 677              		.loc 1 331 0
ARM GAS  C:\Users\austc\AppData\Local\Temp\ccxzq70h.s 			page 24


 678 0050 0125     		movs	r5, #1
 339:main.c        ****         case 0b010: // elbow
 679              		.loc 1 339 0
 680 0052 5DE0     		b	.L45
 681              	.LVL38:
 682              	.L40:
 341:main.c        ****             shift = 2;
 683              		.loc 1 341 0
 684 0054 1222     		movs	r2, #18
 685 0056 4C4B     		ldr	r3, .L48+4
 686 0058 1A61     		str	r2, [r3, #16]
 687              	.LVL39:
 343:main.c        ****             break;
 688              		.loc 1 343 0
 689 005a 4E48     		ldr	r0, .L48+16
 690 005c 5249     		ldr	r1, .L48+36
 691 005e 4C4B     		ldr	r3, .L48+12
 692 0060 1860     		str	r0, [r3]
 693 0062 5960     		str	r1, [r3, #4]
 342:main.c        ****             ratio = 2.8;
 694              		.loc 1 342 0
 695 0064 0225     		movs	r5, #2
 344:main.c        ****         case 0b011: // forearm rotation
 696              		.loc 1 344 0
 697 0066 53E0     		b	.L45
 698              	.LVL40:
 699              	.L41:
 346:main.c        ****             disable_limit = 1;
 700              		.loc 1 346 0
 701 0068 474B     		ldr	r3, .L48+4
 702 006a 1322     		movs	r2, #19
 703 006c 1A61     		str	r2, [r3, #16]
 347:main.c        ****             shift = 3;
 704              		.loc 1 347 0
 705 006e 123A     		subs	r2, r2, #18
 706 0070 1A75     		strb	r2, [r3, #20]
 707              	.LVL41:
 349:main.c        **** 
 708              		.loc 1 349 0
 709 0072 0020     		movs	r0, #0
 710 0074 4549     		ldr	r1, .L48+8
 711 0076 464B     		ldr	r3, .L48+12
 712 0078 1860     		str	r0, [r3]
 713 007a 5960     		str	r1, [r3, #4]
 348:main.c        ****             ratio = 1;
 714              		.loc 1 348 0
 715 007c 0325     		movs	r5, #3
 351:main.c        ****         case 0b100: // diff wrist 1
 716              		.loc 1 351 0
 717 007e 47E0     		b	.L45
 718              	.LVL42:
 719              	.L42:
 353:main.c        ****             disable_limit = 1;
 720              		.loc 1 353 0
 721 0080 414A     		ldr	r2, .L48+4
 722 0082 1423     		movs	r3, #20
 723 0084 1361     		str	r3, [r2, #16]
ARM GAS  C:\Users\austc\AppData\Local\Temp\ccxzq70h.s 			page 25


 354:main.c        ****             shift = 4;
 724              		.loc 1 354 0
 725 0086 0121     		movs	r1, #1
 726 0088 1175     		strb	r1, [r2, #20]
 727              	.LVL43:
 356:main.c        ****             kp = 20;
 728              		.loc 1 356 0
 729 008a 4848     		ldr	r0, .L48+40
 730 008c 4849     		ldr	r1, .L48+44
 731 008e 404A     		ldr	r2, .L48+12
 732 0090 1060     		str	r0, [r2]
 733 0092 5160     		str	r1, [r2, #4]
 357:main.c        ****             ki = 30;
 734              		.loc 1 357 0
 735 0094 414A     		ldr	r2, .L48+24
 736 0096 1360     		str	r3, [r2]
 358:main.c        ****             kd = 10;
 737              		.loc 1 358 0
 738 0098 1E22     		movs	r2, #30
 739 009a 414B     		ldr	r3, .L48+28
 740 009c 1A60     		str	r2, [r3]
 359:main.c        ****             flipEncoder = -1;
 741              		.loc 1 359 0
 742 009e 143A     		subs	r2, r2, #20
 743 00a0 404B     		ldr	r3, .L48+32
 744 00a2 1A60     		str	r2, [r3]
 360:main.c        ****             break;
 745              		.loc 1 360 0
 746 00a4 F532     		adds	r2, r2, #245
 747 00a6 434B     		ldr	r3, .L48+48
 748 00a8 DA72     		strb	r2, [r3, #11]
 355:main.c        ****             ratio = 1.3888;
 749              		.loc 1 355 0
 750 00aa 0425     		movs	r5, #4
 361:main.c        ****         case 0b101: // diff wrist 2
 751              		.loc 1 361 0
 752 00ac 30E0     		b	.L45
 753              	.LVL44:
 754              	.L43:
 363:main.c        ****             disable_limit = 1;
 755              		.loc 1 363 0
 756 00ae 364B     		ldr	r3, .L48+4
 757 00b0 1522     		movs	r2, #21
 758 00b2 1A61     		str	r2, [r3, #16]
 364:main.c        ****             flipEncoder = -1;
 759              		.loc 1 364 0
 760 00b4 143A     		subs	r2, r2, #20
 761 00b6 1A75     		strb	r2, [r3, #20]
 365:main.c        ****             shift = 5;
 762              		.loc 1 365 0
 763 00b8 FE32     		adds	r2, r2, #254
 764 00ba 3E4B     		ldr	r3, .L48+48
 765 00bc DA72     		strb	r2, [r3, #11]
 766              	.LVL45:
 367:main.c        ****             kp = 50;
 767              		.loc 1 367 0
 768 00be 3B48     		ldr	r0, .L48+40
ARM GAS  C:\Users\austc\AppData\Local\Temp\ccxzq70h.s 			page 26


 769 00c0 3B49     		ldr	r1, .L48+44
 770 00c2 334B     		ldr	r3, .L48+12
 771 00c4 1860     		str	r0, [r3]
 772 00c6 5960     		str	r1, [r3, #4]
 368:main.c        ****             ki = 40;
 773              		.loc 1 368 0
 774 00c8 CD3A     		subs	r2, r2, #205
 775 00ca 344B     		ldr	r3, .L48+24
 776 00cc 1A60     		str	r2, [r3]
 369:main.c        ****             kd = 10;
 777              		.loc 1 369 0
 778 00ce 0A3A     		subs	r2, r2, #10
 779 00d0 334B     		ldr	r3, .L48+28
 780 00d2 1A60     		str	r2, [r3]
 370:main.c        ****             break;
 781              		.loc 1 370 0
 782 00d4 1E3A     		subs	r2, r2, #30
 783 00d6 334B     		ldr	r3, .L48+32
 784 00d8 1A60     		str	r2, [r3]
 366:main.c        ****             ratio = 1.3888;
 785              		.loc 1 366 0
 786 00da 0525     		movs	r5, #5
 371:main.c        ****         case 0b110: // hand
 787              		.loc 1 371 0
 788 00dc 18E0     		b	.L45
 789              	.LVL46:
 790              	.L44:
 373:main.c        ****             shift = 6;
 791              		.loc 1 373 0
 792 00de 1622     		movs	r2, #22
 793 00e0 294B     		ldr	r3, .L48+4
 794 00e2 1A61     		str	r2, [r3, #16]
 795              	.LVL47:
 375:main.c        ****             break;
 796              		.loc 1 375 0
 797 00e4 0020     		movs	r0, #0
 798 00e6 2949     		ldr	r1, .L48+8
 799 00e8 294B     		ldr	r3, .L48+12
 800 00ea 1860     		str	r0, [r3]
 801 00ec 5960     		str	r1, [r3, #4]
 374:main.c        ****             ratio = 1;
 802              		.loc 1 374 0
 803 00ee 0625     		movs	r5, #6
 376:main.c        ****         default:
 804              		.loc 1 376 0
 805 00f0 0EE0     		b	.L45
 806              	.LVL48:
 807              	.L36:
 378:main.c        ****             shift = 7;
 808              		.loc 1 378 0
 809 00f2 254A     		ldr	r2, .L48+4
 810 00f4 1A23     		movs	r3, #26
 811 00f6 1361     		str	r3, [r2, #16]
 812              	.LVL49:
 380:main.c        ****             CAN_RX_MAILBOX_0_SHIFT = 0b10000000 << (shift+1);
 813              		.loc 1 380 0
 814 00f8 2E4B     		ldr	r3, .L48+48
ARM GAS  C:\Users\austc\AppData\Local\Temp\ccxzq70h.s 			page 27


 815 00fa 8021     		movs	r1, #128
 816 00fc C901     		lsls	r1, r1, #7
 817 00fe 9981     		strh	r1, [r3, #12]
 381:main.c        ****             CAN_RX_MAILBOX_0 = 15u;
 818              		.loc 1 381 0
 819 0100 8021     		movs	r1, #128
 820 0102 0902     		lsls	r1, r1, #8
 821 0104 5960     		str	r1, [r3, #4]
 382:main.c        ****             CAN_RX_MAILBOX_1 = 14u;
 822              		.loc 1 382 0
 823 0106 0F21     		movs	r1, #15
 824 0108 1981     		strh	r1, [r3, #8]
 383:main.c        ****             break;
 825              		.loc 1 383 0
 826 010a 0E23     		movs	r3, #14
 827 010c 5381     		strh	r3, [r2, #10]
 379:main.c        ****             CAN_RX_MAILBOX_1_SHIFT = 0b10000000 << shift;
 828              		.loc 1 379 0
 829 010e 0725     		movs	r5, #7
 830              	.LVL50:
 831              	.L45:
 387:main.c        ****     CAN_RX_MAILBOX_0_SHIFT = CAN_RX_MAILBOX_0_SHIFT << shift;
 832              		.loc 1 387 0
 833 0110 072D     		cmp	r5, #7
 834 0112 0ED0     		beq	.L46
 388:main.c        ****     CAN_RX_MAILBOX_1_SHIFT = CAN_RX_MAILBOX_1_SHIFT << shift;
 835              		.loc 1 388 0
 836 0114 274B     		ldr	r3, .L48+48
 837 0116 5A68     		ldr	r2, [r3, #4]
 838 0118 AA40     		lsls	r2, r2, r5
 839 011a 5A60     		str	r2, [r3, #4]
 389:main.c        ****     CAN_RX_MAILBOX_0 += shift;
 840              		.loc 1 389 0
 841 011c 9A89     		ldrh	r2, [r3, #12]
 842 011e AA40     		lsls	r2, r2, r5
 843 0120 9A81     		strh	r2, [r3, #12]
 390:main.c        ****     CAN_RX_MAILBOX_1 += shift;
 844              		.loc 1 390 0
 845 0122 AAB2     		uxth	r2, r5
 846 0124 1989     		ldrh	r1, [r3, #8]
 847 0126 5118     		adds	r1, r2, r1
 848 0128 1981     		strh	r1, [r3, #8]
 391:main.c        ****     }
 849              		.loc 1 391 0
 850 012a 1749     		ldr	r1, .L48+4
 851 012c 4B89     		ldrh	r3, [r1, #10]
 852 012e D218     		adds	r2, r2, r3
 853 0130 4A81     		strh	r2, [r1, #10]
 854              	.L46:
 393:main.c        ****     
 855              		.loc 1 393 0
 856 0132 0120     		movs	r0, #1
 857 0134 FFF7FEFF 		bl	set_CAN_ID
 858              	.LVL51:
 395:main.c        ****         sprintf(txData, "CAN dip setting:  %x Message ID: %ld\r\n",setting, message_id);
 859              		.loc 1 395 0
 860 0138 1E4B     		ldr	r3, .L48+48
ARM GAS  C:\Users\austc\AppData\Local\Temp\ccxzq70h.s 			page 28


 861 013a 1B78     		ldrb	r3, [r3]
 862 013c 002B     		cmp	r3, #0
 863 013e 1ED0     		beq	.L35
 396:main.c        ****         UART_UartPutString(txData); 
 864              		.loc 1 396 0
 865 0140 114F     		ldr	r7, .L48+4
 866 0142 1D4E     		ldr	r6, .L48+52
 867 0144 3B69     		ldr	r3, [r7, #16]
 868 0146 2200     		movs	r2, r4
 869 0148 1C49     		ldr	r1, .L48+56
 870 014a 3000     		movs	r0, r6
 871 014c FFF7FEFF 		bl	sprintf
 872              	.LVL52:
 397:main.c        ****         sprintf(txData, "Can shift: %d   P0Mailbox: %d P1Mailbox %d\r\n",shift, CAN_RX_MAILBOX_0, C
 873              		.loc 1 397 0
 874 0150 3000     		movs	r0, r6
 875 0152 FFF7FEFF 		bl	UART_UartPutString
 876              	.LVL53:
 398:main.c        ****         UART_UartPutString(txData); 
 877              		.loc 1 398 0
 878 0156 174B     		ldr	r3, .L48+48
 879 0158 1B89     		ldrh	r3, [r3, #8]
 880 015a 7A89     		ldrh	r2, [r7, #10]
 881 015c 0092     		str	r2, [sp]
 882 015e 2A00     		movs	r2, r5
 883 0160 1749     		ldr	r1, .L48+60
 884 0162 3000     		movs	r0, r6
 885 0164 FFF7FEFF 		bl	sprintf
 886              	.LVL54:
 399:main.c        ****         sprintf(txData, "disable_limit: %d\r\n",disable_limit);
 887              		.loc 1 399 0
 888 0168 3000     		movs	r0, r6
 889 016a FFF7FEFF 		bl	UART_UartPutString
 890              	.LVL55:
 400:main.c        ****         UART_UartPutString(txData); 
 891              		.loc 1 400 0
 892 016e 3A7D     		ldrb	r2, [r7, #20]
 893 0170 1449     		ldr	r1, .L48+64
 894 0172 3000     		movs	r0, r6
 895 0174 FFF7FEFF 		bl	sprintf
 896              	.LVL56:
 401:main.c        ****     }
 897              		.loc 1 401 0
 898 0178 3000     		movs	r0, r6
 899 017a FFF7FEFF 		bl	UART_UartPutString
 900              	.LVL57:
 901              	.L35:
 403:main.c        **** 
 902              		.loc 1 403 0
 903 017e 03B0     		add	sp, sp, #12
 904              		@ sp needed
 905              	.LVL58:
 906              	.LVL59:
 907 0180 F0BD     		pop	{r4, r5, r6, r7, pc}
 908              	.L49:
 909 0182 C046     		.align	2
 910              	.L48:
ARM GAS  C:\Users\austc\AppData\Local\Temp\ccxzq70h.s 			page 29


 911 0184 00000000 		.word	.L38
 912 0188 00000000 		.word	.LANCHOR1
 913 018c 0000F03F 		.word	1072693248
 914 0190 00000000 		.word	ratio
 915 0194 66666666 		.word	1717986918
 916 0198 66E62C40 		.word	1076684390
 917 019c 00000000 		.word	kp
 918 01a0 00000000 		.word	ki
 919 01a4 00000000 		.word	kd
 920 01a8 66660640 		.word	1074161254
 921 01ac F1F44A59 		.word	1498084593
 922 01b0 8638F63F 		.word	1073100934
 923 01b4 00000000 		.word	.LANCHOR0
 924 01b8 00000000 		.word	txData
 925 01bc 48000000 		.word	.LC28
 926 01c0 70000000 		.word	.LC31
 927 01c4 A0000000 		.word	.LC33
 928              		.cfi_endproc
 929              	.LFE40:
 930              		.size	initialize_can_addr, .-initialize_can_addr
 931              		.section	.text.set_PWM,"ax",%progbits
 932              		.align	2
 933              		.global	set_PWM
 934              		.code	16
 935              		.thumb_func
 936              		.type	set_PWM, %function
 937              	set_PWM:
 938              	.LFB42:
 410:main.c        ****     pwm_compare = compare;
 939              		.loc 1 410 0
 940              		.cfi_startproc
 941              		@ args = 0, pretend = 0, frame = 0
 942              		@ frame_needed = 0, uses_anonymous_args = 0
 943              	.LVL60:
 944 0000 70B5     		push	{r4, r5, r6, lr}
 945              		.cfi_def_cfa_offset 16
 946              		.cfi_offset 4, -16
 947              		.cfi_offset 5, -12
 948              		.cfi_offset 6, -8
 949              		.cfi_offset 14, -4
 950 0002 0400     		movs	r4, r0
 411:main.c        ****     #ifdef REV2
 951              		.loc 1 411 0
 952 0004 1E4B     		ldr	r3, .L57
 953 0006 1860     		str	r0, [r3]
 415:main.c        ****         sprintf(txData, "PWM:%d disable_limit: %d\r\n",compare,disable_limit);
 954              		.loc 1 415 0
 955 0008 1E4B     		ldr	r3, .L57+4
 956 000a 1B78     		ldrb	r3, [r3]
 957 000c 002B     		cmp	r3, #0
 958 000e 0AD0     		beq	.L51
 416:main.c        ****         UART_UartPutString(txData); 
 959              		.loc 1 416 0
 960 0010 1D4B     		ldr	r3, .L57+8
 961 0012 1B7D     		ldrb	r3, [r3, #20]
 962 0014 1D4D     		ldr	r5, .L57+12
 963 0016 0200     		movs	r2, r0
ARM GAS  C:\Users\austc\AppData\Local\Temp\ccxzq70h.s 			page 30


 964 0018 1D49     		ldr	r1, .L57+16
 965 001a 2800     		movs	r0, r5
 966              	.LVL61:
 967 001c FFF7FEFF 		bl	sprintf
 968              	.LVL62:
 417:main.c        ****     }
 969              		.loc 1 417 0
 970 0020 2800     		movs	r0, r5
 971 0022 FFF7FEFF 		bl	UART_UartPutString
 972              	.LVL63:
 973              	.L51:
 419:main.c        ****     if (compare < -255 || compare > 255) { return; }
 974              		.loc 1 419 0
 975 0026 0022     		movs	r2, #0
 976 0028 174B     		ldr	r3, .L57+8
 977 002a 5A75     		strb	r2, [r3, #21]
 420:main.c        ****     uint8 status = Status_Reg_Switches_Read();
 978              		.loc 1 420 0
 979 002c FF32     		adds	r2, r2, #255
 980 002e FF32     		adds	r2, r2, #255
 981 0030 2300     		movs	r3, r4
 982 0032 FF33     		adds	r3, r3, #255
 983 0034 9342     		cmp	r3, r2
 984 0036 22D8     		bhi	.L50
 421:main.c        ****     if (compare < 0 && (!(status & 0b01) || disable_limit) ) {
 985              		.loc 1 421 0
 986 0038 FFF7FEFF 		bl	Status_Reg_Switches_Read
 987              	.LVL64:
 422:main.c        ****         Pin_Direction_Write(0);
 988              		.loc 1 422 0
 989 003c 002C     		cmp	r4, #0
 990 003e 0CDA     		bge	.L53
 422:main.c        ****         Pin_Direction_Write(0);
 991              		.loc 1 422 0 is_stmt 0 discriminator 1
 992 0040 C307     		lsls	r3, r0, #31
 993 0042 03D5     		bpl	.L54
 422:main.c        ****         Pin_Direction_Write(0);
 994              		.loc 1 422 0 discriminator 2
 995 0044 104B     		ldr	r3, .L57+8
 996 0046 1B7D     		ldrb	r3, [r3, #20]
 997 0048 002B     		cmp	r3, #0
 998 004a 06D0     		beq	.L53
 999              	.L54:
 423:main.c        ****         PWM_Motor_WriteCompare(-compare);
 1000              		.loc 1 423 0 is_stmt 1
 1001 004c 0020     		movs	r0, #0
 1002              	.LVL65:
 1003 004e FFF7FEFF 		bl	Pin_Direction_Write
 1004              	.LVL66:
 424:main.c        ****     } else if (compare > 0 && (!(status & 0b10) || disable_limit) ){
 1005              		.loc 1 424 0
 1006 0052 6042     		rsbs	r0, r4, #0
 1007 0054 FFF7FEFF 		bl	PWM_Motor_WriteCompare
 1008              	.LVL67:
 1009 0058 11E0     		b	.L50
 1010              	.LVL68:
 1011              	.L53:
ARM GAS  C:\Users\austc\AppData\Local\Temp\ccxzq70h.s 			page 31


 425:main.c        ****         Pin_Direction_Write(1);
 1012              		.loc 1 425 0
 1013 005a 002C     		cmp	r4, #0
 1014 005c 0CDD     		ble	.L55
 425:main.c        ****         Pin_Direction_Write(1);
 1015              		.loc 1 425 0 is_stmt 0 discriminator 1
 1016 005e 8307     		lsls	r3, r0, #30
 1017 0060 03D5     		bpl	.L56
 425:main.c        ****         Pin_Direction_Write(1);
 1018              		.loc 1 425 0 discriminator 2
 1019 0062 094B     		ldr	r3, .L57+8
 1020 0064 1B7D     		ldrb	r3, [r3, #20]
 1021 0066 002B     		cmp	r3, #0
 1022 0068 06D0     		beq	.L55
 1023              	.L56:
 426:main.c        ****         PWM_Motor_WriteCompare(compare);
 1024              		.loc 1 426 0 is_stmt 1
 1025 006a 0120     		movs	r0, #1
 1026              	.LVL69:
 1027 006c FFF7FEFF 		bl	Pin_Direction_Write
 1028              	.LVL70:
 427:main.c        ****     } else {
 1029              		.loc 1 427 0
 1030 0070 2000     		movs	r0, r4
 1031 0072 FFF7FEFF 		bl	PWM_Motor_WriteCompare
 1032              	.LVL71:
 1033 0076 02E0     		b	.L50
 1034              	.LVL72:
 1035              	.L55:
 429:main.c        ****         
 1036              		.loc 1 429 0
 1037 0078 0020     		movs	r0, #0
 1038              	.LVL73:
 1039 007a FFF7FEFF 		bl	PWM_Motor_WriteCompare
 1040              	.LVL74:
 1041              	.L50:
 432:main.c        **** 
 1042              		.loc 1 432 0
 1043              		@ sp needed
 1044              	.LVL75:
 1045 007e 70BD     		pop	{r4, r5, r6, pc}
 1046              	.L58:
 1047              		.align	2
 1048              	.L57:
 1049 0080 00000000 		.word	pwm_compare
 1050 0084 00000000 		.word	.LANCHOR0
 1051 0088 00000000 		.word	.LANCHOR1
 1052 008c 00000000 		.word	txData
 1053 0090 B4000000 		.word	.LC38
 1054              		.cfi_endproc
 1055              	.LFE42:
 1056              		.size	set_PWM, .-set_PWM
 1057              		.section	.text.Period_Reset_Handler,"ax",%progbits
 1058              		.align	2
 1059              		.global	Period_Reset_Handler
 1060              		.code	16
 1061              		.thumb_func
ARM GAS  C:\Users\austc\AppData\Local\Temp\ccxzq70h.s 			page 32


 1062              		.type	Period_Reset_Handler, %function
 1063              	Period_Reset_Handler:
 1064              	.LFB35:
  84:main.c        ****     int timer = Timer_1_ReadStatusRegister();
 1065              		.loc 1 84 0
 1066              		.cfi_startproc
 1067              		@ args = 0, pretend = 0, frame = 0
 1068              		@ frame_needed = 0, uses_anonymous_args = 0
 1069 0000 10B5     		push	{r4, lr}
 1070              		.cfi_def_cfa_offset 8
 1071              		.cfi_offset 4, -8
 1072              		.cfi_offset 14, -4
  85:main.c        ****     if(uart_debug) {
 1073              		.loc 1 85 0
 1074 0002 FFF7FEFF 		bl	Timer_1_ReadStatusRegister
 1075              	.LVL76:
  86:main.c        ****         sprintf(txData,"Period interupt triggerd %x\r\n", timer);
 1076              		.loc 1 86 0
 1077 0006 0E4B     		ldr	r3, .L62
 1078 0008 1B78     		ldrb	r3, [r3]
 1079 000a 002B     		cmp	r3, #0
 1080 000c 04D0     		beq	.L60
  87:main.c        ****         //UART_UartPutString(txData);
 1081              		.loc 1 87 0
 1082 000e 0200     		movs	r2, r0
 1083 0010 0C49     		ldr	r1, .L62+4
 1084 0012 0D48     		ldr	r0, .L62+8
 1085              	.LVL77:
 1086 0014 FFF7FEFF 		bl	sprintf
 1087              	.LVL78:
 1088              	.L60:
  90:main.c        ****     invalidate++;
 1089              		.loc 1 90 0
 1090 0018 0122     		movs	r2, #1
 1091 001a 094B     		ldr	r3, .L62
 1092 001c 9A73     		strb	r2, [r3, #14]
  91:main.c        ****     time_LED++;
 1093              		.loc 1 91 0
 1094 001e 0B4A     		ldr	r2, .L62+12
 1095 0020 537D     		ldrb	r3, [r2, #21]
 1096 0022 0133     		adds	r3, r3, #1
 1097 0024 DBB2     		uxtb	r3, r3
 1098 0026 5375     		strb	r3, [r2, #21]
  92:main.c        ****     if(invalidate >= 20){
 1099              		.loc 1 92 0
 1100 0028 917D     		ldrb	r1, [r2, #22]
 1101 002a 0131     		adds	r1, r1, #1
 1102 002c 9175     		strb	r1, [r2, #22]
  93:main.c        ****         set_PWM(0);   
 1103              		.loc 1 93 0
 1104 002e 132B     		cmp	r3, #19
 1105 0030 05D9     		bls	.L59
  94:main.c        ****         Can_rx_pwm.done = 1;
 1106              		.loc 1 94 0
 1107 0032 0020     		movs	r0, #0
 1108 0034 FFF7FEFF 		bl	set_PWM
 1109              	.LVL79:
ARM GAS  C:\Users\austc\AppData\Local\Temp\ccxzq70h.s 			page 33


  95:main.c        ****     }
 1110              		.loc 1 95 0
 1111 0038 0122     		movs	r2, #1
 1112 003a 054B     		ldr	r3, .L62+16
 1113 003c 5A71     		strb	r2, [r3, #5]
 1114              	.L59:
 105:main.c        ****   
 1115              		.loc 1 105 0
 1116              		@ sp needed
 1117 003e 10BD     		pop	{r4, pc}
 1118              	.L63:
 1119              		.align	2
 1120              	.L62:
 1121 0040 00000000 		.word	.LANCHOR0
 1122 0044 D0000000 		.word	.LC42
 1123 0048 00000000 		.word	txData
 1124 004c 00000000 		.word	.LANCHOR1
 1125 0050 00000000 		.word	Can_rx_pwm
 1126              		.cfi_endproc
 1127              	.LFE35:
 1128              		.size	Period_Reset_Handler, .-Period_Reset_Handler
 1129              		.section	.text.Pin_Limit_Handler,"ax",%progbits
 1130              		.align	2
 1131              		.global	Pin_Limit_Handler
 1132              		.code	16
 1133              		.thumb_func
 1134              		.type	Pin_Limit_Handler, %function
 1135              	Pin_Limit_Handler:
 1136              	.LFB36:
 107:main.c        ****     if(uart_debug) {
 1137              		.loc 1 107 0
 1138              		.cfi_startproc
 1139              		@ args = 0, pretend = 0, frame = 0
 1140              		@ frame_needed = 0, uses_anonymous_args = 0
 1141 0000 10B5     		push	{r4, lr}
 1142              		.cfi_def_cfa_offset 8
 1143              		.cfi_offset 4, -8
 1144              		.cfi_offset 14, -4
 108:main.c        ****         sprintf(txData,"Limit interupt triggerd\r\n");
 1145              		.loc 1 108 0
 1146 0002 0A4B     		ldr	r3, .L66
 1147 0004 1B78     		ldrb	r3, [r3]
 1148 0006 002B     		cmp	r3, #0
 1149 0008 08D0     		beq	.L65
 109:main.c        ****         UART_UartPutString(txData);
 1150              		.loc 1 109 0
 1151 000a 094C     		ldr	r4, .L66+4
 1152 000c 1A22     		movs	r2, #26
 1153 000e 0949     		ldr	r1, .L66+8
 1154 0010 2000     		movs	r0, r4
 1155 0012 FFF7FEFF 		bl	memcpy
 1156              	.LVL80:
 110:main.c        ****     }
 1157              		.loc 1 110 0
 1158 0016 2000     		movs	r0, r4
 1159 0018 FFF7FEFF 		bl	UART_UartPutString
 1160              	.LVL81:
ARM GAS  C:\Users\austc\AppData\Local\Temp\ccxzq70h.s 			page 34


 1161              	.L65:
 112:main.c        ****     QuadDec_SetCounter(0);
 1162              		.loc 1 112 0
 1163 001c 064B     		ldr	r3, .L66+12
 1164 001e 1868     		ldr	r0, [r3]
 1165 0020 FFF7FEFF 		bl	set_PWM
 1166              	.LVL82:
 113:main.c        **** }
 1167              		.loc 1 113 0
 1168 0024 0020     		movs	r0, #0
 1169 0026 FFF7FEFF 		bl	QuadDec_SetCounter
 1170              	.LVL83:
 114:main.c        **** 
 1171              		.loc 1 114 0
 1172              		@ sp needed
 1173 002a 10BD     		pop	{r4, pc}
 1174              	.L67:
 1175              		.align	2
 1176              	.L66:
 1177 002c 00000000 		.word	.LANCHOR0
 1178 0030 00000000 		.word	txData
 1179 0034 F0000000 		.word	.LC49
 1180 0038 00000000 		.word	pwm_compare
 1181              		.cfi_endproc
 1182              	.LFE36:
 1183              		.size	Pin_Limit_Handler, .-Pin_Limit_Handler
 1184              		.global	__aeabi_i2d
 1185              		.global	__aeabi_ddiv
 1186              		.global	__aeabi_dmul
 1187              		.global	__aeabi_d2iz
 1188              		.section	.text.CAN_Send_Encoder,"ax",%progbits
 1189              		.align	2
 1190              		.global	CAN_Send_Encoder
 1191              		.code	16
 1192              		.thumb_func
 1193              		.type	CAN_Send_Encoder, %function
 1194              	CAN_Send_Encoder:
 1195              	.LFB43:
 434:main.c        ****     int16 ticks = QuadDec_GetCounter();
 1196              		.loc 1 434 0
 1197              		.cfi_startproc
 1198              		@ args = 0, pretend = 0, frame = 0
 1199              		@ frame_needed = 0, uses_anonymous_args = 0
 1200 0000 F0B5     		push	{r4, r5, r6, r7, lr}
 1201              		.cfi_def_cfa_offset 20
 1202              		.cfi_offset 4, -20
 1203              		.cfi_offset 5, -16
 1204              		.cfi_offset 6, -12
 1205              		.cfi_offset 7, -8
 1206              		.cfi_offset 14, -4
 1207 0002 83B0     		sub	sp, sp, #12
 1208              		.cfi_def_cfa_offset 32
 435:main.c        ****     int16 angle = (((double)ticks)/ratio)*10;
 1209              		.loc 1 435 0
 1210 0004 FFF7FEFF 		bl	QuadDec_GetCounter
 1211              	.LVL84:
 436:main.c        ****     data.byte[0u] = 0x14u;
ARM GAS  C:\Users\austc\AppData\Local\Temp\ccxzq70h.s 			page 35


 1212              		.loc 1 436 0
 1213 0008 FFF7FEFF 		bl	__aeabi_i2d
 1214              	.LVL85:
 1215 000c 184B     		ldr	r3, .L70
 1216 000e 1A68     		ldr	r2, [r3]
 1217 0010 5B68     		ldr	r3, [r3, #4]
 1218 0012 FFF7FEFF 		bl	__aeabi_ddiv
 1219              	.LVL86:
 1220 0016 0022     		movs	r2, #0
 1221 0018 164B     		ldr	r3, .L70+4
 1222 001a FFF7FEFF 		bl	__aeabi_dmul
 1223              	.LVL87:
 1224 001e FFF7FEFF 		bl	__aeabi_d2iz
 1225              	.LVL88:
 1226 0022 00B2     		sxth	r0, r0
 1227              	.LVL89:
 437:main.c        ****     data.byte[1u] = LO8(angle);
 1228              		.loc 1 437 0
 1229 0024 144B     		ldr	r3, .L70+8
 1230 0026 1422     		movs	r2, #20
 1231 0028 1A70     		strb	r2, [r3]
 438:main.c        ****     data.byte[2u] = HI8(angle);
 1232              		.loc 1 438 0
 1233 002a 5870     		strb	r0, [r3, #1]
 439:main.c        ****     data.byte[3u] = 0;
 1234              		.loc 1 439 0
 1235 002c 80B2     		uxth	r0, r0
 1236 002e 000A     		lsrs	r0, r0, #8
 1237              	.LVL90:
 1238 0030 9870     		strb	r0, [r3, #2]
 440:main.c        ****     data.byte[4u] = 0;
 1239              		.loc 1 440 0
 1240 0032 0022     		movs	r2, #0
 1241 0034 DA70     		strb	r2, [r3, #3]
 441:main.c        ****     CAN_SendMsg(&message);
 1242              		.loc 1 441 0
 1243 0036 1A71     		strb	r2, [r3, #4]
 442:main.c        ****     if(uart_debug == 2) {
 1244              		.loc 1 442 0
 1245 0038 1048     		ldr	r0, .L70+12
 1246 003a FFF7FEFF 		bl	CAN_SendMsg
 1247              	.LVL91:
 443:main.c        ****         sprintf(txData, "CAN_Send_Encoder: byte[0u] %x byte[1u] %x byte[2u] %x QuadDec Count %d\r\n
 1248              		.loc 1 443 0
 1249 003e 104B     		ldr	r3, .L70+16
 1250 0040 1B78     		ldrb	r3, [r3]
 1251 0042 022B     		cmp	r3, #2
 1252 0044 11D1     		bne	.L68
 445:main.c        ****             QuadDec_GetCounter());
 1253              		.loc 1 445 0
 1254 0046 0C4B     		ldr	r3, .L70+8
 1255 0048 1D78     		ldrb	r5, [r3]
 1256 004a 5E78     		ldrb	r6, [r3, #1]
 1257 004c 9F78     		ldrb	r7, [r3, #2]
 446:main.c        ****         UART_UartPutString(txData);    
 1258              		.loc 1 446 0
 1259 004e FFF7FEFF 		bl	QuadDec_GetCounter
ARM GAS  C:\Users\austc\AppData\Local\Temp\ccxzq70h.s 			page 36


 1260              	.LVL92:
 444:main.c        ****             data.byte[0u],data.byte[1u],data.byte[2u],
 1261              		.loc 1 444 0
 1262 0052 0C4C     		ldr	r4, .L70+20
 1263 0054 0190     		str	r0, [sp, #4]
 1264 0056 0097     		str	r7, [sp]
 1265 0058 3300     		movs	r3, r6
 1266 005a 2A00     		movs	r2, r5
 1267 005c 0A49     		ldr	r1, .L70+24
 1268 005e 2000     		movs	r0, r4
 1269 0060 FFF7FEFF 		bl	sprintf
 1270              	.LVL93:
 447:main.c        ****     }
 1271              		.loc 1 447 0
 1272 0064 2000     		movs	r0, r4
 1273 0066 FFF7FEFF 		bl	UART_UartPutString
 1274              	.LVL94:
 1275              	.L68:
 449:main.c        **** 
 1276              		.loc 1 449 0
 1277 006a 03B0     		add	sp, sp, #12
 1278              		@ sp needed
 1279 006c F0BD     		pop	{r4, r5, r6, r7, pc}
 1280              	.L71:
 1281 006e C046     		.align	2
 1282              	.L70:
 1283 0070 00000000 		.word	ratio
 1284 0074 00002440 		.word	1076101120
 1285 0078 00000000 		.word	data
 1286 007c 00000000 		.word	message
 1287 0080 00000000 		.word	.LANCHOR0
 1288 0084 00000000 		.word	txData
 1289 0088 0C010000 		.word	.LC56
 1290              		.cfi_endproc
 1291              	.LFE43:
 1292              		.size	CAN_Send_Encoder, .-CAN_Send_Encoder
 1293              		.section	.text.CAN_Send_Telemetry,"ax",%progbits
 1294              		.align	2
 1295              		.global	CAN_Send_Telemetry
 1296              		.code	16
 1297              		.thumb_func
 1298              		.type	CAN_Send_Telemetry, %function
 1299              	CAN_Send_Telemetry:
 1300              	.LFB44:
 451:main.c        ****     data.byte[0u] = 0x18u;
 1301              		.loc 1 451 0
 1302              		.cfi_startproc
 1303              		@ args = 0, pretend = 0, frame = 0
 1304              		@ frame_needed = 0, uses_anonymous_args = 0
 1305 0000 10B5     		push	{r4, lr}
 1306              		.cfi_def_cfa_offset 8
 1307              		.cfi_offset 4, -8
 1308              		.cfi_offset 14, -4
 452:main.c        ****     data.byte[1u] = 0;
 1309              		.loc 1 452 0
 1310 0002 0D4B     		ldr	r3, .L74
 1311 0004 1822     		movs	r2, #24
ARM GAS  C:\Users\austc\AppData\Local\Temp\ccxzq70h.s 			page 37


 1312 0006 1A70     		strb	r2, [r3]
 453:main.c        ****     data.byte[2u] = 0;
 1313              		.loc 1 453 0
 1314 0008 0022     		movs	r2, #0
 1315 000a 5A70     		strb	r2, [r3, #1]
 454:main.c        ****     data.byte[3u] = 0;
 1316              		.loc 1 454 0
 1317 000c 9A70     		strb	r2, [r3, #2]
 455:main.c        ****     data.byte[4u] = 0;
 1318              		.loc 1 455 0
 1319 000e DA70     		strb	r2, [r3, #3]
 456:main.c        ****     CAN_SendMsg(&message);
 1320              		.loc 1 456 0
 1321 0010 1A71     		strb	r2, [r3, #4]
 457:main.c        ****     if(uart_debug == 2) {
 1322              		.loc 1 457 0
 1323 0012 0A48     		ldr	r0, .L74+4
 1324 0014 FFF7FEFF 		bl	CAN_SendMsg
 1325              	.LVL95:
 458:main.c        ****         sprintf(txData, "Telemerty: byte[0u] %x byte[1u] %x\r\n",(uint8)data.byte[0u],(uint8)data.b
 1326              		.loc 1 458 0
 1327 0018 094B     		ldr	r3, .L74+8
 1328 001a 1B78     		ldrb	r3, [r3]
 1329 001c 022B     		cmp	r3, #2
 1330 001e 0AD1     		bne	.L72
 459:main.c        ****         UART_UartPutString(txData); 
 1331              		.loc 1 459 0
 1332 0020 054B     		ldr	r3, .L74
 1333 0022 1A78     		ldrb	r2, [r3]
 1334 0024 5B78     		ldrb	r3, [r3, #1]
 1335 0026 074C     		ldr	r4, .L74+12
 1336 0028 0749     		ldr	r1, .L74+16
 1337 002a 2000     		movs	r0, r4
 1338 002c FFF7FEFF 		bl	sprintf
 1339              	.LVL96:
 460:main.c        ****     }
 1340              		.loc 1 460 0
 1341 0030 2000     		movs	r0, r4
 1342 0032 FFF7FEFF 		bl	UART_UartPutString
 1343              	.LVL97:
 1344              	.L72:
 462:main.c        **** 
 1345              		.loc 1 462 0
 1346              		@ sp needed
 1347 0036 10BD     		pop	{r4, pc}
 1348              	.L75:
 1349              		.align	2
 1350              	.L74:
 1351 0038 00000000 		.word	data
 1352 003c 00000000 		.word	message
 1353 0040 00000000 		.word	.LANCHOR0
 1354 0044 00000000 		.word	txData
 1355 0048 58010000 		.word	.LC62
 1356              		.cfi_endproc
 1357              	.LFE44:
 1358              		.size	CAN_Send_Telemetry, .-CAN_Send_Telemetry
 1359              		.section	.text.CAN_Send_Model,"ax",%progbits
ARM GAS  C:\Users\austc\AppData\Local\Temp\ccxzq70h.s 			page 38


 1360              		.align	2
 1361              		.global	CAN_Send_Model
 1362              		.code	16
 1363              		.thumb_func
 1364              		.type	CAN_Send_Model, %function
 1365              	CAN_Send_Model:
 1366              	.LFB45:
 464:main.c        ****     data.byte[0u] = 0x12u;
 1367              		.loc 1 464 0
 1368              		.cfi_startproc
 1369              		@ args = 0, pretend = 0, frame = 0
 1370              		@ frame_needed = 0, uses_anonymous_args = 0
 1371 0000 10B5     		push	{r4, lr}
 1372              		.cfi_def_cfa_offset 8
 1373              		.cfi_offset 4, -8
 1374              		.cfi_offset 14, -4
 465:main.c        ****     data.byte[1u] = 0x00u;
 1375              		.loc 1 465 0
 1376 0002 0D4B     		ldr	r3, .L78
 1377 0004 1222     		movs	r2, #18
 1378 0006 1A70     		strb	r2, [r3]
 466:main.c        ****     data.byte[2u] = 0;
 1379              		.loc 1 466 0
 1380 0008 0022     		movs	r2, #0
 1381 000a 5A70     		strb	r2, [r3, #1]
 467:main.c        ****     data.byte[3u] = 0;
 1382              		.loc 1 467 0
 1383 000c 9A70     		strb	r2, [r3, #2]
 468:main.c        ****     data.byte[4u] = 0;
 1384              		.loc 1 468 0
 1385 000e DA70     		strb	r2, [r3, #3]
 469:main.c        ****     CAN_SendMsg(&message);
 1386              		.loc 1 469 0
 1387 0010 1A71     		strb	r2, [r3, #4]
 470:main.c        ****     if(uart_debug == 2) {
 1388              		.loc 1 470 0
 1389 0012 0A48     		ldr	r0, .L78+4
 1390 0014 FFF7FEFF 		bl	CAN_SendMsg
 1391              	.LVL98:
 471:main.c        ****         sprintf(txData, "Model: byte[0u] %x byte[1u] %x\r\n",data.byte[0u],data.byte[1u]);
 1392              		.loc 1 471 0
 1393 0018 094B     		ldr	r3, .L78+8
 1394 001a 1B78     		ldrb	r3, [r3]
 1395 001c 022B     		cmp	r3, #2
 1396 001e 0AD1     		bne	.L76
 472:main.c        ****         UART_UartPutString(txData); 
 1397              		.loc 1 472 0
 1398 0020 054B     		ldr	r3, .L78
 1399 0022 1A78     		ldrb	r2, [r3]
 1400 0024 5B78     		ldrb	r3, [r3, #1]
 1401 0026 074C     		ldr	r4, .L78+12
 1402 0028 0749     		ldr	r1, .L78+16
 1403 002a 2000     		movs	r0, r4
 1404 002c FFF7FEFF 		bl	sprintf
 1405              	.LVL99:
 473:main.c        ****     }
 1406              		.loc 1 473 0
ARM GAS  C:\Users\austc\AppData\Local\Temp\ccxzq70h.s 			page 39


 1407 0030 2000     		movs	r0, r4
 1408 0032 FFF7FEFF 		bl	UART_UartPutString
 1409              	.LVL100:
 1410              	.L76:
 475:main.c        **** 
 1411              		.loc 1 475 0
 1412              		@ sp needed
 1413 0036 10BD     		pop	{r4, pc}
 1414              	.L79:
 1415              		.align	2
 1416              	.L78:
 1417 0038 00000000 		.word	data
 1418 003c 00000000 		.word	message
 1419 0040 00000000 		.word	.LANCHOR0
 1420 0044 00000000 		.word	txData
 1421 0048 80010000 		.word	.LC68
 1422              		.cfi_endproc
 1423              	.LFE45:
 1424              		.size	CAN_Send_Model, .-CAN_Send_Model
 1425              		.section	.text.CAN_Send_Error,"ax",%progbits
 1426              		.align	2
 1427              		.global	CAN_Send_Error
 1428              		.code	16
 1429              		.thumb_func
 1430              		.type	CAN_Send_Error, %function
 1431              	CAN_Send_Error:
 1432              	.LFB46:
 477:main.c        ****     data.byte[0u] = 0xffu;
 1433              		.loc 1 477 0
 1434              		.cfi_startproc
 1435              		@ args = 0, pretend = 0, frame = 0
 1436              		@ frame_needed = 0, uses_anonymous_args = 0
 1437              	.LVL101:
 1438 0000 10B5     		push	{r4, lr}
 1439              		.cfi_def_cfa_offset 8
 1440              		.cfi_offset 4, -8
 1441              		.cfi_offset 14, -4
 1442 0002 82B0     		sub	sp, sp, #8
 1443              		.cfi_def_cfa_offset 16
 478:main.c        ****     data.byte[1u] = code;
 1444              		.loc 1 478 0
 1445 0004 0E4B     		ldr	r3, .L82
 1446 0006 FF22     		movs	r2, #255
 1447 0008 1A70     		strb	r2, [r3]
 479:main.c        ****     data.byte[2u] = param;
 1448              		.loc 1 479 0
 1449 000a 5870     		strb	r0, [r3, #1]
 480:main.c        ****     data.byte[3u] = 0;
 1450              		.loc 1 480 0
 1451 000c 9970     		strb	r1, [r3, #2]
 481:main.c        ****     data.byte[4u] = 0;
 1452              		.loc 1 481 0
 1453 000e 0022     		movs	r2, #0
 1454 0010 DA70     		strb	r2, [r3, #3]
 482:main.c        ****     CAN_SendMsg(&message);
 1455              		.loc 1 482 0
 1456 0012 1A71     		strb	r2, [r3, #4]
ARM GAS  C:\Users\austc\AppData\Local\Temp\ccxzq70h.s 			page 40


 483:main.c        ****     if(uart_debug == 2) {
 1457              		.loc 1 483 0
 1458 0014 0B48     		ldr	r0, .L82+4
 1459              	.LVL102:
 1460 0016 FFF7FEFF 		bl	CAN_SendMsg
 1461              	.LVL103:
 484:main.c        ****         sprintf(txData, "Error: byte[0u] %x byte[1u] %x byte[2u] %x\r\n",data.byte[0u],data.byte[1u
 1462              		.loc 1 484 0
 1463 001a 0B4B     		ldr	r3, .L82+8
 1464 001c 1B78     		ldrb	r3, [r3]
 1465 001e 022B     		cmp	r3, #2
 1466 0020 0CD1     		bne	.L80
 485:main.c        ****         UART_UartPutString(txData); 
 1467              		.loc 1 485 0
 1468 0022 0749     		ldr	r1, .L82
 1469 0024 0A78     		ldrb	r2, [r1]
 1470 0026 4B78     		ldrb	r3, [r1, #1]
 1471 0028 8978     		ldrb	r1, [r1, #2]
 1472 002a 084C     		ldr	r4, .L82+12
 1473 002c 0091     		str	r1, [sp]
 1474 002e 0849     		ldr	r1, .L82+16
 1475 0030 2000     		movs	r0, r4
 1476 0032 FFF7FEFF 		bl	sprintf
 1477              	.LVL104:
 486:main.c        ****     }
 1478              		.loc 1 486 0
 1479 0036 2000     		movs	r0, r4
 1480 0038 FFF7FEFF 		bl	UART_UartPutString
 1481              	.LVL105:
 1482              	.L80:
 488:main.c        **** 
 1483              		.loc 1 488 0
 1484 003c 02B0     		add	sp, sp, #8
 1485              		@ sp needed
 1486 003e 10BD     		pop	{r4, pc}
 1487              	.L83:
 1488              		.align	2
 1489              	.L82:
 1490 0040 00000000 		.word	data
 1491 0044 00000000 		.word	message
 1492 0048 00000000 		.word	.LANCHOR0
 1493 004c 00000000 		.word	txData
 1494 0050 A4010000 		.word	.LC74
 1495              		.cfi_endproc
 1496              	.LFE46:
 1497              		.size	CAN_Send_Error, .-CAN_Send_Error
 1498              		.section	.text.set_data,"ax",%progbits
 1499              		.align	2
 1500              		.global	set_data
 1501              		.code	16
 1502              		.thumb_func
 1503              		.type	set_data, %function
 1504              	set_data:
 1505              	.LFB48:
 528:main.c        ****         //set mode
 1506              		.loc 1 528 0
 1507              		.cfi_startproc
ARM GAS  C:\Users\austc\AppData\Local\Temp\ccxzq70h.s 			page 41


 1508              		@ args = 0, pretend = 0, frame = 0
 1509              		@ frame_needed = 0, uses_anonymous_args = 0
 1510              	.LVL106:
 1511 0000 10B5     		push	{r4, lr}
 1512              		.cfi_def_cfa_offset 8
 1513              		.cfi_offset 4, -8
 1514              		.cfi_offset 14, -4
 530:main.c        ****             if(CAN_RX_DATA_BYTE2(addr) == 1 || CAN_RX_DATA_BYTE2(addr) == 0) {
 1515              		.loc 1 530 0
 1516 0002 4001     		lsls	r0, r0, #5
 1517              	.LVL107:
 1518 0004 334B     		ldr	r3, .L93
 1519 0006 9C46     		mov	ip, r3
 1520 0008 6044     		add	r0, r0, ip
 1521 000a 8368     		ldr	r3, [r0, #8]
 1522 000c 1B0E     		lsrs	r3, r3, #24
 1523 000e 23D1     		bne	.L85
 531:main.c        ****                 mode = CAN_RX_DATA_BYTE2(addr);
 1524              		.loc 1 531 0
 1525 0010 8368     		ldr	r3, [r0, #8]
 1526 0012 1B0C     		lsrs	r3, r3, #16
 1527 0014 FF22     		movs	r2, #255
 1528 0016 1340     		ands	r3, r2
 1529 0018 012B     		cmp	r3, #1
 1530 001a 03D0     		beq	.L86
 531:main.c        ****                 mode = CAN_RX_DATA_BYTE2(addr);
 1531              		.loc 1 531 0 is_stmt 0 discriminator 1
 1532 001c 8368     		ldr	r3, [r0, #8]
 1533 001e 1B0C     		lsrs	r3, r3, #16
 1534 0020 1A42     		tst	r2, r3
 1535 0022 11D1     		bne	.L87
 1536              	.L86:
 532:main.c        ****                 if(mode == 1){
 1537              		.loc 1 532 0 is_stmt 1
 1538 0024 8368     		ldr	r3, [r0, #8]
 1539 0026 1B0C     		lsrs	r3, r3, #16
 1540 0028 DBB2     		uxtb	r3, r3
 1541 002a 2B4A     		ldr	r2, .L93+4
 1542 002c 9372     		strb	r3, [r2, #10]
 533:main.c        ****                     final_angle = QuadDec_GetCounter() * flipEncoder;
 1543              		.loc 1 533 0
 1544 002e 012B     		cmp	r3, #1
 1545 0030 0ED1     		bne	.L88
 534:main.c        ****                     i = 0;
 1546              		.loc 1 534 0
 1547 0032 FFF7FEFF 		bl	QuadDec_GetCounter
 1548              	.LVL108:
 1549 0036 294A     		ldr	r2, .L93+8
 1550 0038 274B     		ldr	r3, .L93+4
 1551 003a DB7A     		ldrb	r3, [r3, #11]
 1552 003c 5BB2     		sxtb	r3, r3
 1553 003e 5843     		muls	r0, r3
 1554 0040 1080     		strh	r0, [r2]
 535:main.c        ****                 }
 1555              		.loc 1 535 0
 1556 0042 0023     		movs	r3, #0
 1557 0044 5360     		str	r3, [r2, #4]
ARM GAS  C:\Users\austc\AppData\Local\Temp\ccxzq70h.s 			page 42


 1558 0046 03E0     		b	.L88
 1559              	.L87:
 539:main.c        ****                 invalid_arg.done = 0;
 1560              		.loc 1 539 0
 1561 0048 254B     		ldr	r3, .L93+12
 1562 004a 0022     		movs	r2, #0
 1563 004c 5A70     		strb	r2, [r3, #1]
 540:main.c        ****             }
 1564              		.loc 1 540 0
 1565 004e 9A70     		strb	r2, [r3, #2]
 1566              	.L88:
 542:main.c        ****         } 
 1567              		.loc 1 542 0
 1568 0050 0122     		movs	r2, #1
 1569 0052 224B     		ldr	r3, .L93+8
 1570 0054 1A72     		strb	r2, [r3, #8]
 1571 0056 3BE0     		b	.L84
 1572              	.L85:
 545:main.c        ****             Can_rx_pwm.b1 = CAN_RX_DATA_BYTE2(addr);
 1573              		.loc 1 545 0
 1574 0058 8368     		ldr	r3, [r0, #8]
 1575 005a 1B0E     		lsrs	r3, r3, #24
 1576 005c 022B     		cmp	r3, #2
 1577 005e 0ED1     		bne	.L90
 546:main.c        ****             Can_rx_pwm.b2 = CAN_RX_DATA_BYTE3(addr);
 1578              		.loc 1 546 0
 1579 0060 8268     		ldr	r2, [r0, #8]
 1580 0062 120C     		lsrs	r2, r2, #16
 1581 0064 1F4B     		ldr	r3, .L93+16
 1582 0066 5A70     		strb	r2, [r3, #1]
 547:main.c        ****             Can_rx_pwm.b3 = CAN_RX_DATA_BYTE4(addr);
 1583              		.loc 1 547 0
 1584 0068 8268     		ldr	r2, [r0, #8]
 1585 006a 120A     		lsrs	r2, r2, #8
 1586 006c 9A70     		strb	r2, [r3, #2]
 548:main.c        ****             Can_rx_pwm.b4 = CAN_RX_DATA_BYTE5(addr);
 1587              		.loc 1 548 0
 1588 006e 8268     		ldr	r2, [r0, #8]
 1589 0070 DA70     		strb	r2, [r3, #3]
 549:main.c        ****             Can_rx_pwm.done = 0;
 1590              		.loc 1 549 0
 1591 0072 C268     		ldr	r2, [r0, #12]
 1592 0074 120E     		lsrs	r2, r2, #24
 1593 0076 1A71     		strb	r2, [r3, #4]
 550:main.c        ****         } 
 1594              		.loc 1 550 0
 1595 0078 0022     		movs	r2, #0
 1596 007a 5A71     		strb	r2, [r3, #5]
 1597 007c 28E0     		b	.L84
 1598              	.L90:
 553:main.c        ****             Can_rx_angle.b1 = CAN_RX_DATA_BYTE2(addr);
 1599              		.loc 1 553 0
 1600 007e 8368     		ldr	r3, [r0, #8]
 1601 0080 1B0E     		lsrs	r3, r3, #24
 1602 0082 042B     		cmp	r3, #4
 1603 0084 1DD1     		bne	.L91
 554:main.c        ****             Can_rx_angle.b2 = CAN_RX_DATA_BYTE3(addr);
ARM GAS  C:\Users\austc\AppData\Local\Temp\ccxzq70h.s 			page 43


 1604              		.loc 1 554 0
 1605 0086 8368     		ldr	r3, [r0, #8]
 1606 0088 1B0C     		lsrs	r3, r3, #16
 1607 008a D9B2     		uxtb	r1, r3
 1608 008c 164C     		ldr	r4, .L93+20
 1609 008e 6170     		strb	r1, [r4, #1]
 555:main.c        ****             Can_rx_angle.b3 = CAN_RX_DATA_BYTE4(addr);
 1610              		.loc 1 555 0
 1611 0090 8268     		ldr	r2, [r0, #8]
 1612 0092 120A     		lsrs	r2, r2, #8
 1613 0094 D3B2     		uxtb	r3, r2
 1614 0096 A370     		strb	r3, [r4, #2]
 556:main.c        ****             Can_rx_angle.b4 = CAN_RX_DATA_BYTE5(addr);
 1615              		.loc 1 556 0
 1616 0098 8268     		ldr	r2, [r0, #8]
 1617 009a E270     		strb	r2, [r4, #3]
 557:main.c        ****             Can_rx_angle.done = 0;
 1618              		.loc 1 557 0
 1619 009c C268     		ldr	r2, [r0, #12]
 1620 009e 120E     		lsrs	r2, r2, #24
 1621 00a0 2271     		strb	r2, [r4, #4]
 558:main.c        ****             if((((uint16_t)Can_rx_angle.b2) << 8 | Can_rx_angle.b1) != final_angle){
 1622              		.loc 1 558 0
 1623 00a2 0022     		movs	r2, #0
 1624 00a4 6271     		strb	r2, [r4, #5]
 559:main.c        ****                  i=0;
 1625              		.loc 1 559 0
 1626 00a6 1B02     		lsls	r3, r3, #8
 1627 00a8 0B43     		orrs	r3, r1
 1628 00aa 0C4A     		ldr	r2, .L93+8
 1629 00ac 0021     		movs	r1, #0
 1630 00ae 525E     		ldrsh	r2, [r2, r1]
 1631 00b0 9342     		cmp	r3, r2
 1632 00b2 02D0     		beq	.L92
 560:main.c        ****             }
 1633              		.loc 1 560 0
 1634 00b4 0022     		movs	r2, #0
 1635 00b6 094B     		ldr	r3, .L93+8
 1636 00b8 5A60     		str	r2, [r3, #4]
 1637              	.L92:
 562:main.c        ****         } 
 1638              		.loc 1 562 0
 1639 00ba 0122     		movs	r2, #1
 1640 00bc 074B     		ldr	r3, .L93+8
 1641 00be 1A72     		strb	r2, [r3, #8]
 1642 00c0 06E0     		b	.L84
 1643              	.L91:
 565:main.c        ****             model_req = 1;
 1644              		.loc 1 565 0
 1645 00c2 8368     		ldr	r3, [r0, #8]
 1646 00c4 1B0E     		lsrs	r3, r3, #24
 1647 00c6 102B     		cmp	r3, #16
 1648 00c8 02D1     		bne	.L84
 1649              		.loc 1 566 0
 1650 00ca 0122     		movs	r2, #1
 1651 00cc 034B     		ldr	r3, .L93+8
 1652 00ce 5A72     		strb	r2, [r3, #9]
ARM GAS  C:\Users\austc\AppData\Local\Temp\ccxzq70h.s 			page 44


 1653              	.L84:
 567:main.c        ****         }
 568:main.c        **** }
 1654              		.loc 1 568 0
 1655              		@ sp needed
 1656 00d0 10BD     		pop	{r4, pc}
 1657              	.L94:
 1658 00d2 C046     		.align	2
 1659              	.L93:
 1660 00d4 A0002F40 		.word	1076822176
 1661 00d8 00000000 		.word	.LANCHOR0
 1662 00dc 00000000 		.word	.LANCHOR1
 1663 00e0 00000000 		.word	invalid_arg
 1664 00e4 00000000 		.word	Can_rx_pwm
 1665 00e8 00000000 		.word	Can_rx_angle
 1666              		.cfi_endproc
 1667              	.LFE48:
 1668              		.size	set_data, .-set_data
 1669              		.section	.text.degrees_to_tick,"ax",%progbits
 1670              		.align	2
 1671              		.global	degrees_to_tick
 1672              		.code	16
 1673              		.thumb_func
 1674              		.type	degrees_to_tick, %function
 1675              	degrees_to_tick:
 1676              	.LFB50:
 569:main.c        **** 
 570:main.c        **** void set_Position(int16 degrees) {
 571:main.c        ****     if(uart_debug) {
 572:main.c        ****         sprintf(txData, "complete: %d\r\n",complete);
 573:main.c        ****         UART_UartPutString(txData);
 574:main.c        ****     }
 575:main.c        ****     //while(!complete) {
 576:main.c        ****         int PWM = position_PID(degrees_to_tick(degrees));
 577:main.c        ****         if(uart_debug) {
 578:main.c        ****             sprintf(txData, "PWM: %d\r\n",PWM);
 579:main.c        ****             UART_UartPutString(txData);
 580:main.c        ****         }
 581:main.c        ****         if(PWM > maxV){
 582:main.c        ****             set_PWM(maxV);   
 583:main.c        ****         } else if(PWM < -maxV) {
 584:main.c        ****             set_PWM(-maxV);
 585:main.c        ****         } else {
 586:main.c        ****             set_PWM(PWM);   
 587:main.c        ****         }
 588:main.c        ****    // }
 589:main.c        **** }
 590:main.c        **** 
 591:main.c        **** int degrees_to_tick(int16 degrees){
 1677              		.loc 1 591 0
 1678              		.cfi_startproc
 1679              		@ args = 0, pretend = 0, frame = 0
 1680              		@ frame_needed = 0, uses_anonymous_args = 0
 1681              	.LVL109:
 1682 0000 70B5     		push	{r4, r5, r6, lr}
 1683              		.cfi_def_cfa_offset 16
 1684              		.cfi_offset 4, -16
ARM GAS  C:\Users\austc\AppData\Local\Temp\ccxzq70h.s 			page 45


 1685              		.cfi_offset 5, -12
 1686              		.cfi_offset 6, -8
 1687              		.cfi_offset 14, -4
 1688 0002 0500     		movs	r5, r0
 592:main.c        ****     int ticks = (int)((double)degrees * ratio);
 1689              		.loc 1 592 0
 1690 0004 FFF7FEFF 		bl	__aeabi_i2d
 1691              	.LVL110:
 1692 0008 0B4B     		ldr	r3, .L97
 1693 000a 1A68     		ldr	r2, [r3]
 1694 000c 5B68     		ldr	r3, [r3, #4]
 1695 000e FFF7FEFF 		bl	__aeabi_dmul
 1696              	.LVL111:
 1697 0012 FFF7FEFF 		bl	__aeabi_d2iz
 1698              	.LVL112:
 1699 0016 0400     		movs	r4, r0
 1700              	.LVL113:
 593:main.c        ****     if(uart_debug) {
 1701              		.loc 1 593 0
 1702 0018 084B     		ldr	r3, .L97+4
 1703 001a 1B78     		ldrb	r3, [r3]
 1704 001c 002B     		cmp	r3, #0
 1705 001e 09D0     		beq	.L96
 594:main.c        ****         sprintf(txData, "degree: %d ticks: %d\r\n", degrees, ticks);
 1706              		.loc 1 594 0
 1707 0020 074E     		ldr	r6, .L97+8
 1708 0022 0300     		movs	r3, r0
 1709 0024 2A00     		movs	r2, r5
 1710 0026 0749     		ldr	r1, .L97+12
 1711 0028 3000     		movs	r0, r6
 1712              	.LVL114:
 1713 002a FFF7FEFF 		bl	sprintf
 1714              	.LVL115:
 595:main.c        ****         UART_UartPutString(txData);
 1715              		.loc 1 595 0
 1716 002e 3000     		movs	r0, r6
 1717 0030 FFF7FEFF 		bl	UART_UartPutString
 1718              	.LVL116:
 1719              	.L96:
 596:main.c        ****     }
 597:main.c        ****     return(ticks);
 598:main.c        **** }
 1720              		.loc 1 598 0
 1721 0034 2000     		movs	r0, r4
 1722              		@ sp needed
 1723              	.LVL117:
 1724 0036 70BD     		pop	{r4, r5, r6, pc}
 1725              	.L98:
 1726              		.align	2
 1727              	.L97:
 1728 0038 00000000 		.word	ratio
 1729 003c 00000000 		.word	.LANCHOR0
 1730 0040 00000000 		.word	txData
 1731 0044 D4010000 		.word	.LC84
 1732              		.cfi_endproc
 1733              	.LFE50:
 1734              		.size	degrees_to_tick, .-degrees_to_tick
ARM GAS  C:\Users\austc\AppData\Local\Temp\ccxzq70h.s 			page 46


 1735              		.global	__aeabi_idiv
 1736              		.section	.text.position_PID,"ax",%progbits
 1737              		.align	2
 1738              		.global	position_PID
 1739              		.code	16
 1740              		.thumb_func
 1741              		.type	position_PID, %function
 1742              	position_PID:
 1743              	.LFB51:
 599:main.c        **** 
 600:main.c        **** int position_PID(int target){
 1744              		.loc 1 600 0
 1745              		.cfi_startproc
 1746              		@ args = 0, pretend = 0, frame = 0
 1747              		@ frame_needed = 0, uses_anonymous_args = 0
 1748              	.LVL118:
 1749 0000 70B5     		push	{r4, r5, r6, lr}
 1750              		.cfi_def_cfa_offset 16
 1751              		.cfi_offset 4, -16
 1752              		.cfi_offset 5, -12
 1753              		.cfi_offset 6, -8
 1754              		.cfi_offset 14, -4
 1755 0002 82B0     		sub	sp, sp, #8
 1756              		.cfi_def_cfa_offset 24
 1757 0004 0400     		movs	r4, r0
 601:main.c        ****     int16 current =  QuadDec_GetCounter() * flipEncoder;
 1758              		.loc 1 601 0
 1759 0006 FFF7FEFF 		bl	QuadDec_GetCounter
 1760              	.LVL119:
 1761 000a 2D4B     		ldr	r3, .L106
 1762 000c DB7A     		ldrb	r3, [r3, #11]
 1763 000e 5BB2     		sxtb	r3, r3
 1764 0010 5843     		muls	r0, r3
 1765 0012 02B2     		sxth	r2, r0
 1766              	.LVL120:
 602:main.c        ****     int p = target - current;
 1767              		.loc 1 602 0
 1768 0014 A41A     		subs	r4, r4, r2
 1769              	.LVL121:
 603:main.c        ****     if(p <= 5 && p >= -5) {
 1770              		.loc 1 603 0
 1771 0016 631D     		adds	r3, r4, #5
 1772 0018 0A2B     		cmp	r3, #10
 1773 001a 0ED8     		bhi	.L100
 604:main.c        ****         if(uart_debug) {
 1774              		.loc 1 604 0
 1775 001c 284B     		ldr	r3, .L106
 1776 001e 1B78     		ldrb	r3, [r3]
 1777 0020 002B     		cmp	r3, #0
 1778 0022 49D0     		beq	.L105
 605:main.c        ****             sprintf(txData, "p: %d\r\n",p);
 1779              		.loc 1 605 0
 1780 0024 274D     		ldr	r5, .L106+4
 1781 0026 2200     		movs	r2, r4
 1782              	.LVL122:
 1783 0028 2749     		ldr	r1, .L106+8
 1784 002a 2800     		movs	r0, r5
ARM GAS  C:\Users\austc\AppData\Local\Temp\ccxzq70h.s 			page 47


 1785              	.LVL123:
 1786 002c FFF7FEFF 		bl	sprintf
 1787              	.LVL124:
 606:main.c        ****             UART_UartPutString(txData);
 1788              		.loc 1 606 0
 1789 0030 2800     		movs	r0, r5
 1790 0032 FFF7FEFF 		bl	UART_UartPutString
 1791              	.LVL125:
 607:main.c        ****         }
 608:main.c        ****       //complete =  1;
 609:main.c        ****       return(0);
 1792              		.loc 1 609 0
 1793 0036 0020     		movs	r0, #0
 1794 0038 3FE0     		b	.L101
 1795              	.LVL126:
 1796              	.L100:
 610:main.c        ****     }
 611:main.c        ****     i = i + p;
 1797              		.loc 1 611 0
 1798 003a 2449     		ldr	r1, .L106+12
 1799 003c 4B68     		ldr	r3, [r1, #4]
 1800 003e E318     		adds	r3, r4, r3
 1801 0040 4B60     		str	r3, [r1, #4]
 612:main.c        ****     if ( i > 500) {
 1802              		.loc 1 612 0
 1803 0042 FA21     		movs	r1, #250
 1804 0044 4900     		lsls	r1, r1, #1
 1805 0046 8B42     		cmp	r3, r1
 1806 0048 01DD     		ble	.L102
 613:main.c        ****         i = 500;   
 1807              		.loc 1 613 0
 1808 004a 204B     		ldr	r3, .L106+12
 1809 004c 5960     		str	r1, [r3, #4]
 1810              	.L102:
 614:main.c        ****     }
 615:main.c        ****     if ( i < -500) {
 1811              		.loc 1 615 0
 1812 004e 1F4B     		ldr	r3, .L106+12
 1813 0050 5968     		ldr	r1, [r3, #4]
 1814 0052 1F4B     		ldr	r3, .L106+16
 1815 0054 9942     		cmp	r1, r3
 1816 0056 02DA     		bge	.L103
 616:main.c        ****         i = -500;
 1817              		.loc 1 616 0
 1818 0058 1900     		movs	r1, r3
 1819 005a 1C4B     		ldr	r3, .L106+12
 1820 005c 5960     		str	r1, [r3, #4]
 1821              	.L103:
 617:main.c        ****     }
 618:main.c        ****     int d = p - lastp;
 1822              		.loc 1 618 0
 1823 005e 1B4B     		ldr	r3, .L106+12
 1824 0060 9969     		ldr	r1, [r3, #24]
 1825 0062 651A     		subs	r5, r4, r1
 1826              	.LVL127:
 619:main.c        ****     lastp = p;
 1827              		.loc 1 619 0
ARM GAS  C:\Users\austc\AppData\Local\Temp\ccxzq70h.s 			page 48


 1828 0064 9C61     		str	r4, [r3, #24]
 620:main.c        ****     if(uart_debug) {
 1829              		.loc 1 620 0
 1830 0066 164B     		ldr	r3, .L106
 1831 0068 1B78     		ldrb	r3, [r3]
 1832 006a 002B     		cmp	r3, #0
 1833 006c 0CD0     		beq	.L104
 621:main.c        ****         sprintf(txData, "p: %d, i: %d d %d current %d\r\n",p, i, d, current);
 1834              		.loc 1 621 0
 1835 006e 174B     		ldr	r3, .L106+12
 1836 0070 5B68     		ldr	r3, [r3, #4]
 1837 0072 144E     		ldr	r6, .L106+4
 1838 0074 0192     		str	r2, [sp, #4]
 1839 0076 0095     		str	r5, [sp]
 1840 0078 2200     		movs	r2, r4
 1841              	.LVL128:
 1842 007a 1649     		ldr	r1, .L106+20
 1843 007c 3000     		movs	r0, r6
 1844 007e FFF7FEFF 		bl	sprintf
 1845              	.LVL129:
 622:main.c        ****         UART_UartPutString(txData);
 1846              		.loc 1 622 0
 1847 0082 3000     		movs	r0, r6
 1848 0084 FFF7FEFF 		bl	UART_UartPutString
 1849              	.LVL130:
 1850              	.L104:
 623:main.c        ****     }
 624:main.c        ****     return (p*kp/10 + i*ki/10 + d*kd/10);
 1851              		.loc 1 624 0
 1852 0088 134B     		ldr	r3, .L106+24
 1853 008a 1868     		ldr	r0, [r3]
 1854 008c 6043     		muls	r0, r4
 1855 008e 0A21     		movs	r1, #10
 1856 0090 FFF7FEFF 		bl	__aeabi_idiv
 1857              	.LVL131:
 1858 0094 0400     		movs	r4, r0
 1859              	.LVL132:
 1860 0096 0D4B     		ldr	r3, .L106+12
 1861 0098 5868     		ldr	r0, [r3, #4]
 1862 009a 104B     		ldr	r3, .L106+28
 1863 009c 1B68     		ldr	r3, [r3]
 1864 009e 5843     		muls	r0, r3
 1865 00a0 0A21     		movs	r1, #10
 1866 00a2 FFF7FEFF 		bl	__aeabi_idiv
 1867              	.LVL133:
 1868 00a6 2418     		adds	r4, r4, r0
 1869 00a8 0D4B     		ldr	r3, .L106+32
 1870 00aa 1868     		ldr	r0, [r3]
 1871 00ac 6843     		muls	r0, r5
 1872 00ae 0A21     		movs	r1, #10
 1873 00b0 FFF7FEFF 		bl	__aeabi_idiv
 1874              	.LVL134:
 1875 00b4 2018     		adds	r0, r4, r0
 1876 00b6 00E0     		b	.L101
 1877              	.LVL135:
 1878              	.L105:
 609:main.c        ****     }
ARM GAS  C:\Users\austc\AppData\Local\Temp\ccxzq70h.s 			page 49


 1879              		.loc 1 609 0
 1880 00b8 0020     		movs	r0, #0
 1881              	.LVL136:
 1882              	.L101:
 625:main.c        **** }
 1883              		.loc 1 625 0
 1884 00ba 02B0     		add	sp, sp, #8
 1885              		@ sp needed
 1886 00bc 70BD     		pop	{r4, r5, r6, pc}
 1887              	.L107:
 1888 00be C046     		.align	2
 1889              	.L106:
 1890 00c0 00000000 		.word	.LANCHOR0
 1891 00c4 00000000 		.word	txData
 1892 00c8 EC010000 		.word	.LC88
 1893 00cc 00000000 		.word	.LANCHOR1
 1894 00d0 0CFEFFFF 		.word	-500
 1895 00d4 F4010000 		.word	.LC92
 1896 00d8 00000000 		.word	kp
 1897 00dc 00000000 		.word	ki
 1898 00e0 00000000 		.word	kd
 1899              		.cfi_endproc
 1900              	.LFE51:
 1901              		.size	position_PID, .-position_PID
 1902              		.section	.text.set_Position,"ax",%progbits
 1903              		.align	2
 1904              		.global	set_Position
 1905              		.code	16
 1906              		.thumb_func
 1907              		.type	set_Position, %function
 1908              	set_Position:
 1909              	.LFB49:
 570:main.c        ****     if(uart_debug) {
 1910              		.loc 1 570 0
 1911              		.cfi_startproc
 1912              		@ args = 0, pretend = 0, frame = 0
 1913              		@ frame_needed = 0, uses_anonymous_args = 0
 1914              	.LVL137:
 1915 0000 70B5     		push	{r4, r5, r6, lr}
 1916              		.cfi_def_cfa_offset 16
 1917              		.cfi_offset 4, -16
 1918              		.cfi_offset 5, -12
 1919              		.cfi_offset 6, -8
 1920              		.cfi_offset 14, -4
 1921 0002 0400     		movs	r4, r0
 571:main.c        ****         sprintf(txData, "complete: %d\r\n",complete);
 1922              		.loc 1 571 0
 1923 0004 184B     		ldr	r3, .L114
 1924 0006 1B78     		ldrb	r3, [r3]
 1925 0008 002B     		cmp	r3, #0
 1926 000a 09D0     		beq	.L109
 572:main.c        ****         UART_UartPutString(txData);
 1927              		.loc 1 572 0
 1928 000c 174B     		ldr	r3, .L114+4
 1929 000e 1A7A     		ldrb	r2, [r3, #8]
 1930 0010 174D     		ldr	r5, .L114+8
 1931 0012 1849     		ldr	r1, .L114+12
ARM GAS  C:\Users\austc\AppData\Local\Temp\ccxzq70h.s 			page 50


 1932 0014 2800     		movs	r0, r5
 1933              	.LVL138:
 1934 0016 FFF7FEFF 		bl	sprintf
 1935              	.LVL139:
 573:main.c        ****     }
 1936              		.loc 1 573 0
 1937 001a 2800     		movs	r0, r5
 1938 001c FFF7FEFF 		bl	UART_UartPutString
 1939              	.LVL140:
 1940              	.L109:
 576:main.c        ****         if(uart_debug) {
 1941              		.loc 1 576 0
 1942 0020 2000     		movs	r0, r4
 1943 0022 FFF7FEFF 		bl	degrees_to_tick
 1944              	.LVL141:
 1945 0026 FFF7FEFF 		bl	position_PID
 1946              	.LVL142:
 1947 002a 0400     		movs	r4, r0
 1948              	.LVL143:
 577:main.c        ****             sprintf(txData, "PWM: %d\r\n",PWM);
 1949              		.loc 1 577 0
 1950 002c 0E4B     		ldr	r3, .L114
 1951 002e 1B78     		ldrb	r3, [r3]
 1952 0030 002B     		cmp	r3, #0
 1953 0032 08D0     		beq	.L110
 578:main.c        ****             UART_UartPutString(txData);
 1954              		.loc 1 578 0
 1955 0034 0E4D     		ldr	r5, .L114+8
 1956 0036 0200     		movs	r2, r0
 1957 0038 0F49     		ldr	r1, .L114+16
 1958 003a 2800     		movs	r0, r5
 1959              	.LVL144:
 1960 003c FFF7FEFF 		bl	sprintf
 1961              	.LVL145:
 579:main.c        ****         }
 1962              		.loc 1 579 0
 1963 0040 2800     		movs	r0, r5
 1964 0042 FFF7FEFF 		bl	UART_UartPutString
 1965              	.LVL146:
 1966              	.L110:
 581:main.c        ****             set_PWM(maxV);   
 1967              		.loc 1 581 0
 1968 0046 094B     		ldr	r3, .L114+4
 1969 0048 187F     		ldrb	r0, [r3, #28]
 1970 004a 8442     		cmp	r4, r0
 1971 004c 02DD     		ble	.L111
 582:main.c        ****         } else if(PWM < -maxV) {
 1972              		.loc 1 582 0
 1973 004e FFF7FEFF 		bl	set_PWM
 1974              	.LVL147:
 1975 0052 08E0     		b	.L108
 1976              	.L111:
 583:main.c        ****             set_PWM(-maxV);
 1977              		.loc 1 583 0
 1978 0054 4042     		rsbs	r0, r0, #0
 1979 0056 8442     		cmp	r4, r0
 1980 0058 02DA     		bge	.L113
ARM GAS  C:\Users\austc\AppData\Local\Temp\ccxzq70h.s 			page 51


 584:main.c        ****         } else {
 1981              		.loc 1 584 0
 1982 005a FFF7FEFF 		bl	set_PWM
 1983              	.LVL148:
 1984 005e 02E0     		b	.L108
 1985              	.L113:
 586:main.c        ****         }
 1986              		.loc 1 586 0
 1987 0060 2000     		movs	r0, r4
 1988 0062 FFF7FEFF 		bl	set_PWM
 1989              	.LVL149:
 1990              	.L108:
 589:main.c        **** 
 1991              		.loc 1 589 0
 1992              		@ sp needed
 1993              	.LVL150:
 1994 0066 70BD     		pop	{r4, r5, r6, pc}
 1995              	.L115:
 1996              		.align	2
 1997              	.L114:
 1998 0068 00000000 		.word	.LANCHOR0
 1999 006c 00000000 		.word	.LANCHOR1
 2000 0070 00000000 		.word	txData
 2001 0074 14020000 		.word	.LC99
 2002 0078 24020000 		.word	.LC102
 2003              		.cfi_endproc
 2004              	.LFE49:
 2005              		.size	set_Position, .-set_Position
 2006              		.section	.text.main,"ax",%progbits
 2007              		.align	2
 2008              		.global	main
 2009              		.code	16
 2010              		.thumb_func
 2011              		.type	main, %function
 2012              	main:
 2013              	.LFB37:
 117:main.c        ****     #ifdef REV2
 2014              		.loc 1 117 0
 2015              		.cfi_startproc
 2016              		@ args = 0, pretend = 0, frame = 0
 2017              		@ frame_needed = 0, uses_anonymous_args = 0
 2018 0000 10B5     		push	{r4, lr}
 2019              		.cfi_def_cfa_offset 8
 2020              		.cfi_offset 4, -8
 2021              		.cfi_offset 14, -4
 2022 0002 82B0     		sub	sp, sp, #8
 2023              		.cfi_def_cfa_offset 16
 122:main.c        ****     stall.done = 1;
 2024              		.loc 1 122 0
 2025 0004 5D4A     		ldr	r2, .L130
 2026 0006 0123     		movs	r3, #1
 2027 0008 1370     		strb	r3, [r2]
 123:main.c        ****     command_failed.code = 0x02;
 2028              		.loc 1 123 0
 2029 000a 9370     		strb	r3, [r2, #2]
 124:main.c        ****     command_failed.done = 1;
 2030              		.loc 1 124 0
ARM GAS  C:\Users\austc\AppData\Local\Temp\ccxzq70h.s 			page 52


 2031 000c 5C4A     		ldr	r2, .L130+4
 2032 000e 0221     		movs	r1, #2
 2033 0010 1170     		strb	r1, [r2]
 125:main.c        ****     invalid_arg.code = 0x03;
 2034              		.loc 1 125 0
 2035 0012 9370     		strb	r3, [r2, #2]
 126:main.c        ****     invalid_arg.done = 1;
 2036              		.loc 1 126 0
 2037 0014 5B4A     		ldr	r2, .L130+8
 2038 0016 0131     		adds	r1, r1, #1
 2039 0018 1170     		strb	r1, [r2]
 127:main.c        ****     uint8 error;
 2040              		.loc 1 127 0
 2041 001a 9370     		strb	r3, [r2, #2]
 130:main.c        ****     message.ide = MESSAGE_IDE;
 2042              		.loc 1 130 0
 2043 001c 5A4B     		ldr	r3, .L130+12
 2044 001e 0522     		movs	r2, #5
 2045 0020 9A71     		strb	r2, [r3, #6]
 131:main.c        ****     message.irq = MESSAGE_IRQ;
 2046              		.loc 1 131 0
 2047 0022 0024     		movs	r4, #0
 2048 0024 5C71     		strb	r4, [r3, #5]
 132:main.c        ****     message.msg = &data;
 2049              		.loc 1 132 0
 2050 0026 DC71     		strb	r4, [r3, #7]
 133:main.c        ****     message.rtr = MESSAGE_RTR;
 2051              		.loc 1 133 0
 2052 0028 584A     		ldr	r2, .L130+16
 2053 002a DA60     		str	r2, [r3, #12]
 134:main.c        ****     
 2054              		.loc 1 134 0
 2055 002c 1C71     		strb	r4, [r3, #4]
 141:main.c        ****     initialize_can_addr();
 2056              		.loc 1 141 0
 2057 002e FFF7FEFF 		bl	initialize
 2058              	.LVL151:
 142:main.c        ****     int up = 0;
 2059              		.loc 1 142 0
 2060 0032 FFF7FEFF 		bl	initialize_can_addr
 2061              	.LVL152:
 145:main.c        ****     set_PWM(0);
 2062              		.loc 1 145 0
 2063 0036 564B     		ldr	r3, .L130+20
 2064 0038 1C60     		str	r4, [r3]
 146:main.c        ****     
 2065              		.loc 1 146 0
 2066 003a 0020     		movs	r0, #0
 2067 003c FFF7FEFF 		bl	set_PWM
 2068              	.LVL153:
 2069              	.L117:
 155:main.c        **** 
 2070              		.loc 1 155 0
 2071 0040 544B     		ldr	r3, .L130+24
 2072 0042 1B7B     		ldrb	r3, [r3, #12]
 2073 0044 002B     		cmp	r3, #0
 2074 0046 FBD1     		bne	.L117
ARM GAS  C:\Users\austc\AppData\Local\Temp\ccxzq70h.s 			page 53


 164:main.c        ****                     if(mode == 0) {
 2075              		.loc 1 164 0
 2076 0048 534B     		ldr	r3, .L130+28
 2077 004a 5979     		ldrb	r1, [r3, #5]
 2078 004c 0029     		cmp	r1, #0
 2079 004e 34D1     		bne	.L118
 165:main.c        ****                         if(uart_debug) {
 2080              		.loc 1 165 0
 2081 0050 524B     		ldr	r3, .L130+32
 2082 0052 9A7A     		ldrb	r2, [r3, #10]
 2083 0054 002A     		cmp	r2, #0
 2084 0056 1FD1     		bne	.L119
 166:main.c        ****                             sprintf(txData, "B1: %d, B2: %d done %x\r\n",Can_rx_pwm.b1, Can_rx_pwm.
 2085              		.loc 1 166 0
 2086 0058 1B78     		ldrb	r3, [r3]
 2087 005a 002B     		cmp	r3, #0
 2088 005c 0BD0     		beq	.L120
 167:main.c        ****                             UART_UartPutString(txData);
 2089              		.loc 1 167 0
 2090 005e 4E4B     		ldr	r3, .L130+28
 2091 0060 5A78     		ldrb	r2, [r3, #1]
 2092 0062 9B78     		ldrb	r3, [r3, #2]
 2093 0064 4E4C     		ldr	r4, .L130+36
 2094 0066 0091     		str	r1, [sp]
 2095 0068 4E49     		ldr	r1, .L130+40
 2096 006a 2000     		movs	r0, r4
 2097 006c FFF7FEFF 		bl	sprintf
 2098              	.LVL154:
 168:main.c        ****                         }
 2099              		.loc 1 168 0
 2100 0070 2000     		movs	r0, r4
 2101 0072 FFF7FEFF 		bl	UART_UartPutString
 2102              	.LVL155:
 2103              	.L120:
 170:main.c        ****                         if(Can_rx_pwm.b2 & 0b01) {
 2104              		.loc 1 170 0
 2105 0076 484B     		ldr	r3, .L130+28
 2106 0078 0122     		movs	r2, #1
 2107 007a 5A71     		strb	r2, [r3, #5]
 171:main.c        ****                             set_PWM((int)Can_rx_pwm.b1);
 2108              		.loc 1 171 0
 2109 007c 9B78     		ldrb	r3, [r3, #2]
 2110 007e DB07     		lsls	r3, r3, #31
 2111 0080 04D5     		bpl	.L121
 172:main.c        ****                         }
 2112              		.loc 1 172 0
 2113 0082 454B     		ldr	r3, .L130+28
 2114 0084 5878     		ldrb	r0, [r3, #1]
 2115 0086 FFF7FEFF 		bl	set_PWM
 2116              	.LVL156:
 2117 008a 16E0     		b	.L118
 2118              	.L121:
 175:main.c        ****                         }
 2119              		.loc 1 175 0
 2120 008c 424B     		ldr	r3, .L130+28
 2121 008e 5878     		ldrb	r0, [r3, #1]
 2122 0090 4042     		rsbs	r0, r0, #0
ARM GAS  C:\Users\austc\AppData\Local\Temp\ccxzq70h.s 			page 54


 2123 0092 FFF7FEFF 		bl	set_PWM
 2124              	.LVL157:
 2125 0096 10E0     		b	.L118
 2126              	.L119:
 178:main.c        ****                         command_failed.param = 0x02;
 2127              		.loc 1 178 0
 2128 0098 394B     		ldr	r3, .L130+4
 2129 009a 0021     		movs	r1, #0
 2130 009c 9970     		strb	r1, [r3, #2]
 179:main.c        ****                         if(uart_debug) {
 2131              		.loc 1 179 0
 2132 009e 0231     		adds	r1, r1, #2
 2133 00a0 5970     		strb	r1, [r3, #1]
 180:main.c        ****                             sprintf(txData, "Mode is not set to 0, mode is %d\r\n",mode);
 2134              		.loc 1 180 0
 2135 00a2 3E4B     		ldr	r3, .L130+32
 2136 00a4 1B78     		ldrb	r3, [r3]
 2137 00a6 002B     		cmp	r3, #0
 2138 00a8 07D0     		beq	.L118
 181:main.c        ****                             UART_UartPutString(txData);
 2139              		.loc 1 181 0
 2140 00aa 3D4C     		ldr	r4, .L130+36
 2141 00ac 3E49     		ldr	r1, .L130+44
 2142 00ae 2000     		movs	r0, r4
 2143 00b0 FFF7FEFF 		bl	sprintf
 2144              	.LVL158:
 182:main.c        ****                         }
 2145              		.loc 1 182 0
 2146 00b4 2000     		movs	r0, r4
 2147 00b6 FFF7FEFF 		bl	UART_UartPutString
 2148              	.LVL159:
 2149              	.L118:
 189:main.c        ****                         if(uart_debug) {
 2150              		.loc 1 189 0
 2151 00ba 384B     		ldr	r3, .L130+32
 2152 00bc 9A7A     		ldrb	r2, [r3, #10]
 2153 00be 012A     		cmp	r2, #1
 2154 00c0 20D1     		bne	.L122
 190:main.c        ****                             sprintf(txData, "B1: %d, B3: %d done %x\r\n",Can_rx_angle.b1, Can_rx_an
 2155              		.loc 1 190 0
 2156 00c2 1B78     		ldrb	r3, [r3]
 2157 00c4 002B     		cmp	r3, #0
 2158 00c6 0DD0     		beq	.L123
 191:main.c        ****                             UART_UartPutString(txData);
 2159              		.loc 1 191 0
 2160 00c8 384B     		ldr	r3, .L130+48
 2161 00ca 5A78     		ldrb	r2, [r3, #1]
 2162 00cc DB78     		ldrb	r3, [r3, #3]
 2163 00ce 3249     		ldr	r1, .L130+28
 2164 00d0 4979     		ldrb	r1, [r1, #5]
 2165 00d2 334C     		ldr	r4, .L130+36
 2166 00d4 0091     		str	r1, [sp]
 2167 00d6 3649     		ldr	r1, .L130+52
 2168 00d8 2000     		movs	r0, r4
 2169 00da FFF7FEFF 		bl	sprintf
 2170              	.LVL160:
 192:main.c        ****                         }
ARM GAS  C:\Users\austc\AppData\Local\Temp\ccxzq70h.s 			page 55


 2171              		.loc 1 192 0
 2172 00de 2000     		movs	r0, r4
 2173 00e0 FFF7FEFF 		bl	UART_UartPutString
 2174              	.LVL161:
 2175              	.L123:
 195:main.c        ****                         maxV = Can_rx_angle.b3;
 2176              		.loc 1 195 0
 2177 00e4 2B4A     		ldr	r2, .L130+24
 2178 00e6 0021     		movs	r1, #0
 2179 00e8 1172     		strb	r1, [r2, #8]
 196:main.c        ****                         i = 0;
 2180              		.loc 1 196 0
 2181 00ea 304B     		ldr	r3, .L130+48
 2182 00ec D878     		ldrb	r0, [r3, #3]
 2183 00ee 1077     		strb	r0, [r2, #28]
 197:main.c        ****                         
 2184              		.loc 1 197 0
 2185 00f0 5160     		str	r1, [r2, #4]
 201:main.c        ****                         set_Position(final_angle);
 2186              		.loc 1 201 0
 2187 00f2 9878     		ldrb	r0, [r3, #2]
 2188 00f4 0002     		lsls	r0, r0, #8
 2189 00f6 5B78     		ldrb	r3, [r3, #1]
 2190 00f8 1843     		orrs	r0, r3
 2191 00fa 00B2     		sxth	r0, r0
 2192 00fc 1080     		strh	r0, [r2]
 202:main.c        ****                     }
 2193              		.loc 1 202 0
 2194 00fe FFF7FEFF 		bl	set_Position
 2195              	.LVL162:
 2196 0102 14E0     		b	.L124
 2197              	.L122:
 204:main.c        ****                         command_failed.done = 0;
 2198              		.loc 1 204 0
 2199 0104 244B     		ldr	r3, .L130+28
 2200 0106 5B79     		ldrb	r3, [r3, #5]
 2201 0108 002B     		cmp	r3, #0
 2202 010a 10D1     		bne	.L124
 205:main.c        ****                         command_failed.param = 0x04;
 2203              		.loc 1 205 0
 2204 010c 1C4B     		ldr	r3, .L130+4
 2205 010e 0021     		movs	r1, #0
 2206 0110 9970     		strb	r1, [r3, #2]
 206:main.c        ****                         if(uart_debug) {
 2207              		.loc 1 206 0
 2208 0112 0431     		adds	r1, r1, #4
 2209 0114 5970     		strb	r1, [r3, #1]
 207:main.c        ****                             sprintf(txData, "Mode is not set to 1, mode is %d\r\n", mode);
 2210              		.loc 1 207 0
 2211 0116 214B     		ldr	r3, .L130+32
 2212 0118 1B78     		ldrb	r3, [r3]
 2213 011a 002B     		cmp	r3, #0
 2214 011c 07D0     		beq	.L124
 208:main.c        ****                             UART_UartPutString(txData);
 2215              		.loc 1 208 0
 2216 011e 204C     		ldr	r4, .L130+36
 2217 0120 2449     		ldr	r1, .L130+56
ARM GAS  C:\Users\austc\AppData\Local\Temp\ccxzq70h.s 			page 56


 2218 0122 2000     		movs	r0, r4
 2219 0124 FFF7FEFF 		bl	sprintf
 2220              	.LVL163:
 209:main.c        ****                         }
 2221              		.loc 1 209 0
 2222 0128 2000     		movs	r0, r4
 2223 012a FFF7FEFF 		bl	UART_UartPutString
 2224              	.LVL164:
 2225              	.L124:
 214:main.c        ****                     Can_rx_angle.done = 1;
 2226              		.loc 1 214 0
 2227 012e 1B4B     		ldr	r3, .L130+32
 2228 0130 9B7A     		ldrb	r3, [r3, #10]
 2229 0132 012B     		cmp	r3, #1
 2230 0134 04D9     		bls	.L125
 215:main.c        ****                     Can_rx_pwm.done = 1;
 2231              		.loc 1 215 0
 2232 0136 0123     		movs	r3, #1
 2233 0138 1C4A     		ldr	r2, .L130+48
 2234 013a 5371     		strb	r3, [r2, #5]
 216:main.c        ****                 }
 2235              		.loc 1 216 0
 2236 013c 164A     		ldr	r2, .L130+28
 2237 013e 5371     		strb	r3, [r2, #5]
 2238              	.L125:
 240:main.c        ****                 if(uart_debug) {
 2239              		.loc 1 240 0
 2240 0140 164B     		ldr	r3, .L130+32
 2241 0142 9B7B     		ldrb	r3, [r3, #14]
 2242 0144 002B     		cmp	r3, #0
 2243 0146 0DD0     		beq	.L126
 241:main.c        ****                     sprintf(txData,"\nSending Data... \r\n");
 2244              		.loc 1 241 0
 2245 0148 144B     		ldr	r3, .L130+32
 2246 014a 1B78     		ldrb	r3, [r3]
 2247 014c 002B     		cmp	r3, #0
 2248 014e 04D0     		beq	.L127
 242:main.c        ****                    // UART_UartPutString(txData);
 2249              		.loc 1 242 0
 2250 0150 1422     		movs	r2, #20
 2251 0152 1949     		ldr	r1, .L130+60
 2252 0154 1248     		ldr	r0, .L130+36
 2253 0156 FFF7FEFF 		bl	memcpy
 2254              	.LVL165:
 2255              	.L127:
 245:main.c        ****                 send_data = 0;
 2256              		.loc 1 245 0
 2257 015a FFF7FEFF 		bl	CAN_Send_Encoder
 2258              	.LVL166:
 246:main.c        ****             }
 2259              		.loc 1 246 0
 2260 015e 0022     		movs	r2, #0
 2261 0160 0E4B     		ldr	r3, .L130+32
 2262 0162 9A73     		strb	r2, [r3, #14]
 2263              	.L126:
 250:main.c        ****                 CAN_Send_Model();
 2264              		.loc 1 250 0
ARM GAS  C:\Users\austc\AppData\Local\Temp\ccxzq70h.s 			page 57


 2265 0164 0B4B     		ldr	r3, .L130+24
 2266 0166 5B7A     		ldrb	r3, [r3, #9]
 2267 0168 002B     		cmp	r3, #0
 2268 016a 00D1     		bne	.LCB1999
 2269 016c 68E7     		b	.L117	@long jump
 2270              	.LCB1999:
 251:main.c        ****                 model_req = 0;
 2271              		.loc 1 251 0
 2272 016e FFF7FEFF 		bl	CAN_Send_Model
 2273              	.LVL167:
 252:main.c        ****             }
 2274              		.loc 1 252 0
 2275 0172 0022     		movs	r2, #0
 2276 0174 074B     		ldr	r3, .L130+24
 2277 0176 5A72     		strb	r2, [r3, #9]
 2278 0178 62E7     		b	.L117
 2279              	.L131:
 2280 017a C046     		.align	2
 2281              	.L130:
 2282 017c 00000000 		.word	stall
 2283 0180 00000000 		.word	command_failed
 2284 0184 00000000 		.word	invalid_arg
 2285 0188 00000000 		.word	message
 2286 018c 00000000 		.word	data
 2287 0190 00000000 		.word	pwm_compare
 2288 0194 00000000 		.word	.LANCHOR1
 2289 0198 00000000 		.word	Can_rx_pwm
 2290 019c 00000000 		.word	.LANCHOR0
 2291 01a0 00000000 		.word	txData
 2292 01a4 30020000 		.word	.LC113
 2293 01a8 4C020000 		.word	.LC116
 2294 01ac 00000000 		.word	Can_rx_angle
 2295 01b0 70020000 		.word	.LC119
 2296 01b4 8C020000 		.word	.LC121
 2297 01b8 B0020000 		.word	.LC123
 2298              		.cfi_endproc
 2299              	.LFE37:
 2300              		.size	main, .-main
 2301              		.global	drive
 2302              		.comm	message,16,4
 2303              		.comm	data,8,4
 2304              		.comm	txData,100,4
 2305              		.global	emergency
 2306              		.global	mailbox
 2307              		.comm	invalid_arg,3,4
 2308              		.comm	command_failed,3,4
 2309              		.comm	stall,3,4
 2310              		.comm	Can_rx_angle,6,4
 2311              		.comm	Can_rx_pwm,6,4
 2312              		.global	disable_limit
 2313              		.global	model_req
 2314              		.global	send_data
 2315              		.global	mode
 2316              		.global	maxV
 2317              		.global	complete
 2318              		.comm	ratio,8,8
 2319              		.comm	kd,4,4
ARM GAS  C:\Users\austc\AppData\Local\Temp\ccxzq70h.s 			page 58


 2320              		.comm	ki,4,4
 2321              		.comm	kp,4,4
 2322              		.global	lastp
 2323              		.global	i
 2324              		.global	final_angle
 2325              		.global	flipEncoder
 2326              		.global	invalidate
 2327              		.comm	pwm_compare,4,4
 2328              		.comm	GEAR_RATIO,4,4
 2329              		.global	uart_debug
 2330              		.comm	CAN_TIMEOUT,4,4
 2331              		.global	CAN_RX_MAILBOX_0
 2332              		.global	CAN_RX_MAILBOX_1
 2333              		.global	CAN_RX_MAILBOX_0_SHIFT
 2334              		.global	CAN_RX_MAILBOX_1_SHIFT
 2335              		.global	message_id
 2336              		.global	time_LED
 2337              		.data
 2338              		.align	2
 2339              		.set	.LANCHOR0,. + 0
 2340              		.type	uart_debug, %object
 2341              		.size	uart_debug, 1
 2342              	uart_debug:
 2343 0000 02       		.byte	2
 2344 0001 000000   		.space	3
 2345              		.type	CAN_RX_MAILBOX_0_SHIFT, %object
 2346              		.size	CAN_RX_MAILBOX_0_SHIFT, 4
 2347              	CAN_RX_MAILBOX_0_SHIFT:
 2348 0004 80000000 		.word	128
 2349              		.type	CAN_RX_MAILBOX_0, %object
 2350              		.size	CAN_RX_MAILBOX_0, 2
 2351              	CAN_RX_MAILBOX_0:
 2352 0008 0700     		.short	7
 2353              		.type	mode, %object
 2354              		.size	mode, 1
 2355              	mode:
 2356 000a 02       		.byte	2
 2357              		.type	flipEncoder, %object
 2358              		.size	flipEncoder, 1
 2359              	flipEncoder:
 2360 000b 01       		.byte	1
 2361              		.type	CAN_RX_MAILBOX_1_SHIFT, %object
 2362              		.size	CAN_RX_MAILBOX_1_SHIFT, 2
 2363              	CAN_RX_MAILBOX_1_SHIFT:
 2364 000c 0100     		.short	1
 2365              		.type	send_data, %object
 2366              		.size	send_data, 1
 2367              	send_data:
 2368 000e 01       		.byte	1
 2369              		.section	.rodata.str1.4,"aMS",%progbits,1
 2370              		.align	2
 2371              	.LC1:
 2372 0000 0A204361 		.ascii	"\012 Can rx triggered\012\000"
 2372      6E207278 
 2372      20747269 
 2372      67676572 
 2372      65640A00 
ARM GAS  C:\Users\austc\AppData\Local\Temp\ccxzq70h.s 			page 59


 2373              	.LC3:
 2374 0014 50302072 		.ascii	"P0 recieved\012\000"
 2374      65636965 
 2374      7665640A 
 2374      00
 2375 0021 000000   		.space	3
 2376              	.LC9:
 2377 0024 50312072 		.ascii	"P1 recieved\012\012\000"
 2377      65636965 
 2377      7665640A 
 2377      0A00
 2378 0032 0000     		.space	2
 2379              	.LC16:
 2380 0034 43414E5F 		.ascii	"CAN_Start():  %u\015\012\000"
 2380      53746172 
 2380      7428293A 
 2380      20202575 
 2380      0D0A00
 2381 0047 00       		.space	1
 2382              	.LC28:
 2383 0048 43414E20 		.ascii	"CAN dip setting:  %x Message ID: %ld\015\012\000"
 2383      64697020 
 2383      73657474 
 2383      696E673A 
 2383      20202578 
 2384 006f 00       		.space	1
 2385              	.LC31:
 2386 0070 43616E20 		.ascii	"Can shift: %d   P0Mailbox: %d P1Mailbox %d\015\012\000"
 2386      73686966 
 2386      743A2025 
 2386      64202020 
 2386      50304D61 
 2387 009d 000000   		.space	3
 2388              	.LC33:
 2389 00a0 64697361 		.ascii	"disable_limit: %d\015\012\000"
 2389      626C655F 
 2389      6C696D69 
 2389      743A2025 
 2389      640D0A00 
 2390              	.LC38:
 2391 00b4 50574D3A 		.ascii	"PWM:%d disable_limit: %d\015\012\000"
 2391      25642064 
 2391      69736162 
 2391      6C655F6C 
 2391      696D6974 
 2392 00cf 00       		.space	1
 2393              	.LC42:
 2394 00d0 50657269 		.ascii	"Period interupt triggerd %x\015\012\000"
 2394      6F642069 
 2394      6E746572 
 2394      75707420 
 2394      74726967 
 2395 00ee 0000     		.space	2
 2396              	.LC49:
 2397 00f0 4C696D69 		.ascii	"Limit interupt triggerd\015\012\000"
 2397      7420696E 
 2397      74657275 
ARM GAS  C:\Users\austc\AppData\Local\Temp\ccxzq70h.s 			page 60


 2397      70742074 
 2397      72696767 
 2398 010a 0000     		.space	2
 2399              	.LC56:
 2400 010c 43414E5F 		.ascii	"CAN_Send_Encoder: byte[0u] %x byte[1u] %x byte[2u] "
 2400      53656E64 
 2400      5F456E63 
 2400      6F646572 
 2400      3A206279 
 2401 013f 25782051 		.ascii	"%x QuadDec Count %d\015\012\000"
 2401      75616444 
 2401      65632043 
 2401      6F756E74 
 2401      2025640D 
 2402 0155 000000   		.space	3
 2403              	.LC62:
 2404 0158 54656C65 		.ascii	"Telemerty: byte[0u] %x byte[1u] %x\015\012\000"
 2404      6D657274 
 2404      793A2062 
 2404      7974655B 
 2404      30755D20 
 2405 017d 000000   		.space	3
 2406              	.LC68:
 2407 0180 4D6F6465 		.ascii	"Model: byte[0u] %x byte[1u] %x\015\012\000"
 2407      6C3A2062 
 2407      7974655B 
 2407      30755D20 
 2407      25782062 
 2408 01a1 000000   		.space	3
 2409              	.LC74:
 2410 01a4 4572726F 		.ascii	"Error: byte[0u] %x byte[1u] %x byte[2u] %x\015\012\000"
 2410      723A2062 
 2410      7974655B 
 2410      30755D20 
 2410      25782062 
 2411 01d1 000000   		.space	3
 2412              	.LC84:
 2413 01d4 64656772 		.ascii	"degree: %d ticks: %d\015\012\000"
 2413      65653A20 
 2413      25642074 
 2413      69636B73 
 2413      3A202564 
 2414 01eb 00       		.space	1
 2415              	.LC88:
 2416 01ec 703A2025 		.ascii	"p: %d\015\012\000"
 2416      640D0A00 
 2417              	.LC92:
 2418 01f4 703A2025 		.ascii	"p: %d, i: %d d %d current %d\015\012\000"
 2418      642C2069 
 2418      3A202564 
 2418      20642025 
 2418      64206375 
 2419 0213 00       		.space	1
 2420              	.LC99:
 2421 0214 636F6D70 		.ascii	"complete: %d\015\012\000"
 2421      6C657465 
 2421      3A202564 
ARM GAS  C:\Users\austc\AppData\Local\Temp\ccxzq70h.s 			page 61


 2421      0D0A00
 2422 0223 00       		.space	1
 2423              	.LC102:
 2424 0224 50574D3A 		.ascii	"PWM: %d\015\012\000"
 2424      2025640D 
 2424      0A00
 2425 022e 0000     		.space	2
 2426              	.LC113:
 2427 0230 42313A20 		.ascii	"B1: %d, B2: %d done %x\015\012\000"
 2427      25642C20 
 2427      42323A20 
 2427      25642064 
 2427      6F6E6520 
 2428 0249 000000   		.space	3
 2429              	.LC116:
 2430 024c 4D6F6465 		.ascii	"Mode is not set to 0, mode is %d\015\012\000"
 2430      20697320 
 2430      6E6F7420 
 2430      73657420 
 2430      746F2030 
 2431 026f 00       		.space	1
 2432              	.LC119:
 2433 0270 42313A20 		.ascii	"B1: %d, B3: %d done %x\015\012\000"
 2433      25642C20 
 2433      42333A20 
 2433      25642064 
 2433      6F6E6520 
 2434 0289 000000   		.space	3
 2435              	.LC121:
 2436 028c 4D6F6465 		.ascii	"Mode is not set to 1, mode is %d\015\012\000"
 2436      20697320 
 2436      6E6F7420 
 2436      73657420 
 2436      746F2031 
 2437 02af 00       		.space	1
 2438              	.LC123:
 2439 02b0 0A53656E 		.ascii	"\012Sending Data... \015\012\000"
 2439      64696E67 
 2439      20446174 
 2439      612E2E2E 
 2439      200D0A00 
 2440              		.bss
 2441              		.align	2
 2442              		.set	.LANCHOR1,. + 0
 2443              		.type	final_angle, %object
 2444              		.size	final_angle, 2
 2445              	final_angle:
 2446 0000 0000     		.space	2
 2447 0002 0000     		.space	2
 2448              		.type	i, %object
 2449              		.size	i, 4
 2450              	i:
 2451 0004 00000000 		.space	4
 2452              		.type	complete, %object
 2453              		.size	complete, 1
 2454              	complete:
 2455 0008 00       		.space	1
ARM GAS  C:\Users\austc\AppData\Local\Temp\ccxzq70h.s 			page 62


 2456              		.type	model_req, %object
 2457              		.size	model_req, 1
 2458              	model_req:
 2459 0009 00       		.space	1
 2460              		.type	CAN_RX_MAILBOX_1, %object
 2461              		.size	CAN_RX_MAILBOX_1, 2
 2462              	CAN_RX_MAILBOX_1:
 2463 000a 0000     		.space	2
 2464              		.type	emergency, %object
 2465              		.size	emergency, 1
 2466              	emergency:
 2467 000c 00       		.space	1
 2468 000d 000000   		.space	3
 2469              		.type	message_id, %object
 2470              		.size	message_id, 4
 2471              	message_id:
 2472 0010 00000000 		.space	4
 2473              		.type	disable_limit, %object
 2474              		.size	disable_limit, 1
 2475              	disable_limit:
 2476 0014 00       		.space	1
 2477              		.type	invalidate, %object
 2478              		.size	invalidate, 1
 2479              	invalidate:
 2480 0015 00       		.space	1
 2481              		.type	time_LED, %object
 2482              		.size	time_LED, 1
 2483              	time_LED:
 2484 0016 00       		.space	1
 2485 0017 00       		.space	1
 2486              		.type	lastp, %object
 2487              		.size	lastp, 4
 2488              	lastp:
 2489 0018 00000000 		.space	4
 2490              		.type	maxV, %object
 2491              		.size	maxV, 1
 2492              	maxV:
 2493 001c 00       		.space	1
 2494              		.type	drive, %object
 2495              		.size	drive, 1
 2496              	drive:
 2497 001d 00       		.space	1
 2498 001e 0000     		.space	2
 2499              		.type	mailbox, %object
 2500              		.size	mailbox, 4
 2501              	mailbox:
 2502 0020 00000000 		.space	4
 2503              		.text
 2504              	.Letext0:
 2505              		.file 2 "c:\\program files (x86)\\cypress\\psoc creator\\4.2\\psoc creator\\import\\gnu\\arm\\5.4.
 2506              		.file 3 "c:\\program files (x86)\\cypress\\psoc creator\\4.2\\psoc creator\\import\\gnu\\arm\\5.4.
 2507              		.file 4 "Generated_Source\\PSoC4/cytypes.h"
 2508              		.file 5 "./cyapicallbacks.h"
 2509              		.file 6 "Generated_Source\\PSoC4/CAN.h"
 2510              		.file 7 "Generated_Source\\PSoC4/QuadDec.h"
 2511              		.file 8 "Generated_Source\\PSoC4/UART_SPI_UART.h"
 2512              		.file 9 "Generated_Source\\PSoC4/PWM_Motor.h"
ARM GAS  C:\Users\austc\AppData\Local\Temp\ccxzq70h.s 			page 63


 2513              		.file 10 "Generated_Source\\PSoC4/Status_Reg_Switches.h"
 2514              		.file 11 "Generated_Source\\PSoC4/Timer_1.h"
 2515              		.file 12 "Generated_Source\\PSoC4/CyLib.h"
 2516              		.file 13 "Generated_Source\\PSoC4/isr_Limit_1.h"
 2517              		.file 14 "Generated_Source\\PSoC4/isr_period.h"
 2518              		.file 15 "Generated_Source\\PSoC4/UART.h"
 2519              		.file 16 "c:\\program files (x86)\\cypress\\psoc creator\\4.2\\psoc creator\\import\\gnu\\arm\\5.4
 2520              		.file 17 "Generated_Source\\PSoC4/Can_addr.h"
 2521              		.file 18 "Generated_Source\\PSoC4/Pin_Direction.h"