ARM GAS  C:\Users\austc\AppData\Local\Temp\ccxzq70h.s 			page 1


   1              		.syntax unified
   2              		.cpu cortex-m0
   3              		.fpu softvfp
   4              		.eabi_attribute 20, 1
   5              		.eabi_attribute 21, 1
   6              		.eabi_attribute 23, 3
   7              		.eabi_attribute 24, 1
   8              		.eabi_attribute 25, 1
   9              		.eabi_attribute 26, 1
  10              		.eabi_attribute 30, 1
  11              		.eabi_attribute 34, 0
  12              		.eabi_attribute 18, 4
  13              		.thumb
  14              		.syntax unified
  15              		.file	"main.c"
  16              		.text
  17              	.Ltext0:
  18              		.cfi_sections	.debug_frame
  19              		.section	.text.ISR_CAN,"ax",%progbits
  20              		.align	2
  21              		.global	ISR_CAN
  22              		.code	16
  23              		.thumb_func
  24              		.type	ISR_CAN, %function
  25              	ISR_CAN:
  26              	.LFB47:
  27              		.file 1 "main.c"
   1:main.c        **** /* ========================================
   2:main.c        ****  *
   3:main.c        ****  * Copyright YOUR COMPANY, THE YEAR
   4:main.c        ****  * All Rights Reserved
   5:main.c        ****  * UNPUBLISHED, LICENSED SOFTWARE.
   6:main.c        ****  *
   7:main.c        ****  * CONFIDENTIAL AND PROPRIETARY INFORMATION
   8:main.c        ****  * WHICH IS THE PROPERTY OF your company.
   9:main.c        ****  *
  10:main.c        ****  * ========================================
  11:main.c        **** */
  12:main.c        **** #include <project.h>
  13:main.c        **** #include "cyapicallbacks.h"
  14:main.c        **** #include <stdio.h>
  15:main.c        **** 
  16:main.c        **** //#define REV2
  17:main.c        **** #define LED_ON   (0u)
  18:main.c        **** #define LED_OFF  (1u)
  19:main.c        **** 
  20:main.c        **** //LED
  21:main.c        **** uint8 time_LED = 0;
  22:main.c        **** 
  23:main.c        **** //CAN variables
  24:main.c        **** uint32 message_id = 0;
  25:main.c        **** #define MESSAGE_IDE             (0u)    /* Standard message */
  26:main.c        **** #define MESSAGE_IRQ             (0u)    /* No transmit IRQ */
  27:main.c        **** #define MESSAGE_RTR             (0u)    /* No RTR */
  28:main.c        **** uint16 CAN_RX_MAILBOX_1_SHIFT  = 0b1;
  29:main.c        **** uint32 CAN_RX_MAILBOX_0_SHIFT  = 0b10000000;
  30:main.c        **** uint16 CAN_RX_MAILBOX_1 = 0u;
ARM GAS  C:\Users\austc\AppData\Local\Temp\ccxzq70h.s 			page 2


  31:main.c        **** uint16 CAN_RX_MAILBOX_0 = 7u;
  32:main.c        **** int CAN_TIMEOUT;
  33:main.c        **** 
  34:main.c        **** CY_ISR_PROTO(ISR_CAN);
  35:main.c        **** 
  36:main.c        **** //Uart variables
  37:main.c        **** volatile uint8 uart_debug = 2;
  38:main.c        **** #define TX_DATA_SIZE            (100u)
  39:main.c        **** #define PWM_PERIOD = 255;
  40:main.c        **** 
  41:main.c        **** 
  42:main.c        **** //drive varaible
  43:main.c        **** int GEAR_RATIO;
  44:main.c        **** int pwm_compare;
  45:main.c        **** uint8 invalidate = 0;
  46:main.c        **** 
  47:main.c        **** //PID varaibles
  48:main.c        **** int8 flipEncoder = 1;
  49:main.c        **** int16 final_angle = 0;
  50:main.c        **** int i = 0;
  51:main.c        **** int lastp = 0;
  52:main.c        **** int kp;
  53:main.c        **** int ki;
  54:main.c        **** int kd;
  55:main.c        **** double ratio;
  56:main.c        **** uint8 complete = 0;
  57:main.c        **** uint8 maxV = 0;
  58:main.c        **** 
  59:main.c        **** //drive mode
  60:main.c        **** uint8 mode = 2;
  61:main.c        **** 
  62:main.c        **** //flags
  63:main.c        **** uint8 send_data = 1;
  64:main.c        **** uint8 model_req = 0;
  65:main.c        **** uint8 disable_limit = 0;
  66:main.c        **** 
  67:main.c        **** //Status and Data Structs
  68:main.c        **** struct Can_data Can_rx_pwm, Can_rx_angle;
  69:main.c        **** struct Error stall;
  70:main.c        **** struct Error command_failed;
  71:main.c        **** struct Error invalid_arg;
  72:main.c        **** 
  73:main.c        **** 
  74:main.c        **** int mailbox = 0x000;
  75:main.c        **** uint8 emergency = 0;
  76:main.c        **** char8 txData[TX_DATA_SIZE];
  77:main.c        **** /* Global variables used to store configuration and data for BASIC CAN mailbox */
  78:main.c        **** CAN_DATA_BYTES_MSG data;
  79:main.c        **** CAN_TX_MSG message;
  80:main.c        **** 
  81:main.c        **** volatile uint8 drive = 0;
  82:main.c        **** 
  83:main.c        **** 
  84:main.c        **** CY_ISR(Period_Reset_Handler) {
  85:main.c        ****     int timer = Timer_1_ReadStatusRegister();
  86:main.c        ****     if(uart_debug) {
  87:main.c        ****         sprintf(txData,"Period interupt triggerd %x\r\n", timer);
ARM GAS  C:\Users\austc\AppData\Local\Temp\ccxzq70h.s 			page 3


  88:main.c        ****         //UART_UartPutString(txData);
  89:main.c        ****     }
  90:main.c        ****     send_data = 1;
  91:main.c        ****     invalidate++;
  92:main.c        ****     time_LED++;
  93:main.c        ****     if(invalidate >= 20){
  94:main.c        ****         set_PWM(0);   
  95:main.c        ****         Can_rx_pwm.done = 1;
  96:main.c        ****     }
  97:main.c        ****     
  98:main.c        ****     #ifdef REV2
  99:main.c        ****         if(time_LED >= 5){
 100:main.c        ****             Test_LED_Write(LED_OFF);
 101:main.c        ****             
 102:main.c        ****             
 103:main.c        ****         }
 104:main.c        ****     #endif
 105:main.c        **** }
 106:main.c        ****   
 107:main.c        **** CY_ISR(Pin_Limit_Handler){
 108:main.c        ****     if(uart_debug) {
 109:main.c        ****         sprintf(txData,"Limit interupt triggerd\r\n");
 110:main.c        ****         UART_UartPutString(txData);
 111:main.c        ****     }
 112:main.c        ****     set_PWM(pwm_compare);
 113:main.c        ****     QuadDec_SetCounter(0);
 114:main.c        **** }
 115:main.c        **** 
 116:main.c        **** int main(void)
 117:main.c        **** { 
 118:main.c        ****     #ifdef REV2
 119:main.c        ****         Test_LED_Write(LED_ON);
 120:main.c        ****         Error_Write(LED_ON);
 121:main.c        ****     #endif
 122:main.c        ****     stall.code = 0x01;
 123:main.c        ****     stall.done = 1;
 124:main.c        ****     command_failed.code = 0x02;
 125:main.c        ****     command_failed.done = 1;
 126:main.c        ****     invalid_arg.code = 0x03;
 127:main.c        ****     invalid_arg.done = 1;
 128:main.c        ****     uint8 error;
 129:main.c        ****         /* BASIC CAN mailbox configuration */
 130:main.c        ****     message.dlc = 5u;
 131:main.c        ****     message.ide = MESSAGE_IDE;
 132:main.c        ****     message.irq = MESSAGE_IRQ;
 133:main.c        ****     message.msg = &data;
 134:main.c        ****     message.rtr = MESSAGE_RTR;
 135:main.c        ****     
 136:main.c        ****     #ifdef REV2
 137:main.c        ****         Test_LED_Write(0);
 138:main.c        ****         Error_Write(0);
 139:main.c        ****     #endif
 140:main.c        **** 
 141:main.c        ****     initialize();
 142:main.c        ****     initialize_can_addr();
 143:main.c        ****     int up = 0;
 144:main.c        ****     int test = 0;
ARM GAS  C:\Users\austc\AppData\Local\Temp\ccxzq70h.s 			page 4


 145:main.c        ****     pwm_compare = 0;
 146:main.c        ****     set_PWM(0);
 147:main.c        ****     
 148:main.c        ****     #ifdef REV2
 149:main.c        ****         Test_LED_Write(LED_OFF);
 150:main.c        ****         Error_Write(LED_OFF);
 151:main.c        ****     #endif
 152:main.c        ****     
 153:main.c        ****     for(;;)
 154:main.c        ****     {
 155:main.c        ****         if(!emergency) {
 156:main.c        **** 
 157:main.c        ****             //Tests if there are still drive packets that still need to be done
 158:main.c        ****             //drive = !Can_rx_pwm.done | !Can_rx_angle.done;
 159:main.c        ****             
 160:main.c        ****             //Handles Can drive recieve packets
 161:main.c        ****             //if (drive)
 162:main.c        ****             //{           
 163:main.c        ****                 //Mode 0 packets
 164:main.c        ****                 if(!Can_rx_pwm.done) {
 165:main.c        ****                     if(mode == 0) {
 166:main.c        ****                         if(uart_debug) {
 167:main.c        ****                             sprintf(txData, "B1: %d, B2: %d done %x\r\n",Can_rx_pwm.b1, Can_rx_pwm.
 168:main.c        ****                             UART_UartPutString(txData);
 169:main.c        ****                         }
 170:main.c        ****                         Can_rx_pwm.done = 1;
 171:main.c        ****                         if(Can_rx_pwm.b2 & 0b01) {
 172:main.c        ****                             set_PWM((int)Can_rx_pwm.b1);
 173:main.c        ****                         }
 174:main.c        ****                         else {
 175:main.c        ****                             set_PWM(-(int)Can_rx_pwm.b1);
 176:main.c        ****                         }
 177:main.c        ****                     } else {
 178:main.c        ****                         command_failed.done = 0;
 179:main.c        ****                         command_failed.param = 0x02;
 180:main.c        ****                         if(uart_debug) {
 181:main.c        ****                             sprintf(txData, "Mode is not set to 0, mode is %d\r\n",mode);
 182:main.c        ****                             UART_UartPutString(txData);
 183:main.c        ****                         }
 184:main.c        ****                     }
 185:main.c        ****                 }
 186:main.c        ****                 
 187:main.c        ****                 // Mode 1 packets
 188:main.c        ****                // if(!Can_rx_angle.done){
 189:main.c        ****                     if(mode == 1){
 190:main.c        ****                         if(uart_debug) {
 191:main.c        ****                             sprintf(txData, "B1: %d, B3: %d done %x\r\n",Can_rx_angle.b1, Can_rx_an
 192:main.c        ****                             UART_UartPutString(txData);
 193:main.c        ****                         }
 194:main.c        ****                         //Can_rx_angle.done = 1;
 195:main.c        ****                         complete = 0;
 196:main.c        ****                         maxV = Can_rx_angle.b3;
 197:main.c        ****                         i = 0;
 198:main.c        ****                         
 199:main.c        ****                        // final_angle = final_angle | (int16)Can_rx_angle.b2 << 8;
 200:main.c        ****                        // final_angle = final_angle | (int16)Can_rx_angle.b1;
 201:main.c        ****                         final_angle = ((uint16_t)Can_rx_angle.b2) << 8 | Can_rx_angle.b1;
ARM GAS  C:\Users\austc\AppData\Local\Temp\ccxzq70h.s 			page 5


 202:main.c        ****                         set_Position(final_angle);
 203:main.c        ****                     }
 204:main.c        ****                     else if(!Can_rx_pwm.done) {
 205:main.c        ****                         command_failed.done = 0;
 206:main.c        ****                         command_failed.param = 0x04;
 207:main.c        ****                         if(uart_debug) {
 208:main.c        ****                             sprintf(txData, "Mode is not set to 1, mode is %d\r\n", mode);
 209:main.c        ****                             UART_UartPutString(txData);
 210:main.c        ****                         }
 211:main.c        ****                     }
 212:main.c        ****                 //}
 213:main.c        ****                 
 214:main.c        ****                 if(mode != 1 && mode != 0) {
 215:main.c        ****                     Can_rx_angle.done = 1;
 216:main.c        ****                     Can_rx_pwm.done = 1;
 217:main.c        ****                 }
 218:main.c        ****             //}
 219:main.c        ****             
 220:main.c        ****             //Tests if there are any errors
 221:main.c        ****           //  error = !stall.done | !invalid_arg.done | !command_failed.done; 
 222:main.c        ****             
 223:main.c        ****             //sends errors over CAN
 224:main.c        ****             /*if(error){
 225:main.c        ****                 if(!stall.done) {
 226:main.c        ****                     CAN_Send_Error(stall.code, stall.param);
 227:main.c        ****                     stall.done = 1;
 228:main.c        ****                 }
 229:main.c        ****                 if(!invalid_arg.done) {
 230:main.c        ****                     CAN_Send_Error(invalid_arg.code, invalid_arg.param);
 231:main.c        ****                     invalid_arg.done = 1;
 232:main.c        ****                 }
 233:main.c        ****                 if(!command_failed.done) {
 234:main.c        ****                     CAN_Send_Error(command_failed.code, command_failed.param);
 235:main.c        ****                     command_failed.done = 1;
 236:main.c        ****                 }
 237:main.c        ****             }*/
 238:main.c        ****             
 239:main.c        ****             //Sends periodic data
 240:main.c        ****             if(send_data) {
 241:main.c        ****                 if(uart_debug) {
 242:main.c        ****                     sprintf(txData,"\nSending Data... \r\n");
 243:main.c        ****                    // UART_UartPutString(txData);
 244:main.c        ****                 }
 245:main.c        ****                 CAN_Send_Encoder(); 
 246:main.c        ****                 send_data = 0;
 247:main.c        ****             }
 248:main.c        ****             
 249:main.c        ****             //Sends model
 250:main.c        ****             if(model_req) {
 251:main.c        ****                 CAN_Send_Model();
 252:main.c        ****                 model_req = 0;
 253:main.c        ****             }
 254:main.c        ****             //PWM test code
 255:main.c        ****             /*CyDelay(100);
 256:main.c        ****             if(up){
 257:main.c        ****                 test += 10;
 258:main.c        ****             } else {
ARM GAS  C:\Users\austc\AppData\Local\Temp\ccxzq70h.s 			page 6


 259:main.c        ****                 test -= 10;   
 260:main.c        ****             }
 261:main.c        ****             if(test > 255) {
 262:main.c        ****                 up = 0;   
 263:main.c        ****             } else if (test < -255) {
 264:main.c        ****                 up = 1;
 265:main.c        ****             }
 266:main.c        ****             set_PWM(test);
 267:main.c        ****             */
 268:main.c        **** 
 269:main.c        ****         }
 270:main.c        ****     }
 271:main.c        **** }
 272:main.c        **** 
 273:main.c        **** void emergency_halt(void) {
 274:main.c        ****     PWM_Motor_Stop();
 275:main.c        ****     emergency = 1;
 276:main.c        ****     // stops all motors;
 277:main.c        ****     // waits for restart CAN signal.
 278:main.c        **** }
 279:main.c        **** 
 280:main.c        **** void initialize(void) {
 281:main.c        ****     
 282:main.c        ****     int can_start = CAN_Start();
 283:main.c        ****     Status_Reg_Switches_InterruptEnable();
 284:main.c        ****     Timer_1_Start();
 285:main.c        ****    // ADC_SAR_Seq_1_Start();
 286:main.c        ****     //ADC_SAR_Seq_1_StartConvert();
 287:main.c        ****     QuadDec_Start();
 288:main.c        ****     PWM_Motor_Start();  
 289:main.c        ****     
 290:main.c        ****     CAN_GlobalIntEnable();
 291:main.c        ****     CyIntSetVector(CAN_ISR_NUMBER, ISR_CAN);
 292:main.c        ****     CyGlobalIntEnable; /* Enable global interrupts. */
 293:main.c        ****     isr_Limit_1_StartEx(Pin_Limit_Handler);
 294:main.c        ****     isr_period_StartEx(Period_Reset_Handler);
 295:main.c        ****     
 296:main.c        ****     if(uart_debug) {
 297:main.c        ****         UART_Start();
 298:main.c        ****         sprintf(txData, "CAN_Start():  %u\r\n",can_start);
 299:main.c        ****         UART_UartPutString(txData); 
 300:main.c        ****     }
 301:main.c        **** }
 302:main.c        **** 
 303:main.c        **** //Recieve:
 304:main.c        **** //1 00010 11010 0x45A General
 305:main.c        **** //1 00010 10000 0x450 BBB to base rotation
 306:main.c        **** //1 00010 10001 0x451 
 307:main.c        **** //1 00010 10010 0x452
 308:main.c        **** //1 00010 10011 0x453
 309:main.c        **** //1 00010 10100 0x454
 310:main.c        **** //1 00010 10101 0x455
 311:main.c        **** //1 00010 10110 0x456
 312:main.c        **** //Send:
 313:main.c        **** //1 10000 00010 0x602 base rotation to BBB 
 314:main.c        **** //1 10001 00010 0x622 shoulder to BBB
 315:main.c        **** //1 10010 00010 0x642 elbow ""
ARM GAS  C:\Users\austc\AppData\Local\Temp\ccxzq70h.s 			page 7


 316:main.c        **** //1 10011 00010 0x662 forearm rotation ""
 317:main.c        **** //1 10100 00010 0x682 diff wrist 1 ""
 318:main.c        **** //1 10101 00010 0x6A2 diff wrist 2 ""
 319:main.c        **** //1 10110 00010 0x6C2 hand ""
 320:main.c        **** void initialize_can_addr(void) {
 321:main.c        ****     uint8 setting = Can_addr_Read();
 322:main.c        ****     uint8 shift = 0;
 323:main.c        ****     switch(Can_addr_Read()) {
 324:main.c        ****         case 0b000: //Base rotation
 325:main.c        ****             message_id = 0b10000;
 326:main.c        ****             shift = 0;
 327:main.c        ****             ratio = 1;
 328:main.c        ****             break;
 329:main.c        ****         case 0b001: // shoulder
 330:main.c        ****             message_id = 0b10001;
 331:main.c        ****             shift = 1;
 332:main.c        ****             ratio = 14.45;
 333:main.c        ****             #ifdef REV2
 334:main.c        ****                 flipEncoder = 1;
 335:main.c        ****             #endif
 336:main.c        ****             kp = 50;
 337:main.c        ****             ki = 12;
 338:main.c        ****             kd = 10;
 339:main.c        ****             break;
 340:main.c        ****         case 0b010: // elbow
 341:main.c        ****             message_id = 0b10010;
 342:main.c        ****             shift = 2;
 343:main.c        ****             ratio = 2.8;
 344:main.c        ****             break;
 345:main.c        ****         case 0b011: // forearm rotation
 346:main.c        ****             message_id = 0b10011;
 347:main.c        ****             disable_limit = 1;
 348:main.c        ****             shift = 3;
 349:main.c        ****             ratio = 1;
 350:main.c        **** 
 351:main.c        ****             break;
 352:main.c        ****         case 0b100: // diff wrist 1
 353:main.c        ****             message_id = 0b10100;
 354:main.c        ****             disable_limit = 1;
 355:main.c        ****             shift = 4;
 356:main.c        ****             ratio = 1.3888;
 357:main.c        ****             kp = 20;
 358:main.c        ****             ki = 30;
 359:main.c        ****             kd = 10;
 360:main.c        ****             flipEncoder = -1;
 361:main.c        ****             break;
 362:main.c        ****         case 0b101: // diff wrist 2
 363:main.c        ****             message_id = 0b10101;
 364:main.c        ****             disable_limit = 1;
 365:main.c        ****             flipEncoder = -1;
 366:main.c        ****             shift = 5;
 367:main.c        ****             ratio = 1.3888;
 368:main.c        ****             kp = 50;
 369:main.c        ****             ki = 40;
 370:main.c        ****             kd = 10;
 371:main.c        ****             break;
 372:main.c        ****         case 0b110: // hand
ARM GAS  C:\Users\austc\AppData\Local\Temp\ccxzq70h.s 			page 8


 373:main.c        ****             message_id = 0b10110;
 374:main.c        ****             shift = 6;
 375:main.c        ****             ratio = 1;
 376:main.c        ****             break;
 377:main.c        ****         default:
 378:main.c        ****             message_id = 0b11010;
 379:main.c        ****             shift = 7;
 380:main.c        ****             CAN_RX_MAILBOX_1_SHIFT = 0b10000000 << shift;
 381:main.c        ****             CAN_RX_MAILBOX_0_SHIFT = 0b10000000 << (shift+1);
 382:main.c        ****             CAN_RX_MAILBOX_0 = 15u;
 383:main.c        ****             CAN_RX_MAILBOX_1 = 14u;
 384:main.c        ****             break;
 385:main.c        ****     }
 386:main.c        ****     
 387:main.c        ****     if(shift != 7) {
 388:main.c        ****     CAN_RX_MAILBOX_0_SHIFT = CAN_RX_MAILBOX_0_SHIFT << shift;
 389:main.c        ****     CAN_RX_MAILBOX_1_SHIFT = CAN_RX_MAILBOX_1_SHIFT << shift;
 390:main.c        ****     CAN_RX_MAILBOX_0 += shift;
 391:main.c        ****     CAN_RX_MAILBOX_1 += shift;
 392:main.c        ****     }
 393:main.c        ****     set_CAN_ID(0b1);
 394:main.c        ****     
 395:main.c        ****     if(uart_debug) {
 396:main.c        ****         sprintf(txData, "CAN dip setting:  %x Message ID: %ld\r\n",setting, message_id);
 397:main.c        ****         UART_UartPutString(txData); 
 398:main.c        ****         sprintf(txData, "Can shift: %d   P0Mailbox: %d P1Mailbox %d\r\n",shift, CAN_RX_MAILBOX_0, C
 399:main.c        ****         UART_UartPutString(txData); 
 400:main.c        ****         sprintf(txData, "disable_limit: %d\r\n",disable_limit);
 401:main.c        ****         UART_UartPutString(txData); 
 402:main.c        ****     }
 403:main.c        **** }
 404:main.c        **** 
 405:main.c        **** void set_CAN_ID(uint32 priority) {
 406:main.c        ****     message.id = (priority << 10) | (message_id << 5) | 0b00010;
 407:main.c        **** }
 408:main.c        **** 
 409:main.c        ****     // takes between -255 and 255
 410:main.c        **** void set_PWM(int compare) {
 411:main.c        ****     pwm_compare = compare;
 412:main.c        ****     #ifdef REV2
 413:main.c        ****     compare = -compare;
 414:main.c        ****     #endif
 415:main.c        ****      if(uart_debug) {
 416:main.c        ****         sprintf(txData, "PWM:%d disable_limit: %d\r\n",compare,disable_limit);
 417:main.c        ****         UART_UartPutString(txData); 
 418:main.c        ****     }
 419:main.c        ****     invalidate = 0;
 420:main.c        ****     if (compare < -255 || compare > 255) { return; }
 421:main.c        ****     uint8 status = Status_Reg_Switches_Read();
 422:main.c        ****     if (compare < 0 && (!(status & 0b01) || disable_limit) ) {
 423:main.c        ****         Pin_Direction_Write(0);
 424:main.c        ****         PWM_Motor_WriteCompare(-compare);
 425:main.c        ****     } else if (compare > 0 && (!(status & 0b10) || disable_limit) ){
 426:main.c        ****         Pin_Direction_Write(1);
 427:main.c        ****         PWM_Motor_WriteCompare(compare);
 428:main.c        ****     } else {
 429:main.c        ****         PWM_Motor_WriteCompare(0);
ARM GAS  C:\Users\austc\AppData\Local\Temp\ccxzq70h.s 			page 9


 430:main.c        ****         
 431:main.c        ****     }
 432:main.c        **** }
 433:main.c        **** 
 434:main.c        **** void CAN_Send_Encoder(void){
 435:main.c        ****     int16 ticks = QuadDec_GetCounter();
 436:main.c        ****     int16 angle = (((double)ticks)/ratio)*10;
 437:main.c        ****     data.byte[0u] = 0x14u;
 438:main.c        ****     data.byte[1u] = LO8(angle);
 439:main.c        ****     data.byte[2u] = HI8(angle);
 440:main.c        ****     data.byte[3u] = 0;
 441:main.c        ****     data.byte[4u] = 0;
 442:main.c        ****     CAN_SendMsg(&message);
 443:main.c        ****     if(uart_debug == 2) {
 444:main.c        ****         sprintf(txData, "CAN_Send_Encoder: byte[0u] %x byte[1u] %x byte[2u] %x QuadDec Count %d\r\n
 445:main.c        ****             data.byte[0u],data.byte[1u],data.byte[2u],
 446:main.c        ****             QuadDec_GetCounter());
 447:main.c        ****         UART_UartPutString(txData);    
 448:main.c        ****     }
 449:main.c        **** }
 450:main.c        **** 
 451:main.c        **** void CAN_Send_Telemetry(void) {
 452:main.c        ****     data.byte[0u] = 0x18u;
 453:main.c        ****     data.byte[1u] = 0;
 454:main.c        ****     data.byte[2u] = 0;
 455:main.c        ****     data.byte[3u] = 0;
 456:main.c        ****     data.byte[4u] = 0;
 457:main.c        ****     CAN_SendMsg(&message);
 458:main.c        ****     if(uart_debug == 2) {
 459:main.c        ****         sprintf(txData, "Telemerty: byte[0u] %x byte[1u] %x\r\n",(uint8)data.byte[0u],(uint8)data.b
 460:main.c        ****         UART_UartPutString(txData); 
 461:main.c        ****     }
 462:main.c        **** }
 463:main.c        **** 
 464:main.c        **** void CAN_Send_Model(void) {
 465:main.c        ****     data.byte[0u] = 0x12u;
 466:main.c        ****     data.byte[1u] = 0x00u;
 467:main.c        ****     data.byte[2u] = 0;
 468:main.c        ****     data.byte[3u] = 0;
 469:main.c        ****     data.byte[4u] = 0;
 470:main.c        ****     CAN_SendMsg(&message);
 471:main.c        ****     if(uart_debug == 2) {
 472:main.c        ****         sprintf(txData, "Model: byte[0u] %x byte[1u] %x\r\n",data.byte[0u],data.byte[1u]);
 473:main.c        ****         UART_UartPutString(txData); 
 474:main.c        ****     }
 475:main.c        **** }
 476:main.c        **** 
 477:main.c        **** void CAN_Send_Error(uint8 code, uint8 param) {
 478:main.c        ****     data.byte[0u] = 0xffu;
 479:main.c        ****     data.byte[1u] = code;
 480:main.c        ****     data.byte[2u] = param;
 481:main.c        ****     data.byte[3u] = 0;
 482:main.c        ****     data.byte[4u] = 0;
 483:main.c        ****     CAN_SendMsg(&message);
 484:main.c        ****     if(uart_debug == 2) {
 485:main.c        ****         sprintf(txData, "Error: byte[0u] %x byte[1u] %x byte[2u] %x\r\n",data.byte[0u],data.byte[1u
 486:main.c        ****         UART_UartPutString(txData); 
ARM GAS  C:\Users\austc\AppData\Local\Temp\ccxzq70h.s 			page 10


 487:main.c        ****     }
 488:main.c        **** }
 489:main.c        **** 
 490:main.c        **** CY_ISR(ISR_CAN)
 491:main.c        **** {
  28              		.loc 1 491 0
  29              		.cfi_startproc
  30              		@ args = 0, pretend = 0, frame = 0
  31              		@ frame_needed = 0, uses_anonymous_args = 0
  32 0000 10B5     		push	{r4, lr}
  33              		.cfi_def_cfa_offset 8
  34              		.cfi_offset 4, -8
  35              		.cfi_offset 14, -4
 492:main.c        ****     /* Clear Receive Message flag */
 493:main.c        ****     CAN_INT_SR_REG = CAN_RX_MESSAGE_MASK;
  36              		.loc 1 493 0
  37 0002 8022     		movs	r2, #128
  38 0004 5201     		lsls	r2, r2, #5
  39 0006 854B     		ldr	r3, .L23
  40 0008 1A60     		str	r2, [r3]
 494:main.c        ****     if(uart_debug) {
  41              		.loc 1 494 0
  42 000a 854B     		ldr	r3, .L23+4
  43 000c 1B78     		ldrb	r3, [r3]
  44 000e 002B     		cmp	r3, #0
  45 0010 02D0     		beq	.L2
 495:main.c        ****         UART_UartPutString("\n Can rx triggered\n");   
  46              		.loc 1 495 0
  47 0012 8448     		ldr	r0, .L23+8
  48 0014 FFF7FEFF 		bl	UART_UartPutString
  49              	.LVL0:
  50              	.L2:
 496:main.c        ****     }
 497:main.c        ****     /* Switch status message received */
 498:main.c        ****     if ((CAN_BUF_SR_REG & CAN_RX_MAILBOX_0_SHIFT) != 0u)
  51              		.loc 1 498 0
  52 0018 834B     		ldr	r3, .L23+12
  53 001a 1B68     		ldr	r3, [r3]
  54 001c 804A     		ldr	r2, .L23+4
  55 001e 5268     		ldr	r2, [r2, #4]
  56 0020 1A42     		tst	r2, r3
  57 0022 79D0     		beq	.L3
 499:main.c        ****     {   
 500:main.c        ****         if(uart_debug){
  58              		.loc 1 500 0
  59 0024 7E4B     		ldr	r3, .L23+4
  60 0026 1B78     		ldrb	r3, [r3]
  61 0028 002B     		cmp	r3, #0
  62 002a 02D0     		beq	.L4
 501:main.c        ****             UART_UartPutString("P0 recieved\n");    
  63              		.loc 1 501 0
  64 002c 7F48     		ldr	r0, .L23+16
  65 002e FFF7FEFF 		bl	UART_UartPutString
  66              	.LVL1:
  67              	.L4:
 502:main.c        ****         }
 503:main.c        ****         #ifdef REV2
ARM GAS  C:\Users\austc\AppData\Local\Temp\ccxzq70h.s 			page 11


 504:main.c        ****         time_LED = 0;
 505:main.c        ****         Test_LED_Write(LED_ON);
 506:main.c        ****         #endif
 507:main.c        ****         set_data(CAN_RX_MAILBOX_0);
  68              		.loc 1 507 0
  69 0032 7B4B     		ldr	r3, .L23+4
  70 0034 1B89     		ldrh	r3, [r3, #8]
  71              	.LVL2:
  72              	.LBB6:
  73              	.LBB7:
 508:main.c        ****         /* Acknowledges receipt of new message */
 509:main.c        ****         CAN_RX_ACK_MESSAGE(CAN_RX_MAILBOX_0);
 510:main.c        ****     }
 511:main.c        **** 
 512:main.c        ****     if ((CAN_BUF_SR_REG & CAN_RX_MAILBOX_1_SHIFT) != 0u)
 513:main.c        ****     {
 514:main.c        ****         if(uart_debug){
 515:main.c        ****             UART_UartPutString("P1 recieved\n\n");    
 516:main.c        ****         }
 517:main.c        ****         #ifdef REV2
 518:main.c        ****         time_LED = 0;
 519:main.c        ****         Test_LED_Write(LED_ON);
 520:main.c        ****         #endif
 521:main.c        ****         set_data(CAN_RX_MAILBOX_1);
 522:main.c        ****         /* Acknowledges receipt of new message */
 523:main.c        ****         CAN_RX_ACK_MESSAGE(CAN_RX_MAILBOX_1);
 524:main.c        ****     }
 525:main.c        ****     
 526:main.c        **** }
 527:main.c        **** 
 528:main.c        **** inline void set_data(uint16 addr){
 529:main.c        ****         //set mode
 530:main.c        ****         if(CAN_RX_DATA_BYTE1(addr) == 0x00) {
  74              		.loc 1 530 0
  75 0036 5B01     		lsls	r3, r3, #5
  76              	.LVL3:
  77 0038 7D4A     		ldr	r2, .L23+20
  78 003a 9446     		mov	ip, r2
  79 003c 6344     		add	r3, r3, ip
  80 003e 9A68     		ldr	r2, [r3, #8]
  81 0040 120E     		lsrs	r2, r2, #24
  82 0042 23D1     		bne	.L5
 531:main.c        ****             if(CAN_RX_DATA_BYTE2(addr) == 1 || CAN_RX_DATA_BYTE2(addr) == 0) {
  83              		.loc 1 531 0
  84 0044 9A68     		ldr	r2, [r3, #8]
  85 0046 120C     		lsrs	r2, r2, #16
  86 0048 FF21     		movs	r1, #255
  87 004a 0A40     		ands	r2, r1
  88 004c 012A     		cmp	r2, #1
  89 004e 03D0     		beq	.L6
  90 0050 9A68     		ldr	r2, [r3, #8]
  91 0052 120C     		lsrs	r2, r2, #16
  92 0054 1142     		tst	r1, r2
  93 0056 11D1     		bne	.L7
  94              	.L6:
 532:main.c        ****                 mode = CAN_RX_DATA_BYTE2(addr);
  95              		.loc 1 532 0
ARM GAS  C:\Users\austc\AppData\Local\Temp\ccxzq70h.s 			page 12


  96 0058 9B68     		ldr	r3, [r3, #8]
  97 005a 1B0C     		lsrs	r3, r3, #16
  98 005c DBB2     		uxtb	r3, r3
  99 005e 704A     		ldr	r2, .L23+4
 100 0060 9372     		strb	r3, [r2, #10]
 533:main.c        ****                 if(mode == 1){
 101              		.loc 1 533 0
 102 0062 012B     		cmp	r3, #1
 103 0064 0ED1     		bne	.L8
 534:main.c        ****                     final_angle = QuadDec_GetCounter() * flipEncoder;
 104              		.loc 1 534 0
 105 0066 FFF7FEFF 		bl	QuadDec_GetCounter
 106              	.LVL4:
 107 006a 724A     		ldr	r2, .L23+24
 108 006c 6C4B     		ldr	r3, .L23+4
 109 006e DB7A     		ldrb	r3, [r3, #11]
 110 0070 5BB2     		sxtb	r3, r3
 111 0072 5843     		muls	r0, r3
 112 0074 1080     		strh	r0, [r2]
 535:main.c        ****                     i = 0;
 113              		.loc 1 535 0
 114 0076 0023     		movs	r3, #0
 115 0078 5360     		str	r3, [r2, #4]
 116 007a 03E0     		b	.L8
 117              	.LVL5:
 118              	.L7:
 536:main.c        ****                 }
 537:main.c        ****             }
 538:main.c        ****             else {
 539:main.c        ****                 invalid_arg.param = 0x00;
 119              		.loc 1 539 0
 120 007c 6E4B     		ldr	r3, .L23+28
 121 007e 0022     		movs	r2, #0
 122 0080 5A70     		strb	r2, [r3, #1]
 540:main.c        ****                 invalid_arg.done = 0;
 123              		.loc 1 540 0
 124 0082 9A70     		strb	r2, [r3, #2]
 125              	.LVL6:
 126              	.L8:
 541:main.c        ****             }
 542:main.c        ****             complete = 1;
 127              		.loc 1 542 0
 128 0084 0122     		movs	r2, #1
 129 0086 6B4B     		ldr	r3, .L23+24
 130 0088 1A72     		strb	r2, [r3, #8]
 131 008a 3BE0     		b	.L9
 132              	.LVL7:
 133              	.L5:
 543:main.c        ****         } 
 544:main.c        ****         //pwm
 545:main.c        ****         else if(CAN_RX_DATA_BYTE1(addr) == 0x02) {
 134              		.loc 1 545 0
 135 008c 9A68     		ldr	r2, [r3, #8]
 136 008e 120E     		lsrs	r2, r2, #24
 137 0090 022A     		cmp	r2, #2
 138 0092 0ED1     		bne	.L10
 546:main.c        ****             Can_rx_pwm.b1 = CAN_RX_DATA_BYTE2(addr);
ARM GAS  C:\Users\austc\AppData\Local\Temp\ccxzq70h.s 			page 13


 139              		.loc 1 546 0
 140 0094 9968     		ldr	r1, [r3, #8]
 141 0096 090C     		lsrs	r1, r1, #16
 142 0098 684A     		ldr	r2, .L23+32
 143 009a 5170     		strb	r1, [r2, #1]
 547:main.c        ****             Can_rx_pwm.b2 = CAN_RX_DATA_BYTE3(addr);
 144              		.loc 1 547 0
 145 009c 9968     		ldr	r1, [r3, #8]
 146 009e 090A     		lsrs	r1, r1, #8
 147 00a0 9170     		strb	r1, [r2, #2]
 548:main.c        ****             Can_rx_pwm.b3 = CAN_RX_DATA_BYTE4(addr);
 148              		.loc 1 548 0
 149 00a2 9968     		ldr	r1, [r3, #8]
 150 00a4 D170     		strb	r1, [r2, #3]
 549:main.c        ****             Can_rx_pwm.b4 = CAN_RX_DATA_BYTE5(addr);
 151              		.loc 1 549 0
 152 00a6 DB68     		ldr	r3, [r3, #12]
 153 00a8 1B0E     		lsrs	r3, r3, #24
 154 00aa 1371     		strb	r3, [r2, #4]
 550:main.c        ****             Can_rx_pwm.done = 0;
 155              		.loc 1 550 0
 156 00ac 0023     		movs	r3, #0
 157 00ae 5371     		strb	r3, [r2, #5]
 158 00b0 28E0     		b	.L9
 159              	.L10:
 551:main.c        ****         } 
 552:main.c        ****         //angle
 553:main.c        ****         else if(CAN_RX_DATA_BYTE1(addr) == 0x04) {
 160              		.loc 1 553 0
 161 00b2 9A68     		ldr	r2, [r3, #8]
 162 00b4 120E     		lsrs	r2, r2, #24
 163 00b6 042A     		cmp	r2, #4
 164 00b8 1DD1     		bne	.L11
 554:main.c        ****             Can_rx_angle.b1 = CAN_RX_DATA_BYTE2(addr);
 165              		.loc 1 554 0
 166 00ba 9A68     		ldr	r2, [r3, #8]
 167 00bc 120C     		lsrs	r2, r2, #16
 168 00be D0B2     		uxtb	r0, r2
 169 00c0 5F4C     		ldr	r4, .L23+36
 170 00c2 6070     		strb	r0, [r4, #1]
 555:main.c        ****             Can_rx_angle.b2 = CAN_RX_DATA_BYTE3(addr);
 171              		.loc 1 555 0
 172 00c4 9968     		ldr	r1, [r3, #8]
 173 00c6 090A     		lsrs	r1, r1, #8
 174 00c8 CAB2     		uxtb	r2, r1
 175 00ca A270     		strb	r2, [r4, #2]
 556:main.c        ****             Can_rx_angle.b3 = CAN_RX_DATA_BYTE4(addr);
 176              		.loc 1 556 0
 177 00cc 9968     		ldr	r1, [r3, #8]
 178 00ce E170     		strb	r1, [r4, #3]
 557:main.c        ****             Can_rx_angle.b4 = CAN_RX_DATA_BYTE5(addr);
 179              		.loc 1 557 0
 180 00d0 DB68     		ldr	r3, [r3, #12]
 181 00d2 1B0E     		lsrs	r3, r3, #24
 182 00d4 2371     		strb	r3, [r4, #4]
 558:main.c        ****             Can_rx_angle.done = 0;
 183              		.loc 1 558 0
ARM GAS  C:\Users\austc\AppData\Local\Temp\ccxzq70h.s 			page 14


 184 00d6 0023     		movs	r3, #0
 185 00d8 6371     		strb	r3, [r4, #5]
 559:main.c        ****             if((((uint16_t)Can_rx_angle.b2) << 8 | Can_rx_angle.b1) != final_angle){
 186              		.loc 1 559 0
 187 00da 1202     		lsls	r2, r2, #8
 188 00dc 0243     		orrs	r2, r0
 189 00de 554B     		ldr	r3, .L23+24
 190 00e0 0021     		movs	r1, #0
 191 00e2 5B5E     		ldrsh	r3, [r3, r1]
 192 00e4 9A42     		cmp	r2, r3
 193 00e6 02D0     		beq	.L12
 560:main.c        ****                  i=0;
 194              		.loc 1 560 0
 195 00e8 0022     		movs	r2, #0
 196 00ea 524B     		ldr	r3, .L23+24
 197 00ec 5A60     		str	r2, [r3, #4]
 198              	.L12:
 561:main.c        ****             }
 562:main.c        ****             complete = 1;
 199              		.loc 1 562 0
 200 00ee 0122     		movs	r2, #1
 201 00f0 504B     		ldr	r3, .L23+24
 202 00f2 1A72     		strb	r2, [r3, #8]
 203 00f4 06E0     		b	.L9
 204              	.L11:
 563:main.c        ****         } 
 564:main.c        ****         //model requst
 565:main.c        ****         else if (CAN_RX_DATA_BYTE1(addr) == 0x10){
 205              		.loc 1 565 0
 206 00f6 9B68     		ldr	r3, [r3, #8]
 207 00f8 1B0E     		lsrs	r3, r3, #24
 208 00fa 102B     		cmp	r3, #16
 209 00fc 02D1     		bne	.L9
 566:main.c        ****             model_req = 1;
 210              		.loc 1 566 0
 211 00fe 0122     		movs	r2, #1
 212 0100 4C4B     		ldr	r3, .L23+24
 213 0102 5A72     		strb	r2, [r3, #9]
 214              	.LVL8:
 215              	.L9:
 216              	.LBE7:
 217              	.LBE6:
 509:main.c        ****     }
 218              		.loc 1 509 0
 219 0104 464B     		ldr	r3, .L23+4
 220 0106 1B89     		ldrh	r3, [r3, #8]
 221 0108 5B01     		lsls	r3, r3, #5
 222 010a 494A     		ldr	r2, .L23+20
 223 010c 9446     		mov	ip, r2
 224 010e 6344     		add	r3, r3, ip
 225 0110 1968     		ldr	r1, [r3]
 226 0112 0122     		movs	r2, #1
 227 0114 0A43     		orrs	r2, r1
 228 0116 1A60     		str	r2, [r3]
 229              	.L3:
 512:main.c        ****     {
 230              		.loc 1 512 0
ARM GAS  C:\Users\austc\AppData\Local\Temp\ccxzq70h.s 			page 15


 231 0118 434B     		ldr	r3, .L23+12
 232 011a 1A68     		ldr	r2, [r3]
 233 011c 404B     		ldr	r3, .L23+4
 234 011e 9B89     		ldrh	r3, [r3, #12]
 235 0120 1A42     		tst	r2, r3
 236 0122 79D0     		beq	.L1
 514:main.c        ****             UART_UartPutString("P1 recieved\n\n");    
 237              		.loc 1 514 0
 238 0124 3E4B     		ldr	r3, .L23+4
 239 0126 1B78     		ldrb	r3, [r3]
 240 0128 002B     		cmp	r3, #0
 241 012a 02D0     		beq	.L14
 515:main.c        ****         }
 242              		.loc 1 515 0
 243 012c 4548     		ldr	r0, .L23+40
 244 012e FFF7FEFF 		bl	UART_UartPutString
 245              	.LVL9:
 246              	.L14:
 521:main.c        ****         /* Acknowledges receipt of new message */
 247              		.loc 1 521 0
 248 0132 404B     		ldr	r3, .L23+24
 249 0134 5B89     		ldrh	r3, [r3, #10]
 250              	.LVL10:
 251              	.LBB8:
 252              	.LBB9:
 530:main.c        ****             if(CAN_RX_DATA_BYTE2(addr) == 1 || CAN_RX_DATA_BYTE2(addr) == 0) {
 253              		.loc 1 530 0
 254 0136 5B01     		lsls	r3, r3, #5
 255              	.LVL11:
 256 0138 3D4A     		ldr	r2, .L23+20
 257 013a 9446     		mov	ip, r2
 258 013c 6344     		add	r3, r3, ip
 259 013e 9A68     		ldr	r2, [r3, #8]
 260 0140 120E     		lsrs	r2, r2, #24
 261 0142 23D1     		bne	.L15
 531:main.c        ****                 mode = CAN_RX_DATA_BYTE2(addr);
 262              		.loc 1 531 0
 263 0144 9A68     		ldr	r2, [r3, #8]
 264 0146 120C     		lsrs	r2, r2, #16
 265 0148 FF21     		movs	r1, #255
 266 014a 0A40     		ands	r2, r1
 267 014c 012A     		cmp	r2, #1
 268 014e 03D0     		beq	.L16
 269 0150 9A68     		ldr	r2, [r3, #8]
 270 0152 120C     		lsrs	r2, r2, #16
 271 0154 1142     		tst	r1, r2
 272 0156 11D1     		bne	.L17
 273              	.L16:
 532:main.c        ****                 if(mode == 1){
 274              		.loc 1 532 0
 275 0158 9B68     		ldr	r3, [r3, #8]
 276 015a 1B0C     		lsrs	r3, r3, #16
 277 015c DBB2     		uxtb	r3, r3
 278 015e 304A     		ldr	r2, .L23+4
 279 0160 9372     		strb	r3, [r2, #10]
 533:main.c        ****                     final_angle = QuadDec_GetCounter() * flipEncoder;
 280              		.loc 1 533 0
ARM GAS  C:\Users\austc\AppData\Local\Temp\ccxzq70h.s 			page 16


 281 0162 012B     		cmp	r3, #1
 282 0164 0ED1     		bne	.L18
 534:main.c        ****                     i = 0;
 283              		.loc 1 534 0
 284 0166 FFF7FEFF 		bl	QuadDec_GetCounter
 285              	.LVL12:
 286 016a 324A     		ldr	r2, .L23+24
 287 016c 2C4B     		ldr	r3, .L23+4
 288 016e DB7A     		ldrb	r3, [r3, #11]
 289 0170 5BB2     		sxtb	r3, r3
 290 0172 5843     		muls	r0, r3
 291 0174 1080     		strh	r0, [r2]
 535:main.c        ****                 }
 292              		.loc 1 535 0
 293 0176 0023     		movs	r3, #0
 294 0178 5360     		str	r3, [r2, #4]
 295 017a 03E0     		b	.L18
 296              	.LVL13:
 297              	.L17:
 539:main.c        ****                 invalid_arg.done = 0;
 298              		.loc 1 539 0
 299 017c 2E4B     		ldr	r3, .L23+28
 300 017e 0022     		movs	r2, #0
 301 0180 5A70     		strb	r2, [r3, #1]
 540:main.c        ****             }
 302              		.loc 1 540 0
 303 0182 9A70     		strb	r2, [r3, #2]
 304              	.LVL14:
 305              	.L18:
 542:main.c        ****         } 
 306              		.loc 1 542 0
 307 0184 0122     		movs	r2, #1
 308 0186 2B4B     		ldr	r3, .L23+24
 309 0188 1A72     		strb	r2, [r3, #8]
 310 018a 3BE0     		b	.L19
 311              	.LVL15:
 312              	.L15:
 545:main.c        ****             Can_rx_pwm.b1 = CAN_RX_DATA_BYTE2(addr);
 313              		.loc 1 545 0
 314 018c 9A68     		ldr	r2, [r3, #8]
 315 018e 120E     		lsrs	r2, r2, #24
 316 0190 022A     		cmp	r2, #2
 317 0192 0ED1     		bne	.L20
 546:main.c        ****             Can_rx_pwm.b2 = CAN_RX_DATA_BYTE3(addr);
 318              		.loc 1 546 0
 319 0194 9968     		ldr	r1, [r3, #8]
 320 0196 090C     		lsrs	r1, r1, #16
 321 0198 284A     		ldr	r2, .L23+32
 322 019a 5170     		strb	r1, [r2, #1]
 547:main.c        ****             Can_rx_pwm.b3 = CAN_RX_DATA_BYTE4(addr);
 323              		.loc 1 547 0
 324 019c 9968     		ldr	r1, [r3, #8]
 325 019e 090A     		lsrs	r1, r1, #8
 326 01a0 9170     		strb	r1, [r2, #2]
 548:main.c        ****             Can_rx_pwm.b4 = CAN_RX_DATA_BYTE5(addr);
 327              		.loc 1 548 0
 328 01a2 9968     		ldr	r1, [r3, #8]
ARM GAS  C:\Users\austc\AppData\Local\Temp\ccxzq70h.s 			page 17


 329 01a4 D170     		strb	r1, [r2, #3]
 549:main.c        ****             Can_rx_pwm.done = 0;
 330              		.loc 1 549 0
 331 01a6 DB68     		ldr	r3, [r3, #12]
 332 01a8 1B0E     		lsrs	r3, r3, #24
 333 01aa 1371     		strb	r3, [r2, #4]
 550:main.c        ****         } 
 334              		.loc 1 550 0
 335 01ac 0023     		movs	r3, #0
 336 01ae 5371     		strb	r3, [r2, #5]
 337 01b0 28E0     		b	.L19
 338              	.L20:
 553:main.c        ****             Can_rx_angle.b1 = CAN_RX_DATA_BYTE2(addr);
 339              		.loc 1 553 0
 340 01b2 9A68     		ldr	r2, [r3, #8]
 341 01b4 120E     		lsrs	r2, r2, #24
 342 01b6 042A     		cmp	r2, #4
 343 01b8 1DD1     		bne	.L21
 554:main.c        ****             Can_rx_angle.b2 = CAN_RX_DATA_BYTE3(addr);
 344              		.loc 1 554 0
 345 01ba 9A68     		ldr	r2, [r3, #8]
 346 01bc 120C     		lsrs	r2, r2, #16
 347 01be D0B2     		uxtb	r0, r2
 348 01c0 1F4C     		ldr	r4, .L23+36
 349 01c2 6070     		strb	r0, [r4, #1]
 555:main.c        ****             Can_rx_angle.b3 = CAN_RX_DATA_BYTE4(addr);
 350              		.loc 1 555 0
 351 01c4 9968     		ldr	r1, [r3, #8]
 352 01c6 090A     		lsrs	r1, r1, #8
 353 01c8 CAB2     		uxtb	r2, r1
 354 01ca A270     		strb	r2, [r4, #2]
 556:main.c        ****             Can_rx_angle.b4 = CAN_RX_DATA_BYTE5(addr);
 355              		.loc 1 556 0
 356 01cc 9968     		ldr	r1, [r3, #8]
 357 01ce E170     		strb	r1, [r4, #3]
 557:main.c        ****             Can_rx_angle.done = 0;
 358              		.loc 1 557 0
 359 01d0 DB68     		ldr	r3, [r3, #12]
 360 01d2 1B0E     		lsrs	r3, r3, #24
 361 01d4 2371     		strb	r3, [r4, #4]
 558:main.c        ****             if((((uint16_t)Can_rx_angle.b2) << 8 | Can_rx_angle.b1) != final_angle){
 362              		.loc 1 558 0
 363 01d6 0023     		movs	r3, #0
 364 01d8 6371     		strb	r3, [r4, #5]
 559:main.c        ****                  i=0;
 365              		.loc 1 559 0
 366 01da 1202     		lsls	r2, r2, #8
 367 01dc 0243     		orrs	r2, r0
 368 01de 154B     		ldr	r3, .L23+24
 369 01e0 0021     		movs	r1, #0
 370 01e2 5B5E     		ldrsh	r3, [r3, r1]
 371 01e4 9A42     		cmp	r2, r3
 372 01e6 02D0     		beq	.L22
 560:main.c        ****             }
 373              		.loc 1 560 0
 374 01e8 0022     		movs	r2, #0
 375 01ea 124B     		ldr	r3, .L23+24
ARM GAS  C:\Users\austc\AppData\Local\Temp\ccxzq70h.s 			page 18


 376 01ec 5A60     		str	r2, [r3, #4]
 377              	.L22:
 562:main.c        ****         } 
 378              		.loc 1 562 0
 379 01ee 0122     		movs	r2, #1
 380 01f0 104B     		ldr	r3, .L23+24
 381 01f2 1A72     		strb	r2, [r3, #8]
 382 01f4 06E0     		b	.L19
 383              	.L21:
 565:main.c        ****             model_req = 1;
 384              		.loc 1 565 0
 385 01f6 9B68     		ldr	r3, [r3, #8]
 386 01f8 1B0E     		lsrs	r3, r3, #24
 387 01fa 102B     		cmp	r3, #16
 388 01fc 02D1     		bne	.L19
 389              		.loc 1 566 0
 390 01fe 0122     		movs	r2, #1
 391 0200 0C4B     		ldr	r3, .L23+24
 392 0202 5A72     		strb	r2, [r3, #9]
 393              	.LVL16:
 394              	.L19:
 395              	.LBE9:
 396              	.LBE8:
 523:main.c        ****     }
 397              		.loc 1 523 0
 398 0204 0B4B     		ldr	r3, .L23+24
 399 0206 5B89     		ldrh	r3, [r3, #10]
 400 0208 5B01     		lsls	r3, r3, #5
 401 020a 094A     		ldr	r2, .L23+20
 402 020c 9446     		mov	ip, r2
 403 020e 6344     		add	r3, r3, ip
 404 0210 1968     		ldr	r1, [r3]
 405 0212 0122     		movs	r2, #1
 406 0214 0A43     		orrs	r2, r1
 407 0216 1A60     		str	r2, [r3]
 408              	.L1:
 526:main.c        **** 
 409              		.loc 1 526 0
 410              		@ sp needed
 411 0218 10BD     		pop	{r4, pc}
 412              	.L24:
 413 021a C046     		.align	2
 414              	.L23:
 415 021c 00002F40 		.word	1076822016
 416 0220 00000000 		.word	.LANCHOR0
 417 0224 00000000 		.word	.LC1
 418 0228 08002F40 		.word	1076822024
 419 022c 14000000 		.word	.LC3
 420 0230 A0002F40 		.word	1076822176
 421 0234 00000000 		.word	.LANCHOR1
 422 0238 00000000 		.word	invalid_arg
 423 023c 00000000 		.word	Can_rx_pwm
 424 0240 00000000 		.word	Can_rx_angle
 425 0244 24000000 		.word	.LC9
 426              		.cfi_endproc
 427              	.LFE47:
 428              		.size	ISR_CAN, .-ISR_CAN
ARM GAS  C:\Users\austc\AppData\Local\Temp\ccxzq70h.s 			page 19


 429              		.section	.text.emergency_halt,"ax",%progbits
 430              		.align	2
 431              		.global	emergency_halt
 432              		.code	16
 433              		.thumb_func
 434              		.type	emergency_halt, %function
 435              	emergency_halt:
 436              	.LFB38:
 273:main.c        ****     PWM_Motor_Stop();
 437              		.loc 1 273 0
 438              		.cfi_startproc
 439              		@ args = 0, pretend = 0, frame = 0
 440              		@ frame_needed = 0, uses_anonymous_args = 0
 441 0000 10B5     		push	{r4, lr}
 442              		.cfi_def_cfa_offset 8
 443              		.cfi_offset 4, -8
 444              		.cfi_offset 14, -4
 274:main.c        ****     emergency = 1;
 445              		.loc 1 274 0
 446 0002 FFF7FEFF 		bl	PWM_Motor_Stop
 447              	.LVL17:
 275:main.c        ****     // stops all motors;
 448              		.loc 1 275 0
 449 0006 0122     		movs	r2, #1
 450 0008 014B     		ldr	r3, .L26
 451 000a 1A73     		strb	r2, [r3, #12]
 278:main.c        **** 
 452              		.loc 1 278 0
 453              		@ sp needed
 454 000c 10BD     		pop	{r4, pc}
 455              	.L27:
 456 000e C046     		.align	2
 457              	.L26:
 458 0010 00000000 		.word	.LANCHOR1
 459              		.cfi_endproc
 460              	.LFE38:
 461              		.size	emergency_halt, .-emergency_halt
 462              		.section	.text.initialize,"ax",%progbits
 463              		.align	2
 464              		.global	initialize
 465              		.code	16
 466              		.thumb_func
 467              		.type	initialize, %function
 468              	initialize:
 469              	.LFB39:
 280:main.c        ****     
 470              		.loc 1 280 0
 471              		.cfi_startproc
 472              		@ args = 0, pretend = 0, frame = 0
 473              		@ frame_needed = 0, uses_anonymous_args = 0
 474 0000 70B5     		push	{r4, r5, r6, lr}
 475              		.cfi_def_cfa_offset 16
 476              		.cfi_offset 4, -16
 477              		.cfi_offset 5, -12
 478              		.cfi_offset 6, -8
 479              		.cfi_offset 14, -4
 282:main.c        ****     Status_Reg_Switches_InterruptEnable();
ARM GAS  C:\Users\austc\AppData\Local\Temp\ccxzq70h.s 			page 20


 480              		.loc 1 282 0
 481 0002 FFF7FEFF 		bl	CAN_Start
 482              	.LVL18:
 483 0006 0400     		movs	r4, r0
 484              	.LVL19:
 283:main.c        ****     Timer_1_Start();
 485              		.loc 1 283 0
 486 0008 FFF7FEFF 		bl	Status_Reg_Switches_InterruptEnable
 487              	.LVL20:
 284:main.c        ****    // ADC_SAR_Seq_1_Start();
 488              		.loc 1 284 0
 489 000c FFF7FEFF 		bl	Timer_1_Start
 490              	.LVL21:
 287:main.c        ****     PWM_Motor_Start();  
 491              		.loc 1 287 0
 492 0010 FFF7FEFF 		bl	QuadDec_Start
 493              	.LVL22:
 288:main.c        ****     
 494              		.loc 1 288 0
 495 0014 FFF7FEFF 		bl	PWM_Motor_Start
 496              	.LVL23:
 290:main.c        ****     CyIntSetVector(CAN_ISR_NUMBER, ISR_CAN);
 497              		.loc 1 290 0
 498 0018 FFF7FEFF 		bl	CAN_GlobalIntEnable
 499              	.LVL24:
 291:main.c        ****     CyGlobalIntEnable; /* Enable global interrupts. */
 500              		.loc 1 291 0
 501 001c 0D49     		ldr	r1, .L30
 502 001e 1D20     		movs	r0, #29
 503 0020 FFF7FEFF 		bl	CyIntSetVector
 504              	.LVL25:
 292:main.c        ****     isr_Limit_1_StartEx(Pin_Limit_Handler);
 505              		.loc 1 292 0
 506              		.syntax divided
 507              	@ 292 "main.c" 1
 508 0024 62B6     		CPSIE   i
 509              	@ 0 "" 2
 293:main.c        ****     isr_period_StartEx(Period_Reset_Handler);
 510              		.loc 1 293 0
 511              		.thumb
 512              		.syntax unified
 513 0026 0C48     		ldr	r0, .L30+4
 514 0028 FFF7FEFF 		bl	isr_Limit_1_StartEx
 515              	.LVL26:
 294:main.c        ****     
 516              		.loc 1 294 0
 517 002c 0B48     		ldr	r0, .L30+8
 518 002e FFF7FEFF 		bl	isr_period_StartEx
 519              	.LVL27:
 296:main.c        ****         UART_Start();
 520              		.loc 1 296 0
 521 0032 0B4B     		ldr	r3, .L30+12
 522 0034 1B78     		ldrb	r3, [r3]
 523 0036 002B     		cmp	r3, #0
 524 0038 0AD0     		beq	.L28
 297:main.c        ****         sprintf(txData, "CAN_Start():  %u\r\n",can_start);
 525              		.loc 1 297 0
ARM GAS  C:\Users\austc\AppData\Local\Temp\ccxzq70h.s 			page 21


 526 003a FFF7FEFF 		bl	UART_Start
 527              	.LVL28:
 298:main.c        ****         UART_UartPutString(txData); 
 528              		.loc 1 298 0
 529 003e 094D     		ldr	r5, .L30+16
 530 0040 2200     		movs	r2, r4
 531 0042 0949     		ldr	r1, .L30+20
 532 0044 2800     		movs	r0, r5
 533 0046 FFF7FEFF 		bl	sprintf
 534              	.LVL29:
 299:main.c        ****     }
 535              		.loc 1 299 0
 536 004a 2800     		movs	r0, r5
 537 004c FFF7FEFF 		bl	UART_UartPutString
 538              	.LVL30:
 539              	.L28:
 301:main.c        **** 
 540              		.loc 1 301 0
 541              		@ sp needed
 542              	.LVL31:
 543 0050 70BD     		pop	{r4, r5, r6, pc}
 544              	.L31:
 545 0052 C046     		.align	2
 546              	.L30:
 547 0054 00000000 		.word	ISR_CAN
 548 0058 00000000 		.word	Pin_Limit_Handler
 549 005c 00000000 		.word	Period_Reset_Handler
 550 0060 00000000 		.word	.LANCHOR0
 551 0064 00000000 		.word	txData
 552 0068 34000000 		.word	.LC16
 553              		.cfi_endproc
 554              	.LFE39:
 555              		.size	initialize, .-initialize
 556              		.section	.text.set_CAN_ID,"ax",%progbits
 557              		.align	2
 558              		.global	set_CAN_ID
 559              		.code	16
 560              		.thumb_func
 561              		.type	set_CAN_ID, %function
 562              	set_CAN_ID:
 563              	.LFB41:
 405:main.c        ****     message.id = (priority << 10) | (message_id << 5) | 0b00010;
 564              		.loc 1 405 0
 565              		.cfi_startproc
 566              		@ args = 0, pretend = 0, frame = 0
 567              		@ frame_needed = 0, uses_anonymous_args = 0
 568              		@ link register save eliminated.
 569              	.LVL32:
 406:main.c        **** }
 570              		.loc 1 406 0
 571 0000 8002     		lsls	r0, r0, #10
 572              	.LVL33:
 573 0002 044B     		ldr	r3, .L33
 574 0004 1B69     		ldr	r3, [r3, #16]
 575 0006 5B01     		lsls	r3, r3, #5
 576 0008 1843     		orrs	r0, r3
 577 000a 0223     		movs	r3, #2
ARM GAS  C:\Users\austc\AppData\Local\Temp\ccxzq70h.s 			page 22


 578 000c 1843     		orrs	r0, r3
 579 000e 024B     		ldr	r3, .L33+4
 580 0010 1860     		str	r0, [r3]
 407:main.c        **** 
 581              		.loc 1 407 0
 582              		@ sp needed
 583 0012 7047     		bx	lr
 584              	.L34:
 585              		.align	2
 586              	.L33:
 587 0014 00000000 		.word	.LANCHOR1
 588 0018 00000000 		.word	message
 589              		.cfi_endproc
 590              	.LFE41:
 591              		.size	set_CAN_ID, .-set_CAN_ID
 592              		.section	.text.initialize_can_addr,"ax",%progbits
 593              		.align	2
 594              		.global	initialize_can_addr
 595              		.code	16
 596              		.thumb_func
 597              		.type	initialize_can_addr, %function
 598              	initialize_can_addr:
 599              	.LFB40:
 320:main.c        ****     uint8 setting = Can_addr_Read();
 600              		.loc 1 320 0
 601              		.cfi_startproc
 602              		@ args = 0, pretend = 0, frame = 0
 603              		@ frame_needed = 0, uses_anonymous_args = 0
 604 0000 F0B5     		push	{r4, r5, r6, r7, lr}
 605              		.cfi_def_cfa_offset 20
 606              		.cfi_offset 4, -20
 607              		.cfi_offset 5, -16
 608              		.cfi_offset 6, -12
 609              		.cfi_offset 7, -8
 610              		.cfi_offset 14, -4
 611 0002 83B0     		sub	sp, sp, #12
 612              		.cfi_def_cfa_offset 32
 321:main.c        ****     uint8 shift = 0;
 613              		.loc 1 321 0
 614 0004 FFF7FEFF 		bl	Can_addr_Read
 615              	.LVL34:
 616 0008 0400     		movs	r4, r0
 617              	.LVL35:
 323:main.c        ****         case 0b000: //Base rotation
 618              		.loc 1 323 0
 619 000a FFF7FEFF 		bl	Can_addr_Read
 620              	.LVL36:
 621 000e 0628     		cmp	r0, #6
 622 0010 6FD8     		bhi	.L36
 623 0012 8000     		lsls	r0, r0, #2
 624 0014 5B4B     		ldr	r3, .L48
 625 0016 1B58     		ldr	r3, [r3, r0]
 626 0018 9F46     		mov	pc, r3
 627              		.section	.rodata
 628              		.align	2
 629              	.L38:
 630 0000 1A000000 		.word	.L37
ARM GAS  C:\Users\austc\AppData\Local\Temp\ccxzq70h.s 			page 23


 631 0004 2E000000 		.word	.L39
 632 0008 54000000 		.word	.L40
 633 000c 68000000 		.word	.L41
 634 0010 80000000 		.word	.L42
 635 0014 AE000000 		.word	.L43
 636 0018 DE000000 		.word	.L44
 637              		.section	.text.initialize_can_addr
 638              	.L37:
 325:main.c        ****             shift = 0;
 639              		.loc 1 325 0
 640 001a 1022     		movs	r2, #16
 641 001c 5A4B     		ldr	r3, .L48+4
 642 001e 1A61     		str	r2, [r3, #16]
 327:main.c        ****             break;
 643              		.loc 1 327 0
 644 0020 0020     		movs	r0, #0
 645 0022 5A49     		ldr	r1, .L48+8
 646 0024 5A4B     		ldr	r3, .L48+12
 647 0026 1860     		str	r0, [r3]
 648 0028 5960     		str	r1, [r3, #4]
 326:main.c        ****             ratio = 1;
 649              		.loc 1 326 0
 650 002a 0025     		movs	r5, #0
 328:main.c        ****         case 0b001: // shoulder
 651              		.loc 1 328 0
 652 002c 70E0     		b	.L45
 653              	.L39:
 330:main.c        ****             shift = 1;
 654              		.loc 1 330 0
 655 002e 1122     		movs	r2, #17
 656 0030 554B     		ldr	r3, .L48+4
 657 0032 1A61     		str	r2, [r3, #16]
 658              	.LVL37:
 332:main.c        ****             #ifdef REV2
 659              		.loc 1 332 0
 660 0034 5748     		ldr	r0, .L48+16
 661 0036 5849     		ldr	r1, .L48+20
 662 0038 554B     		ldr	r3, .L48+12
 663 003a 1860     		str	r0, [r3]
 664 003c 5960     		str	r1, [r3, #4]
 336:main.c        ****             ki = 12;
 665              		.loc 1 336 0
 666 003e 2132     		adds	r2, r2, #33
 667 0040 564B     		ldr	r3, .L48+24
 668 0042 1A60     		str	r2, [r3]
 337:main.c        ****             kd = 10;
 669              		.loc 1 337 0
 670 0044 263A     		subs	r2, r2, #38
 671 0046 564B     		ldr	r3, .L48+28
 672 0048 1A60     		str	r2, [r3]
 338:main.c        ****             break;
 673              		.loc 1 338 0
 674 004a 023A     		subs	r2, r2, #2
 675 004c 554B     		ldr	r3, .L48+32
 676 004e 1A60     		str	r2, [r3]
 331:main.c        ****             ratio = 14.45;
 677              		.loc 1 331 0
ARM GAS  C:\Users\austc\AppData\Local\Temp\ccxzq70h.s 			page 24


 678 0050 0125     		movs	r5, #1
 339:main.c        ****         case 0b010: // elbow
 679              		.loc 1 339 0
 680 0052 5DE0     		b	.L45
 681              	.LVL38:
 682              	.L40:
 341:main.c        ****             shift = 2;
 683              		.loc 1 341 0
 684 0054 1222     		movs	r2, #18
 685 0056 4C4B     		ldr	r3, .L48+4
 686 0058 1A61     		str	r2, [r3, #16]
 687              	.LVL39:
 343:main.c        ****             break;
 688              		.loc 1 343 0
 689 005a 4E48     		ldr	r0, .L48+16
 690 005c 5249     		ldr	r1, .L48+36
 691 005e 4C4B     		ldr	r3, .L48+12
 692 0060 1860     		str	r0, [r3]
 693 0062 5960     		str	r1, [r3, #4]
 342:main.c        ****             ratio = 2.8;
 694              		.loc 1 342 0
 695 0064 0225     		movs	r5, #2
 344:main.c        ****         case 0b011: // forearm rotation
 696              		.loc 1 344 0
 697 0066 53E0     		b	.L45
 698              	.LVL40:
 699              	.L41:
 346:main.c        ****             disable_limit = 1;
 700              		.loc 1 346 0
 701 0068 474B     		ldr	r3, .L48+4
 702 006a 1322     		movs	r2, #19
 703 006c 1A61     		str	r2, [r3, #16]
 347:main.c        ****             shift = 3;
 704              		.loc 1 347 0
 705 006e 123A     		subs	r2, r2, #18
 706 0070 1A75     		strb	r2, [r3, #20]
 707              	.LVL41:
 349:main.c        **** 
 708              		.loc 1 349 0
 709 0072 0020     		movs	r0, #0
 710 0074 4549     		ldr	r1, .L48+8
 711 0076 464B     		ldr	r3, .L48+12
 712 0078 1860     		str	r0, [r3]
 713 007a 5960     		str	r1, [r3, #4]
 348:main.c        ****             ratio = 1;
 714              		.loc 1 348 0
 715 007c 0325     		movs	r5, #3
 351:main.c        ****         case 0b100: // diff wrist 1
 716              		.loc 1 351 0
 717 007e 47E0     		b	.L45
 718              	.LVL42:
 719              	.L42:
 353:main.c        ****             disable_limit = 1;
 720              		.loc 1 353 0
 721 0080 414A     		ldr	r2, .L48+4
 722 0082 1423     		movs	r3, #20
 723 0084 1361     		str	r3, [r2, #16]
ARM GAS  C:\Users\austc\AppData\Local\Temp\ccxzq70h.s 			page 25


 354:main.c        ****             shift = 4;
 724              		.loc 1 354 0
 725 0086 0121     		movs	r1, #1
 726 0088 1175     		strb	r1, [r2, #20]
 727              	.LVL43:
 356:main.c        ****             kp = 20;
 728              		.loc 1 356 0
 729 008a 4848     		ldr	r0, .L48+40
 730 008c 4849     		ldr	r1, .L48+44
 731 008e 404A     		ldr	r2, .L48+12
 732 0090 1060     		str	r0, [r2]
 733 0092 5160     		str	r1, [r2, #4]
 357:main.c        ****             ki = 30;
 734              		.loc 1 357 0
 735 0094 414A     		ldr	r2, .L48+24
 736 0096 1360     		str	r3, [r2]
 358:main.c        ****             kd = 10;
 737              		.loc 1 358 0
 738 0098 1E22     		movs	r2, #30
 739 009a 414B     		ldr	r3, .L48+28
 740 009c 1A60     		str	r2, [r3]
 359:main.c        ****             flipEncoder = -1;
 741              		.loc 1 359 0
 742 009e 143A     		subs	r2, r2, #20
 743 00a0 404B     		ldr	r3, .L48+32
 744 00a2 1A60     		str	r2, [r3]
 360:main.c        ****             break;
 745              		.loc 1 360 0
 746 00a4 F532     		adds	r2, r2, #245
 747 00a6 434B     		ldr	r3, .L48+48
 748 00a8 DA72     		strb	r2, [r3, #11]
 355:main.c        ****             ratio = 1.3888;
 749              		.loc 1 355 0
 750 00aa 0425     		movs	r5, #4
 361:main.c        ****         case 0b101: // diff wrist 2
 751              		.loc 1 361 0
 752 00ac 30E0     		b	.L45
 753              	.LVL44:
 754              	.L43:
 363:main.c        ****             disable_limit = 1;
 755              		.loc 1 363 0
 756 00ae 364B     		ldr	r3, .L48+4
 757 00b0 1522     		movs	r2, #21
 758 00b2 1A61     		str	r2, [r3, #16]
 364:main.c        ****             flipEncoder = -1;
 759              		.loc 1 364 0
 760 00b4 143A     		subs	r2, r2, #20
 761 00b6 1A75     		strb	r2, [r3, #20]
 365:main.c        ****             shift = 5;
 762              		.loc 1 365 0
 763 00b8 FE32     		adds	r2, r2, #254
 764 00ba 3E4B     		ldr	r3, .L48+48
 765 00bc DA72     		strb	r2, [r3, #11]
 766              	.LVL45:
 367:main.c        ****             kp = 50;
 767              		.loc 1 367 0
 768 00be 3B48     		ldr	r0, .L48+40
ARM GAS  C:\Users\austc\AppData\Local\Temp\ccxzq70h.s 			page 26


 769 00c0 3B49     		ldr	r1, .L48+44
 770 00c2 334B     		ldr	r3, .L48+12
 771 00c4 1860     		str	r0, [r3]
 772 00c6 5960     		str	r1, [r3, #4]
 368:main.c        ****             ki = 40;
 773              		.loc 1 368 0
 774 00c8 CD3A     		subs	r2, r2, #205
 775 00ca 344B     		ldr	r3, .L48+24
 776 00cc 1A60     		str	r2, [r3]
 369:main.c        ****             kd = 10;
 777              		.loc 1 369 0
 778 00ce 0A3A     		subs	r2, r2, #10
 779 00d0 334B     		ldr	r3, .L48+28
 780 00d2 1A60     		str	r2, [r3]
 370:main.c        ****             break;
 781              		.loc 1 370 0
 782 00d4 1E3A     		subs	r2, r2, #30
 783 00d6 334B     		ldr	r3, .L48+32
 784 00d8 1A60     		str	r2, [r3]
 366:main.c        ****             ratio = 1.3888;
 785              		.loc 1 366 0
 786 00da 0525     		movs	r5, #5
 371:main.c        ****         case 0b110: // hand
 787              		.loc 1 371 0
 788 00dc 18E0     		b	.L45
 789              	.LVL46:
 790              	.L44:
 373:main.c        ****             shift = 6;
 791              		.loc 1 373 0
 792 00de 1622     		movs	r2, #22
 793 00e0 294B     		ldr	r3, .L48+4
 794 00e2 1A61     		str	r2, [r3, #16]
 795              	.LVL47:
 375:main.c        ****             break;
 796              		.loc 1 375 0
 797 00e4 0020     		movs	r0, #0
 798 00e6 2949     		ldr	r1, .L48+8
 799 00e8 294B     		ldr	r3, .L48+12
 800 00ea 1860     		str	r0, [r3]
 801 00ec 5960     		str	r1, [r3, #4]
 374:main.c        ****             ratio = 1;
 802              		.loc 1 374 0
 803 00ee 0625     		movs	r5, #6
 376:main.c        ****         default:
 804              		.loc 1 376 0
 805 00f0 0EE0     		b	.L45
 806              	.LVL48:
 807              	.L36:
 378:main.c        ****             shift = 7;
 808              		.loc 1 378 0
 809 00f2 254A     		ldr	r2, .L48+4
 810 00f4 1A23     		movs	r3, #26
 811 00f6 1361     		str	r3, [r2, #16]
 812              	.LVL49:
 380:main.c        ****             CAN_RX_MAILBOX_0_SHIFT = 0b10000000 << (shift+1);
 813              		.loc 1 380 0
 814 00f8 2E4B     		ldr	r3, .L48+48
ARM GAS  C:\Users\austc\AppData\Local\Temp\ccxzq70h.s 			page 27


 815 00fa 8021     		movs	r1, #128
 816 00fc C901     		lsls	r1, r1, #7
 817 00fe 9981     		strh	r1, [r3, #12]
 381:main.c        ****             CAN_RX_MAILBOX_0 = 15u;
 818              		.loc 1 381 0
 819 0100 8021     		movs	r1, #128
 820 0102 0902     		lsls	r1, r1, #8
 821 0104 5960     		str	r1, [r3, #4]
 382:main.c        ****             CAN_RX_MAILBOX_1 = 14u;
 822              		.loc 1 382 0
 823 0106 0F21     		movs	r1, #15
 824 0108 1981     		strh	r1, [r3, #8]
 383:main.c        ****             break;
 825              		.loc 1 383 0
 826 010a 0E23     		movs	r3, #14
 827 010c 5381     		strh	r3, [r2, #10]
 379:main.c        ****             CAN_RX_MAILBOX_1_SHIFT = 0b10000000 << shift;
 828              		.loc 1 379 0
 829 010e 0725     		movs	r5, #7
 830              	.LVL50:
 831              	.L45:
 387:main.c        ****     CAN_RX_MAILBOX_0_SHIFT = CAN_RX_MAILBOX_0_SHIFT << shift;
 832              		.loc 1 387 0
 833 0110 072D     		cmp	r5, #7
 834 0112 0ED0     		beq	.L46
 388:main.c        ****     CAN_RX_MAILBOX_1_SHIFT = CAN_RX_MAILBOX_1_SHIFT << shift;
 835              		.loc 1 388 0
 836 0114 274B     		ldr	r3, .L48+48
 837 0116 5A68     		ldr	r2, [r3, #4]
 838 0118 AA40     		lsls	r2, r2, r5
 839 011a 5A60     		str	r2, [r3, #4]
 389:main.c        ****     CAN_RX_MAILBOX_0 += shift;
 840              		.loc 1 389 0
 841 011c 9A89     		ldrh	r2, [r3, #12]
 842 011e AA40     		lsls	r2, r2, r5
 843 0120 9A81     		strh	r2, [r3, #12]
 390:main.c        ****     CAN_RX_MAILBOX_1 += shift;
 844              		.loc 1 390 0
 845 0122 AAB2     		uxth	r2, r5
 846 0124 1989     		ldrh	r1, [r3, #8]
 847 0126 5118     		adds	r1, r2, r1
 848 0128 1981     		strh	r1, [r3, #8]
 391:main.c        ****     }
 849              		.loc 1 391 0
 850 012a 1749     		ldr	r1, .L48+4
 851 012c 4B89     		ldrh	r3, [r1, #10]
 852 012e D218     		adds	r2, r2, r3
 853 0130 4A81     		strh	r2, [r1, #10]
 854              	.L46:
 393:main.c        ****     
 855              		.loc 1 393 0
 856 0132 0120     		movs	r0, #1
 857 0134 FFF7FEFF 		bl	set_CAN_ID
 858              	.LVL51:
 395:main.c        ****         sprintf(txData, "CAN dip setting:  %x Message ID: %ld\r\n",setting, message_id);
 859              		.loc 1 395 0
 860 0138 1E4B     		ldr	r3, .L48+48
ARM GAS  C:\Users\austc\AppData\Local\Temp\ccxzq70h.s 			page 28


 861 013a 1B78     		ldrb	r3, [r3]
 862 013c 002B     		cmp	r3, #0
 863 013e 1ED0     		beq	.L35
 396:main.c        ****         UART_UartPutString(txData); 
 864              		.loc 1 396 0
 865 0140 114F     		ldr	r7, .L48+4
 866 0142 1D4E     		ldr	r6, .L48+52
 867 0144 3B69     		ldr	r3, [r7, #16]
 868 0146 2200     		movs	r2, r4
 869 0148 1C49     		ldr	r1, .L48+56
 870 014a 3000     		movs	r0, r6
 871 014c FFF7FEFF 		bl	sprintf
 872              	.LVL52:
 397:main.c        ****         sprintf(txData, "Can shift: %d   P0Mailbox: %d P1Mailbox %d\r\n",shift, CAN_RX_MAILBOX_0, C
 873              		.loc 1 397 0
 874 0150 3000     		movs	r0, r6
 875 0152 FFF7FEFF 		bl	UART_UartPutString
 876              	.LVL53:
 398:main.c        ****         UART_UartPutString(txData); 
 877              		.loc 1 398 0
 878 0156 174B     		ldr	r3, .L48+48
 879 0158 1B89     		ldrh	r3, [r3, #8]
 880 015a 7A89     		ldrh	r2, [r7, #10]
 881 015c 0092     		str	r2, [sp]
 882 015e 2A00     		movs	r2, r5
 883 0160 1749     		ldr	r1, .L48+60
 884 0162 3000     		movs	r0, r6
 885 0164 FFF7FEFF 		bl	sprintf
 886              	.LVL54:
 399:main.c        ****         sprintf(txData, "disable_limit: %d\r\n",disable_limit);
 887              		.loc 1 399 0
 888 0168 3000     		movs	r0, r6
 889 016a FFF7FEFF 		bl	UART_UartPutString
 890              	.LVL55:
 400:main.c        ****         UART_UartPutString(txData); 
 891              		.loc 1 400 0
 892 016e 3A7D     		ldrb	r2, [r7, #20]
 893 0170 1449     		ldr	r1, .L48+64
 894 0172 3000     		movs	r0, r6
 895 0174 FFF7FEFF 		bl	sprintf
 896              	.LVL56:
 401:main.c        ****     }
 897              		.loc 1 401 0
 898 0178 3000     		movs	r0, r6
 899 017a FFF7FEFF 		bl	UART_UartPutString
 900              	.LVL57:
 901              	.L35:
 403:main.c        **** 
 902              		.loc 1 403 0
 903 017e 03B0     		add	sp, sp, #12
 904              		@ sp needed
 905              	.LVL58:
 906              	.LVL59:
 907 0180 F0BD     		pop	{r4, r5, r6, r7, pc}
 908              	.L49:
 909 0182 C046     		.align	2
 910              	.L48:
ARM GAS  C:\Users\austc\AppData\Local\Temp\ccxzq70h.s 			page 29


 911 0184 00000000 		.word	.L38
 912 0188 00000000 		.word	.LANCHOR1
 913 018c 0000F03F 		.word	1072693248
 914 0190 00000000 		.word	ratio
 915 0194 66666666 		.word	1717986918
 916 0198 66E62C40 		.word	1076684390
 917 019c 00000000 		.word	kp
 918 01a0 00000000 		.word	ki
 919 01a4 00000000 		.word	kd
 920 01a8 66660640 		.word	1074161254
 921 01ac F1F44A59 		.word	1498084593
 922 01b0 8638F63F 		.word	1073100934
 923 01b4 00000000 		.word	.LANCHOR0
 924 01b8 00000000 		.word	txData
 925 01bc 48000000 		.word	.LC28
 926 01c0 70000000 		.word	.LC31
 927 01c4 A0000000 		.word	.LC33
 928              		.cfi_endproc
 929              	.LFE40:
 930              		.size	initialize_can_addr, .-initialize_can_addr
 931              		.section	.text.set_PWM,"ax",%progbits
 932              		.align	2
 933              		.global	set_PWM
 934              		.code	16
 935              		.thumb_func
 936              		.type	set_PWM, %function
 937              	set_PWM:
 938              	.LFB42:
 410:main.c        ****     pwm_compare = compare;
 939              		.loc 1 410 0
 940              		.cfi_startproc
 941              		@ args = 0, pretend = 0, frame = 0
 942              		@ frame_needed = 0, uses_anonymous_args = 0
 943              	.LVL60:
 944 0000 70B5     		push	{r4, r5, r6, lr}
 945              		.cfi_def_cfa_offset 16
 946              		.cfi_offset 4, -16
 947              		.cfi_offset 5, -12
 948              		.cfi_offset 6, -8
 949              		.cfi_offset 14, -4
 950 0002 0400     		movs	r4, r0
 411:main.c        ****     #ifdef REV2
 951              		.loc 1 411 0
 952 0004 1E4B     		ldr	r3, .L57
 953 0006 1860     		str	r0, [r3]
 415:main.c        ****         sprintf(txData, "PWM:%d disable_limit: %d\r\n",compare,disable_limit);
 954              		.loc 1 415 0
 955 0008 1E4B     		ldr	r3, .L57+4
 956 000a 1B78     		ldrb	r3, [r3]
 957 000c 002B     		cmp	r3, #0
 958 000e 0AD0     		beq	.L51
 416:main.c        ****         UART_UartPutString(txData); 
 959              		.loc 1 416 0
 960 0010 1D4B     		ldr	r3, .L57+8
 961 0012 1B7D     		ldrb	r3, [r3, #20]
 962 0014 1D4D     		ldr	r5, .L57+12
 963 0016 0200     		movs	r2, r0
ARM GAS  C:\Users\austc\AppData\Local\Temp\ccxzq70h.s 			page 30


 964 0018 1D49     		ldr	r1, .L57+16
 965 001a 2800     		movs	r0, r5
 966              	.LVL61:
 967 001c FFF7FEFF 		bl	sprintf
 968              	.LVL62:
 417:main.c        ****     }
 969              		.loc 1 417 0
 970 0020 2800     		movs	r0, r5
 971 0022 FFF7FEFF 		bl	UART_UartPutString
 972              	.LVL63:
 973              	.L51:
 419:main.c        ****     if (compare < -255 || compare > 255) { return; }
 974              		.loc 1 419 0
 975 0026 0022     		movs	r2, #0
 976 0028 174B     		ldr	r3, .L57+8
 977 002a 5A75     		strb	r2, [r3, #21]
 420:main.c        ****     uint8 status = Status_Reg_Switches_Read();
 978              		.loc 1 420 0
 979 002c FF32     		adds	r2, r2, #255
 980 002e FF32     		adds	r2, r2, #255
 981 0030 2300     		movs	r3, r4
 982 0032 FF33     		adds	r3, r3, #255
 983 0034 9342     		cmp	r3, r2
 984 0036 22D8     		bhi	.L50
 421:main.c        ****     if (compare < 0 && (!(status & 0b01) || disable_limit) ) {
 985              		.loc 1 421 0
 986 0038 FFF7FEFF 		bl	Status_Reg_Switches_Read
 987              	.LVL64:
 422:main.c        ****         Pin_Direction_Write(0);
 988              		.loc 1 422 0
 989 003c 002C     		cmp	r4, #0
 990 003e 0CDA     		bge	.L53
 422:main.c        ****         Pin_Direction_Write(0);
 991              		.loc 1 422 0 is_stmt 0 discriminator 1
 992 0040 C307     		lsls	r3, r0, #31
 993 0042 03D5     		bpl	.L54
 422:main.c        ****         Pin_Direction_Write(0);
 994              		.loc 1 422 0 discriminator 2
 995 0044 104B     		ldr	r3, .L57+8
 996 0046 1B7D     		ldrb	r3, [r3, #20]
 997 0048 002B     		cmp	r3, #0
 998 004a 06D0     		beq	.L53
 999              	.L54:
 423:main.c        ****         PWM_Motor_WriteCompare(-compare);
 1000              		.loc 1 423 0 is_stmt 1
 1001 004c 0020     		movs	r0, #0
 1002              	.LVL65:
 1003 004e FFF7FEFF 		bl	Pin_Direction_Write
 1004              	.LVL66:
 424:main.c        ****     } else if (compare > 0 && (!(status & 0b10) || disable_limit) ){
 1005              		.loc 1 424 0
 1006 0052 6042     		rsbs	r0, r4, #0
 1007 0054 FFF7FEFF 		bl	PWM_Motor_WriteCompare
 1008              	.LVL67:
 1009 0058 11E0     		b	.L50
 1010              	.LVL68:
 1011              	.L53:
ARM GAS  C:\Users\austc\AppData\Local\Temp\ccxzq70h.s 			page 31


 425:main.c        ****         Pin_Direction_Write(1);
 1012              		.loc 1 425 0
 1013 005a 002C     		cmp	r4, #0
 1014 005c 0CDD     		ble	.L55
 425:main.c        ****         Pin_Direction_Write(1);
 1015              		.loc 1 425 0 is_stmt 0 discriminator 1
 1016 005e 8307     		lsls	r3, r0, #30
 1017 0060 03D5     		bpl	.L56
 425:main.c        ****         Pin_Direction_Write(1);
 1018              		.loc 1 425 0 discriminator 2
 1019 0062 094B     		ldr	r3, .L57+8
 1020 0064 1B7D     		ldrb	r3, [r3, #20]
 1021 0066 002B     		cmp	r3, #0
 1022 0068 06D0     		beq	.L55
 1023              	.L56:
 426:main.c        ****         PWM_Motor_WriteCompare(compare);
 1024              		.loc 1 426 0 is_stmt 1
 1025 006a 0120     		movs	r0, #1
 1026              	.LVL69:
 1027 006c FFF7FEFF 		bl	Pin_Direction_Write
 1028              	.LVL70:
 427:main.c        ****     } else {
 1029              		.loc 1 427 0
 1030 0070 2000     		movs	r0, r4
 1031 0072 FFF7FEFF 		bl	PWM_Motor_WriteCompare
 1032              	.LVL71:
 1033 0076 02E0     		b	.L50
 1034              	.LVL72:
 1035              	.L55:
 429:main.c        ****         
 1036              		.loc 1 429 0
 1037 0078 0020     		movs	r0, #0
 1038              	.LVL73:
 1039 007a FFF7FEFF 		bl	PWM_Motor_WriteCompare
 1040              	.LVL74:
 1041              	.L50:
 432:main.c        **** 
 1042              		.loc 1 432 0
 1043              		@ sp needed
 1044              	.LVL75:
 1045 007e 70BD     		pop	{r4, r5, r6, pc}
 1046              	.L58:
 1047              		.align	2
 1048              	.L57:
 1049 0080 00000000 		.word	pwm_compare
 1050 0084 00000000 		.word	.LANCHOR0
 1051 0088 00000000 		.word	.LANCHOR1
 1052 008c 00000000 		.word	txData
 1053 0090 B4000000 		.word	.LC38
 1054              		.cfi_endproc
 1055              	.LFE42:
 1056              		.size	set_PWM, .-set_PWM
 1057              		.section	.text.Period_Reset_Handler,"ax",%progbits
 1058              		.align	2
 1059              		.global	Period_Reset_Handler
 1060              		.code	16
 1061              		.thumb_func
ARM GAS  C:\Users\austc\AppData\Local\Temp\ccxzq70h.s 			page 32


 1062              		.type	Period_Reset_Handler, %function
 1063              	Period_Reset_Handler:
 1064              	.LFB35:
  84:main.c        ****     int timer = Timer_1_ReadStatusRegister();
 1065              		.loc 1 84 0
 1066              		.cfi_startproc
 1067              		@ args = 0, pretend = 0, frame = 0
 1068              		@ frame_needed = 0, uses_anonymous_args = 0
 1069 0000 10B5     		push	{r4, lr}
 1070              		.cfi_def_cfa_offset 8
 1071              		.cfi_offset 4, -8
 1072              		.cfi_offset 14, -4
  85:main.c        ****     if(uart_debug) {
 1073              		.loc 1 85 0
 1074 0002 FFF7FEFF 		bl	Timer_1_ReadStatusRegister
 1075              	.LVL76:
  86:main.c        ****         sprintf(txData,"Period interupt triggerd %x\r\n", timer);
 1076              		.loc 1 86 0
 1077 0006 0E4B     		ldr	r3, .L62
 1078 0008 1B78     		ldrb	r3, [r3]
 1079 000a 002B     		cmp	r3, #0
 1080 000c 04D0     		beq	.L60
  87:main.c        ****         //UART_UartPutString(txData);
 1081              		.loc 1 87 0
 1082 000e 0200     		movs	r2, r0
 1083 0010 0C49     		ldr	r1, .L62+4
 1084 0012 0D48     		ldr	r0, .L62+8
 1085              	.LVL77:
 1086 0014 FFF7FEFF 		bl	sprintf
 1087              	.LVL78:
 1088              	.L60:
  90:main.c        ****     invalidate++;
 1089              		.loc 1 90 0
 1090 0018 0122     		movs	r2, #1
 1091 001a 094B     		ldr	r3, .L62
 1092 001c 9A73     		strb	r2, [r3, #14]
  91:main.c        ****     time_LED++;
 1093              		.loc 1 91 0
 1094 001e 0B4A     		ldr	r2, .L62+12
 1095 0020 537D     		ldrb	r3, [r2, #21]
 1096 0022 0133     		adds	r3, r3, #1
 1097 0024 DBB2     		uxtb	r3, r3
 1098 0026 5375     		strb	r3, [r2, #21]
  92:main.c        ****     if(invalidate >= 20){
 1099              		.loc 1 92 0
 1100 0028 917D     		ldrb	r1, [r2, #22]
 1101 002a 0131     		adds	r1, r1, #1
 1102 002c 9175     		strb	r1, [r2, #22]
  93:main.c        ****         set_PWM(0);   
 1103              		.loc 1 93 0
 1104 002e 132B     		cmp	r3, #19
 1105 0030 05D9     		bls	.L59
  94:main.c        ****         Can_rx_pwm.done = 1;
 1106              		.loc 1 94 0
 1107 0032 0020     		movs	r0, #0
 1108 0034 FFF7FEFF 		bl	set_PWM
 1109              	.LVL79:
ARM GAS  C:\Users\austc\AppData\Local\Temp\ccxzq70h.s 			page 33


  95:main.c        ****     }
 1110              		.loc 1 95 0
 1111 0038 0122     		movs	r2, #1
 1112 003a 054B     		ldr	r3, .L62+16
 1113 003c 5A71     		strb	r2, [r3, #5]
 1114              	.L59:
 105:main.c        ****   
 1115              		.loc 1 105 0
 1116              		@ sp needed
 1117 003e 10BD     		pop	{r4, pc}
 1118              	.L63:
 1119              		.align	2
 1120              	.L62:
 1121 0040 00000000 		.word	.LANCHOR0
 1122 0044 D0000000 		.word	.LC42
 1123 0048 00000000 		.word	txData
 1124 004c 00000000 		.word	.LANCHOR1
 1125 0050 00000000 		.word	Can_rx_pwm
 1126              		.cfi_endproc
 1127              	.LFE35:
 1128              		.size	Period_Reset_Handler, .-Period_Reset_Handler
 1129              		.section	.text.Pin_Limit_Handler,"ax",%progbits
 1130              		.align	2
 1131              		.global	Pin_Limit_Handler
 1132              		.code	16
 1133              		.thumb_func
 1134              		.type	Pin_Limit_Handler, %function
 1135              	Pin_Limit_Handler:
 1136              	.LFB36:
 107:main.c        ****     if(uart_debug) {
 1137              		.loc 1 107 0
 1138              		.cfi_startproc
 1139              		@ args = 0, pretend = 0, frame = 0
 1140              		@ frame_needed = 0, uses_anonymous_args = 0
 1141 0000 10B5     		push	{r4, lr}
 1142              		.cfi_def_cfa_offset 8
 1143              		.cfi_offset 4, -8
 1144              		.cfi_offset 14, -4
 108:main.c        ****         sprintf(txData,"Limit interupt triggerd\r\n");
 1145              		.loc 1 108 0
 1146 0002 0A4B     		ldr	r3, .L66
 1147 0004 1B78     		ldrb	r3, [r3]
 1148 0006 002B     		cmp	r3, #0
 1149 0008 08D0     		beq	.L65
 109:main.c        ****         UART_UartPutString(txData);
 1150              		.loc 1 109 0
 1151 000a 094C     		ldr	r4, .L66+4
 1152 000c 1A22     		movs	r2, #26
 1153 000e 0949     		ldr	r1, .L66+8
 1154 0010 2000     		movs	r0, r4
 1155 0012 FFF7FEFF 		bl	memcpy
 1156              	.LVL80:
 110:main.c        ****     }
 1157              		.loc 1 110 0
 1158 0016 2000     		movs	r0, r4
 1159 0018 FFF7FEFF 		bl	UART_UartPutString
 1160              	.LVL81:
ARM GAS  C:\Users\austc\AppData\Local\Temp\ccxzq70h.s 			page 34


 1161              	.L65:
 112:main.c        ****     QuadDec_SetCounter(0);
 1162              		.loc 1 112 0
 1163 001c 064B     		ldr	r3, .L66+12
 1164 001e 1868     		ldr	r0, [r3]
 1165 0020 FFF7FEFF 		bl	set_PWM
 1166              	.LVL82:
 113:main.c        **** }
 1167              		.loc 1 113 0
 1168 0024 0020     		movs	r0, #0
 1169 0026 FFF7FEFF 		bl	QuadDec_SetCounter
 1170              	.LVL83:
 114:main.c        **** 
 1171              		.loc 1 114 0
 1172              		@ sp needed
 1173 002a 10BD     		pop	{r4, pc}
 1174              	.L67:
 1175              		.align	2
 1176              	.L66:
 1177 002c 00000000 		.word	.LANCHOR0
 1178 0030 00000000 		.word	txData
 1179 0034 F0000000 		.word	.LC49
 1180 0038 00000000 		.word	pwm_compare
 1181              		.cfi_endproc
 1182              	.LFE36:
 1183              		.size	Pin_Limit_Handler, .-Pin_Limit_Handler
 1184              		.global	__aeabi_i2d
 1185              		.global	__aeabi_ddiv
 1186              		.global	__aeabi_dmul
 1187              		.global	__aeabi_d2iz
 1188              		.section	.text.CAN_Send_Encoder,"ax",%progbits
 1189              		.align	2
 1190              		.global	CAN_Send_Encoder
 1191              		.code	16
 1192              		.thumb_func
 1193              		.type	CAN_Send_Encoder, %function
 1194              	CAN_Send_Encoder:
 1195              	.LFB43:
 434:main.c        ****     int16 ticks = QuadDec_GetCounter();
 1196              		.loc 1 434 0
 1197              		.cfi_startproc
 1198              		@ args = 0, pretend = 0, frame = 0
 1199              		@ frame_needed = 0, uses_anonymous_args = 0
 1200 0000 F0B5     		push	{r4, r5, r6, r7, lr}
 1201              		.cfi_def_cfa_offset 20
 1202              		.cfi_offset 4, -20
 1203              		.cfi_offset 5, -16
 1204              		.cfi_offset 6, -12
 1205              		.cfi_offset 7, -8
 1206              		.cfi_offset 14, -4
 1207 0002 83B0     		sub	sp, sp, #12
 1208              		.cfi_def_cfa_offset 32
 435:main.c        ****     int16 angle = (((double)ticks)/ratio)*10;
 1209              		.loc 1 435 0
 1210 0004 FFF7FEFF 		bl	QuadDec_GetCounter
 1211              	.LVL84:
 436:main.c        ****     data.byte[0u] = 0x14u;
ARM GAS  C:\Users\austc\AppData\Local\Temp\ccxzq70h.s 			page 35


 1212              		.loc 1 436 0
 1213 0008 FFF7FEFF 		bl	__aeabi_i2d
 1214              	.LVL85:
 1215 000c 184B     		ldr	r3, .L70
 1216 000e 1A68     		ldr	r2, [r3]
 1217 0010 5B68     		ldr	r3, [r3, #4]
 1218 0012 FFF7FEFF 		bl	__aeabi_ddiv
 1219              	.LVL86:
 1220 0016 0022     		movs	r2, #0
 1221 0018 164B     		ldr	r3, .L70+4
 1222 001a FFF7FEFF 		bl	__aeabi_dmul
 1223              	.LVL87:
 1224 001e FFF7FEFF 		bl	__aeabi_d2iz
 1225              	.LVL88:
 1226 0022 00B2     		sxth	r0, r0
 1227              	.LVL89:
 437:main.c        ****     data.byte[1u] = LO8(angle);
 1228              		.loc 1 437 0
 1229 0024 144B     		ldr	r3, .L70+8
 1230 0026 1422     		movs	r2, #20
 1231 0028 1A70     		strb	r2, [r3]
 438:main.c        ****     data.byte[2u] = HI8(angle);
 1232              		.loc 1 438 0
 1233 002a 5870     		strb	r0, [r3, #1]
 439:main.c        ****     data.byte[3u] = 0;
 1234              		.loc 1 439 0
 1235 002c 80B2     		uxth	r0, r0
 1236 002e 000A     		lsrs	r0, r0, #8
 1237              	.LVL90:
 1238 0030 9870     		strb	r0, [r3, #2]
 440:main.c        ****     data.byte[4u] = 0;
 1239              		.loc 1 440 0
 1240 0032 0022     		movs	r2, #0
 1241 0034 DA70     		strb	r2, [r3, #3]
 441:main.c        ****     CAN_SendMsg(&message);
 1242              		.loc 1 441 0
 1243 0036 1A71     		strb	r2, [r3, #4]
 442:main.c        ****     if(uart_debug == 2) {
 1244              		.loc 1 442 0
 1245 0038 1048     		ldr	r0, .L70+12
 1246 003a FFF7FEFF 		bl	CAN_SendMsg
 1247              	.LVL91:
 443:main.c        ****         sprintf(txData, "CAN_Send_Encoder: byte[0u] %x byte[1u] %x byte[2u] %x QuadDec Count %d\r\n
 1248              		.loc 1 443 0
 1249 003e 104B     		ldr	r3, .L70+16
 1250 0040 1B78     		ldrb	r3, [r3]
 1251 0042 022B     		cmp	r3, #2
 1252 0044 11D1     		bne	.L68
 445:main.c        ****             QuadDec_GetCounter());
 1253              		.loc 1 445 0
 1254 0046 0C4B     		ldr	r3, .L70+8
 1255 0048 1D78     		ldrb	r5, [r3]
 1256 004a 5E78     		ldrb	r6, [r3, #1]
 1257 004c 9F78     		ldrb	r7, [r3, #2]
 446:main.c        ****         UART_UartPutString(txData);    
 1258              		.loc 1 446 0
 1259 004e FFF7FEFF 		bl	QuadDec_GetCounter
ARM GAS  C:\Users\austc\AppData\Local\Temp\ccxzq70h.s 			page 36


 1260              	.LVL92:
 444:main.c        ****             data.byte[0u],data.byte[1u],data.byte[2u],
 1261              		.loc 1 444 0
 1262 0052 0C4C     		ldr	r4, .L70+20
 1263 0054 0190     		str	r0, [sp, #4]
 1264 0056 0097     		str	r7, [sp]
 1265 0058 3300     		movs	r3, r6
 1266 005a 2A00     		movs	r2, r5
 1267 005c 0A49     		ldr	r1, .L70+24
 1268 005e 2000     		movs	r0, r4
 1269 0060 FFF7FEFF 		bl	sprintf
 1270              	.LVL93:
 447:main.c        ****     }
 1271              		.loc 1 447 0
 1272 0064 2000     		movs	r0, r4
 1273 0066 FFF7FEFF 		bl	UART_UartPutString
 1274              	.LVL94:
 1275              	.L68:
 449:main.c        **** 
 1276              		.loc 1 449 0
 1277 006a 03B0     		add	sp, sp, #12
 1278              		@ sp needed
 1279 006c F0BD     		pop	{r4, r5, r6, r7, pc}
 1280              	.L71:
 1281 006e C046     		.align	2
 1282              	.L70:
 1283 0070 00000000 		.word	ratio
 1284 0074 00002440 		.word	1076101120
 1285 0078 00000000 		.word	data
 1286 007c 00000000 		.word	message
 1287 0080 00000000 		.word	.LANCHOR0
 1288 0084 00000000 		.word	txData
 1289 0088 0C010000 		.word	.LC56
 1290              		.cfi_endproc
 1291              	.LFE43:
 1292              		.size	CAN_Send_Encoder, .-CAN_Send_Encoder
 1293              		.section	.text.CAN_Send_Telemetry,"ax",%progbits
 1294              		.align	2
 1295              		.global	CAN_Send_Telemetry
 1296              		.code	16
 1297              		.thumb_func
 1298              		.type	CAN_Send_Telemetry, %function
 1299              	CAN_Send_Telemetry:
 1300              	.LFB44:
 451:main.c        ****     data.byte[0u] = 0x18u;
 1301              		.loc 1 451 0
 1302              		.cfi_startproc
 1303              		@ args = 0, pretend = 0, frame = 0
 1304              		@ frame_needed = 0, uses_anonymous_args = 0
 1305 0000 10B5     		push	{r4, lr}
 1306              		.cfi_def_cfa_offset 8
 1307              		.cfi_offset 4, -8
 1308              		.cfi_offset 14, -4
 452:main.c        ****     data.byte[1u] = 0;
 1309              		.loc 1 452 0
 1310 0002 0D4B     		ldr	r3, .L74
 1311 0004 1822     		movs	r2, #24
ARM GAS  C:\Users\austc\AppData\Local\Temp\ccxzq70h.s 			page 37


 1312 0006 1A70     		strb	r2, [r3]
 453:main.c        ****     data.byte[2u] = 0;
 1313              		.loc 1 453 0
 1314 0008 0022     		movs	r2, #0
 1315 000a 5A70     		strb	r2, [r3, #1]
 454:main.c        ****     data.byte[3u] = 0;
 1316              		.loc 1 454 0
 1317 000c 9A70     		strb	r2, [r3, #2]
 455:main.c        ****     data.byte[4u] = 0;
 1318              		.loc 1 455 0
 1319 000e DA70     		strb	r2, [r3, #3]
 456:main.c        ****     CAN_SendMsg(&message);
 1320              		.loc 1 456 0
 1321 0010 1A71     		strb	r2, [r3, #4]
 457:main.c        ****     if(uart_debug == 2) {
 1322              		.loc 1 457 0
 1323 0012 0A48     		ldr	r0, .L74+4
 1324 0014 FFF7FEFF 		bl	CAN_SendMsg
 1325              	.LVL95:
 458:main.c        ****         sprintf(txData, "Telemerty: byte[0u] %x byte[1u] %x\r\n",(uint8)data.byte[0u],(uint8)data.b
 1326              		.loc 1 458 0
 1327 0018 094B     		ldr	r3, .L74+8
 1328 001a 1B78     		ldrb	r3, [r3]
 1329 001c 022B     		cmp	r3, #2
 1330 001e 0AD1     		bne	.L72
 459:main.c        ****         UART_UartPutString(txData); 
 1331              		.loc 1 459 0
 1332 0020 054B     		ldr	r3, .L74
 1333 0022 1A78     		ldrb	r2, [r3]
 1334 0024 5B78     		ldrb	r3, [r3, #1]
 1335 0026 074C     		ldr	r4, .L74+12
 1336 0028 0749     		ldr	r1, .L74+16
 1337 002a 2000     		movs	r0, r4
 1338 002c FFF7FEFF 		bl	sprintf
 1339              	.LVL96:
 460:main.c        ****     }
 1340              		.loc 1 460 0
 1341 0030 2000     		movs	r0, r4
 1342 0032 FFF7FEFF 		bl	UART_UartPutString
 1343              	.LVL97:
 1344              	.L72:
 462:main.c        **** 
 1345              		.loc 1 462 0
 1346              		@ sp needed
 1347 0036 10BD     		pop	{r4, pc}
 1348              	.L75:
 1349              		.align	2
 1350              	.L74:
 1351 0038 00000000 		.word	data
 1352 003c 00000000 		.word	message
 1353 0040 00000000 		.word	.LANCHOR0
 1354 0044 00000000 		.word	txData
 1355 0048 58010000 		.word	.LC62
 1356              		.cfi_endproc
 1357              	.LFE44:
 1358              		.size	CAN_Send_Telemetry, .-CAN_Send_Telemetry
 1359              		.section	.text.CAN_Send_Model,"ax",%progbits
ARM GAS  C:\Users\austc\AppData\Local\Temp\ccxzq70h.s 			page 38


 1360              		.align	2
 1361              		.global	CAN_Send_Model
 1362              		.code	16
 1363              		.thumb_func
 1364              		.type	CAN_Send_Model, %function
 1365              	CAN_Send_Model:
 1366              	.LFB45:
 464:main.c        ****     data.byte[0u] = 0x12u;
 1367              		.loc 1 464 0
 1368              		.cfi_startproc
 1369              		@ args = 0, pretend = 0, frame = 0
 1370              		@ frame_needed = 0, uses_anonymous_args = 0
 1371 0000 10B5     		push	{r4, lr}
 1372              		.cfi_def_cfa_offset 8
 1373              		.cfi_offset 4, -8
 1374              		.cfi_offset 14, -4
 465:main.c        ****     data.byte[1u] = 0x00u;
 1375              		.loc 1 465 0
 1376 0002 0D4B     		ldr	r3, .L78
 1377 0004 1222     		movs	r2, #18
 1378 0006 1A70     		strb	r2, [r3]
 466:main.c        ****     data.byte[2u] = 0;
 1379              		.loc 1 466 0
 1380 0008 0022     		movs	r2, #0
 1381 000a 5A70     		strb	r2, [r3, #1]
 467:main.c        ****     data.byte[3u] = 0;
 1382              		.loc 1 467 0
 1383 000c 9A70     		strb	r2, [r3, #2]
 468:main.c        ****     data.byte[4u] = 0;
 1384              		.loc 1 468 0
 1385 000e DA70     		strb	r2, [r3, #3]
 469:main.c        ****     CAN_SendMsg(&message);
 1386              		.loc 1 469 0
 1387 0010 1A71     		strb	r2, [r3, #4]
 470:main.c        ****     if(uart_debug == 2) {
 1388              		.loc 1 470 0
 1389 0012 0A48     		ldr	r0, .L78+4
 1390 0014 FFF7FEFF 		bl	CAN_SendMsg
 1391              	.LVL98:
 471:main.c        ****         sprintf(txData, "Model: byte[0u] %x byte[1u] %x\r\n",data.byte[0u],data.byte[1u]);
 1392              		.loc 1 471 0
 1393 0018 094B     		ldr	r3, .L78+8
 1394 001a 1B78     		ldrb	r3, [r3]
 1395 001c 022B     		cmp	r3, #2
 1396 001e 0AD1     		bne	.L76
 472:main.c        ****         UART_UartPutString(txData); 
 1397              		.loc 1 472 0
 1398 0020 054B     		ldr	r3, .L78
 1399 0022 1A78     		ldrb	r2, [r3]
 1400 0024 5B78     		ldrb	r3, [r3, #1]
 1401 0026 074C     		ldr	r4, .L78+12
 1402 0028 0749     		ldr	r1, .L78+16
 1403 002a 2000     		movs	r0, r4
 1404 002c FFF7FEFF 		bl	sprintf
 1405              	.LVL99:
 473:main.c        ****     }
 1406              		.loc 1 473 0
ARM GAS  C:\Users\austc\AppData\Local\Temp\ccxzq70h.s 			page 39


 1407 0030 2000     		movs	r0, r4
 1408 0032 FFF7FEFF 		bl	UART_UartPutString
 1409              	.LVL100:
 1410              	.L76:
 475:main.c        **** 
 1411              		.loc 1 475 0
 1412              		@ sp needed
 1413 0036 10BD     		pop	{r4, pc}
 1414              	.L79:
 1415              		.align	2
 1416              	.L78:
 1417 0038 00000000 		.word	data
 1418 003c 00000000 		.word	message
 1419 0040 00000000 		.word	.LANCHOR0
 1420 0044 00000000 		.word	txData
 1421 0048 80010000 		.word	.LC68
 1422              		.cfi_endproc
 1423              	.LFE45:
 1424              		.size	CAN_Send_Model, .-CAN_Send_Model
 1425              		.section	.text.CAN_Send_Error,"ax",%progbits
 1426              		.align	2
 1427              		.global	CAN_Send_Error
 1428              		.code	16
 1429              		.thumb_func
 1430              		.type	CAN_Send_Error, %function
 1431              	CAN_Send_Error:
 1432              	.LFB46:
 477:main.c        ****     data.byte[0u] = 0xffu;
 1433              		.loc 1 477 0
 1434              		.cfi_startproc
 1435              		@ args = 0, pretend = 0, frame = 0
 1436              		@ frame_needed = 0, uses_anonymous_args = 0
 1437              	.LVL101:
 1438 0000 10B5     		push	{r4, lr}
 1439              		.cfi_def_cfa_offset 8
 1440              		.cfi_offset 4, -8
 1441              		.cfi_offset 14, -4
 1442 0002 82B0     		sub	sp, sp, #8
 1443              		.cfi_def_cfa_offset 16
 478:main.c        ****     data.byte[1u] = code;
 1444              		.loc 1 478 0
 1445 0004 0E4B     		ldr	r3, .L82
 1446 0006 FF22     		movs	r2, #255
 1447 0008 1A70     		strb	r2, [r3]
 479:main.c        ****     data.byte[2u] = param;
 1448              		.loc 1 479 0
 1449 000a 5870     		strb	r0, [r3, #1]
 480:main.c        ****     data.byte[3u] = 0;
 1450              		.loc 1 480 0
 1451 000c 9970     		strb	r1, [r3, #2]
 481:main.c        ****     data.byte[4u] = 0;
 1452              		.loc 1 481 0
 1453 000e 0022     		movs	r2, #0
 1454 0010 DA70     		strb	r2, [r3, #3]
 482:main.c        ****     CAN_SendMsg(&message);
 1455              		.loc 1 482 0
 1456 0012 1A71     		strb	r2, [r3, #4]
ARM GAS  C:\Users\austc\AppData\Local\Temp\ccxzq70h.s 			page 40


 483:main.c        ****     if(uart_debug == 2) {
 1457              		.loc 1 483 0
 1458 0014 0B48     		ldr	r0, .L82+4
 1459              	.LVL102:
 1460 0016 FFF7FEFF 		bl	CAN_SendMsg
 1461              	.LVL103:
 484:main.c        ****         sprintf(txData, "Error: byte[0u] %x byte[1u] %x byte[2u] %x\r\n",data.byte[0u],data.byte[1u
 1462              		.loc 1 484 0
 1463 001a 0B4B     		ldr	r3, .L82+8
 1464 001c 1B78     		ldrb	r3, [r3]
 1465 001e 022B     		cmp	r3, #2
 1466 0020 0CD1     		bne	.L80
 485:main.c        ****         UART_UartPutString(txData); 
 1467              		.loc 1 485 0
 1468 0022 0749     		ldr	r1, .L82
 1469 0024 0A78     		ldrb	r2, [r1]
 1470 0026 4B78     		ldrb	r3, [r1, #1]
 1471 0028 8978     		ldrb	r1, [r1, #2]
 1472 002a 084C     		ldr	r4, .L82+12
 1473 002c 0091     		str	r1, [sp]
 1474 002e 0849     		ldr	r1, .L82+16
 1475 0030 2000     		movs	r0, r4
 1476 0032 FFF7FEFF 		bl	sprintf
 1477              	.LVL104:
 486:main.c        ****     }
 1478              		.loc 1 486 0
 1479 0036 2000     		movs	r0, r4
 1480 0038 FFF7FEFF 		bl	UART_UartPutString
 1481              	.LVL105:
 1482              	.L80:
 488:main.c        **** 
 1483              		.loc 1 488 0
 1484 003c 02B0     		add	sp, sp, #8
 1485              		@ sp needed
 1486 003e 10BD     		pop	{r4, pc}
 1487              	.L83:
 1488              		.align	2
 1489              	.L82:
 1490 0040 00000000 		.word	data
 1491 0044 00000000 		.word	message
 1492 0048 00000000 		.word	.LANCHOR0
 1493 004c 00000000 		.word	txData
 1494 0050 A4010000 		.word	.LC74
 1495              		.cfi_endproc
 1496              	.LFE46:
 1497              		.size	CAN_Send_Error, .-CAN_Send_Error
 1498              		.section	.text.set_data,"ax",%progbits
 1499              		.align	2
 1500              		.global	set_data
 1501              		.code	16
 1502              		.thumb_func
 1503              		.type	set_data, %function
 1504              	set_data:
 1505              	.LFB48:
 528:main.c        ****         //set mode
 1506              		.loc 1 528 0
 1507              		.cfi_startproc
ARM GAS  C:\Users\austc\AppData\Local\Temp\ccxzq70h.s 			page 41


 1508              		@ args = 0, pretend = 0, frame = 0
 1509              		@ frame_needed = 0, uses_anonymous_args = 0
 1510              	.LVL106:
 1511 0000 10B5     		push	{r4, lr}
 1512              		.cfi_def_cfa_offset 8
 1513              		.cfi_offset 4, -8
 1514              		.cfi_offset 14, -4
 530:main.c        ****             if(CAN_RX_DATA_BYTE2(addr) == 1 || CAN_RX_DATA_BYTE2(addr) == 0) {
 1515              		.loc 1 530 0
 1516 0002 4001     		lsls	r0, r0, #5
 1517              	.LVL107:
 1518 0004 334B     		ldr	r3, .L93
 1519 0006 9C46     		mov	ip, r3
 1520 0008 6044     		add	r0, r0, ip
 1521 000a 8368     		ldr	r3, [r0, #8]
 1522 000c 1B0E     		lsrs	r3, r3, #24
 1523 000e 23D1     		bne	.L85
 531:main.c        ****                 mode = CAN_RX_DATA_BYTE2(addr);
 1524              		.loc 1 531 0
 1525 0010 8368     		ldr	r3, [r0, #8]
 1526 0012 1B0C     		lsrs	r3, r3, #16
 1527 0014 FF22     		movs	r2, #255
 1528 0016 1340     		ands	r3, r2
 1529 0018 012B     		cmp	r3, #1
 1530 001a 03D0     		beq	.L86
 531:main.c        ****                 mode = CAN_RX_DATA_BYTE2(addr);
 1531              		.loc 1 531 0 is_stmt 0 discriminator 1
 1532 001c 8368     		ldr	r3, [r0, #8]
 1533 001e 1B0C     		lsrs	r3, r3, #16
 1534 0020 1A42     		tst	r2, r3
 1535 0022 11D1     		bne	.L87
 1536              	.L86:
 532:main.c        ****                 if(mode == 1){
 1537              		.loc 1 532 0 is_stmt 1
 1538 0024 8368     		ldr	r3, [r0, #8]
 1539 0026 1B0C     		lsrs	r3, r3, #16
 1540 0028 DBB2     		uxtb	r3, r3
 1541 002a 2B4A     		ldr	r2, .L93+4
 1542 002c 9372     		strb	r3, [r2, #10]
 533:main.c        ****                     final_angle = QuadDec_GetCounter() * flipEncoder;
 1543              		.loc 1 533 0
 1544 002e 012B     		cmp	r3, #1
 1545 0030 0ED1     		bne	.L88
 534:main.c        ****                     i = 0;
 1546              		.loc 1 534 0
 1547 0032 FFF7FEFF 		bl	QuadDec_GetCounter
 1548              	.LVL108:
 1549 0036 294A     		ldr	r2, .L93+8
 1550 0038 274B     		ldr	r3, .L93+4
 1551 003a DB7A     		ldrb	r3, [r3, #11]
 1552 003c 5BB2     		sxtb	r3, r3
 1553 003e 5843     		muls	r0, r3
 1554 0040 1080     		strh	r0, [r2]
 535:main.c        ****                 }
 1555              		.loc 1 535 0
 1556 0042 0023     		movs	r3, #0
 1557 0044 5360     		str	r3, [r2, #4]
ARM GAS  C:\Users\austc\AppData\Local\Temp\ccxzq70h.s 			page 42


 1558 0046 03E0     		b	.L88
 1559              	.L87:
 539:main.c        ****                 invalid_arg.done = 0;
 1560              		.loc 1 539 0
 1561 0048 254B     		ldr	r3, .L93+12
 1562 004a 0022     		movs	r2, #0
 1563 004c 5A70     		strb	r2, [r3, #1]
 540:main.c        ****             }
 1564              		.loc 1 540 0
 1565 004e 9A70     		strb	r2, [r3, #2]
 1566              	.L88:
 542:main.c        ****         } 
 1567              		.loc 1 542 0
 1568 0050 0122     		movs	r2, #1
 1569 0052 224B     		ldr	r3, .L93+8
 1570 0054 1A72     		strb	r2, [r3, #8]
 1571 0056 3BE0     		b	.L84
 1572              	.L85:
 545:main.c        ****             Can_rx_pwm.b1 = CAN_RX_DATA_BYTE2(addr);
 1573              		.loc 1 545 0
 1574 0058 8368     		ldr	r3, [r0, #8]
 1575 005a 1B0E     		lsrs	r3, r3, #24
 1576 005c 022B     		cmp	r3, #2
 1577 005e 0ED1     		bne	.L90
 546:main.c        ****             Can_rx_pwm.b2 = CAN_RX_DATA_BYTE3(addr);
 1578              		.loc 1 546 0
 1579 0060 8268     		ldr	r2, [r0, #8]
 1580 0062 120C     		lsrs	r2, r2, #16
 1581 0064 1F4B     		ldr	r3, .L93+16
 1582 0066 5A70     		strb	r2, [r3, #1]
 547:main.c        ****             Can_rx_pwm.b3 = CAN_RX_DATA_BYTE4(addr);
 1583              		.loc 1 547 0
 1584 0068 8268     		ldr	r2, [r0, #8]
 1585 006a 120A     		lsrs	r2, r2, #8
 1586 006c 9A70     		strb	r2, [r3, #2]
 548:main.c        ****             Can_rx_pwm.b4 = CAN_RX_DATA_BYTE5(addr);
 1587              		.loc 1 548 0
 1588 006e 8268     		ldr	r2, [r0, #8]
 1589 0070 DA70     		strb	r2, [r3, #3]
 549:main.c        ****             Can_rx_pwm.done = 0;
 1590              		.loc 1 549 0
 1591 0072 C268     		ldr	r2, [r0, #12]
 1592 0074 120E     		lsrs	r2, r2, #24
 1593 0076 1A71     		strb	r2, [r3, #4]
 550:main.c        ****         } 
 1594              		.loc 1 550 0
 1595 0078 0022     		movs	r2, #0
 1596 007a 5A71     		strb	r2, [r3, #5]
 1597 007c 28E0     		b	.L84
 1598              	.L90:
 553:main.c        ****             Can_rx_angle.b1 = CAN_RX_DATA_BYTE2(addr);
 1599              		.loc 1 553 0
 1600 007e 8368     		ldr	r3, [r0, #8]
 1601 0080 1B0E     		lsrs	r3, r3, #24
 1602 0082 042B     		cmp	r3, #4
 1603 0084 1DD1     		bne	.L91
 554:main.c        ****             Can_rx_angle.b2 = CAN_RX_DATA_BYTE3(addr);
ARM GAS  C:\Users\austc\AppData\Local\Temp\ccxzq70h.s 			page 43


 1604              		.loc 1 554 0
 1605 0086 8368     		ldr	r3, [r0, #8]
 1606 0088 1B0C     		lsrs	r3, r3, #16
 1607 008a D9B2     		uxtb	r1, r3
 1608 008c 164C     		ldr	r4, .L93+20
 1609 008e 6170     		strb	r1, [r4, #1]
 555:main.c        ****             Can_rx_angle.b3 = CAN_RX_DATA_BYTE4(addr);
 1610              		.loc 1 555 0
 1611 0090 8268     		ldr	r2, [r0, #8]
 1612 0092 120A     		lsrs	r2, r2, #8
 1613 0094 D3B2     		uxtb	r3, r2
 1614 0096 A370     		strb	r3, [r4, #2]
 556:main.c        ****             Can_rx_angle.b4 = CAN_RX_DATA_BYTE5(addr);
 1615              		.loc 1 556 0
 1616 0098 8268     		ldr	r2, [r0, #8]
 1617 009a E270     		strb	r2, [r4, #3]
 557:main.c        ****             Can_rx_angle.done = 0;
 1618              		.loc 1 557 0
 1619 009c C268     		ldr	r2, [r0, #12]
 1620 009e 120E     		lsrs	r2, r2, #24
 1621 00a0 2271     		strb	r2, [r4, #4]
 558:main.c        ****             if((((uint16_t)Can_rx_angle.b2) << 8 | Can_rx_angle.b1) != final_angle){
 1622              		.loc 1 558 0
 1623 00a2 0022     		movs	r2, #0
 1624 00a4 6271     		strb	r2, [r4, #5]
 559:main.c        ****                  i=0;
 1625              		.loc 1 559 0
 1626 00a6 1B02     		lsls	r3, r3, #8
 1627 00a8 0B43     		orrs	r3, r1
 1628 00aa 0C4A     		ldr	r2, .L93+8
 1629 00ac 0021     		movs	r1, #0
 1630 00ae 525E     		ldrsh	r2, [r2, r1]
 1631 00b0 9342     		cmp	r3, r2
 1632 00b2 02D0     		beq	.L92
 560:main.c        ****             }
 1633              		.loc 1 560 0
 1634 00b4 0022     		movs	r2, #0
 1635 00b6 094B     		ldr	r3, .L93+8
 1636 00b8 5A60     		str	r2, [r3, #4]
 1637              	.L92:
 562:main.c        ****         } 
 1638              		.loc 1 562 0
 1639 00ba 0122     		movs	r2, #1
 1640 00bc 074B     		ldr	r3, .L93+8
 1641 00be 1A72     		strb	r2, [r3, #8]
 1642 00c0 06E0     		b	.L84
 1643              	.L91:
 565:main.c        ****             model_req = 1;
 1644              		.loc 1 565 0
 1645 00c2 8368     		ldr	r3, [r0, #8]
 1646 00c4 1B0E     		lsrs	r3, r3, #24
 1647 00c6 102B     		cmp	r3, #16
 1648 00c8 02D1     		bne	.L84
 1649              		.loc 1 566 0
 1650 00ca 0122     		movs	r2, #1
 1651 00cc 034B     		ldr	r3, .L93+8
 1652 00ce 5A72     		strb	r2, [r3, #9]
ARM GAS  C:\Users\austc\AppData\Local\Temp\ccxzq70h.s 			page 44


 1653              	.L84:
 567:main.c        ****         }
 568:main.c        **** }
 1654              		.loc 1 568 0
 1655              		@ sp needed
 1656 00d0 10BD     		pop	{r4, pc}
 1657              	.L94:
 1658 00d2 C046     		.align	2
 1659              	.L93:
 1660 00d4 A0002F40 		.word	1076822176
 1661 00d8 00000000 		.word	.LANCHOR0
 1662 00dc 00000000 		.word	.LANCHOR1
 1663 00e0 00000000 		.word	invalid_arg
 1664 00e4 00000000 		.word	Can_rx_pwm
 1665 00e8 00000000 		.word	Can_rx_angle
 1666              		.cfi_endproc
 1667              	.LFE48:
 1668              		.size	set_data, .-set_data
 1669              		.section	.text.degrees_to_tick,"ax",%progbits
 1670              		.align	2
 1671              		.global	degrees_to_tick
 1672              		.code	16
 1673              		.thumb_func
 1674              		.type	degrees_to_tick, %function
 1675              	degrees_to_tick:
 1676              	.LFB50:
 569:main.c        **** 
 570:main.c        **** void set_Position(int16 degrees) {
 571:main.c        ****     if(uart_debug) {
 572:main.c        ****         sprintf(txData, "complete: %d\r\n",complete);
 573:main.c        ****         UART_UartPutString(txData);
 574:main.c        ****     }
 575:main.c        ****     //while(!complete) {
 576:main.c        ****         int PWM = position_PID(degrees_to_tick(degrees));
 577:main.c        ****         if(uart_debug) {
 578:main.c        ****             sprintf(txData, "PWM: %d\r\n",PWM);
 579:main.c        ****             UART_UartPutString(txData);
 580:main.c        ****         }
 581:main.c        ****         if(PWM > maxV){
 582:main.c        ****             set_PWM(maxV);   
 583:main.c        ****         } else if(PWM < -maxV) {
 584:main.c        ****             set_PWM(-maxV);
 585:main.c        ****         } else {
 586:main.c        ****             set_PWM(PWM);   
 587:main.c        ****         }
 588:main.c        ****    // }
 589:main.c        **** }
 590:main.c        **** 
 591:main.c        **** int degrees_to_tick(int16 degrees){
 1677              		.loc 1 591 0
 1678              		.cfi_startproc
 1679              		@ args = 0, pretend = 0, frame = 0
 1680              		@ frame_needed = 0, uses_anonymous_args = 0
 1681              	.LVL109:
 1682 0000 70B5     		push	{r4, r5, r6, lr}
 1683              		.cfi_def_cfa_offset 16
 1684              		.cfi_offset 4, -16
ARM GAS  C:\Users\austc\AppData\Local\Temp\ccxzq70h.s 			page 45


 1685              		.cfi_offset 5, -12
 1686              		.cfi_offset 6, -8
 1687              		.cfi_offset 14, -4
 1688 0002 0500     		movs	r5, r0
 592:main.c        ****     int ticks = (int)((double)degrees * ratio);
 1689              		.loc 1 592 0
 1690 0004 FFF7FEFF 		bl	__aeabi_i2d
 1691              	.LVL110:
 1692 0008 0B4B     		ldr	r3, .L97
 1693 000a 1A68     		ldr	r2, [r3]
 1694 000c 5B68     		ldr	r3, [r3, #4]
 1695 000e FFF7FEFF 		bl	__aeabi_dmul
 1696              	.LVL111:
 1697 0012 FFF7FEFF 		bl	__aeabi_d2iz
 1698              	.LVL112:
 1699 0016 0400     		movs	r4, r0
 1700              	.LVL113:
 593:main.c        ****     if(uart_debug) {
 1701              		.loc 1 593 0
 1702 0018 084B     		ldr	r3, .L97+4
 1703 001a 1B78     		ldrb	r3, [r3]
 1704 001c 002B     		cmp	r3, #0
 1705 001e 09D0     		beq	.L96
 594:main.c        ****         sprintf(txData, "degree: %d ticks: %d\r\n", degrees, ticks);
 1706              		.loc 1 594 0
 1707 0020 074E     		ldr	r6, .L97+8
 1708 0022 0300     		movs	r3, r0
 1709 0024 2A00     		movs	r2, r5
 1710 0026 0749     		ldr	r1, .L97+12
 1711 0028 3000     		movs	r0, r6
 1712              	.LVL114:
 1713 002a FFF7FEFF 		bl	sprintf
 1714              	.LVL115:
 595:main.c        ****         UART_UartPutString(txData);
 1715              		.loc 1 595 0
 1716 002e 3000     		movs	r0, r6
 1717 0030 FFF7FEFF 		bl	UART_UartPutString
 1718              	.LVL116:
 1719              	.L96:
 596:main.c        ****     }
 597:main.c        ****     return(ticks);
 598:main.c        **** }
 1720              		.loc 1 598 0
 1721 0034 2000     		movs	r0, r4
 1722              		@ sp needed
 1723              	.LVL117:
 1724 0036 70BD     		pop	{r4, r5, r6, pc}
 1725              	.L98:
 1726              		.align	2
 1727              	.L97:
 1728 0038 00000000 		.word	ratio
 1729 003c 00000000 		.word	.LANCHOR0
 1730 0040 00000000 		.word	txData
 1731 0044 D4010000 		.word	.LC84
 1732              		.cfi_endproc
 1733              	.LFE50:
 1734              		.size	degrees_to_tick, .-degrees_to_tick
ARM GAS  C:\Users\austc\AppData\Local\Temp\ccxzq70h.s 			page 46


 1735              		.global	__aeabi_idiv
 1736              		.section	.text.position_PID,"ax",%progbits
 1737              		.align	2
 1738              		.global	position_PID
 1739              		.code	16
 1740              		.thumb_func
 1741              		.type	position_PID, %function
 1742              	position_PID:
 1743              	.LFB51:
 599:main.c        **** 
 600:main.c        **** int position_PID(int target){
 1744              		.loc 1 600 0
 1745              		.cfi_startproc
 1746              		@ args = 0, pretend = 0, frame = 0
 1747              		@ frame_needed = 0, uses_anonymous_args = 0
 1748              	.LVL118:
 1749 0000 70B5     		push	{r4, r5, r6, lr}
 1750              		.cfi_def_cfa_offset 16
 1751              		.cfi_offset 4, -16
 1752              		.cfi_offset 5, -12
 1753              		.cfi_offset 6, -8
 1754              		.cfi_offset 14, -4
 1755 0002 82B0     		sub	sp, sp, #8
 1756              		.cfi_def_cfa_offset 24
 1757 0004 0400     		movs	r4, r0
 601:main.c        ****     int16 current =  QuadDec_GetCounter() * flipEncoder;
 1758              		.loc 1 601 0
 1759 0006 FFF7FEFF 		bl	QuadDec_GetCounter
 1760              	.LVL119:
 1761 000a 2D4B     		ldr	r3, .L106
 1762 000c DB7A     		ldrb	r3, [r3, #11]
 1763 000e 5BB2     		sxtb	r3, r3
 1764 0010 5843     		muls	r0, r3
 1765 0012 02B2     		sxth	r2, r0
 1766              	.LVL120:
 602:main.c        ****     int p = target - current;
 1767              		.loc 1 602 0
 1768 0014 A41A     		subs	r4, r4, r2
 1769              	.LVL121:
 603:main.c        ****     if(p <= 5 && p >= -5) {
 1770              		.loc 1 603 0
 1771 0016 631D     		adds	r3, r4, #5
 1772 0018 0A2B     		cmp	r3, #10
 1773 001a 0ED8     		bhi	.L100
 604:main.c        ****         if(uart_debug) {
 1774              		.loc 1 604 0
 1775 001c 284B     		ldr	r3, .L106
 1776 001e 1B78     		ldrb	r3, [r3]
 1777 0020 002B     		cmp	r3, #0
 1778 0022 49D0     		beq	.L105
 605:main.c        ****             sprintf(txData, "p: %d\r\n",p);
 1779              		.loc 1 605 0
 1780 0024 274D     		ldr	r5, .L106+4
 1781 0026 2200     		movs	r2, r4
 1782              	.LVL122:
 1783 0028 2749     		ldr	r1, .L106+8
 1784 002a 2800     		movs	r0, r5
ARM GAS  C:\Users\austc\AppData\Local\Temp\ccxzq70h.s 			page 47


 1785              	.LVL123:
 1786 002c FFF7FEFF 		bl	sprintf
 1787              	.LVL124:
 606:main.c        ****             UART_UartPutString(txData);
 1788              		.loc 1 606 0
 1789 0030 2800     		movs	r0, r5
 1790 0032 FFF7FEFF 		bl	UART_UartPutString
 1791              	.LVL125:
 607:main.c        ****         }
 608:main.c        ****       //complete =  1;
 609:main.c        ****       return(0);
 1792              		.loc 1 609 0
 1793 0036 0020     		movs	r0, #0
 1794 0038 3FE0     		b	.L101
 1795              	.LVL126:
 1796              	.L100:
 610:main.c        ****     }
 611:main.c        ****     i = i + p;
 1797              		.loc 1 611 0
 1798 003a 2449     		ldr	r1, .L106+12
 1799 003c 4B68     		ldr	r3, [r1, #4]
 1800 003e E318     		adds	r3, r4, r3
 1801 0040 4B60     		str	r3, [r1, #4]
 612:main.c        ****     if ( i > 500) {
 1802              		.loc 1 612 0
 1803 0042 FA21     		movs	r1, #250
 1804 0044 4900     		lsls	r1, r1, #1
 1805 0046 8B42     		cmp	r3, r1
 1806 0048 01DD     		ble	.L102
 613:main.c        ****         i = 500;   
 1807              		.loc 1 613 0
 1808 004a 204B     		ldr	r3, .L106+12
 1809 004c 5960     		str	r1, [r3, #4]
 1810              	.L102:
 614:main.c        ****     }
 615:main.c        ****     if ( i < -500) {
 1811              		.loc 1 615 0
 1812 004e 1F4B     		ldr	r3, .L106+12
 1813 0050 5968     		ldr	r1, [r3, #4]
 1814 0052 1F4B     		ldr	r3, .L106+16
 1815 0054 9942     		cmp	r1, r3
 1816 0056 02DA     		bge	.L103
 616:main.c        ****         i = -500;
 1817              		.loc 1 616 0
 1818 0058 1900     		movs	r1, r3
 1819 005a 1C4B     		ldr	r3, .L106+12
 1820 005c 5960     		str	r1, [r3, #4]
 1821              	.L103:
 617:main.c        ****     }
 618:main.c        ****     int d = p - lastp;
 1822              		.loc 1 618 0
 1823 005e 1B4B     		ldr	r3, .L106+12
 1824 0060 9969     		ldr	r1, [r3, #24]
 1825 0062 651A     		subs	r5, r4, r1
 1826              	.LVL127:
 619:main.c        ****     lastp = p;
 1827              		.loc 1 619 0
ARM GAS  C:\Users\austc\AppData\Local\Temp\ccxzq70h.s 			page 48


 1828 0064 9C61     		str	r4, [r3, #24]
 620:main.c        ****     if(uart_debug) {
 1829              		.loc 1 620 0
 1830 0066 164B     		ldr	r3, .L106
 1831 0068 1B78     		ldrb	r3, [r3]
 1832 006a 002B     		cmp	r3, #0
 1833 006c 0CD0     		beq	.L104
 621:main.c        ****         sprintf(txData, "p: %d, i: %d d %d current %d\r\n",p, i, d, current);
 1834              		.loc 1 621 0
 1835 006e 174B     		ldr	r3, .L106+12
 1836 0070 5B68     		ldr	r3, [r3, #4]
 1837 0072 144E     		ldr	r6, .L106+4
 1838 0074 0192     		str	r2, [sp, #4]
 1839 0076 0095     		str	r5, [sp]
 1840 0078 2200     		movs	r2, r4
 1841              	.LVL128:
 1842 007a 1649     		ldr	r1, .L106+20
 1843 007c 3000     		movs	r0, r6
 1844 007e FFF7FEFF 		bl	sprintf
 1845              	.LVL129:
 622:main.c        ****         UART_UartPutString(txData);
 1846              		.loc 1 622 0
 1847 0082 3000     		movs	r0, r6
 1848 0084 FFF7FEFF 		bl	UART_UartPutString
 1849              	.LVL130:
 1850              	.L104:
 623:main.c        ****     }
 624:main.c        ****     return (p*kp/10 + i*ki/10 + d*kd/10);
 1851              		.loc 1 624 0
 1852 0088 134B     		ldr	r3, .L106+24
 1853 008a 1868     		ldr	r0, [r3]
 1854 008c 6043     		muls	r0, r4
 1855 008e 0A21     		movs	r1, #10
 1856 0090 FFF7FEFF 		bl	__aeabi_idiv
 1857              	.LVL131:
 1858 0094 0400     		movs	r4, r0
 1859              	.LVL132:
 1860 0096 0D4B     		ldr	r3, .L106+12
 1861 0098 5868     		ldr	r0, [r3, #4]
 1862 009a 104B     		ldr	r3, .L106+28
 1863 009c 1B68     		ldr	r3, [r3]
 1864 009e 5843     		muls	r0, r3
 1865 00a0 0A21     		movs	r1, #10
 1866 00a2 FFF7FEFF 		bl	__aeabi_idiv
 1867              	.LVL133:
 1868 00a6 2418     		adds	r4, r4, r0
 1869 00a8 0D4B     		ldr	r3, .L106+32
 1870 00aa 1868     		ldr	r0, [r3]
 1871 00ac 6843     		muls	r0, r5
 1872 00ae 0A21     		movs	r1, #10
 1873 00b0 FFF7FEFF 		bl	__aeabi_idiv
 1874              	.LVL134:
 1875 00b4 2018     		adds	r0, r4, r0
 1876 00b6 00E0     		b	.L101
 1877              	.LVL135:
 1878              	.L105:
 609:main.c        ****     }
ARM GAS  C:\Users\austc\AppData\Local\Temp\ccxzq70h.s 			page 49


 1879              		.loc 1 609 0
 1880 00b8 0020     		movs	r0, #0
 1881              	.LVL136:
 1882              	.L101:
 625:main.c        **** }
 1883              		.loc 1 625 0
 1884 00ba 02B0     		add	sp, sp, #8
 1885              		@ sp needed
 1886 00bc 70BD     		pop	{r4, r5, r6, pc}
 1887              	.L107:
 1888 00be C046     		.align	2
 1889              	.L106:
 1890 00c0 00000000 		.word	.LANCHOR0
 1891 00c4 00000000 		.word	txData
 1892 00c8 EC010000 		.word	.LC88
 1893 00cc 00000000 		.word	.LANCHOR1
 1894 00d0 0CFEFFFF 		.word	-500
 1895 00d4 F4010000 		.word	.LC92
 1896 00d8 00000000 		.word	kp
 1897 00dc 00000000 		.word	ki
 1898 00e0 00000000 		.word	kd
 1899              		.cfi_endproc
 1900              	.LFE51:
 1901              		.size	position_PID, .-position_PID
 1902              		.section	.text.set_Position,"ax",%progbits
 1903              		.align	2
 1904              		.global	set_Position
 1905              		.code	16
 1906              		.thumb_func
 1907              		.type	set_Position, %function
 1908              	set_Position:
 1909              	.LFB49:
 570:main.c        ****     if(uart_debug) {
 1910              		.loc 1 570 0
 1911              		.cfi_startproc
 1912              		@ args = 0, pretend = 0, frame = 0
 1913              		@ frame_needed = 0, uses_anonymous_args = 0
 1914              	.LVL137:
 1915 0000 70B5     		push	{r4, r5, r6, lr}
 1916              		.cfi_def_cfa_offset 16
 1917              		.cfi_offset 4, -16
 1918              		.cfi_offset 5, -12
 1919              		.cfi_offset 6, -8
 1920              		.cfi_offset 14, -4
 1921 0002 0400     		movs	r4, r0
 571:main.c        ****         sprintf(txData, "complete: %d\r\n",complete);
 1922              		.loc 1 571 0
 1923 0004 184B     		ldr	r3, .L114
 1924 0006 1B78     		ldrb	r3, [r3]
 1925 0008 002B     		cmp	r3, #0
 1926 000a 09D0     		beq	.L109
 572:main.c        ****         UART_UartPutString(txData);
 1927              		.loc 1 572 0
 1928 000c 174B     		ldr	r3, .L114+4
 1929 000e 1A7A     		ldrb	r2, [r3, #8]
 1930 0010 174D     		ldr	r5, .L114+8
 1931 0012 1849     		ldr	r1, .L114+12
ARM GAS  C:\Users\austc\AppData\Local\Temp\ccxzq70h.s 			page 50


 1932 0014 2800     		movs	r0, r5
 1933              	.LVL138:
 1934 0016 FFF7FEFF 		bl	sprintf
 1935              	.LVL139:
 573:main.c        ****     }
 1936              		.loc 1 573 0
 1937 001a 2800     		movs	r0, r5
 1938 001c FFF7FEFF 		bl	UART_UartPutString
 1939              	.LVL140:
 1940              	.L109:
 576:main.c        ****         if(uart_debug) {
 1941              		.loc 1 576 0
 1942 0020 2000     		movs	r0, r4
 1943 0022 FFF7FEFF 		bl	degrees_to_tick
 1944              	.LVL141:
 1945 0026 FFF7FEFF 		bl	position_PID
 1946              	.LVL142:
 1947 002a 0400     		movs	r4, r0
 1948              	.LVL143:
 577:main.c        ****             sprintf(txData, "PWM: %d\r\n",PWM);
 1949              		.loc 1 577 0
 1950 002c 0E4B     		ldr	r3, .L114
 1951 002e 1B78     		ldrb	r3, [r3]
 1952 0030 002B     		cmp	r3, #0
 1953 0032 08D0     		beq	.L110
 578:main.c        ****             UART_UartPutString(txData);
 1954              		.loc 1 578 0
 1955 0034 0E4D     		ldr	r5, .L114+8
 1956 0036 0200     		movs	r2, r0
 1957 0038 0F49     		ldr	r1, .L114+16
 1958 003a 2800     		movs	r0, r5
 1959              	.LVL144:
 1960 003c FFF7FEFF 		bl	sprintf
 1961              	.LVL145:
 579:main.c        ****         }
 1962              		.loc 1 579 0
 1963 0040 2800     		movs	r0, r5
 1964 0042 FFF7FEFF 		bl	UART_UartPutString
 1965              	.LVL146:
 1966              	.L110:
 581:main.c        ****             set_PWM(maxV);   
 1967              		.loc 1 581 0
 1968 0046 094B     		ldr	r3, .L114+4
 1969 0048 187F     		ldrb	r0, [r3, #28]
 1970 004a 8442     		cmp	r4, r0
 1971 004c 02DD     		ble	.L111
 582:main.c        ****         } else if(PWM < -maxV) {
 1972              		.loc 1 582 0
 1973 004e FFF7FEFF 		bl	set_PWM
 1974              	.LVL147:
 1975 0052 08E0     		b	.L108
 1976              	.L111:
 583:main.c        ****             set_PWM(-maxV);
 1977              		.loc 1 583 0
 1978 0054 4042     		rsbs	r0, r0, #0
 1979 0056 8442     		cmp	r4, r0
 1980 0058 02DA     		bge	.L113
ARM GAS  C:\Users\austc\AppData\Local\Temp\ccxzq70h.s 			page 51


 584:main.c        ****         } else {
 1981              		.loc 1 584 0
 1982 005a FFF7FEFF 		bl	set_PWM
 1983              	.LVL148:
 1984 005e 02E0     		b	.L108
 1985              	.L113:
 586:main.c        ****         }
 1986              		.loc 1 586 0
 1987 0060 2000     		movs	r0, r4
 1988 0062 FFF7FEFF 		bl	set_PWM
 1989              	.LVL149:
 1990              	.L108:
 589:main.c        **** 
 1991              		.loc 1 589 0
 1992              		@ sp needed
 1993              	.LVL150:
 1994 0066 70BD     		pop	{r4, r5, r6, pc}
 1995              	.L115:
 1996              		.align	2
 1997              	.L114:
 1998 0068 00000000 		.word	.LANCHOR0
 1999 006c 00000000 		.word	.LANCHOR1
 2000 0070 00000000 		.word	txData
 2001 0074 14020000 		.word	.LC99
 2002 0078 24020000 		.word	.LC102
 2003              		.cfi_endproc
 2004              	.LFE49:
 2005              		.size	set_Position, .-set_Position
 2006              		.section	.text.main,"ax",%progbits
 2007              		.align	2
 2008              		.global	main
 2009              		.code	16
 2010              		.thumb_func
 2011              		.type	main, %function
 2012              	main:
 2013              	.LFB37:
 117:main.c        ****     #ifdef REV2
 2014              		.loc 1 117 0
 2015              		.cfi_startproc
 2016              		@ args = 0, pretend = 0, frame = 0
 2017              		@ frame_needed = 0, uses_anonymous_args = 0
 2018 0000 10B5     		push	{r4, lr}
 2019              		.cfi_def_cfa_offset 8
 2020              		.cfi_offset 4, -8
 2021              		.cfi_offset 14, -4
 2022 0002 82B0     		sub	sp, sp, #8
 2023              		.cfi_def_cfa_offset 16
 122:main.c        ****     stall.done = 1;
 2024              		.loc 1 122 0
 2025 0004 5D4A     		ldr	r2, .L130
 2026 0006 0123     		movs	r3, #1
 2027 0008 1370     		strb	r3, [r2]
 123:main.c        ****     command_failed.code = 0x02;
 2028              		.loc 1 123 0
 2029 000a 9370     		strb	r3, [r2, #2]
 124:main.c        ****     command_failed.done = 1;
 2030              		.loc 1 124 0
ARM GAS  C:\Users\austc\AppData\Local\Temp\ccxzq70h.s 			page 52


 2031 000c 5C4A     		ldr	r2, .L130+4
 2032 000e 0221     		movs	r1, #2
 2033 0010 1170     		strb	r1, [r2]
 125:main.c        ****     invalid_arg.code = 0x03;
 2034              		.loc 1 125 0
 2035 0012 9370     		strb	r3, [r2, #2]
 126:main.c        ****     invalid_arg.done = 1;
 2036              		.loc 1 126 0
 2037 0014 5B4A     		ldr	r2, .L130+8
 2038 0016 0131     		adds	r1, r1, #1
 2039 0018 1170     		strb	r1, [r2]
 127:main.c        ****     uint8 error;
 2040              		.loc 1 127 0
 2041 001a 9370     		strb	r3, [r2, #2]
 130:main.c        ****     message.ide = MESSAGE_IDE;
 2042              		.loc 1 130 0
 2043 001c 5A4B     		ldr	r3, .L130+12
 2044 001e 0522     		movs	r2, #5
 2045 0020 9A71     		strb	r2, [r3, #6]
 131:main.c        ****     message.irq = MESSAGE_IRQ;
 2046              		.loc 1 131 0
 2047 0022 0024     		movs	r4, #0
 2048 0024 5C71     		strb	r4, [r3, #5]
 132:main.c        ****     message.msg = &data;
 2049              		.loc 1 132 0
 2050 0026 DC71     		strb	r4, [r3, #7]
 133:main.c        ****     message.rtr = MESSAGE_RTR;
 2051              		.loc 1 133 0
 2052 0028 584A     		ldr	r2, .L130+16
 2053 002a DA60     		str	r2, [r3, #12]
 134:main.c        ****     
 2054              		.loc 1 134 0
 2055 002c 1C71     		strb	r4, [r3, #4]
 141:main.c        ****     initialize_can_addr();
 2056              		.loc 1 141 0
 2057 002e FFF7FEFF 		bl	initialize
 2058              	.LVL151:
 142:main.c        ****     int up = 0;
 2059              		.loc 1 142 0
 2060 0032 FFF7FEFF 		bl	initialize_can_addr
 2061              	.LVL152:
 145:main.c        ****     set_PWM(0);
 2062              		.loc 1 145 0
 2063 0036 564B     		ldr	r3, .L130+20
 2064 0038 1C60     		str	r4, [r3]
 146:main.c        ****     
 2065              		.loc 1 146 0
 2066 003a 0020     		movs	r0, #0
 2067 003c FFF7FEFF 		bl	set_PWM
 2068              	.LVL153:
 2069              	.L117:
 155:main.c        **** 
 2070              		.loc 1 155 0
 2071 0040 544B     		ldr	r3, .L130+24
 2072 0042 1B7B     		ldrb	r3, [r3, #12]
 2073 0044 002B     		cmp	r3, #0
 2074 0046 FBD1     		bne	.L117
ARM GAS  C:\Users\austc\AppData\Local\Temp\ccxzq70h.s 			page 53


 164:main.c        ****                     if(mode == 0) {
 2075              		.loc 1 164 0
 2076 0048 534B     		ldr	r3, .L130+28
 2077 004a 5979     		ldrb	r1, [r3, #5]
 2078 004c 0029     		cmp	r1, #0
 2079 004e 34D1     		bne	.L118
 165:main.c        ****                         if(uart_debug) {
 2080              		.loc 1 165 0
 2081 0050 524B     		ldr	r3, .L130+32
 2082 0052 9A7A     		ldrb	r2, [r3, #10]
 2083 0054 002A     		cmp	r2, #0
 2084 0056 1FD1     		bne	.L119
 166:main.c        ****                             sprintf(txData, "B1: %d, B2: %d done %x\r\n",Can_rx_pwm.b1, Can_rx_pwm.
 2085              		.loc 1 166 0
 2086 0058 1B78     		ldrb	r3, [r3]
 2087 005a 002B     		cmp	r3, #0
 2088 005c 0BD0     		beq	.L120
 167:main.c        ****                             UART_UartPutString(txData);
 2089              		.loc 1 167 0
 2090 005e 4E4B     		ldr	r3, .L130+28
 2091 0060 5A78     		ldrb	r2, [r3, #1]
 2092 0062 9B78     		ldrb	r3, [r3, #2]
 2093 0064 4E4C     		ldr	r4, .L130+36
 2094 0066 0091     		str	r1, [sp]
 2095 0068 4E49     		ldr	r1, .L130+40
 2096 006a 2000     		movs	r0, r4
 2097 006c FFF7FEFF 		bl	sprintf
 2098              	.LVL154:
 168:main.c        ****                         }
 2099              		.loc 1 168 0
 2100 0070 2000     		movs	r0, r4
 2101 0072 FFF7FEFF 		bl	UART_UartPutString
 2102              	.LVL155:
 2103              	.L120:
 170:main.c        ****                         if(Can_rx_pwm.b2 & 0b01) {
 2104              		.loc 1 170 0
 2105 0076 484B     		ldr	r3, .L130+28
 2106 0078 0122     		movs	r2, #1
 2107 007a 5A71     		strb	r2, [r3, #5]
 171:main.c        ****                             set_PWM((int)Can_rx_pwm.b1);
 2108              		.loc 1 171 0
 2109 007c 9B78     		ldrb	r3, [r3, #2]
 2110 007e DB07     		lsls	r3, r3, #31
 2111 0080 04D5     		bpl	.L121
 172:main.c        ****                         }
 2112              		.loc 1 172 0
 2113 0082 454B     		ldr	r3, .L130+28
 2114 0084 5878     		ldrb	r0, [r3, #1]
 2115 0086 FFF7FEFF 		bl	set_PWM
 2116              	.LVL156:
 2117 008a 16E0     		b	.L118
 2118              	.L121:
 175:main.c        ****                         }
 2119              		.loc 1 175 0
 2120 008c 424B     		ldr	r3, .L130+28
 2121 008e 5878     		ldrb	r0, [r3, #1]
 2122 0090 4042     		rsbs	r0, r0, #0
ARM GAS  C:\Users\austc\AppData\Local\Temp\ccxzq70h.s 			page 54


 2123 0092 FFF7FEFF 		bl	set_PWM
 2124              	.LVL157:
 2125 0096 10E0     		b	.L118
 2126              	.L119:
 178:main.c        ****                         command_failed.param = 0x02;
 2127              		.loc 1 178 0
 2128 0098 394B     		ldr	r3, .L130+4
 2129 009a 0021     		movs	r1, #0
 2130 009c 9970     		strb	r1, [r3, #2]
 179:main.c        ****                         if(uart_debug) {
 2131              		.loc 1 179 0
 2132 009e 0231     		adds	r1, r1, #2
 2133 00a0 5970     		strb	r1, [r3, #1]
 180:main.c        ****                             sprintf(txData, "Mode is not set to 0, mode is %d\r\n",mode);
 2134              		.loc 1 180 0
 2135 00a2 3E4B     		ldr	r3, .L130+32
 2136 00a4 1B78     		ldrb	r3, [r3]
 2137 00a6 002B     		cmp	r3, #0
 2138 00a8 07D0     		beq	.L118
 181:main.c        ****                             UART_UartPutString(txData);
 2139              		.loc 1 181 0
 2140 00aa 3D4C     		ldr	r4, .L130+36
 2141 00ac 3E49     		ldr	r1, .L130+44
 2142 00ae 2000     		movs	r0, r4
 2143 00b0 FFF7FEFF 		bl	sprintf
 2144              	.LVL158:
 182:main.c        ****                         }
 2145              		.loc 1 182 0
 2146 00b4 2000     		movs	r0, r4
 2147 00b6 FFF7FEFF 		bl	UART_UartPutString
 2148              	.LVL159:
 2149              	.L118:
 189:main.c        ****                         if(uart_debug) {
 2150              		.loc 1 189 0
 2151 00ba 384B     		ldr	r3, .L130+32
 2152 00bc 9A7A     		ldrb	r2, [r3, #10]
 2153 00be 012A     		cmp	r2, #1
 2154 00c0 20D1     		bne	.L122
 190:main.c        ****                             sprintf(txData, "B1: %d, B3: %d done %x\r\n",Can_rx_angle.b1, Can_rx_an
 2155              		.loc 1 190 0
 2156 00c2 1B78     		ldrb	r3, [r3]
 2157 00c4 002B     		cmp	r3, #0
 2158 00c6 0DD0     		beq	.L123
 191:main.c        ****                             UART_UartPutString(txData);
 2159              		.loc 1 191 0
 2160 00c8 384B     		ldr	r3, .L130+48
 2161 00ca 5A78     		ldrb	r2, [r3, #1]
 2162 00cc DB78     		ldrb	r3, [r3, #3]
 2163 00ce 3249     		ldr	r1, .L130+28
 2164 00d0 4979     		ldrb	r1, [r1, #5]
 2165 00d2 334C     		ldr	r4, .L130+36
 2166 00d4 0091     		str	r1, [sp]
 2167 00d6 3649     		ldr	r1, .L130+52
 2168 00d8 2000     		movs	r0, r4
 2169 00da FFF7FEFF 		bl	sprintf
 2170              	.LVL160:
 192:main.c        ****                         }
ARM GAS  C:\Users\austc\AppData\Local\Temp\ccxzq70h.s 			page 55


 2171              		.loc 1 192 0
 2172 00de 2000     		movs	r0, r4
 2173 00e0 FFF7FEFF 		bl	UART_UartPutString
 2174              	.LVL161:
 2175              	.L123:
 195:main.c        ****                         maxV = Can_rx_angle.b3;
 2176              		.loc 1 195 0
 2177 00e4 2B4A     		ldr	r2, .L130+24
 2178 00e6 0021     		movs	r1, #0
 2179 00e8 1172     		strb	r1, [r2, #8]
 196:main.c        ****                         i = 0;
 2180              		.loc 1 196 0
 2181 00ea 304B     		ldr	r3, .L130+48
 2182 00ec D878     		ldrb	r0, [r3, #3]
 2183 00ee 1077     		strb	r0, [r2, #28]
 197:main.c        ****                         
 2184              		.loc 1 197 0
 2185 00f0 5160     		str	r1, [r2, #4]
 201:main.c        ****                         set_Position(final_angle);
 2186              		.loc 1 201 0
 2187 00f2 9878     		ldrb	r0, [r3, #2]
 2188 00f4 0002     		lsls	r0, r0, #8
 2189 00f6 5B78     		ldrb	r3, [r3, #1]
 2190 00f8 1843     		orrs	r0, r3
 2191 00fa 00B2     		sxth	r0, r0
 2192 00fc 1080     		strh	r0, [r2]
 202:main.c        ****                     }
 2193              		.loc 1 202 0
 2194 00fe FFF7FEFF 		bl	set_Position
 2195              	.LVL162:
 2196 0102 14E0     		b	.L124
 2197              	.L122:
 204:main.c        ****                         command_failed.done = 0;
 2198              		.loc 1 204 0
 2199 0104 244B     		ldr	r3, .L130+28
 2200 0106 5B79     		ldrb	r3, [r3, #5]
 2201 0108 002B     		cmp	r3, #0
 2202 010a 10D1     		bne	.L124
 205:main.c        ****                         command_failed.param = 0x04;
 2203              		.loc 1 205 0
 2204 010c 1C4B     		ldr	r3, .L130+4
 2205 010e 0021     		movs	r1, #0
 2206 0110 9970     		strb	r1, [r3, #2]
 206:main.c        ****                         if(uart_debug) {
 2207              		.loc 1 206 0
 2208 0112 0431     		adds	r1, r1, #4
 2209 0114 5970     		strb	r1, [r3, #1]
 207:main.c        ****                             sprintf(txData, "Mode is not set to 1, mode is %d\r\n", mode);
 2210              		.loc 1 207 0
 2211 0116 214B     		ldr	r3, .L130+32
 2212 0118 1B78     		ldrb	r3, [r3]
 2213 011a 002B     		cmp	r3, #0
 2214 011c 07D0     		beq	.L124
 208:main.c        ****                             UART_UartPutString(txData);
 2215              		.loc 1 208 0
 2216 011e 204C     		ldr	r4, .L130+36
 2217 0120 2449     		ldr	r1, .L130+56
ARM GAS  C:\Users\austc\AppData\Local\Temp\ccxzq70h.s 			page 56


 2218 0122 2000     		movs	r0, r4
 2219 0124 FFF7FEFF 		bl	sprintf
 2220              	.LVL163:
 209:main.c        ****                         }
 2221              		.loc 1 209 0
 2222 0128 2000     		movs	r0, r4
 2223 012a FFF7FEFF 		bl	UART_UartPutString
 2224              	.LVL164:
 2225              	.L124:
 214:main.c        ****                     Can_rx_angle.done = 1;
 2226              		.loc 1 214 0
 2227 012e 1B4B     		ldr	r3, .L130+32
 2228 0130 9B7A     		ldrb	r3, [r3, #10]
 2229 0132 012B     		cmp	r3, #1
 2230 0134 04D9     		bls	.L125
 215:main.c        ****                     Can_rx_pwm.done = 1;
 2231              		.loc 1 215 0
 2232 0136 0123     		movs	r3, #1
 2233 0138 1C4A     		ldr	r2, .L130+48
 2234 013a 5371     		strb	r3, [r2, #5]
 216:main.c        ****                 }
 2235              		.loc 1 216 0
 2236 013c 164A     		ldr	r2, .L130+28
 2237 013e 5371     		strb	r3, [r2, #5]
 2238              	.L125:
 240:main.c        ****                 if(uart_debug) {
 2239              		.loc 1 240 0
 2240 0140 164B     		ldr	r3, .L130+32
 2241 0142 9B7B     		ldrb	r3, [r3, #14]
 2242 0144 002B     		cmp	r3, #0
 2243 0146 0DD0     		beq	.L126
 241:main.c        ****                     sprintf(txData,"\nSending Data... \r\n");
 2244              		.loc 1 241 0
 2245 0148 144B     		ldr	r3, .L130+32
 2246 014a 1B78     		ldrb	r3, [r3]
 2247 014c 002B     		cmp	r3, #0
 2248 014e 04D0     		beq	.L127
 242:main.c        ****                    // UART_UartPutString(txData);
 2249              		.loc 1 242 0
 2250 0150 1422     		movs	r2, #20
 2251 0152 1949     		ldr	r1, .L130+60
 2252 0154 1248     		ldr	r0, .L130+36
 2253 0156 FFF7FEFF 		bl	memcpy
 2254              	.LVL165:
 2255              	.L127:
 245:main.c        ****                 send_data = 0;
 2256              		.loc 1 245 0
 2257 015a FFF7FEFF 		bl	CAN_Send_Encoder
 2258              	.LVL166:
 246:main.c        ****             }
 2259              		.loc 1 246 0
 2260 015e 0022     		movs	r2, #0
 2261 0160 0E4B     		ldr	r3, .L130+32
 2262 0162 9A73     		strb	r2, [r3, #14]
 2263              	.L126:
 250:main.c        ****                 CAN_Send_Model();
 2264              		.loc 1 250 0
ARM GAS  C:\Users\austc\AppData\Local\Temp\ccxzq70h.s 			page 57


 2265 0164 0B4B     		ldr	r3, .L130+24
 2266 0166 5B7A     		ldrb	r3, [r3, #9]
 2267 0168 002B     		cmp	r3, #0
 2268 016a 00D1     		bne	.LCB1999
 2269 016c 68E7     		b	.L117	@long jump
 2270              	.LCB1999:
 251:main.c        ****                 model_req = 0;
 2271              		.loc 1 251 0
 2272 016e FFF7FEFF 		bl	CAN_Send_Model
 2273              	.LVL167:
 252:main.c        ****             }
 2274              		.loc 1 252 0
 2275 0172 0022     		movs	r2, #0
 2276 0174 074B     		ldr	r3, .L130+24
 2277 0176 5A72     		strb	r2, [r3, #9]
 2278 0178 62E7     		b	.L117
 2279              	.L131:
 2280 017a C046     		.align	2
 2281              	.L130:
 2282 017c 00000000 		.word	stall
 2283 0180 00000000 		.word	command_failed
 2284 0184 00000000 		.word	invalid_arg
 2285 0188 00000000 		.word	message
 2286 018c 00000000 		.word	data
 2287 0190 00000000 		.word	pwm_compare
 2288 0194 00000000 		.word	.LANCHOR1
 2289 0198 00000000 		.word	Can_rx_pwm
 2290 019c 00000000 		.word	.LANCHOR0
 2291 01a0 00000000 		.word	txData
 2292 01a4 30020000 		.word	.LC113
 2293 01a8 4C020000 		.word	.LC116
 2294 01ac 00000000 		.word	Can_rx_angle
 2295 01b0 70020000 		.word	.LC119
 2296 01b4 8C020000 		.word	.LC121
 2297 01b8 B0020000 		.word	.LC123
 2298              		.cfi_endproc
 2299              	.LFE37:
 2300              		.size	main, .-main
 2301              		.global	drive
 2302              		.comm	message,16,4
 2303              		.comm	data,8,4
 2304              		.comm	txData,100,4
 2305              		.global	emergency
 2306              		.global	mailbox
 2307              		.comm	invalid_arg,3,4
 2308              		.comm	command_failed,3,4
 2309              		.comm	stall,3,4
 2310              		.comm	Can_rx_angle,6,4
 2311              		.comm	Can_rx_pwm,6,4
 2312              		.global	disable_limit
 2313              		.global	model_req
 2314              		.global	send_data
 2315              		.global	mode
 2316              		.global	maxV
 2317              		.global	complete
 2318              		.comm	ratio,8,8
 2319              		.comm	kd,4,4
ARM GAS  C:\Users\austc\AppData\Local\Temp\ccxzq70h.s 			page 58


 2320              		.comm	ki,4,4
 2321              		.comm	kp,4,4
 2322              		.global	lastp
 2323              		.global	i
 2324              		.global	final_angle
 2325              		.global	flipEncoder
 2326              		.global	invalidate
 2327              		.comm	pwm_compare,4,4
 2328              		.comm	GEAR_RATIO,4,4
 2329              		.global	uart_debug
 2330              		.comm	CAN_TIMEOUT,4,4
 2331              		.global	CAN_RX_MAILBOX_0
 2332              		.global	CAN_RX_MAILBOX_1
 2333              		.global	CAN_RX_MAILBOX_0_SHIFT
 2334              		.global	CAN_RX_MAILBOX_1_SHIFT
 2335              		.global	message_id
 2336              		.global	time_LED
 2337              		.data
 2338              		.align	2
 2339              		.set	.LANCHOR0,. + 0
 2340              		.type	uart_debug, %object
 2341              		.size	uart_debug, 1
 2342              	uart_debug:
 2343 0000 02       		.byte	2
 2344 0001 000000   		.space	3
 2345              		.type	CAN_RX_MAILBOX_0_SHIFT, %object
 2346              		.size	CAN_RX_MAILBOX_0_SHIFT, 4
 2347              	CAN_RX_MAILBOX_0_SHIFT:
 2348 0004 80000000 		.word	128
 2349              		.type	CAN_RX_MAILBOX_0, %object
 2350              		.size	CAN_RX_MAILBOX_0, 2
 2351              	CAN_RX_MAILBOX_0:
 2352 0008 0700     		.short	7
 2353              		.type	mode, %object
 2354              		.size	mode, 1
 2355              	mode:
 2356 000a 02       		.byte	2
 2357              		.type	flipEncoder, %object
 2358              		.size	flipEncoder, 1
 2359              	flipEncoder:
 2360 000b 01       		.byte	1
 2361              		.type	CAN_RX_MAILBOX_1_SHIFT, %object
 2362              		.size	CAN_RX_MAILBOX_1_SHIFT, 2
 2363              	CAN_RX_MAILBOX_1_SHIFT:
 2364 000c 0100     		.short	1
 2365              		.type	send_data, %object
 2366              		.size	send_data, 1
 2367              	send_data:
 2368 000e 01       		.byte	1
 2369              		.section	.rodata.str1.4,"aMS",%progbits,1
 2370              		.align	2
 2371              	.LC1:
 2372 0000 0A204361 		.ascii	"\012 Can rx triggered\012\000"
 2372      6E207278 
 2372      20747269 
 2372      67676572 
 2372      65640A00 
ARM GAS  C:\Users\austc\AppData\Local\Temp\ccxzq70h.s 			page 59


 2373              	.LC3:
 2374 0014 50302072 		.ascii	"P0 recieved\012\000"
 2374      65636965 
 2374      7665640A 
 2374      00
 2375 0021 000000   		.space	3
 2376              	.LC9:
 2377 0024 50312072 		.ascii	"P1 recieved\012\012\000"
 2377      65636965 
 2377      7665640A 
 2377      0A00
 2378 0032 0000     		.space	2
 2379              	.LC16:
 2380 0034 43414E5F 		.ascii	"CAN_Start():  %u\015\012\000"
 2380      53746172 
 2380      7428293A 
 2380      20202575 
 2380      0D0A00
 2381 0047 00       		.space	1
 2382              	.LC28:
 2383 0048 43414E20 		.ascii	"CAN dip setting:  %x Message ID: %ld\015\012\000"
 2383      64697020 
 2383      73657474 
 2383      696E673A 
 2383      20202578 
 2384 006f 00       		.space	1
 2385              	.LC31:
 2386 0070 43616E20 		.ascii	"Can shift: %d   P0Mailbox: %d P1Mailbox %d\015\012\000"
 2386      73686966 
 2386      743A2025 
 2386      64202020 
 2386      50304D61 
 2387 009d 000000   		.space	3
 2388              	.LC33:
 2389 00a0 64697361 		.ascii	"disable_limit: %d\015\012\000"
 2389      626C655F 
 2389      6C696D69 
 2389      743A2025 
 2389      640D0A00 
 2390              	.LC38:
 2391 00b4 50574D3A 		.ascii	"PWM:%d disable_limit: %d\015\012\000"
 2391      25642064 
 2391      69736162 
 2391      6C655F6C 
 2391      696D6974 
 2392 00cf 00       		.space	1
 2393              	.LC42:
 2394 00d0 50657269 		.ascii	"Period interupt triggerd %x\015\012\000"
 2394      6F642069 
 2394      6E746572 
 2394      75707420 
 2394      74726967 
 2395 00ee 0000     		.space	2
 2396              	.LC49:
 2397 00f0 4C696D69 		.ascii	"Limit interupt triggerd\015\012\000"
 2397      7420696E 
 2397      74657275 
ARM GAS  C:\Users\austc\AppData\Local\Temp\ccxzq70h.s 			page 60


 2397      70742074 
 2397      72696767 
 2398 010a 0000     		.space	2
 2399              	.LC56:
 2400 010c 43414E5F 		.ascii	"CAN_Send_Encoder: byte[0u] %x byte[1u] %x byte[2u] "
 2400      53656E64 
 2400      5F456E63 
 2400      6F646572 
 2400      3A206279 
 2401 013f 25782051 		.ascii	"%x QuadDec Count %d\015\012\000"
 2401      75616444 
 2401      65632043 
 2401      6F756E74 
 2401      2025640D 
 2402 0155 000000   		.space	3
 2403              	.LC62:
 2404 0158 54656C65 		.ascii	"Telemerty: byte[0u] %x byte[1u] %x\015\012\000"
 2404      6D657274 
 2404      793A2062 
 2404      7974655B 
 2404      30755D20 
 2405 017d 000000   		.space	3
 2406              	.LC68:
 2407 0180 4D6F6465 		.ascii	"Model: byte[0u] %x byte[1u] %x\015\012\000"
 2407      6C3A2062 
 2407      7974655B 
 2407      30755D20 
 2407      25782062 
 2408 01a1 000000   		.space	3
 2409              	.LC74:
 2410 01a4 4572726F 		.ascii	"Error: byte[0u] %x byte[1u] %x byte[2u] %x\015\012\000"
 2410      723A2062 
 2410      7974655B 
 2410      30755D20 
 2410      25782062 
 2411 01d1 000000   		.space	3
 2412              	.LC84:
 2413 01d4 64656772 		.ascii	"degree: %d ticks: %d\015\012\000"
 2413      65653A20 
 2413      25642074 
 2413      69636B73 
 2413      3A202564 
 2414 01eb 00       		.space	1
 2415              	.LC88:
 2416 01ec 703A2025 		.ascii	"p: %d\015\012\000"
 2416      640D0A00 
 2417              	.LC92:
 2418 01f4 703A2025 		.ascii	"p: %d, i: %d d %d current %d\015\012\000"
 2418      642C2069 
 2418      3A202564 
 2418      20642025 
 2418      64206375 
 2419 0213 00       		.space	1
 2420              	.LC99:
 2421 0214 636F6D70 		.ascii	"complete: %d\015\012\000"
 2421      6C657465 
 2421      3A202564 
ARM GAS  C:\Users\austc\AppData\Local\Temp\ccxzq70h.s 			page 61


 2421      0D0A00
 2422 0223 00       		.space	1
 2423              	.LC102:
 2424 0224 50574D3A 		.ascii	"PWM: %d\015\012\000"
 2424      2025640D 
 2424      0A00
 2425 022e 0000     		.space	2
 2426              	.LC113:
 2427 0230 42313A20 		.ascii	"B1: %d, B2: %d done %x\015\012\000"
 2427      25642C20 
 2427      42323A20 
 2427      25642064 
 2427      6F6E6520 
 2428 0249 000000   		.space	3
 2429              	.LC116:
 2430 024c 4D6F6465 		.ascii	"Mode is not set to 0, mode is %d\015\012\000"
 2430      20697320 
 2430      6E6F7420 
 2430      73657420 
 2430      746F2030 
 2431 026f 00       		.space	1
 2432              	.LC119:
 2433 0270 42313A20 		.ascii	"B1: %d, B3: %d done %x\015\012\000"
 2433      25642C20 
 2433      42333A20 
 2433      25642064 
 2433      6F6E6520 
 2434 0289 000000   		.space	3
 2435              	.LC121:
 2436 028c 4D6F6465 		.ascii	"Mode is not set to 1, mode is %d\015\012\000"
 2436      20697320 
 2436      6E6F7420 
 2436      73657420 
 2436      746F2031 
 2437 02af 00       		.space	1
 2438              	.LC123:
 2439 02b0 0A53656E 		.ascii	"\012Sending Data... \015\012\000"
 2439      64696E67 
 2439      20446174 
 2439      612E2E2E 
 2439      200D0A00 
 2440              		.bss
 2441              		.align	2
 2442              		.set	.LANCHOR1,. + 0
 2443              		.type	final_angle, %object
 2444              		.size	final_angle, 2
 2445              	final_angle:
 2446 0000 0000     		.space	2
 2447 0002 0000     		.space	2
 2448              		.type	i, %object
 2449              		.size	i, 4
 2450              	i:
 2451 0004 00000000 		.space	4
 2452              		.type	complete, %object
 2453              		.size	complete, 1
 2454              	complete:
 2455 0008 00       		.space	1
ARM GAS  C:\Users\austc\AppData\Local\Temp\ccxzq70h.s 			page 62


 2456              		.type	model_req, %object
 2457              		.size	model_req, 1
 2458              	model_req:
 2459 0009 00       		.space	1
 2460              		.type	CAN_RX_MAILBOX_1, %object
 2461              		.size	CAN_RX_MAILBOX_1, 2
 2462              	CAN_RX_MAILBOX_1:
 2463 000a 0000     		.space	2
 2464              		.type	emergency, %object
 2465              		.size	emergency, 1
 2466              	emergency:
 2467 000c 00       		.space	1
 2468 000d 000000   		.space	3
 2469              		.type	message_id, %object
 2470              		.size	message_id, 4
 2471              	message_id:
 2472 0010 00000000 		.space	4
 2473              		.type	disable_limit, %object
 2474              		.size	disable_limit, 1
 2475              	disable_limit:
 2476 0014 00       		.space	1
 2477              		.type	invalidate, %object
 2478              		.size	invalidate, 1
 2479              	invalidate:
 2480 0015 00       		.space	1
 2481              		.type	time_LED, %object
 2482              		.size	time_LED, 1
 2483              	time_LED:
 2484 0016 00       		.space	1
 2485 0017 00       		.space	1
 2486              		.type	lastp, %object
 2487              		.size	lastp, 4
 2488              	lastp:
 2489 0018 00000000 		.space	4
 2490              		.type	maxV, %object
 2491              		.size	maxV, 1
 2492              	maxV:
 2493 001c 00       		.space	1
 2494              		.type	drive, %object
 2495              		.size	drive, 1
 2496              	drive:
 2497 001d 00       		.space	1
 2498 001e 0000     		.space	2
 2499              		.type	mailbox, %object
 2500              		.size	mailbox, 4
 2501              	mailbox:
 2502 0020 00000000 		.space	4
 2503              		.text
 2504              	.Letext0:
 2505              		.file 2 "c:\\program files (x86)\\cypress\\psoc creator\\4.2\\psoc creator\\import\\gnu\\arm\\5.4.
 2506              		.file 3 "c:\\program files (x86)\\cypress\\psoc creator\\4.2\\psoc creator\\import\\gnu\\arm\\5.4.
 2507              		.file 4 "Generated_Source\\PSoC4/cytypes.h"
 2508              		.file 5 "./cyapicallbacks.h"
 2509              		.file 6 "Generated_Source\\PSoC4/CAN.h"
 2510              		.file 7 "Generated_Source\\PSoC4/QuadDec.h"
 2511              		.file 8 "Generated_Source\\PSoC4/UART_SPI_UART.h"
 2512              		.file 9 "Generated_Source\\PSoC4/PWM_Motor.h"
ARM GAS  C:\Users\austc\AppData\Local\Temp\ccxzq70h.s 			page 63


 2513              		.file 10 "Generated_Source\\PSoC4/Status_Reg_Switches.h"
 2514              		.file 11 "Generated_Source\\PSoC4/Timer_1.h"
 2515              		.file 12 "Generated_Source\\PSoC4/CyLib.h"
 2516              		.file 13 "Generated_Source\\PSoC4/isr_Limit_1.h"
 2517              		.file 14 "Generated_Source\\PSoC4/isr_period.h"
 2518              		.file 15 "Generated_Source\\PSoC4/UART.h"
 2519              		.file 16 "c:\\program files (x86)\\cypress\\psoc creator\\4.2\\psoc creator\\import\\gnu\\arm\\5.4
 2520              		.file 17 "Generated_Source\\PSoC4/Can_addr.h"
 2521              		.file 18 "Generated_Source\\PSoC4/Pin_Direction.h"
 2522              		.section	.debug_info,"",%progbits
 2523              	.Ldebug_info0:
 2524 0000 68100000 		.4byte	0x1068
 2525 0004 0400     		.2byte	0x4
 2526 0006 00000000 		.4byte	.Ldebug_abbrev0
 2527 000a 04       		.byte	0x4
 2528 000b 01       		.uleb128 0x1
 2529 000c 48010000 		.4byte	.LASF123
 2530 0010 0C       		.byte	0xc
 2531 0011 00000000 		.4byte	.LASF124
 2532 0015 EA030000 		.4byte	.LASF125
 2533 0019 00000000 		.4byte	.Ldebug_ranges0+0
 2534 001d 00000000 		.4byte	0
 2535 0021 00000000 		.4byte	.Ldebug_line0
 2536 0025 02       		.uleb128 0x2
 2537 0026 01       		.byte	0x1
 2538 0027 06       		.byte	0x6
 2539 0028 46060000 		.4byte	.LASF0
 2540 002c 02       		.uleb128 0x2
 2541 002d 01       		.byte	0x1
 2542 002e 08       		.byte	0x8
 2543 002f 0A060000 		.4byte	.LASF1
 2544 0033 02       		.uleb128 0x2
 2545 0034 02       		.byte	0x2
 2546 0035 05       		.byte	0x5
 2547 0036 1B050000 		.4byte	.LASF2
 2548 003a 03       		.uleb128 0x3
 2549 003b 2C010000 		.4byte	.LASF9
 2550 003f 02       		.byte	0x2
 2551 0040 2B       		.byte	0x2b
 2552 0041 45000000 		.4byte	0x45
 2553 0045 02       		.uleb128 0x2
 2554 0046 02       		.byte	0x2
 2555 0047 07       		.byte	0x7
 2556 0048 52060000 		.4byte	.LASF3
 2557 004c 02       		.uleb128 0x2
 2558 004d 04       		.byte	0x4
 2559 004e 05       		.byte	0x5
 2560 004f 2B050000 		.4byte	.LASF4
 2561 0053 02       		.uleb128 0x2
 2562 0054 04       		.byte	0x4
 2563 0055 07       		.byte	0x7
 2564 0056 D3050000 		.4byte	.LASF5
 2565 005a 02       		.uleb128 0x2
 2566 005b 08       		.byte	0x8
 2567 005c 05       		.byte	0x5
 2568 005d 6C030000 		.4byte	.LASF6
 2569 0061 02       		.uleb128 0x2
ARM GAS  C:\Users\austc\AppData\Local\Temp\ccxzq70h.s 			page 64


 2570 0062 08       		.byte	0x8
 2571 0063 07       		.byte	0x7
 2572 0064 E7000000 		.4byte	.LASF7
 2573 0068 04       		.uleb128 0x4
 2574 0069 04       		.byte	0x4
 2575 006a 05       		.byte	0x5
 2576 006b 696E7400 		.ascii	"int\000"
 2577 006f 02       		.uleb128 0x2
 2578 0070 04       		.byte	0x4
 2579 0071 07       		.byte	0x7
 2580 0072 5F000000 		.4byte	.LASF8
 2581 0076 03       		.uleb128 0x3
 2582 0077 9A040000 		.4byte	.LASF10
 2583 007b 03       		.byte	0x3
 2584 007c 24       		.byte	0x24
 2585 007d 3A000000 		.4byte	0x3a
 2586 0081 05       		.uleb128 0x5
 2587 0082 79060000 		.4byte	.LASF11
 2588 0086 04       		.byte	0x4
 2589 0087 E401     		.2byte	0x1e4
 2590 0089 2C000000 		.4byte	0x2c
 2591 008d 05       		.uleb128 0x5
 2592 008e FA020000 		.4byte	.LASF12
 2593 0092 04       		.byte	0x4
 2594 0093 E501     		.2byte	0x1e5
 2595 0095 45000000 		.4byte	0x45
 2596 0099 05       		.uleb128 0x5
 2597 009a E3030000 		.4byte	.LASF13
 2598 009e 04       		.byte	0x4
 2599 009f E601     		.2byte	0x1e6
 2600 00a1 53000000 		.4byte	0x53
 2601 00a5 05       		.uleb128 0x5
 2602 00a6 06030000 		.4byte	.LASF14
 2603 00aa 04       		.byte	0x4
 2604 00ab E701     		.2byte	0x1e7
 2605 00ad 25000000 		.4byte	0x25
 2606 00b1 05       		.uleb128 0x5
 2607 00b2 80000000 		.4byte	.LASF15
 2608 00b6 04       		.byte	0x4
 2609 00b7 E801     		.2byte	0x1e8
 2610 00b9 33000000 		.4byte	0x33
 2611 00bd 02       		.uleb128 0x2
 2612 00be 04       		.byte	0x4
 2613 00bf 04       		.byte	0x4
 2614 00c0 DB000000 		.4byte	.LASF16
 2615 00c4 02       		.uleb128 0x2
 2616 00c5 08       		.byte	0x8
 2617 00c6 04       		.byte	0x4
 2618 00c7 7F060000 		.4byte	.LASF17
 2619 00cb 05       		.uleb128 0x5
 2620 00cc 2F030000 		.4byte	.LASF18
 2621 00d0 04       		.byte	0x4
 2622 00d1 F501     		.2byte	0x1f5
 2623 00d3 D7000000 		.4byte	0xd7
 2624 00d7 02       		.uleb128 0x2
 2625 00d8 01       		.byte	0x1
 2626 00d9 08       		.byte	0x8
ARM GAS  C:\Users\austc\AppData\Local\Temp\ccxzq70h.s 			page 65


 2627 00da BB020000 		.4byte	.LASF19
 2628 00de 05       		.uleb128 0x5
 2629 00df 86000000 		.4byte	.LASF20
 2630 00e3 04       		.byte	0x4
 2631 00e4 8E02     		.2byte	0x28e
 2632 00e6 EA000000 		.4byte	0xea
 2633 00ea 06       		.uleb128 0x6
 2634 00eb 81000000 		.4byte	0x81
 2635 00ef 05       		.uleb128 0x5
 2636 00f0 A3040000 		.4byte	.LASF21
 2637 00f4 04       		.byte	0x4
 2638 00f5 9002     		.2byte	0x290
 2639 00f7 FB000000 		.4byte	0xfb
 2640 00fb 06       		.uleb128 0x6
 2641 00fc 99000000 		.4byte	0x99
 2642 0100 02       		.uleb128 0x2
 2643 0101 08       		.byte	0x8
 2644 0102 04       		.byte	0x4
 2645 0103 7E040000 		.4byte	.LASF22
 2646 0107 02       		.uleb128 0x2
 2647 0108 04       		.byte	0x4
 2648 0109 07       		.byte	0x7
 2649 010a CA050000 		.4byte	.LASF23
 2650 010e 07       		.uleb128 0x7
 2651 010f 17010000 		.4byte	.LASF25
 2652 0113 06       		.byte	0x6
 2653 0114 05       		.byte	0x5
 2654 0115 14       		.byte	0x14
 2655 0116 5E010000 		.4byte	0x15e
 2656 011a 08       		.uleb128 0x8
 2657 011b 623000   		.ascii	"b0\000"
 2658 011e 05       		.byte	0x5
 2659 011f 16       		.byte	0x16
 2660 0120 81000000 		.4byte	0x81
 2661 0124 00       		.byte	0
 2662 0125 08       		.uleb128 0x8
 2663 0126 623100   		.ascii	"b1\000"
 2664 0129 05       		.byte	0x5
 2665 012a 16       		.byte	0x16
 2666 012b 81000000 		.4byte	0x81
 2667 012f 01       		.byte	0x1
 2668 0130 08       		.uleb128 0x8
 2669 0131 623200   		.ascii	"b2\000"
 2670 0134 05       		.byte	0x5
 2671 0135 16       		.byte	0x16
 2672 0136 81000000 		.4byte	0x81
 2673 013a 02       		.byte	0x2
 2674 013b 08       		.uleb128 0x8
 2675 013c 623300   		.ascii	"b3\000"
 2676 013f 05       		.byte	0x5
 2677 0140 16       		.byte	0x16
 2678 0141 81000000 		.4byte	0x81
 2679 0145 03       		.byte	0x3
 2680 0146 08       		.uleb128 0x8
 2681 0147 623400   		.ascii	"b4\000"
 2682 014a 05       		.byte	0x5
 2683 014b 16       		.byte	0x16
ARM GAS  C:\Users\austc\AppData\Local\Temp\ccxzq70h.s 			page 66


 2684 014c 81000000 		.4byte	0x81
 2685 0150 04       		.byte	0x4
 2686 0151 09       		.uleb128 0x9
 2687 0152 5F040000 		.4byte	.LASF24
 2688 0156 05       		.byte	0x5
 2689 0157 16       		.byte	0x16
 2690 0158 81000000 		.4byte	0x81
 2691 015c 05       		.byte	0x5
 2692 015d 00       		.byte	0
 2693 015e 07       		.uleb128 0x7
 2694 015f 42010000 		.4byte	.LASF26
 2695 0163 03       		.byte	0x3
 2696 0164 05       		.byte	0x5
 2697 0165 18       		.byte	0x18
 2698 0166 8F010000 		.4byte	0x18f
 2699 016a 09       		.uleb128 0x9
 2700 016b 42020000 		.4byte	.LASF27
 2701 016f 05       		.byte	0x5
 2702 0170 1A       		.byte	0x1a
 2703 0171 81000000 		.4byte	0x81
 2704 0175 00       		.byte	0
 2705 0176 09       		.uleb128 0x9
 2706 0177 BA030000 		.4byte	.LASF28
 2707 017b 05       		.byte	0x5
 2708 017c 1A       		.byte	0x1a
 2709 017d 81000000 		.4byte	0x81
 2710 0181 01       		.byte	0x1
 2711 0182 09       		.uleb128 0x9
 2712 0183 5F040000 		.4byte	.LASF24
 2713 0187 05       		.byte	0x5
 2714 0188 1A       		.byte	0x1a
 2715 0189 81000000 		.4byte	0x81
 2716 018d 02       		.byte	0x2
 2717 018e 00       		.byte	0
 2718 018f 0A       		.uleb128 0xa
 2719 0190 08       		.byte	0x8
 2720 0191 06       		.byte	0x6
 2721 0192 6F       		.byte	0x6f
 2722 0193 A4010000 		.4byte	0x1a4
 2723 0197 09       		.uleb128 0x9
 2724 0198 00060000 		.4byte	.LASF29
 2725 019c 06       		.byte	0x6
 2726 019d 71       		.byte	0x71
 2727 019e A4010000 		.4byte	0x1a4
 2728 01a2 00       		.byte	0
 2729 01a3 00       		.byte	0
 2730 01a4 0B       		.uleb128 0xb
 2731 01a5 81000000 		.4byte	0x81
 2732 01a9 B4010000 		.4byte	0x1b4
 2733 01ad 0C       		.uleb128 0xc
 2734 01ae 07010000 		.4byte	0x107
 2735 01b2 07       		.byte	0x7
 2736 01b3 00       		.byte	0
 2737 01b4 03       		.uleb128 0x3
 2738 01b5 C0020000 		.4byte	.LASF30
 2739 01b9 06       		.byte	0x6
 2740 01ba 72       		.byte	0x72
ARM GAS  C:\Users\austc\AppData\Local\Temp\ccxzq70h.s 			page 67


 2741 01bb 8F010000 		.4byte	0x18f
 2742 01bf 0A       		.uleb128 0xa
 2743 01c0 08       		.byte	0x8
 2744 01c1 06       		.byte	0x6
 2745 01c2 75       		.byte	0x75
 2746 01c3 D4010000 		.4byte	0x1d4
 2747 01c7 09       		.uleb128 0x9
 2748 01c8 00060000 		.4byte	.LASF29
 2749 01cc 06       		.byte	0x6
 2750 01cd 77       		.byte	0x77
 2751 01ce E4010000 		.4byte	0x1e4
 2752 01d2 00       		.byte	0
 2753 01d3 00       		.byte	0
 2754 01d4 0B       		.uleb128 0xb
 2755 01d5 DE000000 		.4byte	0xde
 2756 01d9 E4010000 		.4byte	0x1e4
 2757 01dd 0C       		.uleb128 0xc
 2758 01de 07010000 		.4byte	0x107
 2759 01e2 07       		.byte	0x7
 2760 01e3 00       		.byte	0
 2761 01e4 06       		.uleb128 0x6
 2762 01e5 D4010000 		.4byte	0x1d4
 2763 01e9 03       		.uleb128 0x3
 2764 01ea CC030000 		.4byte	.LASF31
 2765 01ee 06       		.byte	0x6
 2766 01ef 78       		.byte	0x78
 2767 01f0 BF010000 		.4byte	0x1bf
 2768 01f4 0A       		.uleb128 0xa
 2769 01f5 04       		.byte	0x4
 2770 01f6 06       		.byte	0x6
 2771 01f7 7B       		.byte	0x7b
 2772 01f8 09020000 		.4byte	0x209
 2773 01fc 09       		.uleb128 0x9
 2774 01fd 00060000 		.4byte	.LASF29
 2775 0201 06       		.byte	0x6
 2776 0202 7D       		.byte	0x7d
 2777 0203 19020000 		.4byte	0x219
 2778 0207 00       		.byte	0
 2779 0208 00       		.byte	0
 2780 0209 0B       		.uleb128 0xb
 2781 020a DE000000 		.4byte	0xde
 2782 020e 19020000 		.4byte	0x219
 2783 0212 0C       		.uleb128 0xc
 2784 0213 07010000 		.4byte	0x107
 2785 0217 03       		.byte	0x3
 2786 0218 00       		.byte	0
 2787 0219 06       		.uleb128 0x6
 2788 021a 09020000 		.4byte	0x209
 2789 021e 03       		.uleb128 0x3
 2790 021f E5050000 		.4byte	.LASF32
 2791 0223 06       		.byte	0x6
 2792 0224 7E       		.byte	0x7e
 2793 0225 F4010000 		.4byte	0x1f4
 2794 0229 0A       		.uleb128 0xa
 2795 022a 10       		.byte	0x10
 2796 022b 06       		.byte	0x6
 2797 022c 81       		.byte	0x81
ARM GAS  C:\Users\austc\AppData\Local\Temp\ccxzq70h.s 			page 68


 2798 022d 85020000 		.4byte	0x285
 2799 0231 08       		.uleb128 0x8
 2800 0232 696400   		.ascii	"id\000"
 2801 0235 06       		.byte	0x6
 2802 0236 83       		.byte	0x83
 2803 0237 99000000 		.4byte	0x99
 2804 023b 00       		.byte	0
 2805 023c 08       		.uleb128 0x8
 2806 023d 72747200 		.ascii	"rtr\000"
 2807 0241 06       		.byte	0x6
 2808 0242 84       		.byte	0x84
 2809 0243 81000000 		.4byte	0x81
 2810 0247 04       		.byte	0x4
 2811 0248 08       		.uleb128 0x8
 2812 0249 69646500 		.ascii	"ide\000"
 2813 024d 06       		.byte	0x6
 2814 024e 85       		.byte	0x85
 2815 024f 81000000 		.4byte	0x81
 2816 0253 05       		.byte	0x5
 2817 0254 08       		.uleb128 0x8
 2818 0255 646C6300 		.ascii	"dlc\000"
 2819 0259 06       		.byte	0x6
 2820 025a 86       		.byte	0x86
 2821 025b 81000000 		.4byte	0x81
 2822 025f 06       		.byte	0x6
 2823 0260 08       		.uleb128 0x8
 2824 0261 69727100 		.ascii	"irq\000"
 2825 0265 06       		.byte	0x6
 2826 0266 87       		.byte	0x87
 2827 0267 81000000 		.4byte	0x81
 2828 026b 07       		.byte	0x7
 2829 026c 08       		.uleb128 0x8
 2830 026d 73737400 		.ascii	"sst\000"
 2831 0271 06       		.byte	0x6
 2832 0272 89       		.byte	0x89
 2833 0273 81000000 		.4byte	0x81
 2834 0277 08       		.byte	0x8
 2835 0278 08       		.uleb128 0x8
 2836 0279 6D736700 		.ascii	"msg\000"
 2837 027d 06       		.byte	0x6
 2838 027e 8B       		.byte	0x8b
 2839 027f 85020000 		.4byte	0x285
 2840 0283 0C       		.byte	0xc
 2841 0284 00       		.byte	0
 2842 0285 0D       		.uleb128 0xd
 2843 0286 04       		.byte	0x4
 2844 0287 B4010000 		.4byte	0x1b4
 2845 028b 03       		.uleb128 0x3
 2846 028c A6000000 		.4byte	.LASF33
 2847 0290 06       		.byte	0x6
 2848 0291 8C       		.byte	0x8c
 2849 0292 29020000 		.4byte	0x229
 2850 0296 0A       		.uleb128 0xa
 2851 0297 20       		.byte	0x20
 2852 0298 06       		.byte	0x6
 2853 0299 A0       		.byte	0xa0
 2854 029a F3020000 		.4byte	0x2f3
ARM GAS  C:\Users\austc\AppData\Local\Temp\ccxzq70h.s 			page 69


 2855 029e 09       		.uleb128 0x9
 2856 029f 28060000 		.4byte	.LASF34
 2857 02a3 06       		.byte	0x6
 2858 02a4 A2       		.byte	0xa2
 2859 02a5 1E020000 		.4byte	0x21e
 2860 02a9 00       		.byte	0
 2861 02aa 09       		.uleb128 0x9
 2862 02ab 05060000 		.4byte	.LASF35
 2863 02af 06       		.byte	0x6
 2864 02b0 A3       		.byte	0xa3
 2865 02b1 1E020000 		.4byte	0x21e
 2866 02b5 04       		.byte	0x4
 2867 02b6 09       		.uleb128 0x9
 2868 02b7 B3030000 		.4byte	.LASF36
 2869 02bb 06       		.byte	0x6
 2870 02bc A4       		.byte	0xa4
 2871 02bd E9010000 		.4byte	0x1e9
 2872 02c1 08       		.byte	0x8
 2873 02c2 09       		.uleb128 0x9
 2874 02c3 6C000000 		.4byte	.LASF37
 2875 02c7 06       		.byte	0x6
 2876 02c8 A5       		.byte	0xa5
 2877 02c9 1E020000 		.4byte	0x21e
 2878 02cd 10       		.byte	0x10
 2879 02ce 09       		.uleb128 0x9
 2880 02cf D3020000 		.4byte	.LASF38
 2881 02d3 06       		.byte	0x6
 2882 02d4 A6       		.byte	0xa6
 2883 02d5 1E020000 		.4byte	0x21e
 2884 02d9 14       		.byte	0x14
 2885 02da 09       		.uleb128 0x9
 2886 02db E8020000 		.4byte	.LASF39
 2887 02df 06       		.byte	0x6
 2888 02e0 A7       		.byte	0xa7
 2889 02e1 1E020000 		.4byte	0x21e
 2890 02e5 18       		.byte	0x18
 2891 02e6 09       		.uleb128 0x9
 2892 02e7 3E030000 		.4byte	.LASF40
 2893 02eb 06       		.byte	0x6
 2894 02ec A8       		.byte	0xa8
 2895 02ed 1E020000 		.4byte	0x21e
 2896 02f1 1C       		.byte	0x1c
 2897 02f2 00       		.byte	0
 2898 02f3 03       		.uleb128 0x3
 2899 02f4 FD010000 		.4byte	.LASF41
 2900 02f8 06       		.byte	0x6
 2901 02f9 A9       		.byte	0xa9
 2902 02fa 96020000 		.4byte	0x296
 2903 02fe 0E       		.uleb128 0xe
 2904 02ff 7A030000 		.4byte	.LASF126
 2905 0303 01       		.byte	0x1
 2906 0304 1002     		.2byte	0x210
 2907 0306 03       		.byte	0x3
 2908 0307 18030000 		.4byte	0x318
 2909 030b 0F       		.uleb128 0xf
 2910 030c 2E060000 		.4byte	.LASF127
 2911 0310 01       		.byte	0x1
ARM GAS  C:\Users\austc\AppData\Local\Temp\ccxzq70h.s 			page 70


 2912 0311 1002     		.2byte	0x210
 2913 0313 8D000000 		.4byte	0x8d
 2914 0317 00       		.byte	0
 2915 0318 10       		.uleb128 0x10
 2916 0319 C8040000 		.4byte	.LASF42
 2917 031d 01       		.byte	0x1
 2918 031e EA01     		.2byte	0x1ea
 2919 0320 00000000 		.4byte	.LFB47
 2920 0324 48020000 		.4byte	.LFE47-.LFB47
 2921 0328 01       		.uleb128 0x1
 2922 0329 9C       		.byte	0x9c
 2923 032a BE030000 		.4byte	0x3be
 2924 032e 11       		.uleb128 0x11
 2925 032f FE020000 		.4byte	0x2fe
 2926 0333 36000000 		.4byte	.LBB6
 2927 0337 CE000000 		.4byte	.LBE6-.LBB6
 2928 033b 01       		.byte	0x1
 2929 033c FB01     		.2byte	0x1fb
 2930 033e 55030000 		.4byte	0x355
 2931 0342 12       		.uleb128 0x12
 2932 0343 0B030000 		.4byte	0x30b
 2933 0347 00000000 		.4byte	.LLST0
 2934 034b 13       		.uleb128 0x13
 2935 034c 6A000000 		.4byte	.LVL4
 2936 0350 760F0000 		.4byte	0xf76
 2937 0354 00       		.byte	0
 2938 0355 11       		.uleb128 0x11
 2939 0356 FE020000 		.4byte	0x2fe
 2940 035a 36010000 		.4byte	.LBB8
 2941 035e CE000000 		.4byte	.LBE8-.LBB8
 2942 0362 01       		.byte	0x1
 2943 0363 0902     		.2byte	0x209
 2944 0365 7C030000 		.4byte	0x37c
 2945 0369 12       		.uleb128 0x12
 2946 036a 0B030000 		.4byte	0x30b
 2947 036e 40000000 		.4byte	.LLST1
 2948 0372 13       		.uleb128 0x13
 2949 0373 6A010000 		.4byte	.LVL12
 2950 0377 760F0000 		.4byte	0xf76
 2951 037b 00       		.byte	0
 2952 037c 14       		.uleb128 0x14
 2953 037d 18000000 		.4byte	.LVL0
 2954 0381 810F0000 		.4byte	0xf81
 2955 0385 93030000 		.4byte	0x393
 2956 0389 15       		.uleb128 0x15
 2957 038a 01       		.uleb128 0x1
 2958 038b 50       		.byte	0x50
 2959 038c 05       		.uleb128 0x5
 2960 038d 03       		.byte	0x3
 2961 038e 00000000 		.4byte	.LC1
 2962 0392 00       		.byte	0
 2963 0393 14       		.uleb128 0x14
 2964 0394 32000000 		.4byte	.LVL1
 2965 0398 810F0000 		.4byte	0xf81
 2966 039c AA030000 		.4byte	0x3aa
 2967 03a0 15       		.uleb128 0x15
 2968 03a1 01       		.uleb128 0x1
ARM GAS  C:\Users\austc\AppData\Local\Temp\ccxzq70h.s 			page 71


 2969 03a2 50       		.byte	0x50
 2970 03a3 05       		.uleb128 0x5
 2971 03a4 03       		.byte	0x3
 2972 03a5 14000000 		.4byte	.LC3
 2973 03a9 00       		.byte	0
 2974 03aa 16       		.uleb128 0x16
 2975 03ab 32010000 		.4byte	.LVL9
 2976 03af 810F0000 		.4byte	0xf81
 2977 03b3 15       		.uleb128 0x15
 2978 03b4 01       		.uleb128 0x1
 2979 03b5 50       		.byte	0x50
 2980 03b6 05       		.uleb128 0x5
 2981 03b7 03       		.byte	0x3
 2982 03b8 24000000 		.4byte	.LC9
 2983 03bc 00       		.byte	0
 2984 03bd 00       		.byte	0
 2985 03be 10       		.uleb128 0x10
 2986 03bf 5D030000 		.4byte	.LASF43
 2987 03c3 01       		.byte	0x1
 2988 03c4 1101     		.2byte	0x111
 2989 03c6 00000000 		.4byte	.LFB38
 2990 03ca 14000000 		.4byte	.LFE38-.LFB38
 2991 03ce 01       		.uleb128 0x1
 2992 03cf 9C       		.byte	0x9c
 2993 03d0 DE030000 		.4byte	0x3de
 2994 03d4 13       		.uleb128 0x13
 2995 03d5 06000000 		.4byte	.LVL17
 2996 03d9 8D0F0000 		.4byte	0xf8d
 2997 03dd 00       		.byte	0
 2998 03de 10       		.uleb128 0x10
 2999 03df E8010000 		.4byte	.LASF44
 3000 03e3 01       		.byte	0x1
 3001 03e4 1801     		.2byte	0x118
 3002 03e6 00000000 		.4byte	.LFB39
 3003 03ea 6C000000 		.4byte	.LFE39-.LFB39
 3004 03ee 01       		.uleb128 0x1
 3005 03ef 9C       		.byte	0x9c
 3006 03f0 C1040000 		.4byte	0x4c1
 3007 03f4 17       		.uleb128 0x17
 3008 03f5 88020000 		.4byte	.LASF47
 3009 03f9 01       		.byte	0x1
 3010 03fa 1A01     		.2byte	0x11a
 3011 03fc 68000000 		.4byte	0x68
 3012 0400 80000000 		.4byte	.LLST2
 3013 0404 13       		.uleb128 0x13
 3014 0405 06000000 		.4byte	.LVL18
 3015 0409 990F0000 		.4byte	0xf99
 3016 040d 13       		.uleb128 0x13
 3017 040e 0C000000 		.4byte	.LVL20
 3018 0412 A40F0000 		.4byte	0xfa4
 3019 0416 13       		.uleb128 0x13
 3020 0417 10000000 		.4byte	.LVL21
 3021 041b AF0F0000 		.4byte	0xfaf
 3022 041f 13       		.uleb128 0x13
 3023 0420 14000000 		.4byte	.LVL22
 3024 0424 BA0F0000 		.4byte	0xfba
 3025 0428 13       		.uleb128 0x13
ARM GAS  C:\Users\austc\AppData\Local\Temp\ccxzq70h.s 			page 72


 3026 0429 18000000 		.4byte	.LVL23
 3027 042d C50F0000 		.4byte	0xfc5
 3028 0431 13       		.uleb128 0x13
 3029 0432 1C000000 		.4byte	.LVL24
 3030 0436 D10F0000 		.4byte	0xfd1
 3031 043a 14       		.uleb128 0x14
 3032 043b 24000000 		.4byte	.LVL25
 3033 043f DC0F0000 		.4byte	0xfdc
 3034 0443 56040000 		.4byte	0x456
 3035 0447 15       		.uleb128 0x15
 3036 0448 01       		.uleb128 0x1
 3037 0449 50       		.byte	0x50
 3038 044a 01       		.uleb128 0x1
 3039 044b 4D       		.byte	0x4d
 3040 044c 15       		.uleb128 0x15
 3041 044d 01       		.uleb128 0x1
 3042 044e 51       		.byte	0x51
 3043 044f 05       		.uleb128 0x5
 3044 0450 03       		.byte	0x3
 3045 0451 00000000 		.4byte	ISR_CAN
 3046 0455 00       		.byte	0
 3047 0456 14       		.uleb128 0x14
 3048 0457 2C000000 		.4byte	.LVL26
 3049 045b E70F0000 		.4byte	0xfe7
 3050 045f 6D040000 		.4byte	0x46d
 3051 0463 15       		.uleb128 0x15
 3052 0464 01       		.uleb128 0x1
 3053 0465 50       		.byte	0x50
 3054 0466 05       		.uleb128 0x5
 3055 0467 03       		.byte	0x3
 3056 0468 00000000 		.4byte	Pin_Limit_Handler
 3057 046c 00       		.byte	0
 3058 046d 14       		.uleb128 0x14
 3059 046e 32000000 		.4byte	.LVL27
 3060 0472 F20F0000 		.4byte	0xff2
 3061 0476 84040000 		.4byte	0x484
 3062 047a 15       		.uleb128 0x15
 3063 047b 01       		.uleb128 0x1
 3064 047c 50       		.byte	0x50
 3065 047d 05       		.uleb128 0x5
 3066 047e 03       		.byte	0x3
 3067 047f 00000000 		.4byte	Period_Reset_Handler
 3068 0483 00       		.byte	0
 3069 0484 13       		.uleb128 0x13
 3070 0485 3E000000 		.4byte	.LVL28
 3071 0489 FD0F0000 		.4byte	0xffd
 3072 048d 14       		.uleb128 0x14
 3073 048e 4A000000 		.4byte	.LVL29
 3074 0492 08100000 		.4byte	0x1008
 3075 0496 B0040000 		.4byte	0x4b0
 3076 049a 15       		.uleb128 0x15
 3077 049b 01       		.uleb128 0x1
 3078 049c 50       		.byte	0x50
 3079 049d 02       		.uleb128 0x2
 3080 049e 75       		.byte	0x75
 3081 049f 00       		.sleb128 0
 3082 04a0 15       		.uleb128 0x15
ARM GAS  C:\Users\austc\AppData\Local\Temp\ccxzq70h.s 			page 73


 3083 04a1 01       		.uleb128 0x1
 3084 04a2 51       		.byte	0x51
 3085 04a3 05       		.uleb128 0x5
 3086 04a4 03       		.byte	0x3
 3087 04a5 34000000 		.4byte	.LC16
 3088 04a9 15       		.uleb128 0x15
 3089 04aa 01       		.uleb128 0x1
 3090 04ab 52       		.byte	0x52
 3091 04ac 02       		.uleb128 0x2
 3092 04ad 74       		.byte	0x74
 3093 04ae 00       		.sleb128 0
 3094 04af 00       		.byte	0
 3095 04b0 16       		.uleb128 0x16
 3096 04b1 50000000 		.4byte	.LVL30
 3097 04b5 810F0000 		.4byte	0xf81
 3098 04b9 15       		.uleb128 0x15
 3099 04ba 01       		.uleb128 0x1
 3100 04bb 50       		.byte	0x50
 3101 04bc 02       		.uleb128 0x2
 3102 04bd 75       		.byte	0x75
 3103 04be 00       		.sleb128 0
 3104 04bf 00       		.byte	0
 3105 04c0 00       		.byte	0
 3106 04c1 10       		.uleb128 0x10
 3107 04c2 1E000000 		.4byte	.LASF45
 3108 04c6 01       		.byte	0x1
 3109 04c7 9501     		.2byte	0x195
 3110 04c9 00000000 		.4byte	.LFB41
 3111 04cd 1C000000 		.4byte	.LFE41-.LFB41
 3112 04d1 01       		.uleb128 0x1
 3113 04d2 9C       		.byte	0x9c
 3114 04d3 E8040000 		.4byte	0x4e8
 3115 04d7 18       		.uleb128 0x18
 3116 04d8 72050000 		.4byte	.LASF51
 3117 04dc 01       		.byte	0x1
 3118 04dd 9501     		.2byte	0x195
 3119 04df 99000000 		.4byte	0x99
 3120 04e3 9E000000 		.4byte	.LLST3
 3121 04e7 00       		.byte	0
 3122 04e8 10       		.uleb128 0x10
 3123 04e9 64040000 		.4byte	.LASF46
 3124 04ed 01       		.byte	0x1
 3125 04ee 4001     		.2byte	0x140
 3126 04f0 00000000 		.4byte	.LFB40
 3127 04f4 C8010000 		.4byte	.LFE40-.LFB40
 3128 04f8 01       		.uleb128 0x1
 3129 04f9 9C       		.byte	0x9c
 3130 04fa DF050000 		.4byte	0x5df
 3131 04fe 17       		.uleb128 0x17
 3132 04ff B1000000 		.4byte	.LASF48
 3133 0503 01       		.byte	0x1
 3134 0504 4101     		.2byte	0x141
 3135 0506 81000000 		.4byte	0x81
 3136 050a BF000000 		.4byte	.LLST4
 3137 050e 17       		.uleb128 0x17
 3138 050f E1000000 		.4byte	.LASF49
 3139 0513 01       		.byte	0x1
ARM GAS  C:\Users\austc\AppData\Local\Temp\ccxzq70h.s 			page 74


 3140 0514 4201     		.2byte	0x142
 3141 0516 81000000 		.4byte	0x81
 3142 051a D2000000 		.4byte	.LLST5
 3143 051e 13       		.uleb128 0x13
 3144 051f 08000000 		.4byte	.LVL34
 3145 0523 13100000 		.4byte	0x1013
 3146 0527 13       		.uleb128 0x13
 3147 0528 0E000000 		.4byte	.LVL36
 3148 052c 13100000 		.4byte	0x1013
 3149 0530 14       		.uleb128 0x14
 3150 0531 38010000 		.4byte	.LVL51
 3151 0535 C1040000 		.4byte	0x4c1
 3152 0539 43050000 		.4byte	0x543
 3153 053d 15       		.uleb128 0x15
 3154 053e 01       		.uleb128 0x1
 3155 053f 50       		.byte	0x50
 3156 0540 01       		.uleb128 0x1
 3157 0541 31       		.byte	0x31
 3158 0542 00       		.byte	0
 3159 0543 14       		.uleb128 0x14
 3160 0544 50010000 		.4byte	.LVL52
 3161 0548 08100000 		.4byte	0x1008
 3162 054c 66050000 		.4byte	0x566
 3163 0550 15       		.uleb128 0x15
 3164 0551 01       		.uleb128 0x1
 3165 0552 50       		.byte	0x50
 3166 0553 02       		.uleb128 0x2
 3167 0554 76       		.byte	0x76
 3168 0555 00       		.sleb128 0
 3169 0556 15       		.uleb128 0x15
 3170 0557 01       		.uleb128 0x1
 3171 0558 51       		.byte	0x51
 3172 0559 05       		.uleb128 0x5
 3173 055a 03       		.byte	0x3
 3174 055b 48000000 		.4byte	.LC28
 3175 055f 15       		.uleb128 0x15
 3176 0560 01       		.uleb128 0x1
 3177 0561 52       		.byte	0x52
 3178 0562 02       		.uleb128 0x2
 3179 0563 74       		.byte	0x74
 3180 0564 00       		.sleb128 0
 3181 0565 00       		.byte	0
 3182 0566 14       		.uleb128 0x14
 3183 0567 56010000 		.4byte	.LVL53
 3184 056b 810F0000 		.4byte	0xf81
 3185 056f 7A050000 		.4byte	0x57a
 3186 0573 15       		.uleb128 0x15
 3187 0574 01       		.uleb128 0x1
 3188 0575 50       		.byte	0x50
 3189 0576 02       		.uleb128 0x2
 3190 0577 76       		.byte	0x76
 3191 0578 00       		.sleb128 0
 3192 0579 00       		.byte	0
 3193 057a 14       		.uleb128 0x14
 3194 057b 68010000 		.4byte	.LVL54
 3195 057f 08100000 		.4byte	0x1008
 3196 0583 9D050000 		.4byte	0x59d
ARM GAS  C:\Users\austc\AppData\Local\Temp\ccxzq70h.s 			page 75


 3197 0587 15       		.uleb128 0x15
 3198 0588 01       		.uleb128 0x1
 3199 0589 50       		.byte	0x50
 3200 058a 02       		.uleb128 0x2
 3201 058b 76       		.byte	0x76
 3202 058c 00       		.sleb128 0
 3203 058d 15       		.uleb128 0x15
 3204 058e 01       		.uleb128 0x1
 3205 058f 51       		.byte	0x51
 3206 0590 05       		.uleb128 0x5
 3207 0591 03       		.byte	0x3
 3208 0592 70000000 		.4byte	.LC31
 3209 0596 15       		.uleb128 0x15
 3210 0597 01       		.uleb128 0x1
 3211 0598 52       		.byte	0x52
 3212 0599 02       		.uleb128 0x2
 3213 059a 75       		.byte	0x75
 3214 059b 00       		.sleb128 0
 3215 059c 00       		.byte	0
 3216 059d 14       		.uleb128 0x14
 3217 059e 6E010000 		.4byte	.LVL55
 3218 05a2 810F0000 		.4byte	0xf81
 3219 05a6 B1050000 		.4byte	0x5b1
 3220 05aa 15       		.uleb128 0x15
 3221 05ab 01       		.uleb128 0x1
 3222 05ac 50       		.byte	0x50
 3223 05ad 02       		.uleb128 0x2
 3224 05ae 76       		.byte	0x76
 3225 05af 00       		.sleb128 0
 3226 05b0 00       		.byte	0
 3227 05b1 14       		.uleb128 0x14
 3228 05b2 78010000 		.4byte	.LVL56
 3229 05b6 08100000 		.4byte	0x1008
 3230 05ba CE050000 		.4byte	0x5ce
 3231 05be 15       		.uleb128 0x15
 3232 05bf 01       		.uleb128 0x1
 3233 05c0 50       		.byte	0x50
 3234 05c1 02       		.uleb128 0x2
 3235 05c2 76       		.byte	0x76
 3236 05c3 00       		.sleb128 0
 3237 05c4 15       		.uleb128 0x15
 3238 05c5 01       		.uleb128 0x1
 3239 05c6 51       		.byte	0x51
 3240 05c7 05       		.uleb128 0x5
 3241 05c8 03       		.byte	0x3
 3242 05c9 A0000000 		.4byte	.LC33
 3243 05cd 00       		.byte	0
 3244 05ce 16       		.uleb128 0x16
 3245 05cf 7E010000 		.4byte	.LVL57
 3246 05d3 810F0000 		.4byte	0xf81
 3247 05d7 15       		.uleb128 0x15
 3248 05d8 01       		.uleb128 0x1
 3249 05d9 50       		.byte	0x50
 3250 05da 02       		.uleb128 0x2
 3251 05db 76       		.byte	0x76
 3252 05dc 00       		.sleb128 0
 3253 05dd 00       		.byte	0
ARM GAS  C:\Users\austc\AppData\Local\Temp\ccxzq70h.s 			page 76


 3254 05de 00       		.byte	0
 3255 05df 10       		.uleb128 0x10
 3256 05e0 8A040000 		.4byte	.LASF50
 3257 05e4 01       		.byte	0x1
 3258 05e5 9A01     		.2byte	0x19a
 3259 05e7 00000000 		.4byte	.LFB42
 3260 05eb 94000000 		.4byte	.LFE42-.LFB42
 3261 05ef 01       		.uleb128 0x1
 3262 05f0 9C       		.byte	0x9c
 3263 05f1 B4060000 		.4byte	0x6b4
 3264 05f5 18       		.uleb128 0x18
 3265 05f6 DB030000 		.4byte	.LASF52
 3266 05fa 01       		.byte	0x1
 3267 05fb 9A01     		.2byte	0x19a
 3268 05fd 68000000 		.4byte	0x68
 3269 0601 8D010000 		.4byte	.LLST6
 3270 0605 17       		.uleb128 0x17
 3271 0606 28030000 		.4byte	.LASF53
 3272 060a 01       		.byte	0x1
 3273 060b A501     		.2byte	0x1a5
 3274 060d 81000000 		.4byte	0x81
 3275 0611 C4010000 		.4byte	.LLST7
 3276 0615 14       		.uleb128 0x14
 3277 0616 20000000 		.4byte	.LVL62
 3278 061a 08100000 		.4byte	0x1008
 3279 061e 38060000 		.4byte	0x638
 3280 0622 15       		.uleb128 0x15
 3281 0623 01       		.uleb128 0x1
 3282 0624 50       		.byte	0x50
 3283 0625 02       		.uleb128 0x2
 3284 0626 75       		.byte	0x75
 3285 0627 00       		.sleb128 0
 3286 0628 15       		.uleb128 0x15
 3287 0629 01       		.uleb128 0x1
 3288 062a 51       		.byte	0x51
 3289 062b 05       		.uleb128 0x5
 3290 062c 03       		.byte	0x3
 3291 062d B4000000 		.4byte	.LC38
 3292 0631 15       		.uleb128 0x15
 3293 0632 01       		.uleb128 0x1
 3294 0633 52       		.byte	0x52
 3295 0634 02       		.uleb128 0x2
 3296 0635 74       		.byte	0x74
 3297 0636 00       		.sleb128 0
 3298 0637 00       		.byte	0
 3299 0638 14       		.uleb128 0x14
 3300 0639 26000000 		.4byte	.LVL63
 3301 063d 810F0000 		.4byte	0xf81
 3302 0641 4C060000 		.4byte	0x64c
 3303 0645 15       		.uleb128 0x15
 3304 0646 01       		.uleb128 0x1
 3305 0647 50       		.byte	0x50
 3306 0648 02       		.uleb128 0x2
 3307 0649 75       		.byte	0x75
 3308 064a 00       		.sleb128 0
 3309 064b 00       		.byte	0
 3310 064c 13       		.uleb128 0x13
ARM GAS  C:\Users\austc\AppData\Local\Temp\ccxzq70h.s 			page 77


 3311 064d 3C000000 		.4byte	.LVL64
 3312 0651 1E100000 		.4byte	0x101e
 3313 0655 14       		.uleb128 0x14
 3314 0656 52000000 		.4byte	.LVL66
 3315 065a 29100000 		.4byte	0x1029
 3316 065e 68060000 		.4byte	0x668
 3317 0662 15       		.uleb128 0x15
 3318 0663 01       		.uleb128 0x1
 3319 0664 50       		.byte	0x50
 3320 0665 01       		.uleb128 0x1
 3321 0666 30       		.byte	0x30
 3322 0667 00       		.byte	0
 3323 0668 14       		.uleb128 0x14
 3324 0669 58000000 		.4byte	.LVL67
 3325 066d 34100000 		.4byte	0x1034
 3326 0671 7D060000 		.4byte	0x67d
 3327 0675 15       		.uleb128 0x15
 3328 0676 01       		.uleb128 0x1
 3329 0677 50       		.byte	0x50
 3330 0678 03       		.uleb128 0x3
 3331 0679 74       		.byte	0x74
 3332 067a 00       		.sleb128 0
 3333 067b 1F       		.byte	0x1f
 3334 067c 00       		.byte	0
 3335 067d 14       		.uleb128 0x14
 3336 067e 70000000 		.4byte	.LVL70
 3337 0682 29100000 		.4byte	0x1029
 3338 0686 90060000 		.4byte	0x690
 3339 068a 15       		.uleb128 0x15
 3340 068b 01       		.uleb128 0x1
 3341 068c 50       		.byte	0x50
 3342 068d 01       		.uleb128 0x1
 3343 068e 31       		.byte	0x31
 3344 068f 00       		.byte	0
 3345 0690 14       		.uleb128 0x14
 3346 0691 76000000 		.4byte	.LVL71
 3347 0695 34100000 		.4byte	0x1034
 3348 0699 A4060000 		.4byte	0x6a4
 3349 069d 15       		.uleb128 0x15
 3350 069e 01       		.uleb128 0x1
 3351 069f 50       		.byte	0x50
 3352 06a0 02       		.uleb128 0x2
 3353 06a1 74       		.byte	0x74
 3354 06a2 00       		.sleb128 0
 3355 06a3 00       		.byte	0
 3356 06a4 16       		.uleb128 0x16
 3357 06a5 7E000000 		.4byte	.LVL74
 3358 06a9 34100000 		.4byte	0x1034
 3359 06ad 15       		.uleb128 0x15
 3360 06ae 01       		.uleb128 0x1
 3361 06af 50       		.byte	0x50
 3362 06b0 01       		.uleb128 0x1
 3363 06b1 30       		.byte	0x30
 3364 06b2 00       		.byte	0
 3365 06b3 00       		.byte	0
 3366 06b4 19       		.uleb128 0x19
 3367 06b5 A6020000 		.4byte	.LASF54
ARM GAS  C:\Users\austc\AppData\Local\Temp\ccxzq70h.s 			page 78


 3368 06b9 01       		.byte	0x1
 3369 06ba 54       		.byte	0x54
 3370 06bb 00000000 		.4byte	.LFB35
 3371 06bf 54000000 		.4byte	.LFE35-.LFB35
 3372 06c3 01       		.uleb128 0x1
 3373 06c4 9C       		.byte	0x9c
 3374 06c5 11070000 		.4byte	0x711
 3375 06c9 1A       		.uleb128 0x1a
 3376 06ca 90060000 		.4byte	.LASF55
 3377 06ce 01       		.byte	0x1
 3378 06cf 55       		.byte	0x55
 3379 06d0 68000000 		.4byte	0x68
 3380 06d4 ED010000 		.4byte	.LLST8
 3381 06d8 13       		.uleb128 0x13
 3382 06d9 06000000 		.4byte	.LVL76
 3383 06dd 40100000 		.4byte	0x1040
 3384 06e1 14       		.uleb128 0x14
 3385 06e2 18000000 		.4byte	.LVL78
 3386 06e6 08100000 		.4byte	0x1008
 3387 06ea 01070000 		.4byte	0x701
 3388 06ee 15       		.uleb128 0x15
 3389 06ef 01       		.uleb128 0x1
 3390 06f0 50       		.byte	0x50
 3391 06f1 05       		.uleb128 0x5
 3392 06f2 03       		.byte	0x3
 3393 06f3 00000000 		.4byte	txData
 3394 06f7 15       		.uleb128 0x15
 3395 06f8 01       		.uleb128 0x1
 3396 06f9 51       		.byte	0x51
 3397 06fa 05       		.uleb128 0x5
 3398 06fb 03       		.byte	0x3
 3399 06fc D0000000 		.4byte	.LC42
 3400 0700 00       		.byte	0
 3401 0701 16       		.uleb128 0x16
 3402 0702 38000000 		.4byte	.LVL79
 3403 0706 DF050000 		.4byte	0x5df
 3404 070a 15       		.uleb128 0x15
 3405 070b 01       		.uleb128 0x1
 3406 070c 50       		.byte	0x50
 3407 070d 01       		.uleb128 0x1
 3408 070e 30       		.byte	0x30
 3409 070f 00       		.byte	0
 3410 0710 00       		.byte	0
 3411 0711 19       		.uleb128 0x19
 3412 0712 A9040000 		.4byte	.LASF56
 3413 0716 01       		.byte	0x1
 3414 0717 6B       		.byte	0x6b
 3415 0718 00000000 		.4byte	.LFB36
 3416 071c 3C000000 		.4byte	.LFE36-.LFB36
 3417 0720 01       		.uleb128 0x1
 3418 0721 9C       		.byte	0x9c
 3419 0722 75070000 		.4byte	0x775
 3420 0726 14       		.uleb128 0x14
 3421 0727 16000000 		.4byte	.LVL80
 3422 072b 4B100000 		.4byte	0x104b
 3423 072f 48070000 		.4byte	0x748
 3424 0733 15       		.uleb128 0x15
ARM GAS  C:\Users\austc\AppData\Local\Temp\ccxzq70h.s 			page 79


 3425 0734 01       		.uleb128 0x1
 3426 0735 50       		.byte	0x50
 3427 0736 02       		.uleb128 0x2
 3428 0737 74       		.byte	0x74
 3429 0738 00       		.sleb128 0
 3430 0739 15       		.uleb128 0x15
 3431 073a 01       		.uleb128 0x1
 3432 073b 51       		.byte	0x51
 3433 073c 05       		.uleb128 0x5
 3434 073d 03       		.byte	0x3
 3435 073e F0000000 		.4byte	.LC49
 3436 0742 15       		.uleb128 0x15
 3437 0743 01       		.uleb128 0x1
 3438 0744 52       		.byte	0x52
 3439 0745 01       		.uleb128 0x1
 3440 0746 4A       		.byte	0x4a
 3441 0747 00       		.byte	0
 3442 0748 14       		.uleb128 0x14
 3443 0749 1C000000 		.4byte	.LVL81
 3444 074d 810F0000 		.4byte	0xf81
 3445 0751 5C070000 		.4byte	0x75c
 3446 0755 15       		.uleb128 0x15
 3447 0756 01       		.uleb128 0x1
 3448 0757 50       		.byte	0x50
 3449 0758 02       		.uleb128 0x2
 3450 0759 74       		.byte	0x74
 3451 075a 00       		.sleb128 0
 3452 075b 00       		.byte	0
 3453 075c 13       		.uleb128 0x13
 3454 075d 24000000 		.4byte	.LVL82
 3455 0761 DF050000 		.4byte	0x5df
 3456 0765 16       		.uleb128 0x16
 3457 0766 2A000000 		.4byte	.LVL83
 3458 076a 54100000 		.4byte	0x1054
 3459 076e 15       		.uleb128 0x15
 3460 076f 01       		.uleb128 0x1
 3461 0770 50       		.byte	0x50
 3462 0771 01       		.uleb128 0x1
 3463 0772 30       		.byte	0x30
 3464 0773 00       		.byte	0
 3465 0774 00       		.byte	0
 3466 0775 1B       		.uleb128 0x1b
 3467 0776 12020000 		.4byte	.LASF57
 3468 077a 01       		.byte	0x1
 3469 077b B201     		.2byte	0x1b2
 3470 077d 00000000 		.4byte	.LFB43
 3471 0781 8C000000 		.4byte	.LFE43-.LFB43
 3472 0785 01       		.uleb128 0x1
 3473 0786 9C       		.byte	0x9c
 3474 0787 15080000 		.4byte	0x815
 3475 078b 17       		.uleb128 0x17
 3476 078c 82020000 		.4byte	.LASF58
 3477 0790 01       		.byte	0x1
 3478 0791 B301     		.2byte	0x1b3
 3479 0793 B1000000 		.4byte	0xb1
 3480 0797 0B020000 		.4byte	.LLST9
 3481 079b 17       		.uleb128 0x17
ARM GAS  C:\Users\austc\AppData\Local\Temp\ccxzq70h.s 			page 80


 3482 079c D0040000 		.4byte	.LASF59
 3483 07a0 01       		.byte	0x1
 3484 07a1 B401     		.2byte	0x1b4
 3485 07a3 B1000000 		.4byte	0xb1
 3486 07a7 1E020000 		.4byte	.LLST10
 3487 07ab 13       		.uleb128 0x13
 3488 07ac 08000000 		.4byte	.LVL84
 3489 07b0 760F0000 		.4byte	0xf76
 3490 07b4 14       		.uleb128 0x14
 3491 07b5 3E000000 		.4byte	.LVL91
 3492 07b9 5F100000 		.4byte	0x105f
 3493 07bd CB070000 		.4byte	0x7cb
 3494 07c1 15       		.uleb128 0x15
 3495 07c2 01       		.uleb128 0x1
 3496 07c3 50       		.byte	0x50
 3497 07c4 05       		.uleb128 0x5
 3498 07c5 03       		.byte	0x3
 3499 07c6 00000000 		.4byte	message
 3500 07ca 00       		.byte	0
 3501 07cb 13       		.uleb128 0x13
 3502 07cc 52000000 		.4byte	.LVL92
 3503 07d0 760F0000 		.4byte	0xf76
 3504 07d4 14       		.uleb128 0x14
 3505 07d5 64000000 		.4byte	.LVL93
 3506 07d9 08100000 		.4byte	0x1008
 3507 07dd 04080000 		.4byte	0x804
 3508 07e1 15       		.uleb128 0x15
 3509 07e2 01       		.uleb128 0x1
 3510 07e3 50       		.byte	0x50
 3511 07e4 02       		.uleb128 0x2
 3512 07e5 74       		.byte	0x74
 3513 07e6 00       		.sleb128 0
 3514 07e7 15       		.uleb128 0x15
 3515 07e8 01       		.uleb128 0x1
 3516 07e9 51       		.byte	0x51
 3517 07ea 05       		.uleb128 0x5
 3518 07eb 03       		.byte	0x3
 3519 07ec 0C010000 		.4byte	.LC56
 3520 07f0 15       		.uleb128 0x15
 3521 07f1 01       		.uleb128 0x1
 3522 07f2 52       		.byte	0x52
 3523 07f3 02       		.uleb128 0x2
 3524 07f4 75       		.byte	0x75
 3525 07f5 00       		.sleb128 0
 3526 07f6 15       		.uleb128 0x15
 3527 07f7 01       		.uleb128 0x1
 3528 07f8 53       		.byte	0x53
 3529 07f9 02       		.uleb128 0x2
 3530 07fa 76       		.byte	0x76
 3531 07fb 00       		.sleb128 0
 3532 07fc 15       		.uleb128 0x15
 3533 07fd 02       		.uleb128 0x2
 3534 07fe 7D       		.byte	0x7d
 3535 07ff 00       		.sleb128 0
 3536 0800 02       		.uleb128 0x2
 3537 0801 77       		.byte	0x77
 3538 0802 00       		.sleb128 0
ARM GAS  C:\Users\austc\AppData\Local\Temp\ccxzq70h.s 			page 81


 3539 0803 00       		.byte	0
 3540 0804 16       		.uleb128 0x16
 3541 0805 6A000000 		.4byte	.LVL94
 3542 0809 810F0000 		.4byte	0xf81
 3543 080d 15       		.uleb128 0x15
 3544 080e 01       		.uleb128 0x1
 3545 080f 50       		.byte	0x50
 3546 0810 02       		.uleb128 0x2
 3547 0811 74       		.byte	0x74
 3548 0812 00       		.sleb128 0
 3549 0813 00       		.byte	0
 3550 0814 00       		.byte	0
 3551 0815 10       		.uleb128 0x10
 3552 0816 4C000000 		.4byte	.LASF60
 3553 081a 01       		.byte	0x1
 3554 081b C301     		.2byte	0x1c3
 3555 081d 00000000 		.4byte	.LFB44
 3556 0821 4C000000 		.4byte	.LFE44-.LFB44
 3557 0825 01       		.uleb128 0x1
 3558 0826 9C       		.byte	0x9c
 3559 0827 70080000 		.4byte	0x870
 3560 082b 14       		.uleb128 0x14
 3561 082c 18000000 		.4byte	.LVL95
 3562 0830 5F100000 		.4byte	0x105f
 3563 0834 42080000 		.4byte	0x842
 3564 0838 15       		.uleb128 0x15
 3565 0839 01       		.uleb128 0x1
 3566 083a 50       		.byte	0x50
 3567 083b 05       		.uleb128 0x5
 3568 083c 03       		.byte	0x3
 3569 083d 00000000 		.4byte	message
 3570 0841 00       		.byte	0
 3571 0842 14       		.uleb128 0x14
 3572 0843 30000000 		.4byte	.LVL96
 3573 0847 08100000 		.4byte	0x1008
 3574 084b 5F080000 		.4byte	0x85f
 3575 084f 15       		.uleb128 0x15
 3576 0850 01       		.uleb128 0x1
 3577 0851 50       		.byte	0x50
 3578 0852 02       		.uleb128 0x2
 3579 0853 74       		.byte	0x74
 3580 0854 00       		.sleb128 0
 3581 0855 15       		.uleb128 0x15
 3582 0856 01       		.uleb128 0x1
 3583 0857 51       		.byte	0x51
 3584 0858 05       		.uleb128 0x5
 3585 0859 03       		.byte	0x3
 3586 085a 58010000 		.4byte	.LC62
 3587 085e 00       		.byte	0
 3588 085f 16       		.uleb128 0x16
 3589 0860 36000000 		.4byte	.LVL97
 3590 0864 810F0000 		.4byte	0xf81
 3591 0868 15       		.uleb128 0x15
 3592 0869 01       		.uleb128 0x1
 3593 086a 50       		.byte	0x50
 3594 086b 02       		.uleb128 0x2
 3595 086c 74       		.byte	0x74
ARM GAS  C:\Users\austc\AppData\Local\Temp\ccxzq70h.s 			page 82


 3596 086d 00       		.sleb128 0
 3597 086e 00       		.byte	0
 3598 086f 00       		.byte	0
 3599 0870 10       		.uleb128 0x10
 3600 0871 63050000 		.4byte	.LASF61
 3601 0875 01       		.byte	0x1
 3602 0876 D001     		.2byte	0x1d0
 3603 0878 00000000 		.4byte	.LFB45
 3604 087c 4C000000 		.4byte	.LFE45-.LFB45
 3605 0880 01       		.uleb128 0x1
 3606 0881 9C       		.byte	0x9c
 3607 0882 CB080000 		.4byte	0x8cb
 3608 0886 14       		.uleb128 0x14
 3609 0887 18000000 		.4byte	.LVL98
 3610 088b 5F100000 		.4byte	0x105f
 3611 088f 9D080000 		.4byte	0x89d
 3612 0893 15       		.uleb128 0x15
 3613 0894 01       		.uleb128 0x1
 3614 0895 50       		.byte	0x50
 3615 0896 05       		.uleb128 0x5
 3616 0897 03       		.byte	0x3
 3617 0898 00000000 		.4byte	message
 3618 089c 00       		.byte	0
 3619 089d 14       		.uleb128 0x14
 3620 089e 30000000 		.4byte	.LVL99
 3621 08a2 08100000 		.4byte	0x1008
 3622 08a6 BA080000 		.4byte	0x8ba
 3623 08aa 15       		.uleb128 0x15
 3624 08ab 01       		.uleb128 0x1
 3625 08ac 50       		.byte	0x50
 3626 08ad 02       		.uleb128 0x2
 3627 08ae 74       		.byte	0x74
 3628 08af 00       		.sleb128 0
 3629 08b0 15       		.uleb128 0x15
 3630 08b1 01       		.uleb128 0x1
 3631 08b2 51       		.byte	0x51
 3632 08b3 05       		.uleb128 0x5
 3633 08b4 03       		.byte	0x3
 3634 08b5 80010000 		.4byte	.LC68
 3635 08b9 00       		.byte	0
 3636 08ba 16       		.uleb128 0x16
 3637 08bb 36000000 		.4byte	.LVL100
 3638 08bf 810F0000 		.4byte	0xf81
 3639 08c3 15       		.uleb128 0x15
 3640 08c4 01       		.uleb128 0x1
 3641 08c5 50       		.byte	0x50
 3642 08c6 02       		.uleb128 0x2
 3643 08c7 74       		.byte	0x74
 3644 08c8 00       		.sleb128 0
 3645 08c9 00       		.byte	0
 3646 08ca 00       		.byte	0
 3647 08cb 10       		.uleb128 0x10
 3648 08cc D9020000 		.4byte	.LASF62
 3649 08d0 01       		.byte	0x1
 3650 08d1 DD01     		.2byte	0x1dd
 3651 08d3 00000000 		.4byte	.LFB46
 3652 08d7 54000000 		.4byte	.LFE46-.LFB46
ARM GAS  C:\Users\austc\AppData\Local\Temp\ccxzq70h.s 			page 83


 3653 08db 01       		.uleb128 0x1
 3654 08dc 9C       		.byte	0x9c
 3655 08dd 46090000 		.4byte	0x946
 3656 08e1 18       		.uleb128 0x18
 3657 08e2 42020000 		.4byte	.LASF27
 3658 08e6 01       		.byte	0x1
 3659 08e7 DD01     		.2byte	0x1dd
 3660 08e9 81000000 		.4byte	0x81
 3661 08ed 31020000 		.4byte	.LLST11
 3662 08f1 18       		.uleb128 0x18
 3663 08f2 BA030000 		.4byte	.LASF28
 3664 08f6 01       		.byte	0x1
 3665 08f7 DD01     		.2byte	0x1dd
 3666 08f9 81000000 		.4byte	0x81
 3667 08fd 5E020000 		.4byte	.LLST12
 3668 0901 14       		.uleb128 0x14
 3669 0902 1A000000 		.4byte	.LVL103
 3670 0906 5F100000 		.4byte	0x105f
 3671 090a 18090000 		.4byte	0x918
 3672 090e 15       		.uleb128 0x15
 3673 090f 01       		.uleb128 0x1
 3674 0910 50       		.byte	0x50
 3675 0911 05       		.uleb128 0x5
 3676 0912 03       		.byte	0x3
 3677 0913 00000000 		.4byte	message
 3678 0917 00       		.byte	0
 3679 0918 14       		.uleb128 0x14
 3680 0919 36000000 		.4byte	.LVL104
 3681 091d 08100000 		.4byte	0x1008
 3682 0921 35090000 		.4byte	0x935
 3683 0925 15       		.uleb128 0x15
 3684 0926 01       		.uleb128 0x1
 3685 0927 50       		.byte	0x50
 3686 0928 02       		.uleb128 0x2
 3687 0929 74       		.byte	0x74
 3688 092a 00       		.sleb128 0
 3689 092b 15       		.uleb128 0x15
 3690 092c 01       		.uleb128 0x1
 3691 092d 51       		.byte	0x51
 3692 092e 05       		.uleb128 0x5
 3693 092f 03       		.byte	0x3
 3694 0930 A4010000 		.4byte	.LC74
 3695 0934 00       		.byte	0
 3696 0935 16       		.uleb128 0x16
 3697 0936 3C000000 		.4byte	.LVL105
 3698 093a 810F0000 		.4byte	0xf81
 3699 093e 15       		.uleb128 0x15
 3700 093f 01       		.uleb128 0x1
 3701 0940 50       		.byte	0x50
 3702 0941 02       		.uleb128 0x2
 3703 0942 74       		.byte	0x74
 3704 0943 00       		.sleb128 0
 3705 0944 00       		.byte	0
 3706 0945 00       		.byte	0
 3707 0946 1C       		.uleb128 0x1c
 3708 0947 FE020000 		.4byte	0x2fe
 3709 094b 00000000 		.4byte	.LFB48
ARM GAS  C:\Users\austc\AppData\Local\Temp\ccxzq70h.s 			page 84


 3710 094f EC000000 		.4byte	.LFE48-.LFB48
 3711 0953 01       		.uleb128 0x1
 3712 0954 9C       		.byte	0x9c
 3713 0955 6C090000 		.4byte	0x96c
 3714 0959 12       		.uleb128 0x12
 3715 095a 0B030000 		.4byte	0x30b
 3716 095e 7F020000 		.4byte	.LLST13
 3717 0962 13       		.uleb128 0x13
 3718 0963 36000000 		.4byte	.LVL108
 3719 0967 760F0000 		.4byte	0xf76
 3720 096b 00       		.byte	0
 3721 096c 1D       		.uleb128 0x1d
 3722 096d 8B000000 		.4byte	.LASF64
 3723 0971 01       		.byte	0x1
 3724 0972 4F02     		.2byte	0x24f
 3725 0974 68000000 		.4byte	0x68
 3726 0978 00000000 		.4byte	.LFB50
 3727 097c 48000000 		.4byte	.LFE50-.LFB50
 3728 0980 01       		.uleb128 0x1
 3729 0981 9C       		.byte	0x9c
 3730 0982 E0090000 		.4byte	0x9e0
 3731 0986 18       		.uleb128 0x18
 3732 0987 29000000 		.4byte	.LASF63
 3733 098b 01       		.byte	0x1
 3734 098c 4F02     		.2byte	0x24f
 3735 098e B1000000 		.4byte	0xb1
 3736 0992 A0020000 		.4byte	.LLST14
 3737 0996 17       		.uleb128 0x17
 3738 0997 82020000 		.4byte	.LASF58
 3739 099b 01       		.byte	0x1
 3740 099c 5002     		.2byte	0x250
 3741 099e 68000000 		.4byte	0x68
 3742 09a2 C1020000 		.4byte	.LLST15
 3743 09a6 14       		.uleb128 0x14
 3744 09a7 2E000000 		.4byte	.LVL115
 3745 09ab 08100000 		.4byte	0x1008
 3746 09af CF090000 		.4byte	0x9cf
 3747 09b3 15       		.uleb128 0x15
 3748 09b4 01       		.uleb128 0x1
 3749 09b5 50       		.byte	0x50
 3750 09b6 02       		.uleb128 0x2
 3751 09b7 76       		.byte	0x76
 3752 09b8 00       		.sleb128 0
 3753 09b9 15       		.uleb128 0x15
 3754 09ba 01       		.uleb128 0x1
 3755 09bb 51       		.byte	0x51
 3756 09bc 05       		.uleb128 0x5
 3757 09bd 03       		.byte	0x3
 3758 09be D4010000 		.4byte	.LC84
 3759 09c2 15       		.uleb128 0x15
 3760 09c3 01       		.uleb128 0x1
 3761 09c4 52       		.byte	0x52
 3762 09c5 02       		.uleb128 0x2
 3763 09c6 75       		.byte	0x75
 3764 09c7 00       		.sleb128 0
 3765 09c8 15       		.uleb128 0x15
 3766 09c9 01       		.uleb128 0x1
ARM GAS  C:\Users\austc\AppData\Local\Temp\ccxzq70h.s 			page 85


 3767 09ca 53       		.byte	0x53
 3768 09cb 02       		.uleb128 0x2
 3769 09cc 74       		.byte	0x74
 3770 09cd 00       		.sleb128 0
 3771 09ce 00       		.byte	0
 3772 09cf 16       		.uleb128 0x16
 3773 09d0 34000000 		.4byte	.LVL116
 3774 09d4 810F0000 		.4byte	0xf81
 3775 09d8 15       		.uleb128 0x15
 3776 09d9 01       		.uleb128 0x1
 3777 09da 50       		.byte	0x50
 3778 09db 02       		.uleb128 0x2
 3779 09dc 76       		.byte	0x76
 3780 09dd 00       		.sleb128 0
 3781 09de 00       		.byte	0
 3782 09df 00       		.byte	0
 3783 09e0 1D       		.uleb128 0x1d
 3784 09e1 BB040000 		.4byte	.LASF65
 3785 09e5 01       		.byte	0x1
 3786 09e6 5802     		.2byte	0x258
 3787 09e8 68000000 		.4byte	0x68
 3788 09ec 00000000 		.4byte	.LFB51
 3789 09f0 E4000000 		.4byte	.LFE51-.LFB51
 3790 09f4 01       		.uleb128 0x1
 3791 09f5 9C       		.byte	0x9c
 3792 09f6 B10A0000 		.4byte	0xab1
 3793 09fa 18       		.uleb128 0x18
 3794 09fb E1010000 		.4byte	.LASF66
 3795 09ff 01       		.byte	0x1
 3796 0a00 5802     		.2byte	0x258
 3797 0a02 68000000 		.4byte	0x68
 3798 0a06 F5020000 		.4byte	.LLST16
 3799 0a0a 17       		.uleb128 0x17
 3800 0a0b 71060000 		.4byte	.LASF67
 3801 0a0f 01       		.byte	0x1
 3802 0a10 5902     		.2byte	0x259
 3803 0a12 B1000000 		.4byte	0xb1
 3804 0a16 21030000 		.4byte	.LLST17
 3805 0a1a 1E       		.uleb128 0x1e
 3806 0a1b 7000     		.ascii	"p\000"
 3807 0a1d 01       		.byte	0x1
 3808 0a1e 5A02     		.2byte	0x25a
 3809 0a20 68000000 		.4byte	0x68
 3810 0a24 61030000 		.4byte	.LLST18
 3811 0a28 1E       		.uleb128 0x1e
 3812 0a29 6400     		.ascii	"d\000"
 3813 0a2b 01       		.byte	0x1
 3814 0a2c 6A02     		.2byte	0x26a
 3815 0a2e 68000000 		.4byte	0x68
 3816 0a32 7F030000 		.4byte	.LLST19
 3817 0a36 13       		.uleb128 0x13
 3818 0a37 0A000000 		.4byte	.LVL119
 3819 0a3b 760F0000 		.4byte	0xf76
 3820 0a3f 14       		.uleb128 0x14
 3821 0a40 30000000 		.4byte	.LVL124
 3822 0a44 08100000 		.4byte	0x1008
 3823 0a48 620A0000 		.4byte	0xa62
ARM GAS  C:\Users\austc\AppData\Local\Temp\ccxzq70h.s 			page 86


 3824 0a4c 15       		.uleb128 0x15
 3825 0a4d 01       		.uleb128 0x1
 3826 0a4e 50       		.byte	0x50
 3827 0a4f 02       		.uleb128 0x2
 3828 0a50 75       		.byte	0x75
 3829 0a51 00       		.sleb128 0
 3830 0a52 15       		.uleb128 0x15
 3831 0a53 01       		.uleb128 0x1
 3832 0a54 51       		.byte	0x51
 3833 0a55 05       		.uleb128 0x5
 3834 0a56 03       		.byte	0x3
 3835 0a57 EC010000 		.4byte	.LC88
 3836 0a5b 15       		.uleb128 0x15
 3837 0a5c 01       		.uleb128 0x1
 3838 0a5d 52       		.byte	0x52
 3839 0a5e 02       		.uleb128 0x2
 3840 0a5f 74       		.byte	0x74
 3841 0a60 00       		.sleb128 0
 3842 0a61 00       		.byte	0
 3843 0a62 14       		.uleb128 0x14
 3844 0a63 36000000 		.4byte	.LVL125
 3845 0a67 810F0000 		.4byte	0xf81
 3846 0a6b 760A0000 		.4byte	0xa76
 3847 0a6f 15       		.uleb128 0x15
 3848 0a70 01       		.uleb128 0x1
 3849 0a71 50       		.byte	0x50
 3850 0a72 02       		.uleb128 0x2
 3851 0a73 75       		.byte	0x75
 3852 0a74 00       		.sleb128 0
 3853 0a75 00       		.byte	0
 3854 0a76 14       		.uleb128 0x14
 3855 0a77 82000000 		.4byte	.LVL129
 3856 0a7b 08100000 		.4byte	0x1008
 3857 0a7f A00A0000 		.4byte	0xaa0
 3858 0a83 15       		.uleb128 0x15
 3859 0a84 01       		.uleb128 0x1
 3860 0a85 50       		.byte	0x50
 3861 0a86 02       		.uleb128 0x2
 3862 0a87 76       		.byte	0x76
 3863 0a88 00       		.sleb128 0
 3864 0a89 15       		.uleb128 0x15
 3865 0a8a 01       		.uleb128 0x1
 3866 0a8b 51       		.byte	0x51
 3867 0a8c 05       		.uleb128 0x5
 3868 0a8d 03       		.byte	0x3
 3869 0a8e F4010000 		.4byte	.LC92
 3870 0a92 15       		.uleb128 0x15
 3871 0a93 01       		.uleb128 0x1
 3872 0a94 52       		.byte	0x52
 3873 0a95 02       		.uleb128 0x2
 3874 0a96 74       		.byte	0x74
 3875 0a97 00       		.sleb128 0
 3876 0a98 15       		.uleb128 0x15
 3877 0a99 02       		.uleb128 0x2
 3878 0a9a 7D       		.byte	0x7d
 3879 0a9b 00       		.sleb128 0
 3880 0a9c 02       		.uleb128 0x2
ARM GAS  C:\Users\austc\AppData\Local\Temp\ccxzq70h.s 			page 87


 3881 0a9d 75       		.byte	0x75
 3882 0a9e 00       		.sleb128 0
 3883 0a9f 00       		.byte	0
 3884 0aa0 16       		.uleb128 0x16
 3885 0aa1 88000000 		.4byte	.LVL130
 3886 0aa5 810F0000 		.4byte	0xf81
 3887 0aa9 15       		.uleb128 0x15
 3888 0aaa 01       		.uleb128 0x1
 3889 0aab 50       		.byte	0x50
 3890 0aac 02       		.uleb128 0x2
 3891 0aad 76       		.byte	0x76
 3892 0aae 00       		.sleb128 0
 3893 0aaf 00       		.byte	0
 3894 0ab0 00       		.byte	0
 3895 0ab1 10       		.uleb128 0x10
 3896 0ab2 56050000 		.4byte	.LASF68
 3897 0ab6 01       		.byte	0x1
 3898 0ab7 3A02     		.2byte	0x23a
 3899 0ab9 00000000 		.4byte	.LFB49
 3900 0abd 7C000000 		.4byte	.LFE49-.LFB49
 3901 0ac1 01       		.uleb128 0x1
 3902 0ac2 9C       		.byte	0x9c
 3903 0ac3 8F0B0000 		.4byte	0xb8f
 3904 0ac7 18       		.uleb128 0x18
 3905 0ac8 29000000 		.4byte	.LASF63
 3906 0acc 01       		.byte	0x1
 3907 0acd 3A02     		.2byte	0x23a
 3908 0acf B1000000 		.4byte	0xb1
 3909 0ad3 92030000 		.4byte	.LLST20
 3910 0ad7 1E       		.uleb128 0x1e
 3911 0ad8 50574D00 		.ascii	"PWM\000"
 3912 0adc 01       		.byte	0x1
 3913 0add 4002     		.2byte	0x240
 3914 0adf 68000000 		.4byte	0x68
 3915 0ae3 B3030000 		.4byte	.LLST21
 3916 0ae7 14       		.uleb128 0x14
 3917 0ae8 1A000000 		.4byte	.LVL139
 3918 0aec 08100000 		.4byte	0x1008
 3919 0af0 040B0000 		.4byte	0xb04
 3920 0af4 15       		.uleb128 0x15
 3921 0af5 01       		.uleb128 0x1
 3922 0af6 50       		.byte	0x50
 3923 0af7 02       		.uleb128 0x2
 3924 0af8 75       		.byte	0x75
 3925 0af9 00       		.sleb128 0
 3926 0afa 15       		.uleb128 0x15
 3927 0afb 01       		.uleb128 0x1
 3928 0afc 51       		.byte	0x51
 3929 0afd 05       		.uleb128 0x5
 3930 0afe 03       		.byte	0x3
 3931 0aff 14020000 		.4byte	.LC99
 3932 0b03 00       		.byte	0
 3933 0b04 14       		.uleb128 0x14
 3934 0b05 20000000 		.4byte	.LVL140
 3935 0b09 810F0000 		.4byte	0xf81
 3936 0b0d 180B0000 		.4byte	0xb18
 3937 0b11 15       		.uleb128 0x15
ARM GAS  C:\Users\austc\AppData\Local\Temp\ccxzq70h.s 			page 88


 3938 0b12 01       		.uleb128 0x1
 3939 0b13 50       		.byte	0x50
 3940 0b14 02       		.uleb128 0x2
 3941 0b15 75       		.byte	0x75
 3942 0b16 00       		.sleb128 0
 3943 0b17 00       		.byte	0
 3944 0b18 14       		.uleb128 0x14
 3945 0b19 26000000 		.4byte	.LVL141
 3946 0b1d 6C090000 		.4byte	0x96c
 3947 0b21 2C0B0000 		.4byte	0xb2c
 3948 0b25 15       		.uleb128 0x15
 3949 0b26 01       		.uleb128 0x1
 3950 0b27 50       		.byte	0x50
 3951 0b28 02       		.uleb128 0x2
 3952 0b29 74       		.byte	0x74
 3953 0b2a 00       		.sleb128 0
 3954 0b2b 00       		.byte	0
 3955 0b2c 13       		.uleb128 0x13
 3956 0b2d 2A000000 		.4byte	.LVL142
 3957 0b31 E0090000 		.4byte	0x9e0
 3958 0b35 14       		.uleb128 0x14
 3959 0b36 40000000 		.4byte	.LVL145
 3960 0b3a 08100000 		.4byte	0x1008
 3961 0b3e 580B0000 		.4byte	0xb58
 3962 0b42 15       		.uleb128 0x15
 3963 0b43 01       		.uleb128 0x1
 3964 0b44 50       		.byte	0x50
 3965 0b45 02       		.uleb128 0x2
 3966 0b46 75       		.byte	0x75
 3967 0b47 00       		.sleb128 0
 3968 0b48 15       		.uleb128 0x15
 3969 0b49 01       		.uleb128 0x1
 3970 0b4a 51       		.byte	0x51
 3971 0b4b 05       		.uleb128 0x5
 3972 0b4c 03       		.byte	0x3
 3973 0b4d 24020000 		.4byte	.LC102
 3974 0b51 15       		.uleb128 0x15
 3975 0b52 01       		.uleb128 0x1
 3976 0b53 52       		.byte	0x52
 3977 0b54 02       		.uleb128 0x2
 3978 0b55 74       		.byte	0x74
 3979 0b56 00       		.sleb128 0
 3980 0b57 00       		.byte	0
 3981 0b58 14       		.uleb128 0x14
 3982 0b59 46000000 		.4byte	.LVL146
 3983 0b5d 810F0000 		.4byte	0xf81
 3984 0b61 6C0B0000 		.4byte	0xb6c
 3985 0b65 15       		.uleb128 0x15
 3986 0b66 01       		.uleb128 0x1
 3987 0b67 50       		.byte	0x50
 3988 0b68 02       		.uleb128 0x2
 3989 0b69 75       		.byte	0x75
 3990 0b6a 00       		.sleb128 0
 3991 0b6b 00       		.byte	0
 3992 0b6c 13       		.uleb128 0x13
 3993 0b6d 52000000 		.4byte	.LVL147
 3994 0b71 DF050000 		.4byte	0x5df
ARM GAS  C:\Users\austc\AppData\Local\Temp\ccxzq70h.s 			page 89


 3995 0b75 13       		.uleb128 0x13
 3996 0b76 5E000000 		.4byte	.LVL148
 3997 0b7a DF050000 		.4byte	0x5df
 3998 0b7e 16       		.uleb128 0x16
 3999 0b7f 66000000 		.4byte	.LVL149
 4000 0b83 DF050000 		.4byte	0x5df
 4001 0b87 15       		.uleb128 0x15
 4002 0b88 01       		.uleb128 0x1
 4003 0b89 50       		.byte	0x50
 4004 0b8a 02       		.uleb128 0x2
 4005 0b8b 74       		.byte	0x74
 4006 0b8c 00       		.sleb128 0
 4007 0b8d 00       		.byte	0
 4008 0b8e 00       		.byte	0
 4009 0b8f 1F       		.uleb128 0x1f
 4010 0b90 6C060000 		.4byte	.LASF128
 4011 0b94 01       		.byte	0x1
 4012 0b95 74       		.byte	0x74
 4013 0b96 68000000 		.4byte	0x68
 4014 0b9a 00000000 		.4byte	.LFB37
 4015 0b9e BC010000 		.4byte	.LFE37-.LFB37
 4016 0ba2 01       		.uleb128 0x1
 4017 0ba3 9C       		.byte	0x9c
 4018 0ba4 070D0000 		.4byte	0xd07
 4019 0ba8 20       		.uleb128 0x20
 4020 0ba9 9B000000 		.4byte	.LASF129
 4021 0bad 01       		.byte	0x1
 4022 0bae 80       		.byte	0x80
 4023 0baf 81000000 		.4byte	0x81
 4024 0bb3 21       		.uleb128 0x21
 4025 0bb4 757000   		.ascii	"up\000"
 4026 0bb7 01       		.byte	0x1
 4027 0bb8 8F       		.byte	0x8f
 4028 0bb9 68000000 		.4byte	0x68
 4029 0bbd 00       		.byte	0
 4030 0bbe 22       		.uleb128 0x22
 4031 0bbf 18060000 		.4byte	.LASF69
 4032 0bc3 01       		.byte	0x1
 4033 0bc4 90       		.byte	0x90
 4034 0bc5 68000000 		.4byte	0x68
 4035 0bc9 00       		.byte	0
 4036 0bca 13       		.uleb128 0x13
 4037 0bcb 32000000 		.4byte	.LVL151
 4038 0bcf DE030000 		.4byte	0x3de
 4039 0bd3 13       		.uleb128 0x13
 4040 0bd4 36000000 		.4byte	.LVL152
 4041 0bd8 E8040000 		.4byte	0x4e8
 4042 0bdc 14       		.uleb128 0x14
 4043 0bdd 40000000 		.4byte	.LVL153
 4044 0be1 DF050000 		.4byte	0x5df
 4045 0be5 F00B0000 		.4byte	0xbf0
 4046 0be9 15       		.uleb128 0x15
 4047 0bea 01       		.uleb128 0x1
 4048 0beb 50       		.byte	0x50
 4049 0bec 02       		.uleb128 0x2
 4050 0bed 74       		.byte	0x74
 4051 0bee 00       		.sleb128 0
ARM GAS  C:\Users\austc\AppData\Local\Temp\ccxzq70h.s 			page 90


 4052 0bef 00       		.byte	0
 4053 0bf0 14       		.uleb128 0x14
 4054 0bf1 70000000 		.4byte	.LVL154
 4055 0bf5 08100000 		.4byte	0x1008
 4056 0bf9 0D0C0000 		.4byte	0xc0d
 4057 0bfd 15       		.uleb128 0x15
 4058 0bfe 01       		.uleb128 0x1
 4059 0bff 50       		.byte	0x50
 4060 0c00 02       		.uleb128 0x2
 4061 0c01 74       		.byte	0x74
 4062 0c02 00       		.sleb128 0
 4063 0c03 15       		.uleb128 0x15
 4064 0c04 01       		.uleb128 0x1
 4065 0c05 51       		.byte	0x51
 4066 0c06 05       		.uleb128 0x5
 4067 0c07 03       		.byte	0x3
 4068 0c08 30020000 		.4byte	.LC113
 4069 0c0c 00       		.byte	0
 4070 0c0d 14       		.uleb128 0x14
 4071 0c0e 76000000 		.4byte	.LVL155
 4072 0c12 810F0000 		.4byte	0xf81
 4073 0c16 210C0000 		.4byte	0xc21
 4074 0c1a 15       		.uleb128 0x15
 4075 0c1b 01       		.uleb128 0x1
 4076 0c1c 50       		.byte	0x50
 4077 0c1d 02       		.uleb128 0x2
 4078 0c1e 74       		.byte	0x74
 4079 0c1f 00       		.sleb128 0
 4080 0c20 00       		.byte	0
 4081 0c21 13       		.uleb128 0x13
 4082 0c22 8A000000 		.4byte	.LVL156
 4083 0c26 DF050000 		.4byte	0x5df
 4084 0c2a 13       		.uleb128 0x13
 4085 0c2b 96000000 		.4byte	.LVL157
 4086 0c2f DF050000 		.4byte	0x5df
 4087 0c33 14       		.uleb128 0x14
 4088 0c34 B4000000 		.4byte	.LVL158
 4089 0c38 08100000 		.4byte	0x1008
 4090 0c3c 500C0000 		.4byte	0xc50
 4091 0c40 15       		.uleb128 0x15
 4092 0c41 01       		.uleb128 0x1
 4093 0c42 50       		.byte	0x50
 4094 0c43 02       		.uleb128 0x2
 4095 0c44 74       		.byte	0x74
 4096 0c45 00       		.sleb128 0
 4097 0c46 15       		.uleb128 0x15
 4098 0c47 01       		.uleb128 0x1
 4099 0c48 51       		.byte	0x51
 4100 0c49 05       		.uleb128 0x5
 4101 0c4a 03       		.byte	0x3
 4102 0c4b 4C020000 		.4byte	.LC116
 4103 0c4f 00       		.byte	0
 4104 0c50 14       		.uleb128 0x14
 4105 0c51 BA000000 		.4byte	.LVL159
 4106 0c55 810F0000 		.4byte	0xf81
 4107 0c59 640C0000 		.4byte	0xc64
 4108 0c5d 15       		.uleb128 0x15
ARM GAS  C:\Users\austc\AppData\Local\Temp\ccxzq70h.s 			page 91


 4109 0c5e 01       		.uleb128 0x1
 4110 0c5f 50       		.byte	0x50
 4111 0c60 02       		.uleb128 0x2
 4112 0c61 74       		.byte	0x74
 4113 0c62 00       		.sleb128 0
 4114 0c63 00       		.byte	0
 4115 0c64 14       		.uleb128 0x14
 4116 0c65 DE000000 		.4byte	.LVL160
 4117 0c69 08100000 		.4byte	0x1008
 4118 0c6d 810C0000 		.4byte	0xc81
 4119 0c71 15       		.uleb128 0x15
 4120 0c72 01       		.uleb128 0x1
 4121 0c73 50       		.byte	0x50
 4122 0c74 02       		.uleb128 0x2
 4123 0c75 74       		.byte	0x74
 4124 0c76 00       		.sleb128 0
 4125 0c77 15       		.uleb128 0x15
 4126 0c78 01       		.uleb128 0x1
 4127 0c79 51       		.byte	0x51
 4128 0c7a 05       		.uleb128 0x5
 4129 0c7b 03       		.byte	0x3
 4130 0c7c 70020000 		.4byte	.LC119
 4131 0c80 00       		.byte	0
 4132 0c81 14       		.uleb128 0x14
 4133 0c82 E4000000 		.4byte	.LVL161
 4134 0c86 810F0000 		.4byte	0xf81
 4135 0c8a 950C0000 		.4byte	0xc95
 4136 0c8e 15       		.uleb128 0x15
 4137 0c8f 01       		.uleb128 0x1
 4138 0c90 50       		.byte	0x50
 4139 0c91 02       		.uleb128 0x2
 4140 0c92 74       		.byte	0x74
 4141 0c93 00       		.sleb128 0
 4142 0c94 00       		.byte	0
 4143 0c95 13       		.uleb128 0x13
 4144 0c96 02010000 		.4byte	.LVL162
 4145 0c9a B10A0000 		.4byte	0xab1
 4146 0c9e 14       		.uleb128 0x14
 4147 0c9f 28010000 		.4byte	.LVL163
 4148 0ca3 08100000 		.4byte	0x1008
 4149 0ca7 BB0C0000 		.4byte	0xcbb
 4150 0cab 15       		.uleb128 0x15
 4151 0cac 01       		.uleb128 0x1
 4152 0cad 50       		.byte	0x50
 4153 0cae 02       		.uleb128 0x2
 4154 0caf 74       		.byte	0x74
 4155 0cb0 00       		.sleb128 0
 4156 0cb1 15       		.uleb128 0x15
 4157 0cb2 01       		.uleb128 0x1
 4158 0cb3 51       		.byte	0x51
 4159 0cb4 05       		.uleb128 0x5
 4160 0cb5 03       		.byte	0x3
 4161 0cb6 8C020000 		.4byte	.LC121
 4162 0cba 00       		.byte	0
 4163 0cbb 14       		.uleb128 0x14
 4164 0cbc 2E010000 		.4byte	.LVL164
 4165 0cc0 810F0000 		.4byte	0xf81
ARM GAS  C:\Users\austc\AppData\Local\Temp\ccxzq70h.s 			page 92


 4166 0cc4 CF0C0000 		.4byte	0xccf
 4167 0cc8 15       		.uleb128 0x15
 4168 0cc9 01       		.uleb128 0x1
 4169 0cca 50       		.byte	0x50
 4170 0ccb 02       		.uleb128 0x2
 4171 0ccc 74       		.byte	0x74
 4172 0ccd 00       		.sleb128 0
 4173 0cce 00       		.byte	0
 4174 0ccf 14       		.uleb128 0x14
 4175 0cd0 5A010000 		.4byte	.LVL165
 4176 0cd4 4B100000 		.4byte	0x104b
 4177 0cd8 F40C0000 		.4byte	0xcf4
 4178 0cdc 15       		.uleb128 0x15
 4179 0cdd 01       		.uleb128 0x1
 4180 0cde 50       		.byte	0x50
 4181 0cdf 05       		.uleb128 0x5
 4182 0ce0 03       		.byte	0x3
 4183 0ce1 00000000 		.4byte	txData
 4184 0ce5 15       		.uleb128 0x15
 4185 0ce6 01       		.uleb128 0x1
 4186 0ce7 51       		.byte	0x51
 4187 0ce8 05       		.uleb128 0x5
 4188 0ce9 03       		.byte	0x3
 4189 0cea B0020000 		.4byte	.LC123
 4190 0cee 15       		.uleb128 0x15
 4191 0cef 01       		.uleb128 0x1
 4192 0cf0 52       		.byte	0x52
 4193 0cf1 01       		.uleb128 0x1
 4194 0cf2 44       		.byte	0x44
 4195 0cf3 00       		.byte	0
 4196 0cf4 13       		.uleb128 0x13
 4197 0cf5 5E010000 		.4byte	.LVL166
 4198 0cf9 75070000 		.4byte	0x775
 4199 0cfd 13       		.uleb128 0x13
 4200 0cfe 72010000 		.4byte	.LVL167
 4201 0d02 70080000 		.4byte	0x870
 4202 0d06 00       		.byte	0
 4203 0d07 23       		.uleb128 0x23
 4204 0d08 35030000 		.4byte	.LASF70
 4205 0d0c 01       		.byte	0x1
 4206 0d0d 15       		.byte	0x15
 4207 0d0e 81000000 		.4byte	0x81
 4208 0d12 05       		.uleb128 0x5
 4209 0d13 03       		.byte	0x3
 4210 0d14 00000000 		.4byte	time_LED
 4211 0d18 23       		.uleb128 0x23
 4212 0d19 98050000 		.4byte	.LASF71
 4213 0d1d 01       		.byte	0x1
 4214 0d1e 18       		.byte	0x18
 4215 0d1f 99000000 		.4byte	0x99
 4216 0d23 05       		.uleb128 0x5
 4217 0d24 03       		.byte	0x3
 4218 0d25 00000000 		.4byte	message_id
 4219 0d29 23       		.uleb128 0x23
 4220 0d2a 07000000 		.4byte	.LASF72
 4221 0d2e 01       		.byte	0x1
 4222 0d2f 1C       		.byte	0x1c
ARM GAS  C:\Users\austc\AppData\Local\Temp\ccxzq70h.s 			page 93


 4223 0d30 8D000000 		.4byte	0x8d
 4224 0d34 05       		.uleb128 0x5
 4225 0d35 03       		.byte	0x3
 4226 0d36 00000000 		.4byte	CAN_RX_MAILBOX_1_SHIFT
 4227 0d3a 23       		.uleb128 0x23
 4228 0d3b D6040000 		.4byte	.LASF73
 4229 0d3f 01       		.byte	0x1
 4230 0d40 1D       		.byte	0x1d
 4231 0d41 99000000 		.4byte	0x99
 4232 0d45 05       		.uleb128 0x5
 4233 0d46 03       		.byte	0x3
 4234 0d47 00000000 		.4byte	CAN_RX_MAILBOX_0_SHIFT
 4235 0d4b 23       		.uleb128 0x23
 4236 0d4c 0A050000 		.4byte	.LASF74
 4237 0d50 01       		.byte	0x1
 4238 0d51 1E       		.byte	0x1e
 4239 0d52 8D000000 		.4byte	0x8d
 4240 0d56 05       		.uleb128 0x5
 4241 0d57 03       		.byte	0x3
 4242 0d58 00000000 		.4byte	CAN_RX_MAILBOX_1
 4243 0d5c 23       		.uleb128 0x23
 4244 0d5d F9040000 		.4byte	.LASF75
 4245 0d61 01       		.byte	0x1
 4246 0d62 1F       		.byte	0x1f
 4247 0d63 8D000000 		.4byte	0x8d
 4248 0d67 05       		.uleb128 0x5
 4249 0d68 03       		.byte	0x3
 4250 0d69 00000000 		.4byte	CAN_RX_MAILBOX_0
 4251 0d6d 23       		.uleb128 0x23
 4252 0d6e C0030000 		.4byte	.LASF76
 4253 0d72 01       		.byte	0x1
 4254 0d73 20       		.byte	0x20
 4255 0d74 68000000 		.4byte	0x68
 4256 0d78 05       		.uleb128 0x5
 4257 0d79 03       		.byte	0x3
 4258 0d7a 00000000 		.4byte	CAN_TIMEOUT
 4259 0d7e 23       		.uleb128 0x23
 4260 0d7f EF020000 		.4byte	.LASF77
 4261 0d83 01       		.byte	0x1
 4262 0d84 25       		.byte	0x25
 4263 0d85 EA000000 		.4byte	0xea
 4264 0d89 05       		.uleb128 0x5
 4265 0d8a 03       		.byte	0x3
 4266 0d8b 00000000 		.4byte	uart_debug
 4267 0d8f 23       		.uleb128 0x23
 4268 0d90 1D060000 		.4byte	.LASF78
 4269 0d94 01       		.byte	0x1
 4270 0d95 2B       		.byte	0x2b
 4271 0d96 68000000 		.4byte	0x68
 4272 0d9a 05       		.uleb128 0x5
 4273 0d9b 03       		.byte	0x3
 4274 0d9c 00000000 		.4byte	GEAR_RATIO
 4275 0da0 23       		.uleb128 0x23
 4276 0da1 45030000 		.4byte	.LASF79
 4277 0da5 01       		.byte	0x1
 4278 0da6 2C       		.byte	0x2c
 4279 0da7 68000000 		.4byte	0x68
ARM GAS  C:\Users\austc\AppData\Local\Temp\ccxzq70h.s 			page 94


 4280 0dab 05       		.uleb128 0x5
 4281 0dac 03       		.byte	0x3
 4282 0dad 00000000 		.4byte	pwm_compare
 4283 0db1 23       		.uleb128 0x23
 4284 0db2 D6010000 		.4byte	.LASF80
 4285 0db6 01       		.byte	0x1
 4286 0db7 2D       		.byte	0x2d
 4287 0db8 81000000 		.4byte	0x81
 4288 0dbc 05       		.uleb128 0x5
 4289 0dbd 03       		.byte	0x3
 4290 0dbe 00000000 		.4byte	invalidate
 4291 0dc2 23       		.uleb128 0x23
 4292 0dc3 A7030000 		.4byte	.LASF81
 4293 0dc7 01       		.byte	0x1
 4294 0dc8 30       		.byte	0x30
 4295 0dc9 A5000000 		.4byte	0xa5
 4296 0dcd 05       		.uleb128 0x5
 4297 0dce 03       		.byte	0x3
 4298 0dcf 00000000 		.4byte	flipEncoder
 4299 0dd3 23       		.uleb128 0x23
 4300 0dd4 20010000 		.4byte	.LASF82
 4301 0dd8 01       		.byte	0x1
 4302 0dd9 31       		.byte	0x31
 4303 0dda B1000000 		.4byte	0xb1
 4304 0dde 05       		.uleb128 0x5
 4305 0ddf 03       		.byte	0x3
 4306 0de0 00000000 		.4byte	final_angle
 4307 0de4 24       		.uleb128 0x24
 4308 0de5 6900     		.ascii	"i\000"
 4309 0de7 01       		.byte	0x1
 4310 0de8 32       		.byte	0x32
 4311 0de9 68000000 		.4byte	0x68
 4312 0ded 05       		.uleb128 0x5
 4313 0dee 03       		.byte	0x3
 4314 0def 00000000 		.4byte	i
 4315 0df3 23       		.uleb128 0x23
 4316 0df4 78040000 		.4byte	.LASF83
 4317 0df8 01       		.byte	0x1
 4318 0df9 33       		.byte	0x33
 4319 0dfa 68000000 		.4byte	0x68
 4320 0dfe 05       		.uleb128 0x5
 4321 0dff 03       		.byte	0x3
 4322 0e00 00000000 		.4byte	lastp
 4323 0e04 24       		.uleb128 0x24
 4324 0e05 6B7000   		.ascii	"kp\000"
 4325 0e08 01       		.byte	0x1
 4326 0e09 34       		.byte	0x34
 4327 0e0a 68000000 		.4byte	0x68
 4328 0e0e 05       		.uleb128 0x5
 4329 0e0f 03       		.byte	0x3
 4330 0e10 00000000 		.4byte	kp
 4331 0e14 24       		.uleb128 0x24
 4332 0e15 6B6900   		.ascii	"ki\000"
 4333 0e18 01       		.byte	0x1
 4334 0e19 35       		.byte	0x35
 4335 0e1a 68000000 		.4byte	0x68
 4336 0e1e 05       		.uleb128 0x5
ARM GAS  C:\Users\austc\AppData\Local\Temp\ccxzq70h.s 			page 95


 4337 0e1f 03       		.byte	0x3
 4338 0e20 00000000 		.4byte	ki
 4339 0e24 24       		.uleb128 0x24
 4340 0e25 6B6400   		.ascii	"kd\000"
 4341 0e28 01       		.byte	0x1
 4342 0e29 36       		.byte	0x36
 4343 0e2a 68000000 		.4byte	0x68
 4344 0e2e 05       		.uleb128 0x5
 4345 0e2f 03       		.byte	0x3
 4346 0e30 00000000 		.4byte	kd
 4347 0e34 23       		.uleb128 0x23
 4348 0e35 25050000 		.4byte	.LASF84
 4349 0e39 01       		.byte	0x1
 4350 0e3a 37       		.byte	0x37
 4351 0e3b C4000000 		.4byte	0xc4
 4352 0e3f 05       		.uleb128 0x5
 4353 0e40 03       		.byte	0x3
 4354 0e41 00000000 		.4byte	ratio
 4355 0e45 23       		.uleb128 0x23
 4356 0e46 47020000 		.4byte	.LASF85
 4357 0e4a 01       		.byte	0x1
 4358 0e4b 38       		.byte	0x38
 4359 0e4c 81000000 		.4byte	0x81
 4360 0e50 05       		.uleb128 0x5
 4361 0e51 03       		.byte	0x3
 4362 0e52 00000000 		.4byte	complete
 4363 0e56 23       		.uleb128 0x23
 4364 0e57 33060000 		.4byte	.LASF86
 4365 0e5b 01       		.byte	0x1
 4366 0e5c 39       		.byte	0x39
 4367 0e5d 81000000 		.4byte	0x81
 4368 0e61 05       		.uleb128 0x5
 4369 0e62 03       		.byte	0x3
 4370 0e63 00000000 		.4byte	maxV
 4371 0e67 23       		.uleb128 0x23
 4372 0e68 A1000000 		.4byte	.LASF87
 4373 0e6c 01       		.byte	0x1
 4374 0e6d 3C       		.byte	0x3c
 4375 0e6e 81000000 		.4byte	0x81
 4376 0e72 05       		.uleb128 0x5
 4377 0e73 03       		.byte	0x3
 4378 0e74 00000000 		.4byte	mode
 4379 0e78 23       		.uleb128 0x23
 4380 0e79 F3010000 		.4byte	.LASF88
 4381 0e7d 01       		.byte	0x1
 4382 0e7e 3F       		.byte	0x3f
 4383 0e7f 81000000 		.4byte	0x81
 4384 0e83 05       		.uleb128 0x5
 4385 0e84 03       		.byte	0x3
 4386 0e85 00000000 		.4byte	send_data
 4387 0e89 23       		.uleb128 0x23
 4388 0e8a 55040000 		.4byte	.LASF89
 4389 0e8e 01       		.byte	0x1
 4390 0e8f 40       		.byte	0x40
 4391 0e90 81000000 		.4byte	0x81
 4392 0e94 05       		.uleb128 0x5
 4393 0e95 03       		.byte	0x3
ARM GAS  C:\Users\austc\AppData\Local\Temp\ccxzq70h.s 			page 96


 4394 0e96 00000000 		.4byte	model_req
 4395 0e9a 23       		.uleb128 0x23
 4396 0e9b 72000000 		.4byte	.LASF90
 4397 0e9f 01       		.byte	0x1
 4398 0ea0 41       		.byte	0x41
 4399 0ea1 81000000 		.4byte	0x81
 4400 0ea5 05       		.uleb128 0x5
 4401 0ea6 03       		.byte	0x3
 4402 0ea7 00000000 		.4byte	disable_limit
 4403 0eab 23       		.uleb128 0x23
 4404 0eac 37010000 		.4byte	.LASF91
 4405 0eb0 01       		.byte	0x1
 4406 0eb1 44       		.byte	0x44
 4407 0eb2 0E010000 		.4byte	0x10e
 4408 0eb6 05       		.uleb128 0x5
 4409 0eb7 03       		.byte	0x3
 4410 0eb8 00000000 		.4byte	Can_rx_pwm
 4411 0ebc 23       		.uleb128 0x23
 4412 0ebd A3050000 		.4byte	.LASF92
 4413 0ec1 01       		.byte	0x1
 4414 0ec2 44       		.byte	0x44
 4415 0ec3 0E010000 		.4byte	0x10e
 4416 0ec7 05       		.uleb128 0x5
 4417 0ec8 03       		.byte	0x3
 4418 0ec9 00000000 		.4byte	Can_rx_angle
 4419 0ecd 23       		.uleb128 0x23
 4420 0ece 23020000 		.4byte	.LASF93
 4421 0ed2 01       		.byte	0x1
 4422 0ed3 45       		.byte	0x45
 4423 0ed4 5E010000 		.4byte	0x15e
 4424 0ed8 05       		.uleb128 0x5
 4425 0ed9 03       		.byte	0x3
 4426 0eda 00000000 		.4byte	stall
 4427 0ede 23       		.uleb128 0x23
 4428 0edf B0050000 		.4byte	.LASF94
 4429 0ee3 01       		.byte	0x1
 4430 0ee4 46       		.byte	0x46
 4431 0ee5 5E010000 		.4byte	0x15e
 4432 0ee9 05       		.uleb128 0x5
 4433 0eea 03       		.byte	0x3
 4434 0eeb 00000000 		.4byte	command_failed
 4435 0eef 23       		.uleb128 0x23
 4436 0ef0 ED040000 		.4byte	.LASF95
 4437 0ef4 01       		.byte	0x1
 4438 0ef5 47       		.byte	0x47
 4439 0ef6 5E010000 		.4byte	0x15e
 4440 0efa 05       		.uleb128 0x5
 4441 0efb 03       		.byte	0x3
 4442 0efc 00000000 		.4byte	invalid_arg
 4443 0f00 23       		.uleb128 0x23
 4444 0f01 AA060000 		.4byte	.LASF96
 4445 0f05 01       		.byte	0x1
 4446 0f06 4A       		.byte	0x4a
 4447 0f07 68000000 		.4byte	0x68
 4448 0f0b 05       		.uleb128 0x5
 4449 0f0c 03       		.byte	0x3
 4450 0f0d 00000000 		.4byte	mailbox
ARM GAS  C:\Users\austc\AppData\Local\Temp\ccxzq70h.s 			page 97


 4451 0f11 23       		.uleb128 0x23
 4452 0f12 8E050000 		.4byte	.LASF97
 4453 0f16 01       		.byte	0x1
 4454 0f17 4B       		.byte	0x4b
 4455 0f18 81000000 		.4byte	0x81
 4456 0f1c 05       		.uleb128 0x5
 4457 0f1d 03       		.byte	0x3
 4458 0f1e 00000000 		.4byte	emergency
 4459 0f22 0B       		.uleb128 0xb
 4460 0f23 CB000000 		.4byte	0xcb
 4461 0f27 320F0000 		.4byte	0xf32
 4462 0f2b 0C       		.uleb128 0xc
 4463 0f2c 07010000 		.4byte	0x107
 4464 0f30 63       		.byte	0x63
 4465 0f31 00       		.byte	0
 4466 0f32 23       		.uleb128 0x23
 4467 0f33 0B020000 		.4byte	.LASF98
 4468 0f37 01       		.byte	0x1
 4469 0f38 4C       		.byte	0x4c
 4470 0f39 220F0000 		.4byte	0xf22
 4471 0f3d 05       		.uleb128 0x5
 4472 0f3e 03       		.byte	0x3
 4473 0f3f 00000000 		.4byte	txData
 4474 0f43 23       		.uleb128 0x23
 4475 0f44 01030000 		.4byte	.LASF99
 4476 0f48 01       		.byte	0x1
 4477 0f49 4E       		.byte	0x4e
 4478 0f4a B4010000 		.4byte	0x1b4
 4479 0f4e 05       		.uleb128 0x5
 4480 0f4f 03       		.byte	0x3
 4481 0f50 00000000 		.4byte	data
 4482 0f54 23       		.uleb128 0x23
 4483 0f55 31000000 		.4byte	.LASF100
 4484 0f59 01       		.byte	0x1
 4485 0f5a 4F       		.byte	0x4f
 4486 0f5b 8B020000 		.4byte	0x28b
 4487 0f5f 05       		.uleb128 0x5
 4488 0f60 03       		.byte	0x3
 4489 0f61 00000000 		.4byte	message
 4490 0f65 23       		.uleb128 0x23
 4491 0f66 29020000 		.4byte	.LASF101
 4492 0f6a 01       		.byte	0x1
 4493 0f6b 51       		.byte	0x51
 4494 0f6c EA000000 		.4byte	0xea
 4495 0f70 05       		.uleb128 0x5
 4496 0f71 03       		.byte	0x3
 4497 0f72 00000000 		.4byte	drive
 4498 0f76 25       		.uleb128 0x25
 4499 0f77 2F020000 		.4byte	.LASF102
 4500 0f7b 2F020000 		.4byte	.LASF102
 4501 0f7f 07       		.byte	0x7
 4502 0f80 4E       		.byte	0x4e
 4503 0f81 26       		.uleb128 0x26
 4504 0f82 7B050000 		.4byte	.LASF103
 4505 0f86 7B050000 		.4byte	.LASF103
 4506 0f8a 08       		.byte	0x8
 4507 0f8b 2A03     		.2byte	0x32a
ARM GAS  C:\Users\austc\AppData\Local\Temp\ccxzq70h.s 			page 98


 4508 0f8d 26       		.uleb128 0x26
 4509 0f8e CC000000 		.4byte	.LASF104
 4510 0f92 CC000000 		.4byte	.LASF104
 4511 0f96 09       		.byte	0x9
 4512 0f97 3301     		.2byte	0x133
 4513 0f99 25       		.uleb128 0x25
 4514 0f9a 86060000 		.4byte	.LASF105
 4515 0f9e 86060000 		.4byte	.LASF105
 4516 0fa2 06       		.byte	0x6
 4517 0fa3 C5       		.byte	0xc5
 4518 0fa4 25       		.uleb128 0x25
 4519 0fa5 83030000 		.4byte	.LASF106
 4520 0fa9 83030000 		.4byte	.LASF106
 4521 0fad 0A       		.byte	0xa
 4522 0fae 31       		.byte	0x31
 4523 0faf 25       		.uleb128 0x25
 4524 0fb0 38060000 		.4byte	.LASF107
 4525 0fb4 38060000 		.4byte	.LASF107
 4526 0fb8 0B       		.byte	0xb
 4527 0fb9 5A       		.byte	0x5a
 4528 0fba 25       		.uleb128 0x25
 4529 0fbb 0B030000 		.4byte	.LASF108
 4530 0fbf 0B030000 		.4byte	.LASF108
 4531 0fc3 07       		.byte	0x7
 4532 0fc4 48       		.byte	0x48
 4533 0fc5 26       		.uleb128 0x26
 4534 0fc6 F0050000 		.4byte	.LASF109
 4535 0fca F0050000 		.4byte	.LASF109
 4536 0fce 09       		.byte	0x9
 4537 0fcf 3201     		.2byte	0x132
 4538 0fd1 25       		.uleb128 0x25
 4539 0fd2 42050000 		.4byte	.LASF110
 4540 0fd6 42050000 		.4byte	.LASF110
 4541 0fda 06       		.byte	0x6
 4542 0fdb C8       		.byte	0xc8
 4543 0fdc 25       		.uleb128 0x25
 4544 0fdd 19030000 		.4byte	.LASF111
 4545 0fe1 19030000 		.4byte	.LASF111
 4546 0fe5 0C       		.byte	0xc
 4547 0fe6 BD       		.byte	0xbd
 4548 0fe7 25       		.uleb128 0x25
 4549 0fe8 96060000 		.4byte	.LASF112
 4550 0fec 96060000 		.4byte	.LASF112
 4551 0ff0 0D       		.byte	0xd
 4552 0ff1 18       		.byte	0x18
 4553 0ff2 25       		.uleb128 0x25
 4554 0ff3 39000000 		.4byte	.LASF113
 4555 0ff7 39000000 		.4byte	.LASF113
 4556 0ffb 0E       		.byte	0xe
 4557 0ffc 18       		.byte	0x18
 4558 0ffd 25       		.uleb128 0x25
 4559 0ffe BF050000 		.4byte	.LASF114
 4560 1002 BF050000 		.4byte	.LASF114
 4561 1006 0F       		.byte	0xf
 4562 1007 72       		.byte	0x72
 4563 1008 25       		.uleb128 0x25
 4564 1009 92040000 		.4byte	.LASF115
ARM GAS  C:\Users\austc\AppData\Local\Temp\ccxzq70h.s 			page 99


 4565 100d 92040000 		.4byte	.LASF115
 4566 1011 10       		.byte	0x10
 4567 1012 E7       		.byte	0xe7
 4568 1013 25       		.uleb128 0x25
 4569 1014 34050000 		.4byte	.LASF116
 4570 1018 34050000 		.4byte	.LASF116
 4571 101c 11       		.byte	0x11
 4572 101d 30       		.byte	0x30
 4573 101e 25       		.uleb128 0x25
 4574 101f FE000000 		.4byte	.LASF117
 4575 1023 FE000000 		.4byte	.LASF117
 4576 1027 0A       		.byte	0xa
 4577 1028 30       		.byte	0x30
 4578 1029 25       		.uleb128 0x25
 4579 102a 92020000 		.4byte	.LASF118
 4580 102e 92020000 		.4byte	.LASF118
 4581 1032 12       		.byte	0x12
 4582 1033 33       		.byte	0x33
 4583 1034 26       		.uleb128 0x26
 4584 1035 6B020000 		.4byte	.LASF119
 4585 1039 6B020000 		.4byte	.LASF119
 4586 103d 09       		.byte	0x9
 4587 103e 5501     		.2byte	0x155
 4588 1040 25       		.uleb128 0x25
 4589 1041 50020000 		.4byte	.LASF120
 4590 1045 50020000 		.4byte	.LASF120
 4591 1049 0B       		.byte	0xb
 4592 104a 5E       		.byte	0x5e
 4593 104b 27       		.uleb128 0x27
 4594 104c 65060000 		.4byte	.LASF130
 4595 1050 65060000 		.4byte	.LASF130
 4596 1054 25       		.uleb128 0x25
 4597 1055 B9000000 		.4byte	.LASF121
 4598 1059 B9000000 		.4byte	.LASF121
 4599 105d 07       		.byte	0x7
 4600 105e 4F       		.byte	0x4f
 4601 105f 26       		.uleb128 0x26
 4602 1060 51030000 		.4byte	.LASF122
 4603 1064 51030000 		.4byte	.LASF122
 4604 1068 06       		.byte	0x6
 4605 1069 1801     		.2byte	0x118
 4606 106b 00       		.byte	0
 4607              		.section	.debug_abbrev,"",%progbits
 4608              	.Ldebug_abbrev0:
 4609 0000 01       		.uleb128 0x1
 4610 0001 11       		.uleb128 0x11
 4611 0002 01       		.byte	0x1
 4612 0003 25       		.uleb128 0x25
 4613 0004 0E       		.uleb128 0xe
 4614 0005 13       		.uleb128 0x13
 4615 0006 0B       		.uleb128 0xb
 4616 0007 03       		.uleb128 0x3
 4617 0008 0E       		.uleb128 0xe
 4618 0009 1B       		.uleb128 0x1b
 4619 000a 0E       		.uleb128 0xe
 4620 000b 55       		.uleb128 0x55
 4621 000c 17       		.uleb128 0x17
ARM GAS  C:\Users\austc\AppData\Local\Temp\ccxzq70h.s 			page 100


 4622 000d 11       		.uleb128 0x11
 4623 000e 01       		.uleb128 0x1
 4624 000f 10       		.uleb128 0x10
 4625 0010 17       		.uleb128 0x17
 4626 0011 00       		.byte	0
 4627 0012 00       		.byte	0
 4628 0013 02       		.uleb128 0x2
 4629 0014 24       		.uleb128 0x24
 4630 0015 00       		.byte	0
 4631 0016 0B       		.uleb128 0xb
 4632 0017 0B       		.uleb128 0xb
 4633 0018 3E       		.uleb128 0x3e
 4634 0019 0B       		.uleb128 0xb
 4635 001a 03       		.uleb128 0x3
 4636 001b 0E       		.uleb128 0xe
 4637 001c 00       		.byte	0
 4638 001d 00       		.byte	0
 4639 001e 03       		.uleb128 0x3
 4640 001f 16       		.uleb128 0x16
 4641 0020 00       		.byte	0
 4642 0021 03       		.uleb128 0x3
 4643 0022 0E       		.uleb128 0xe
 4644 0023 3A       		.uleb128 0x3a
 4645 0024 0B       		.uleb128 0xb
 4646 0025 3B       		.uleb128 0x3b
 4647 0026 0B       		.uleb128 0xb
 4648 0027 49       		.uleb128 0x49
 4649 0028 13       		.uleb128 0x13
 4650 0029 00       		.byte	0
 4651 002a 00       		.byte	0
 4652 002b 04       		.uleb128 0x4
 4653 002c 24       		.uleb128 0x24
 4654 002d 00       		.byte	0
 4655 002e 0B       		.uleb128 0xb
 4656 002f 0B       		.uleb128 0xb
 4657 0030 3E       		.uleb128 0x3e
 4658 0031 0B       		.uleb128 0xb
 4659 0032 03       		.uleb128 0x3
 4660 0033 08       		.uleb128 0x8
 4661 0034 00       		.byte	0
 4662 0035 00       		.byte	0
 4663 0036 05       		.uleb128 0x5
 4664 0037 16       		.uleb128 0x16
 4665 0038 00       		.byte	0
 4666 0039 03       		.uleb128 0x3
 4667 003a 0E       		.uleb128 0xe
 4668 003b 3A       		.uleb128 0x3a
 4669 003c 0B       		.uleb128 0xb
 4670 003d 3B       		.uleb128 0x3b
 4671 003e 05       		.uleb128 0x5
 4672 003f 49       		.uleb128 0x49
 4673 0040 13       		.uleb128 0x13
 4674 0041 00       		.byte	0
 4675 0042 00       		.byte	0
 4676 0043 06       		.uleb128 0x6
 4677 0044 35       		.uleb128 0x35
 4678 0045 00       		.byte	0
ARM GAS  C:\Users\austc\AppData\Local\Temp\ccxzq70h.s 			page 101


 4679 0046 49       		.uleb128 0x49
 4680 0047 13       		.uleb128 0x13
 4681 0048 00       		.byte	0
 4682 0049 00       		.byte	0
 4683 004a 07       		.uleb128 0x7
 4684 004b 13       		.uleb128 0x13
 4685 004c 01       		.byte	0x1
 4686 004d 03       		.uleb128 0x3
 4687 004e 0E       		.uleb128 0xe
 4688 004f 0B       		.uleb128 0xb
 4689 0050 0B       		.uleb128 0xb
 4690 0051 3A       		.uleb128 0x3a
 4691 0052 0B       		.uleb128 0xb
 4692 0053 3B       		.uleb128 0x3b
 4693 0054 0B       		.uleb128 0xb
 4694 0055 01       		.uleb128 0x1
 4695 0056 13       		.uleb128 0x13
 4696 0057 00       		.byte	0
 4697 0058 00       		.byte	0
 4698 0059 08       		.uleb128 0x8
 4699 005a 0D       		.uleb128 0xd
 4700 005b 00       		.byte	0
 4701 005c 03       		.uleb128 0x3
 4702 005d 08       		.uleb128 0x8
 4703 005e 3A       		.uleb128 0x3a
 4704 005f 0B       		.uleb128 0xb
 4705 0060 3B       		.uleb128 0x3b
 4706 0061 0B       		.uleb128 0xb
 4707 0062 49       		.uleb128 0x49
 4708 0063 13       		.uleb128 0x13
 4709 0064 38       		.uleb128 0x38
 4710 0065 0B       		.uleb128 0xb
 4711 0066 00       		.byte	0
 4712 0067 00       		.byte	0
 4713 0068 09       		.uleb128 0x9
 4714 0069 0D       		.uleb128 0xd
 4715 006a 00       		.byte	0
 4716 006b 03       		.uleb128 0x3
 4717 006c 0E       		.uleb128 0xe
 4718 006d 3A       		.uleb128 0x3a
 4719 006e 0B       		.uleb128 0xb
 4720 006f 3B       		.uleb128 0x3b
 4721 0070 0B       		.uleb128 0xb
 4722 0071 49       		.uleb128 0x49
 4723 0072 13       		.uleb128 0x13
 4724 0073 38       		.uleb128 0x38
 4725 0074 0B       		.uleb128 0xb
 4726 0075 00       		.byte	0
 4727 0076 00       		.byte	0
 4728 0077 0A       		.uleb128 0xa
 4729 0078 13       		.uleb128 0x13
 4730 0079 01       		.byte	0x1
 4731 007a 0B       		.uleb128 0xb
 4732 007b 0B       		.uleb128 0xb
 4733 007c 3A       		.uleb128 0x3a
 4734 007d 0B       		.uleb128 0xb
 4735 007e 3B       		.uleb128 0x3b
ARM GAS  C:\Users\austc\AppData\Local\Temp\ccxzq70h.s 			page 102


 4736 007f 0B       		.uleb128 0xb
 4737 0080 01       		.uleb128 0x1
 4738 0081 13       		.uleb128 0x13
 4739 0082 00       		.byte	0
 4740 0083 00       		.byte	0
 4741 0084 0B       		.uleb128 0xb
 4742 0085 01       		.uleb128 0x1
 4743 0086 01       		.byte	0x1
 4744 0087 49       		.uleb128 0x49
 4745 0088 13       		.uleb128 0x13
 4746 0089 01       		.uleb128 0x1
 4747 008a 13       		.uleb128 0x13
 4748 008b 00       		.byte	0
 4749 008c 00       		.byte	0
 4750 008d 0C       		.uleb128 0xc
 4751 008e 21       		.uleb128 0x21
 4752 008f 00       		.byte	0
 4753 0090 49       		.uleb128 0x49
 4754 0091 13       		.uleb128 0x13
 4755 0092 2F       		.uleb128 0x2f
 4756 0093 0B       		.uleb128 0xb
 4757 0094 00       		.byte	0
 4758 0095 00       		.byte	0
 4759 0096 0D       		.uleb128 0xd
 4760 0097 0F       		.uleb128 0xf
 4761 0098 00       		.byte	0
 4762 0099 0B       		.uleb128 0xb
 4763 009a 0B       		.uleb128 0xb
 4764 009b 49       		.uleb128 0x49
 4765 009c 13       		.uleb128 0x13
 4766 009d 00       		.byte	0
 4767 009e 00       		.byte	0
 4768 009f 0E       		.uleb128 0xe
 4769 00a0 2E       		.uleb128 0x2e
 4770 00a1 01       		.byte	0x1
 4771 00a2 3F       		.uleb128 0x3f
 4772 00a3 19       		.uleb128 0x19
 4773 00a4 03       		.uleb128 0x3
 4774 00a5 0E       		.uleb128 0xe
 4775 00a6 3A       		.uleb128 0x3a
 4776 00a7 0B       		.uleb128 0xb
 4777 00a8 3B       		.uleb128 0x3b
 4778 00a9 05       		.uleb128 0x5
 4779 00aa 27       		.uleb128 0x27
 4780 00ab 19       		.uleb128 0x19
 4781 00ac 20       		.uleb128 0x20
 4782 00ad 0B       		.uleb128 0xb
 4783 00ae 01       		.uleb128 0x1
 4784 00af 13       		.uleb128 0x13
 4785 00b0 00       		.byte	0
 4786 00b1 00       		.byte	0
 4787 00b2 0F       		.uleb128 0xf
 4788 00b3 05       		.uleb128 0x5
 4789 00b4 00       		.byte	0
 4790 00b5 03       		.uleb128 0x3
 4791 00b6 0E       		.uleb128 0xe
 4792 00b7 3A       		.uleb128 0x3a
ARM GAS  C:\Users\austc\AppData\Local\Temp\ccxzq70h.s 			page 103


 4793 00b8 0B       		.uleb128 0xb
 4794 00b9 3B       		.uleb128 0x3b
 4795 00ba 05       		.uleb128 0x5
 4796 00bb 49       		.uleb128 0x49
 4797 00bc 13       		.uleb128 0x13
 4798 00bd 00       		.byte	0
 4799 00be 00       		.byte	0
 4800 00bf 10       		.uleb128 0x10
 4801 00c0 2E       		.uleb128 0x2e
 4802 00c1 01       		.byte	0x1
 4803 00c2 3F       		.uleb128 0x3f
 4804 00c3 19       		.uleb128 0x19
 4805 00c4 03       		.uleb128 0x3
 4806 00c5 0E       		.uleb128 0xe
 4807 00c6 3A       		.uleb128 0x3a
 4808 00c7 0B       		.uleb128 0xb
 4809 00c8 3B       		.uleb128 0x3b
 4810 00c9 05       		.uleb128 0x5
 4811 00ca 27       		.uleb128 0x27
 4812 00cb 19       		.uleb128 0x19
 4813 00cc 11       		.uleb128 0x11
 4814 00cd 01       		.uleb128 0x1
 4815 00ce 12       		.uleb128 0x12
 4816 00cf 06       		.uleb128 0x6
 4817 00d0 40       		.uleb128 0x40
 4818 00d1 18       		.uleb128 0x18
 4819 00d2 9742     		.uleb128 0x2117
 4820 00d4 19       		.uleb128 0x19
 4821 00d5 01       		.uleb128 0x1
 4822 00d6 13       		.uleb128 0x13
 4823 00d7 00       		.byte	0
 4824 00d8 00       		.byte	0
 4825 00d9 11       		.uleb128 0x11
 4826 00da 1D       		.uleb128 0x1d
 4827 00db 01       		.byte	0x1
 4828 00dc 31       		.uleb128 0x31
 4829 00dd 13       		.uleb128 0x13
 4830 00de 11       		.uleb128 0x11
 4831 00df 01       		.uleb128 0x1
 4832 00e0 12       		.uleb128 0x12
 4833 00e1 06       		.uleb128 0x6
 4834 00e2 58       		.uleb128 0x58
 4835 00e3 0B       		.uleb128 0xb
 4836 00e4 59       		.uleb128 0x59
 4837 00e5 05       		.uleb128 0x5
 4838 00e6 01       		.uleb128 0x1
 4839 00e7 13       		.uleb128 0x13
 4840 00e8 00       		.byte	0
 4841 00e9 00       		.byte	0
 4842 00ea 12       		.uleb128 0x12
 4843 00eb 05       		.uleb128 0x5
 4844 00ec 00       		.byte	0
 4845 00ed 31       		.uleb128 0x31
 4846 00ee 13       		.uleb128 0x13
 4847 00ef 02       		.uleb128 0x2
 4848 00f0 17       		.uleb128 0x17
 4849 00f1 00       		.byte	0
ARM GAS  C:\Users\austc\AppData\Local\Temp\ccxzq70h.s 			page 104


 4850 00f2 00       		.byte	0
 4851 00f3 13       		.uleb128 0x13
 4852 00f4 898201   		.uleb128 0x4109
 4853 00f7 00       		.byte	0
 4854 00f8 11       		.uleb128 0x11
 4855 00f9 01       		.uleb128 0x1
 4856 00fa 31       		.uleb128 0x31
 4857 00fb 13       		.uleb128 0x13
 4858 00fc 00       		.byte	0
 4859 00fd 00       		.byte	0
 4860 00fe 14       		.uleb128 0x14
 4861 00ff 898201   		.uleb128 0x4109
 4862 0102 01       		.byte	0x1
 4863 0103 11       		.uleb128 0x11
 4864 0104 01       		.uleb128 0x1
 4865 0105 31       		.uleb128 0x31
 4866 0106 13       		.uleb128 0x13
 4867 0107 01       		.uleb128 0x1
 4868 0108 13       		.uleb128 0x13
 4869 0109 00       		.byte	0
 4870 010a 00       		.byte	0
 4871 010b 15       		.uleb128 0x15
 4872 010c 8A8201   		.uleb128 0x410a
 4873 010f 00       		.byte	0
 4874 0110 02       		.uleb128 0x2
 4875 0111 18       		.uleb128 0x18
 4876 0112 9142     		.uleb128 0x2111
 4877 0114 18       		.uleb128 0x18
 4878 0115 00       		.byte	0
 4879 0116 00       		.byte	0
 4880 0117 16       		.uleb128 0x16
 4881 0118 898201   		.uleb128 0x4109
 4882 011b 01       		.byte	0x1
 4883 011c 11       		.uleb128 0x11
 4884 011d 01       		.uleb128 0x1
 4885 011e 31       		.uleb128 0x31
 4886 011f 13       		.uleb128 0x13
 4887 0120 00       		.byte	0
 4888 0121 00       		.byte	0
 4889 0122 17       		.uleb128 0x17
 4890 0123 34       		.uleb128 0x34
 4891 0124 00       		.byte	0
 4892 0125 03       		.uleb128 0x3
 4893 0126 0E       		.uleb128 0xe
 4894 0127 3A       		.uleb128 0x3a
 4895 0128 0B       		.uleb128 0xb
 4896 0129 3B       		.uleb128 0x3b
 4897 012a 05       		.uleb128 0x5
 4898 012b 49       		.uleb128 0x49
 4899 012c 13       		.uleb128 0x13
 4900 012d 02       		.uleb128 0x2
 4901 012e 17       		.uleb128 0x17
 4902 012f 00       		.byte	0
 4903 0130 00       		.byte	0
 4904 0131 18       		.uleb128 0x18
 4905 0132 05       		.uleb128 0x5
 4906 0133 00       		.byte	0
ARM GAS  C:\Users\austc\AppData\Local\Temp\ccxzq70h.s 			page 105


 4907 0134 03       		.uleb128 0x3
 4908 0135 0E       		.uleb128 0xe
 4909 0136 3A       		.uleb128 0x3a
 4910 0137 0B       		.uleb128 0xb
 4911 0138 3B       		.uleb128 0x3b
 4912 0139 05       		.uleb128 0x5
 4913 013a 49       		.uleb128 0x49
 4914 013b 13       		.uleb128 0x13
 4915 013c 02       		.uleb128 0x2
 4916 013d 17       		.uleb128 0x17
 4917 013e 00       		.byte	0
 4918 013f 00       		.byte	0
 4919 0140 19       		.uleb128 0x19
 4920 0141 2E       		.uleb128 0x2e
 4921 0142 01       		.byte	0x1
 4922 0143 3F       		.uleb128 0x3f
 4923 0144 19       		.uleb128 0x19
 4924 0145 03       		.uleb128 0x3
 4925 0146 0E       		.uleb128 0xe
 4926 0147 3A       		.uleb128 0x3a
 4927 0148 0B       		.uleb128 0xb
 4928 0149 3B       		.uleb128 0x3b
 4929 014a 0B       		.uleb128 0xb
 4930 014b 27       		.uleb128 0x27
 4931 014c 19       		.uleb128 0x19
 4932 014d 11       		.uleb128 0x11
 4933 014e 01       		.uleb128 0x1
 4934 014f 12       		.uleb128 0x12
 4935 0150 06       		.uleb128 0x6
 4936 0151 40       		.uleb128 0x40
 4937 0152 18       		.uleb128 0x18
 4938 0153 9742     		.uleb128 0x2117
 4939 0155 19       		.uleb128 0x19
 4940 0156 01       		.uleb128 0x1
 4941 0157 13       		.uleb128 0x13
 4942 0158 00       		.byte	0
 4943 0159 00       		.byte	0
 4944 015a 1A       		.uleb128 0x1a
 4945 015b 34       		.uleb128 0x34
 4946 015c 00       		.byte	0
 4947 015d 03       		.uleb128 0x3
 4948 015e 0E       		.uleb128 0xe
 4949 015f 3A       		.uleb128 0x3a
 4950 0160 0B       		.uleb128 0xb
 4951 0161 3B       		.uleb128 0x3b
 4952 0162 0B       		.uleb128 0xb
 4953 0163 49       		.uleb128 0x49
 4954 0164 13       		.uleb128 0x13
 4955 0165 02       		.uleb128 0x2
 4956 0166 17       		.uleb128 0x17
 4957 0167 00       		.byte	0
 4958 0168 00       		.byte	0
 4959 0169 1B       		.uleb128 0x1b
 4960 016a 2E       		.uleb128 0x2e
 4961 016b 01       		.byte	0x1
 4962 016c 3F       		.uleb128 0x3f
 4963 016d 19       		.uleb128 0x19
ARM GAS  C:\Users\austc\AppData\Local\Temp\ccxzq70h.s 			page 106


 4964 016e 03       		.uleb128 0x3
 4965 016f 0E       		.uleb128 0xe
 4966 0170 3A       		.uleb128 0x3a
 4967 0171 0B       		.uleb128 0xb
 4968 0172 3B       		.uleb128 0x3b
 4969 0173 05       		.uleb128 0x5
 4970 0174 27       		.uleb128 0x27
 4971 0175 19       		.uleb128 0x19
 4972 0176 11       		.uleb128 0x11
 4973 0177 01       		.uleb128 0x1
 4974 0178 12       		.uleb128 0x12
 4975 0179 06       		.uleb128 0x6
 4976 017a 40       		.uleb128 0x40
 4977 017b 18       		.uleb128 0x18
 4978 017c 9642     		.uleb128 0x2116
 4979 017e 19       		.uleb128 0x19
 4980 017f 01       		.uleb128 0x1
 4981 0180 13       		.uleb128 0x13
 4982 0181 00       		.byte	0
 4983 0182 00       		.byte	0
 4984 0183 1C       		.uleb128 0x1c
 4985 0184 2E       		.uleb128 0x2e
 4986 0185 01       		.byte	0x1
 4987 0186 31       		.uleb128 0x31
 4988 0187 13       		.uleb128 0x13
 4989 0188 11       		.uleb128 0x11
 4990 0189 01       		.uleb128 0x1
 4991 018a 12       		.uleb128 0x12
 4992 018b 06       		.uleb128 0x6
 4993 018c 40       		.uleb128 0x40
 4994 018d 18       		.uleb128 0x18
 4995 018e 9742     		.uleb128 0x2117
 4996 0190 19       		.uleb128 0x19
 4997 0191 01       		.uleb128 0x1
 4998 0192 13       		.uleb128 0x13
 4999 0193 00       		.byte	0
 5000 0194 00       		.byte	0
 5001 0195 1D       		.uleb128 0x1d
 5002 0196 2E       		.uleb128 0x2e
 5003 0197 01       		.byte	0x1
 5004 0198 3F       		.uleb128 0x3f
 5005 0199 19       		.uleb128 0x19
 5006 019a 03       		.uleb128 0x3
 5007 019b 0E       		.uleb128 0xe
 5008 019c 3A       		.uleb128 0x3a
 5009 019d 0B       		.uleb128 0xb
 5010 019e 3B       		.uleb128 0x3b
 5011 019f 05       		.uleb128 0x5
 5012 01a0 27       		.uleb128 0x27
 5013 01a1 19       		.uleb128 0x19
 5014 01a2 49       		.uleb128 0x49
 5015 01a3 13       		.uleb128 0x13
 5016 01a4 11       		.uleb128 0x11
 5017 01a5 01       		.uleb128 0x1
 5018 01a6 12       		.uleb128 0x12
 5019 01a7 06       		.uleb128 0x6
 5020 01a8 40       		.uleb128 0x40
ARM GAS  C:\Users\austc\AppData\Local\Temp\ccxzq70h.s 			page 107


 5021 01a9 18       		.uleb128 0x18
 5022 01aa 9642     		.uleb128 0x2116
 5023 01ac 19       		.uleb128 0x19
 5024 01ad 01       		.uleb128 0x1
 5025 01ae 13       		.uleb128 0x13
 5026 01af 00       		.byte	0
 5027 01b0 00       		.byte	0
 5028 01b1 1E       		.uleb128 0x1e
 5029 01b2 34       		.uleb128 0x34
 5030 01b3 00       		.byte	0
 5031 01b4 03       		.uleb128 0x3
 5032 01b5 08       		.uleb128 0x8
 5033 01b6 3A       		.uleb128 0x3a
 5034 01b7 0B       		.uleb128 0xb
 5035 01b8 3B       		.uleb128 0x3b
 5036 01b9 05       		.uleb128 0x5
 5037 01ba 49       		.uleb128 0x49
 5038 01bb 13       		.uleb128 0x13
 5039 01bc 02       		.uleb128 0x2
 5040 01bd 17       		.uleb128 0x17
 5041 01be 00       		.byte	0
 5042 01bf 00       		.byte	0
 5043 01c0 1F       		.uleb128 0x1f
 5044 01c1 2E       		.uleb128 0x2e
 5045 01c2 01       		.byte	0x1
 5046 01c3 3F       		.uleb128 0x3f
 5047 01c4 19       		.uleb128 0x19
 5048 01c5 03       		.uleb128 0x3
 5049 01c6 0E       		.uleb128 0xe
 5050 01c7 3A       		.uleb128 0x3a
 5051 01c8 0B       		.uleb128 0xb
 5052 01c9 3B       		.uleb128 0x3b
 5053 01ca 0B       		.uleb128 0xb
 5054 01cb 27       		.uleb128 0x27
 5055 01cc 19       		.uleb128 0x19
 5056 01cd 49       		.uleb128 0x49
 5057 01ce 13       		.uleb128 0x13
 5058 01cf 8701     		.uleb128 0x87
 5059 01d1 19       		.uleb128 0x19
 5060 01d2 11       		.uleb128 0x11
 5061 01d3 01       		.uleb128 0x1
 5062 01d4 12       		.uleb128 0x12
 5063 01d5 06       		.uleb128 0x6
 5064 01d6 40       		.uleb128 0x40
 5065 01d7 18       		.uleb128 0x18
 5066 01d8 9742     		.uleb128 0x2117
 5067 01da 19       		.uleb128 0x19
 5068 01db 01       		.uleb128 0x1
 5069 01dc 13       		.uleb128 0x13
 5070 01dd 00       		.byte	0
 5071 01de 00       		.byte	0
 5072 01df 20       		.uleb128 0x20
 5073 01e0 34       		.uleb128 0x34
 5074 01e1 00       		.byte	0
 5075 01e2 03       		.uleb128 0x3
 5076 01e3 0E       		.uleb128 0xe
 5077 01e4 3A       		.uleb128 0x3a
ARM GAS  C:\Users\austc\AppData\Local\Temp\ccxzq70h.s 			page 108


 5078 01e5 0B       		.uleb128 0xb
 5079 01e6 3B       		.uleb128 0x3b
 5080 01e7 0B       		.uleb128 0xb
 5081 01e8 49       		.uleb128 0x49
 5082 01e9 13       		.uleb128 0x13
 5083 01ea 00       		.byte	0
 5084 01eb 00       		.byte	0
 5085 01ec 21       		.uleb128 0x21
 5086 01ed 34       		.uleb128 0x34
 5087 01ee 00       		.byte	0
 5088 01ef 03       		.uleb128 0x3
 5089 01f0 08       		.uleb128 0x8
 5090 01f1 3A       		.uleb128 0x3a
 5091 01f2 0B       		.uleb128 0xb
 5092 01f3 3B       		.uleb128 0x3b
 5093 01f4 0B       		.uleb128 0xb
 5094 01f5 49       		.uleb128 0x49
 5095 01f6 13       		.uleb128 0x13
 5096 01f7 1C       		.uleb128 0x1c
 5097 01f8 0B       		.uleb128 0xb
 5098 01f9 00       		.byte	0
 5099 01fa 00       		.byte	0
 5100 01fb 22       		.uleb128 0x22
 5101 01fc 34       		.uleb128 0x34
 5102 01fd 00       		.byte	0
 5103 01fe 03       		.uleb128 0x3
 5104 01ff 0E       		.uleb128 0xe
 5105 0200 3A       		.uleb128 0x3a
 5106 0201 0B       		.uleb128 0xb
 5107 0202 3B       		.uleb128 0x3b
 5108 0203 0B       		.uleb128 0xb
 5109 0204 49       		.uleb128 0x49
 5110 0205 13       		.uleb128 0x13
 5111 0206 1C       		.uleb128 0x1c
 5112 0207 0B       		.uleb128 0xb
 5113 0208 00       		.byte	0
 5114 0209 00       		.byte	0
 5115 020a 23       		.uleb128 0x23
 5116 020b 34       		.uleb128 0x34
 5117 020c 00       		.byte	0
 5118 020d 03       		.uleb128 0x3
 5119 020e 0E       		.uleb128 0xe
 5120 020f 3A       		.uleb128 0x3a
 5121 0210 0B       		.uleb128 0xb
 5122 0211 3B       		.uleb128 0x3b
 5123 0212 0B       		.uleb128 0xb
 5124 0213 49       		.uleb128 0x49
 5125 0214 13       		.uleb128 0x13
 5126 0215 3F       		.uleb128 0x3f
 5127 0216 19       		.uleb128 0x19
 5128 0217 02       		.uleb128 0x2
 5129 0218 18       		.uleb128 0x18
 5130 0219 00       		.byte	0
 5131 021a 00       		.byte	0
 5132 021b 24       		.uleb128 0x24
 5133 021c 34       		.uleb128 0x34
 5134 021d 00       		.byte	0
ARM GAS  C:\Users\austc\AppData\Local\Temp\ccxzq70h.s 			page 109


 5135 021e 03       		.uleb128 0x3
 5136 021f 08       		.uleb128 0x8
 5137 0220 3A       		.uleb128 0x3a
 5138 0221 0B       		.uleb128 0xb
 5139 0222 3B       		.uleb128 0x3b
 5140 0223 0B       		.uleb128 0xb
 5141 0224 49       		.uleb128 0x49
 5142 0225 13       		.uleb128 0x13
 5143 0226 3F       		.uleb128 0x3f
 5144 0227 19       		.uleb128 0x19
 5145 0228 02       		.uleb128 0x2
 5146 0229 18       		.uleb128 0x18
 5147 022a 00       		.byte	0
 5148 022b 00       		.byte	0
 5149 022c 25       		.uleb128 0x25
 5150 022d 2E       		.uleb128 0x2e
 5151 022e 00       		.byte	0
 5152 022f 3F       		.uleb128 0x3f
 5153 0230 19       		.uleb128 0x19
 5154 0231 3C       		.uleb128 0x3c
 5155 0232 19       		.uleb128 0x19
 5156 0233 6E       		.uleb128 0x6e
 5157 0234 0E       		.uleb128 0xe
 5158 0235 03       		.uleb128 0x3
 5159 0236 0E       		.uleb128 0xe
 5160 0237 3A       		.uleb128 0x3a
 5161 0238 0B       		.uleb128 0xb
 5162 0239 3B       		.uleb128 0x3b
 5163 023a 0B       		.uleb128 0xb
 5164 023b 00       		.byte	0
 5165 023c 00       		.byte	0
 5166 023d 26       		.uleb128 0x26
 5167 023e 2E       		.uleb128 0x2e
 5168 023f 00       		.byte	0
 5169 0240 3F       		.uleb128 0x3f
 5170 0241 19       		.uleb128 0x19
 5171 0242 3C       		.uleb128 0x3c
 5172 0243 19       		.uleb128 0x19
 5173 0244 6E       		.uleb128 0x6e
 5174 0245 0E       		.uleb128 0xe
 5175 0246 03       		.uleb128 0x3
 5176 0247 0E       		.uleb128 0xe
 5177 0248 3A       		.uleb128 0x3a
 5178 0249 0B       		.uleb128 0xb
 5179 024a 3B       		.uleb128 0x3b
 5180 024b 05       		.uleb128 0x5
 5181 024c 00       		.byte	0
 5182 024d 00       		.byte	0
 5183 024e 27       		.uleb128 0x27
 5184 024f 2E       		.uleb128 0x2e
 5185 0250 00       		.byte	0
 5186 0251 3F       		.uleb128 0x3f
 5187 0252 19       		.uleb128 0x19
 5188 0253 3C       		.uleb128 0x3c
 5189 0254 19       		.uleb128 0x19
 5190 0255 6E       		.uleb128 0x6e
 5191 0256 0E       		.uleb128 0xe
ARM GAS  C:\Users\austc\AppData\Local\Temp\ccxzq70h.s 			page 110


 5192 0257 03       		.uleb128 0x3
 5193 0258 0E       		.uleb128 0xe
 5194 0259 00       		.byte	0
 5195 025a 00       		.byte	0
 5196 025b 00       		.byte	0
 5197              		.section	.debug_loc,"",%progbits
 5198              	.Ldebug_loc0:
 5199              	.LLST0:
 5200 0000 36000000 		.4byte	.LVL2
 5201 0004 38000000 		.4byte	.LVL3
 5202 0008 0100     		.2byte	0x1
 5203 000a 53       		.byte	0x53
 5204 000b 38000000 		.4byte	.LVL3
 5205 000f 69000000 		.4byte	.LVL4-1
 5206 0013 0500     		.2byte	0x5
 5207 0015 03       		.byte	0x3
 5208 0016 00000000 		.4byte	CAN_RX_MAILBOX_0
 5209 001a 7C000000 		.4byte	.LVL5
 5210 001e 84000000 		.4byte	.LVL6
 5211 0022 0500     		.2byte	0x5
 5212 0024 03       		.byte	0x3
 5213 0025 00000000 		.4byte	CAN_RX_MAILBOX_0
 5214 0029 8C000000 		.4byte	.LVL7
 5215 002d 04010000 		.4byte	.LVL8
 5216 0031 0500     		.2byte	0x5
 5217 0033 03       		.byte	0x3
 5218 0034 00000000 		.4byte	CAN_RX_MAILBOX_0
 5219 0038 00000000 		.4byte	0
 5220 003c 00000000 		.4byte	0
 5221              	.LLST1:
 5222 0040 36010000 		.4byte	.LVL10
 5223 0044 38010000 		.4byte	.LVL11
 5224 0048 0100     		.2byte	0x1
 5225 004a 53       		.byte	0x53
 5226 004b 38010000 		.4byte	.LVL11
 5227 004f 69010000 		.4byte	.LVL12-1
 5228 0053 0500     		.2byte	0x5
 5229 0055 03       		.byte	0x3
 5230 0056 00000000 		.4byte	CAN_RX_MAILBOX_1
 5231 005a 7C010000 		.4byte	.LVL13
 5232 005e 84010000 		.4byte	.LVL14
 5233 0062 0500     		.2byte	0x5
 5234 0064 03       		.byte	0x3
 5235 0065 00000000 		.4byte	CAN_RX_MAILBOX_1
 5236 0069 8C010000 		.4byte	.LVL15
 5237 006d 04020000 		.4byte	.LVL16
 5238 0071 0500     		.2byte	0x5
 5239 0073 03       		.byte	0x3
 5240 0074 00000000 		.4byte	CAN_RX_MAILBOX_1
 5241 0078 00000000 		.4byte	0
 5242 007c 00000000 		.4byte	0
 5243              	.LLST2:
 5244 0080 08000000 		.4byte	.LVL19
 5245 0084 0B000000 		.4byte	.LVL20-1
 5246 0088 0100     		.2byte	0x1
 5247 008a 50       		.byte	0x50
 5248 008b 0B000000 		.4byte	.LVL20-1
ARM GAS  C:\Users\austc\AppData\Local\Temp\ccxzq70h.s 			page 111


 5249 008f 50000000 		.4byte	.LVL31
 5250 0093 0100     		.2byte	0x1
 5251 0095 54       		.byte	0x54
 5252 0096 00000000 		.4byte	0
 5253 009a 00000000 		.4byte	0
 5254              	.LLST3:
 5255 009e 00000000 		.4byte	.LVL32
 5256 00a2 02000000 		.4byte	.LVL33
 5257 00a6 0100     		.2byte	0x1
 5258 00a8 50       		.byte	0x50
 5259 00a9 02000000 		.4byte	.LVL33
 5260 00ad 1C000000 		.4byte	.LFE41
 5261 00b1 0400     		.2byte	0x4
 5262 00b3 F3       		.byte	0xf3
 5263 00b4 01       		.uleb128 0x1
 5264 00b5 50       		.byte	0x50
 5265 00b6 9F       		.byte	0x9f
 5266 00b7 00000000 		.4byte	0
 5267 00bb 00000000 		.4byte	0
 5268              	.LLST4:
 5269 00bf 0A000000 		.4byte	.LVL35
 5270 00c3 80010000 		.4byte	.LVL58
 5271 00c7 0100     		.2byte	0x1
 5272 00c9 54       		.byte	0x54
 5273 00ca 00000000 		.4byte	0
 5274 00ce 00000000 		.4byte	0
 5275              	.LLST5:
 5276 00d2 0A000000 		.4byte	.LVL35
 5277 00d6 34000000 		.4byte	.LVL37
 5278 00da 0200     		.2byte	0x2
 5279 00dc 30       		.byte	0x30
 5280 00dd 9F       		.byte	0x9f
 5281 00de 34000000 		.4byte	.LVL37
 5282 00e2 54000000 		.4byte	.LVL38
 5283 00e6 0200     		.2byte	0x2
 5284 00e8 31       		.byte	0x31
 5285 00e9 9F       		.byte	0x9f
 5286 00ea 54000000 		.4byte	.LVL38
 5287 00ee 5A000000 		.4byte	.LVL39
 5288 00f2 0200     		.2byte	0x2
 5289 00f4 30       		.byte	0x30
 5290 00f5 9F       		.byte	0x9f
 5291 00f6 5A000000 		.4byte	.LVL39
 5292 00fa 68000000 		.4byte	.LVL40
 5293 00fe 0200     		.2byte	0x2
 5294 0100 32       		.byte	0x32
 5295 0101 9F       		.byte	0x9f
 5296 0102 68000000 		.4byte	.LVL40
 5297 0106 72000000 		.4byte	.LVL41
 5298 010a 0200     		.2byte	0x2
 5299 010c 30       		.byte	0x30
 5300 010d 9F       		.byte	0x9f
 5301 010e 72000000 		.4byte	.LVL41
 5302 0112 80000000 		.4byte	.LVL42
 5303 0116 0200     		.2byte	0x2
 5304 0118 33       		.byte	0x33
 5305 0119 9F       		.byte	0x9f
ARM GAS  C:\Users\austc\AppData\Local\Temp\ccxzq70h.s 			page 112


 5306 011a 80000000 		.4byte	.LVL42
 5307 011e 8A000000 		.4byte	.LVL43
 5308 0122 0200     		.2byte	0x2
 5309 0124 30       		.byte	0x30
 5310 0125 9F       		.byte	0x9f
 5311 0126 8A000000 		.4byte	.LVL43
 5312 012a AE000000 		.4byte	.LVL44
 5313 012e 0200     		.2byte	0x2
 5314 0130 34       		.byte	0x34
 5315 0131 9F       		.byte	0x9f
 5316 0132 AE000000 		.4byte	.LVL44
 5317 0136 BE000000 		.4byte	.LVL45
 5318 013a 0200     		.2byte	0x2
 5319 013c 30       		.byte	0x30
 5320 013d 9F       		.byte	0x9f
 5321 013e BE000000 		.4byte	.LVL45
 5322 0142 DE000000 		.4byte	.LVL46
 5323 0146 0200     		.2byte	0x2
 5324 0148 35       		.byte	0x35
 5325 0149 9F       		.byte	0x9f
 5326 014a DE000000 		.4byte	.LVL46
 5327 014e E4000000 		.4byte	.LVL47
 5328 0152 0200     		.2byte	0x2
 5329 0154 30       		.byte	0x30
 5330 0155 9F       		.byte	0x9f
 5331 0156 E4000000 		.4byte	.LVL47
 5332 015a F2000000 		.4byte	.LVL48
 5333 015e 0200     		.2byte	0x2
 5334 0160 36       		.byte	0x36
 5335 0161 9F       		.byte	0x9f
 5336 0162 F2000000 		.4byte	.LVL48
 5337 0166 F8000000 		.4byte	.LVL49
 5338 016a 0200     		.2byte	0x2
 5339 016c 30       		.byte	0x30
 5340 016d 9F       		.byte	0x9f
 5341 016e F8000000 		.4byte	.LVL49
 5342 0172 10010000 		.4byte	.LVL50
 5343 0176 0200     		.2byte	0x2
 5344 0178 37       		.byte	0x37
 5345 0179 9F       		.byte	0x9f
 5346 017a 10010000 		.4byte	.LVL50
 5347 017e 80010000 		.4byte	.LVL59
 5348 0182 0100     		.2byte	0x1
 5349 0184 55       		.byte	0x55
 5350 0185 00000000 		.4byte	0
 5351 0189 00000000 		.4byte	0
 5352              	.LLST6:
 5353 018d 00000000 		.4byte	.LVL60
 5354 0191 1C000000 		.4byte	.LVL61
 5355 0195 0100     		.2byte	0x1
 5356 0197 50       		.byte	0x50
 5357 0198 1C000000 		.4byte	.LVL61
 5358 019c 1F000000 		.4byte	.LVL62-1
 5359 01a0 0100     		.2byte	0x1
 5360 01a2 52       		.byte	0x52
 5361 01a3 1F000000 		.4byte	.LVL62-1
 5362 01a7 7E000000 		.4byte	.LVL75
ARM GAS  C:\Users\austc\AppData\Local\Temp\ccxzq70h.s 			page 113


 5363 01ab 0100     		.2byte	0x1
 5364 01ad 54       		.byte	0x54
 5365 01ae 7E000000 		.4byte	.LVL75
 5366 01b2 94000000 		.4byte	.LFE42
 5367 01b6 0400     		.2byte	0x4
 5368 01b8 F3       		.byte	0xf3
 5369 01b9 01       		.uleb128 0x1
 5370 01ba 50       		.byte	0x50
 5371 01bb 9F       		.byte	0x9f
 5372 01bc 00000000 		.4byte	0
 5373 01c0 00000000 		.4byte	0
 5374              	.LLST7:
 5375 01c4 3C000000 		.4byte	.LVL64
 5376 01c8 4E000000 		.4byte	.LVL65
 5377 01cc 0100     		.2byte	0x1
 5378 01ce 50       		.byte	0x50
 5379 01cf 5A000000 		.4byte	.LVL68
 5380 01d3 6C000000 		.4byte	.LVL69
 5381 01d7 0100     		.2byte	0x1
 5382 01d9 50       		.byte	0x50
 5383 01da 78000000 		.4byte	.LVL72
 5384 01de 7A000000 		.4byte	.LVL73
 5385 01e2 0100     		.2byte	0x1
 5386 01e4 50       		.byte	0x50
 5387 01e5 00000000 		.4byte	0
 5388 01e9 00000000 		.4byte	0
 5389              	.LLST8:
 5390 01ed 06000000 		.4byte	.LVL76
 5391 01f1 14000000 		.4byte	.LVL77
 5392 01f5 0100     		.2byte	0x1
 5393 01f7 50       		.byte	0x50
 5394 01f8 14000000 		.4byte	.LVL77
 5395 01fc 17000000 		.4byte	.LVL78-1
 5396 0200 0100     		.2byte	0x1
 5397 0202 52       		.byte	0x52
 5398 0203 00000000 		.4byte	0
 5399 0207 00000000 		.4byte	0
 5400              	.LLST9:
 5401 020b 08000000 		.4byte	.LVL84
 5402 020f 0B000000 		.4byte	.LVL85-1
 5403 0213 0100     		.2byte	0x1
 5404 0215 50       		.byte	0x50
 5405 0216 00000000 		.4byte	0
 5406 021a 00000000 		.4byte	0
 5407              	.LLST10:
 5408 021e 24000000 		.4byte	.LVL89
 5409 0222 30000000 		.4byte	.LVL90
 5410 0226 0100     		.2byte	0x1
 5411 0228 50       		.byte	0x50
 5412 0229 00000000 		.4byte	0
 5413 022d 00000000 		.4byte	0
 5414              	.LLST11:
 5415 0231 00000000 		.4byte	.LVL101
 5416 0235 16000000 		.4byte	.LVL102
 5417 0239 0100     		.2byte	0x1
 5418 023b 50       		.byte	0x50
 5419 023c 16000000 		.4byte	.LVL102
ARM GAS  C:\Users\austc\AppData\Local\Temp\ccxzq70h.s 			page 114


 5420 0240 19000000 		.4byte	.LVL103-1
 5421 0244 0200     		.2byte	0x2
 5422 0246 73       		.byte	0x73
 5423 0247 01       		.sleb128 1
 5424 0248 19000000 		.4byte	.LVL103-1
 5425 024c 54000000 		.4byte	.LFE46
 5426 0250 0400     		.2byte	0x4
 5427 0252 F3       		.byte	0xf3
 5428 0253 01       		.uleb128 0x1
 5429 0254 50       		.byte	0x50
 5430 0255 9F       		.byte	0x9f
 5431 0256 00000000 		.4byte	0
 5432 025a 00000000 		.4byte	0
 5433              	.LLST12:
 5434 025e 00000000 		.4byte	.LVL101
 5435 0262 19000000 		.4byte	.LVL103-1
 5436 0266 0100     		.2byte	0x1
 5437 0268 51       		.byte	0x51
 5438 0269 19000000 		.4byte	.LVL103-1
 5439 026d 54000000 		.4byte	.LFE46
 5440 0271 0400     		.2byte	0x4
 5441 0273 F3       		.byte	0xf3
 5442 0274 01       		.uleb128 0x1
 5443 0275 51       		.byte	0x51
 5444 0276 9F       		.byte	0x9f
 5445 0277 00000000 		.4byte	0
 5446 027b 00000000 		.4byte	0
 5447              	.LLST13:
 5448 027f 00000000 		.4byte	.LVL106
 5449 0283 04000000 		.4byte	.LVL107
 5450 0287 0100     		.2byte	0x1
 5451 0289 50       		.byte	0x50
 5452 028a 04000000 		.4byte	.LVL107
 5453 028e EC000000 		.4byte	.LFE48
 5454 0292 0400     		.2byte	0x4
 5455 0294 F3       		.byte	0xf3
 5456 0295 01       		.uleb128 0x1
 5457 0296 50       		.byte	0x50
 5458 0297 9F       		.byte	0x9f
 5459 0298 00000000 		.4byte	0
 5460 029c 00000000 		.4byte	0
 5461              	.LLST14:
 5462 02a0 00000000 		.4byte	.LVL109
 5463 02a4 07000000 		.4byte	.LVL110-1
 5464 02a8 0100     		.2byte	0x1
 5465 02aa 50       		.byte	0x50
 5466 02ab 07000000 		.4byte	.LVL110-1
 5467 02af 48000000 		.4byte	.LFE50
 5468 02b3 0400     		.2byte	0x4
 5469 02b5 F3       		.byte	0xf3
 5470 02b6 01       		.uleb128 0x1
 5471 02b7 50       		.byte	0x50
 5472 02b8 9F       		.byte	0x9f
 5473 02b9 00000000 		.4byte	0
 5474 02bd 00000000 		.4byte	0
 5475              	.LLST15:
 5476 02c1 18000000 		.4byte	.LVL113
ARM GAS  C:\Users\austc\AppData\Local\Temp\ccxzq70h.s 			page 115


 5477 02c5 2A000000 		.4byte	.LVL114
 5478 02c9 0100     		.2byte	0x1
 5479 02cb 50       		.byte	0x50
 5480 02cc 2A000000 		.4byte	.LVL114
 5481 02d0 2D000000 		.4byte	.LVL115-1
 5482 02d4 0100     		.2byte	0x1
 5483 02d6 53       		.byte	0x53
 5484 02d7 2D000000 		.4byte	.LVL115-1
 5485 02db 36000000 		.4byte	.LVL117
 5486 02df 0100     		.2byte	0x1
 5487 02e1 54       		.byte	0x54
 5488 02e2 36000000 		.4byte	.LVL117
 5489 02e6 48000000 		.4byte	.LFE50
 5490 02ea 0100     		.2byte	0x1
 5491 02ec 50       		.byte	0x50
 5492 02ed 00000000 		.4byte	0
 5493 02f1 00000000 		.4byte	0
 5494              	.LLST16:
 5495 02f5 00000000 		.4byte	.LVL118
 5496 02f9 09000000 		.4byte	.LVL119-1
 5497 02fd 0100     		.2byte	0x1
 5498 02ff 50       		.byte	0x50
 5499 0300 09000000 		.4byte	.LVL119-1
 5500 0304 16000000 		.4byte	.LVL121
 5501 0308 0100     		.2byte	0x1
 5502 030a 54       		.byte	0x54
 5503 030b 16000000 		.4byte	.LVL121
 5504 030f E4000000 		.4byte	.LFE51
 5505 0313 0400     		.2byte	0x4
 5506 0315 F3       		.byte	0xf3
 5507 0316 01       		.uleb128 0x1
 5508 0317 50       		.byte	0x50
 5509 0318 9F       		.byte	0x9f
 5510 0319 00000000 		.4byte	0
 5511 031d 00000000 		.4byte	0
 5512              	.LLST17:
 5513 0321 14000000 		.4byte	.LVL120
 5514 0325 28000000 		.4byte	.LVL122
 5515 0329 0100     		.2byte	0x1
 5516 032b 52       		.byte	0x52
 5517 032c 28000000 		.4byte	.LVL122
 5518 0330 2C000000 		.4byte	.LVL123
 5519 0334 0100     		.2byte	0x1
 5520 0336 50       		.byte	0x50
 5521 0337 3A000000 		.4byte	.LVL126
 5522 033b 7A000000 		.4byte	.LVL128
 5523 033f 0100     		.2byte	0x1
 5524 0341 52       		.byte	0x52
 5525 0342 7A000000 		.4byte	.LVL128
 5526 0346 81000000 		.4byte	.LVL129-1
 5527 034a 0200     		.2byte	0x2
 5528 034c 91       		.byte	0x91
 5529 034d 6C       		.sleb128 -20
 5530 034e B8000000 		.4byte	.LVL135
 5531 0352 BA000000 		.4byte	.LVL136
 5532 0356 0100     		.2byte	0x1
 5533 0358 52       		.byte	0x52
ARM GAS  C:\Users\austc\AppData\Local\Temp\ccxzq70h.s 			page 116


 5534 0359 00000000 		.4byte	0
 5535 035d 00000000 		.4byte	0
 5536              	.LLST18:
 5537 0361 16000000 		.4byte	.LVL121
 5538 0365 96000000 		.4byte	.LVL132
 5539 0369 0100     		.2byte	0x1
 5540 036b 54       		.byte	0x54
 5541 036c B8000000 		.4byte	.LVL135
 5542 0370 BA000000 		.4byte	.LVL136
 5543 0374 0100     		.2byte	0x1
 5544 0376 54       		.byte	0x54
 5545 0377 00000000 		.4byte	0
 5546 037b 00000000 		.4byte	0
 5547              	.LLST19:
 5548 037f 64000000 		.4byte	.LVL127
 5549 0383 B8000000 		.4byte	.LVL135
 5550 0387 0100     		.2byte	0x1
 5551 0389 55       		.byte	0x55
 5552 038a 00000000 		.4byte	0
 5553 038e 00000000 		.4byte	0
 5554              	.LLST20:
 5555 0392 00000000 		.4byte	.LVL137
 5556 0396 16000000 		.4byte	.LVL138
 5557 039a 0100     		.2byte	0x1
 5558 039c 50       		.byte	0x50
 5559 039d 16000000 		.4byte	.LVL138
 5560 03a1 7C000000 		.4byte	.LFE49
 5561 03a5 0400     		.2byte	0x4
 5562 03a7 F3       		.byte	0xf3
 5563 03a8 01       		.uleb128 0x1
 5564 03a9 50       		.byte	0x50
 5565 03aa 9F       		.byte	0x9f
 5566 03ab 00000000 		.4byte	0
 5567 03af 00000000 		.4byte	0
 5568              	.LLST21:
 5569 03b3 2C000000 		.4byte	.LVL143
 5570 03b7 3C000000 		.4byte	.LVL144
 5571 03bb 0100     		.2byte	0x1
 5572 03bd 50       		.byte	0x50
 5573 03be 3C000000 		.4byte	.LVL144
 5574 03c2 3F000000 		.4byte	.LVL145-1
 5575 03c6 0100     		.2byte	0x1
 5576 03c8 52       		.byte	0x52
 5577 03c9 3F000000 		.4byte	.LVL145-1
 5578 03cd 66000000 		.4byte	.LVL150
 5579 03d1 0100     		.2byte	0x1
 5580 03d3 54       		.byte	0x54
 5581 03d4 00000000 		.4byte	0
 5582 03d8 00000000 		.4byte	0
 5583              		.section	.debug_aranges,"",%progbits
 5584 0000 9C000000 		.4byte	0x9c
 5585 0004 0200     		.2byte	0x2
 5586 0006 00000000 		.4byte	.Ldebug_info0
 5587 000a 04       		.byte	0x4
 5588 000b 00       		.byte	0
 5589 000c 0000     		.2byte	0
 5590 000e 0000     		.2byte	0
ARM GAS  C:\Users\austc\AppData\Local\Temp\ccxzq70h.s 			page 117


 5591 0010 00000000 		.4byte	.LFB47
 5592 0014 48020000 		.4byte	.LFE47-.LFB47
 5593 0018 00000000 		.4byte	.LFB38
 5594 001c 14000000 		.4byte	.LFE38-.LFB38
 5595 0020 00000000 		.4byte	.LFB39
 5596 0024 6C000000 		.4byte	.LFE39-.LFB39
 5597 0028 00000000 		.4byte	.LFB41
 5598 002c 1C000000 		.4byte	.LFE41-.LFB41
 5599 0030 00000000 		.4byte	.LFB40
 5600 0034 C8010000 		.4byte	.LFE40-.LFB40
 5601 0038 00000000 		.4byte	.LFB42
 5602 003c 94000000 		.4byte	.LFE42-.LFB42
 5603 0040 00000000 		.4byte	.LFB35
 5604 0044 54000000 		.4byte	.LFE35-.LFB35
 5605 0048 00000000 		.4byte	.LFB36
 5606 004c 3C000000 		.4byte	.LFE36-.LFB36
 5607 0050 00000000 		.4byte	.LFB43
 5608 0054 8C000000 		.4byte	.LFE43-.LFB43
 5609 0058 00000000 		.4byte	.LFB44
 5610 005c 4C000000 		.4byte	.LFE44-.LFB44
 5611 0060 00000000 		.4byte	.LFB45
 5612 0064 4C000000 		.4byte	.LFE45-.LFB45
 5613 0068 00000000 		.4byte	.LFB46
 5614 006c 54000000 		.4byte	.LFE46-.LFB46
 5615 0070 00000000 		.4byte	.LFB48
 5616 0074 EC000000 		.4byte	.LFE48-.LFB48
 5617 0078 00000000 		.4byte	.LFB50
 5618 007c 48000000 		.4byte	.LFE50-.LFB50
 5619 0080 00000000 		.4byte	.LFB51
 5620 0084 E4000000 		.4byte	.LFE51-.LFB51
 5621 0088 00000000 		.4byte	.LFB49
 5622 008c 7C000000 		.4byte	.LFE49-.LFB49
 5623 0090 00000000 		.4byte	.LFB37
 5624 0094 BC010000 		.4byte	.LFE37-.LFB37
 5625 0098 00000000 		.4byte	0
 5626 009c 00000000 		.4byte	0
 5627              		.section	.debug_ranges,"",%progbits
 5628              	.Ldebug_ranges0:
 5629 0000 00000000 		.4byte	.LFB47
 5630 0004 48020000 		.4byte	.LFE47
 5631 0008 00000000 		.4byte	.LFB38
 5632 000c 14000000 		.4byte	.LFE38
 5633 0010 00000000 		.4byte	.LFB39
 5634 0014 6C000000 		.4byte	.LFE39
 5635 0018 00000000 		.4byte	.LFB41
 5636 001c 1C000000 		.4byte	.LFE41
 5637 0020 00000000 		.4byte	.LFB40
 5638 0024 C8010000 		.4byte	.LFE40
 5639 0028 00000000 		.4byte	.LFB42
 5640 002c 94000000 		.4byte	.LFE42
 5641 0030 00000000 		.4byte	.LFB35
 5642 0034 54000000 		.4byte	.LFE35
 5643 0038 00000000 		.4byte	.LFB36
 5644 003c 3C000000 		.4byte	.LFE36
 5645 0040 00000000 		.4byte	.LFB43
 5646 0044 8C000000 		.4byte	.LFE43
 5647 0048 00000000 		.4byte	.LFB44
ARM GAS  C:\Users\austc\AppData\Local\Temp\ccxzq70h.s 			page 118


 5648 004c 4C000000 		.4byte	.LFE44
 5649 0050 00000000 		.4byte	.LFB45
 5650 0054 4C000000 		.4byte	.LFE45
 5651 0058 00000000 		.4byte	.LFB46
 5652 005c 54000000 		.4byte	.LFE46
 5653 0060 00000000 		.4byte	.LFB48
 5654 0064 EC000000 		.4byte	.LFE48
 5655 0068 00000000 		.4byte	.LFB50
 5656 006c 48000000 		.4byte	.LFE50
 5657 0070 00000000 		.4byte	.LFB51
 5658 0074 E4000000 		.4byte	.LFE51
 5659 0078 00000000 		.4byte	.LFB49
 5660 007c 7C000000 		.4byte	.LFE49
 5661 0080 00000000 		.4byte	.LFB37
 5662 0084 BC010000 		.4byte	.LFE37
 5663 0088 00000000 		.4byte	0
 5664 008c 00000000 		.4byte	0
 5665              		.section	.debug_line,"",%progbits
 5666              	.Ldebug_line0:
 5667 0000 21050000 		.section	.debug_str,"MS",%progbits,1
 5667      02007C02 
 5667      00000201 
 5667      FB0E0D00 
 5667      01010101 
 5668              	.LASF124:
 5669 0000 6D61696E 		.ascii	"main.c\000"
 5669      2E6300
 5670              	.LASF72:
 5671 0007 43414E5F 		.ascii	"CAN_RX_MAILBOX_1_SHIFT\000"
 5671      52585F4D 
 5671      41494C42 
 5671      4F585F31 
 5671      5F534849 
 5672              	.LASF45:
 5673 001e 7365745F 		.ascii	"set_CAN_ID\000"
 5673      43414E5F 
 5673      494400
 5674              	.LASF63:
 5675 0029 64656772 		.ascii	"degrees\000"
 5675      65657300 
 5676              	.LASF100:
 5677 0031 6D657373 		.ascii	"message\000"
 5677      61676500 
 5678              	.LASF113:
 5679 0039 6973725F 		.ascii	"isr_period_StartEx\000"
 5679      70657269 
 5679      6F645F53 
 5679      74617274 
 5679      457800
 5680              	.LASF60:
 5681 004c 43414E5F 		.ascii	"CAN_Send_Telemetry\000"
 5681      53656E64 
 5681      5F54656C 
 5681      656D6574 
 5681      727900
 5682              	.LASF8:
 5683 005f 756E7369 		.ascii	"unsigned int\000"
ARM GAS  C:\Users\austc\AppData\Local\Temp\ccxzq70h.s 			page 119


 5683      676E6564 
 5683      20696E74 
 5683      00
 5684              	.LASF37:
 5685 006c 7278616D 		.ascii	"rxamr\000"
 5685      7200
 5686              	.LASF90:
 5687 0072 64697361 		.ascii	"disable_limit\000"
 5687      626C655F 
 5687      6C696D69 
 5687      7400
 5688              	.LASF15:
 5689 0080 696E7431 		.ascii	"int16\000"
 5689      3600
 5690              	.LASF20:
 5691 0086 72656738 		.ascii	"reg8\000"
 5691      00
 5692              	.LASF64:
 5693 008b 64656772 		.ascii	"degrees_to_tick\000"
 5693      6565735F 
 5693      746F5F74 
 5693      69636B00 
 5694              	.LASF129:
 5695 009b 6572726F 		.ascii	"error\000"
 5695      7200
 5696              	.LASF87:
 5697 00a1 6D6F6465 		.ascii	"mode\000"
 5697      00
 5698              	.LASF33:
 5699 00a6 43414E5F 		.ascii	"CAN_TX_MSG\000"
 5699      54585F4D 
 5699      534700
 5700              	.LASF48:
 5701 00b1 73657474 		.ascii	"setting\000"
 5701      696E6700 
 5702              	.LASF121:
 5703 00b9 51756164 		.ascii	"QuadDec_SetCounter\000"
 5703      4465635F 
 5703      53657443 
 5703      6F756E74 
 5703      657200
 5704              	.LASF104:
 5705 00cc 50574D5F 		.ascii	"PWM_Motor_Stop\000"
 5705      4D6F746F 
 5705      725F5374 
 5705      6F7000
 5706              	.LASF16:
 5707 00db 666C6F61 		.ascii	"float\000"
 5707      7400
 5708              	.LASF49:
 5709 00e1 73686966 		.ascii	"shift\000"
 5709      7400
 5710              	.LASF7:
 5711 00e7 6C6F6E67 		.ascii	"long long unsigned int\000"
 5711      206C6F6E 
 5711      6720756E 
 5711      7369676E 
ARM GAS  C:\Users\austc\AppData\Local\Temp\ccxzq70h.s 			page 120


 5711      65642069 
 5712              	.LASF117:
 5713 00fe 53746174 		.ascii	"Status_Reg_Switches_Read\000"
 5713      75735F52 
 5713      65675F53 
 5713      77697463 
 5713      6865735F 
 5714              	.LASF25:
 5715 0117 43616E5F 		.ascii	"Can_data\000"
 5715      64617461 
 5715      00
 5716              	.LASF82:
 5717 0120 66696E61 		.ascii	"final_angle\000"
 5717      6C5F616E 
 5717      676C6500 
 5718              	.LASF9:
 5719 012c 5F5F7569 		.ascii	"__uint16_t\000"
 5719      6E743136 
 5719      5F7400
 5720              	.LASF91:
 5721 0137 43616E5F 		.ascii	"Can_rx_pwm\000"
 5721      72785F70 
 5721      776D00
 5722              	.LASF26:
 5723 0142 4572726F 		.ascii	"Error\000"
 5723      7200
 5724              	.LASF123:
 5725 0148 474E5520 		.ascii	"GNU C11 5.4.1 20160609 (release) [ARM/embedded-5-br"
 5725      43313120 
 5725      352E342E 
 5725      31203230 
 5725      31363036 
 5726 017b 616E6368 		.ascii	"anch revision 237715] -mcpu=cortex-m0 -mthumb -g -O"
 5726      20726576 
 5726      6973696F 
 5726      6E203233 
 5726      37373135 
 5727 01ae 67202D66 		.ascii	"g -ffunction-sections -ffat-lto-objects\000"
 5727      66756E63 
 5727      74696F6E 
 5727      2D736563 
 5727      74696F6E 
 5728              	.LASF80:
 5729 01d6 696E7661 		.ascii	"invalidate\000"
 5729      6C696461 
 5729      746500
 5730              	.LASF66:
 5731 01e1 74617267 		.ascii	"target\000"
 5731      657400
 5732              	.LASF44:
 5733 01e8 696E6974 		.ascii	"initialize\000"
 5733      69616C69 
 5733      7A6500
 5734              	.LASF88:
 5735 01f3 73656E64 		.ascii	"send_data\000"
 5735      5F646174 
 5735      6100
ARM GAS  C:\Users\austc\AppData\Local\Temp\ccxzq70h.s 			page 121


 5736              	.LASF41:
 5737 01fd 43414E5F 		.ascii	"CAN_RX_STRUCT\000"
 5737      52585F53 
 5737      54525543 
 5737      5400
 5738              	.LASF98:
 5739 020b 74784461 		.ascii	"txData\000"
 5739      746100
 5740              	.LASF57:
 5741 0212 43414E5F 		.ascii	"CAN_Send_Encoder\000"
 5741      53656E64 
 5741      5F456E63 
 5741      6F646572 
 5741      00
 5742              	.LASF93:
 5743 0223 7374616C 		.ascii	"stall\000"
 5743      6C00
 5744              	.LASF101:
 5745 0229 64726976 		.ascii	"drive\000"
 5745      6500
 5746              	.LASF102:
 5747 022f 51756164 		.ascii	"QuadDec_GetCounter\000"
 5747      4465635F 
 5747      47657443 
 5747      6F756E74 
 5747      657200
 5748              	.LASF27:
 5749 0242 636F6465 		.ascii	"code\000"
 5749      00
 5750              	.LASF85:
 5751 0247 636F6D70 		.ascii	"complete\000"
 5751      6C657465 
 5751      00
 5752              	.LASF120:
 5753 0250 54696D65 		.ascii	"Timer_1_ReadStatusRegister\000"
 5753      725F315F 
 5753      52656164 
 5753      53746174 
 5753      75735265 
 5754              	.LASF119:
 5755 026b 50574D5F 		.ascii	"PWM_Motor_WriteCompare\000"
 5755      4D6F746F 
 5755      725F5772 
 5755      69746543 
 5755      6F6D7061 
 5756              	.LASF58:
 5757 0282 7469636B 		.ascii	"ticks\000"
 5757      7300
 5758              	.LASF47:
 5759 0288 63616E5F 		.ascii	"can_start\000"
 5759      73746172 
 5759      7400
 5760              	.LASF118:
 5761 0292 50696E5F 		.ascii	"Pin_Direction_Write\000"
 5761      44697265 
 5761      6374696F 
 5761      6E5F5772 
ARM GAS  C:\Users\austc\AppData\Local\Temp\ccxzq70h.s 			page 122


 5761      69746500 
 5762              	.LASF54:
 5763 02a6 50657269 		.ascii	"Period_Reset_Handler\000"
 5763      6F645F52 
 5763      65736574 
 5763      5F48616E 
 5763      646C6572 
 5764              	.LASF19:
 5765 02bb 63686172 		.ascii	"char\000"
 5765      00
 5766              	.LASF30:
 5767 02c0 43414E5F 		.ascii	"CAN_DATA_BYTES_MSG\000"
 5767      44415441 
 5767      5F425954 
 5767      45535F4D 
 5767      534700
 5768              	.LASF38:
 5769 02d3 72786163 		.ascii	"rxacr\000"
 5769      7200
 5770              	.LASF62:
 5771 02d9 43414E5F 		.ascii	"CAN_Send_Error\000"
 5771      53656E64 
 5771      5F457272 
 5771      6F7200
 5772              	.LASF39:
 5773 02e8 7278616D 		.ascii	"rxamrd\000"
 5773      726400
 5774              	.LASF77:
 5775 02ef 75617274 		.ascii	"uart_debug\000"
 5775      5F646562 
 5775      756700
 5776              	.LASF12:
 5777 02fa 75696E74 		.ascii	"uint16\000"
 5777      313600
 5778              	.LASF99:
 5779 0301 64617461 		.ascii	"data\000"
 5779      00
 5780              	.LASF14:
 5781 0306 696E7438 		.ascii	"int8\000"
 5781      00
 5782              	.LASF108:
 5783 030b 51756164 		.ascii	"QuadDec_Start\000"
 5783      4465635F 
 5783      53746172 
 5783      7400
 5784              	.LASF111:
 5785 0319 4379496E 		.ascii	"CyIntSetVector\000"
 5785      74536574 
 5785      56656374 
 5785      6F7200
 5786              	.LASF53:
 5787 0328 73746174 		.ascii	"status\000"
 5787      757300
 5788              	.LASF18:
 5789 032f 63686172 		.ascii	"char8\000"
 5789      3800
 5790              	.LASF70:
ARM GAS  C:\Users\austc\AppData\Local\Temp\ccxzq70h.s 			page 123


 5791 0335 74696D65 		.ascii	"time_LED\000"
 5791      5F4C4544 
 5791      00
 5792              	.LASF40:
 5793 033e 72786163 		.ascii	"rxacrd\000"
 5793      726400
 5794              	.LASF79:
 5795 0345 70776D5F 		.ascii	"pwm_compare\000"
 5795      636F6D70 
 5795      61726500 
 5796              	.LASF122:
 5797 0351 43414E5F 		.ascii	"CAN_SendMsg\000"
 5797      53656E64 
 5797      4D736700 
 5798              	.LASF43:
 5799 035d 656D6572 		.ascii	"emergency_halt\000"
 5799      67656E63 
 5799      795F6861 
 5799      6C7400
 5800              	.LASF6:
 5801 036c 6C6F6E67 		.ascii	"long long int\000"
 5801      206C6F6E 
 5801      6720696E 
 5801      7400
 5802              	.LASF126:
 5803 037a 7365745F 		.ascii	"set_data\000"
 5803      64617461 
 5803      00
 5804              	.LASF106:
 5805 0383 53746174 		.ascii	"Status_Reg_Switches_InterruptEnable\000"
 5805      75735F52 
 5805      65675F53 
 5805      77697463 
 5805      6865735F 
 5806              	.LASF81:
 5807 03a7 666C6970 		.ascii	"flipEncoder\000"
 5807      456E636F 
 5807      64657200 
 5808              	.LASF36:
 5809 03b3 72786461 		.ascii	"rxdata\000"
 5809      746100
 5810              	.LASF28:
 5811 03ba 70617261 		.ascii	"param\000"
 5811      6D00
 5812              	.LASF76:
 5813 03c0 43414E5F 		.ascii	"CAN_TIMEOUT\000"
 5813      54494D45 
 5813      4F555400 
 5814              	.LASF31:
 5815 03cc 43414E5F 		.ascii	"CAN_DATA_BYTES\000"
 5815      44415441 
 5815      5F425954 
 5815      455300
 5816              	.LASF52:
 5817 03db 636F6D70 		.ascii	"compare\000"
 5817      61726500 
 5818              	.LASF13:
ARM GAS  C:\Users\austc\AppData\Local\Temp\ccxzq70h.s 			page 124


 5819 03e3 75696E74 		.ascii	"uint32\000"
 5819      333200
 5820              	.LASF125:
 5821 03ea 433A5C55 		.ascii	"C:\\Users\\austc\\OneDrive\\Documents\\Altium\\Moto"
 5821      73657273 
 5821      5C617573 
 5821      74635C4F 
 5821      6E654472 
 5822 0417 722D556E 		.ascii	"r-Unit-Firmware-A-2019-2020\\Motor Unit\\Motor Boar"
 5822      69742D46 
 5822      69726D77 
 5822      6172652D 
 5822      412D3230 
 5823 0448 64205265 		.ascii	"d Rev1.cydsn\000"
 5823      76312E63 
 5823      7964736E 
 5823      00
 5824              	.LASF89:
 5825 0455 6D6F6465 		.ascii	"model_req\000"
 5825      6C5F7265 
 5825      7100
 5826              	.LASF24:
 5827 045f 646F6E65 		.ascii	"done\000"
 5827      00
 5828              	.LASF46:
 5829 0464 696E6974 		.ascii	"initialize_can_addr\000"
 5829      69616C69 
 5829      7A655F63 
 5829      616E5F61 
 5829      64647200 
 5830              	.LASF83:
 5831 0478 6C617374 		.ascii	"lastp\000"
 5831      7000
 5832              	.LASF22:
 5833 047e 6C6F6E67 		.ascii	"long double\000"
 5833      20646F75 
 5833      626C6500 
 5834              	.LASF50:
 5835 048a 7365745F 		.ascii	"set_PWM\000"
 5835      50574D00 
 5836              	.LASF115:
 5837 0492 73707269 		.ascii	"sprintf\000"
 5837      6E746600 
 5838              	.LASF10:
 5839 049a 75696E74 		.ascii	"uint16_t\000"
 5839      31365F74 
 5839      00
 5840              	.LASF21:
 5841 04a3 72656733 		.ascii	"reg32\000"
 5841      3200
 5842              	.LASF56:
 5843 04a9 50696E5F 		.ascii	"Pin_Limit_Handler\000"
 5843      4C696D69 
 5843      745F4861 
 5843      6E646C65 
 5843      7200
 5844              	.LASF65:
ARM GAS  C:\Users\austc\AppData\Local\Temp\ccxzq70h.s 			page 125


 5845 04bb 706F7369 		.ascii	"position_PID\000"
 5845      74696F6E 
 5845      5F504944 
 5845      00
 5846              	.LASF42:
 5847 04c8 4953525F 		.ascii	"ISR_CAN\000"
 5847      43414E00 
 5848              	.LASF59:
 5849 04d0 616E676C 		.ascii	"angle\000"
 5849      6500
 5850              	.LASF73:
 5851 04d6 43414E5F 		.ascii	"CAN_RX_MAILBOX_0_SHIFT\000"
 5851      52585F4D 
 5851      41494C42 
 5851      4F585F30 
 5851      5F534849 
 5852              	.LASF95:
 5853 04ed 696E7661 		.ascii	"invalid_arg\000"
 5853      6C69645F 
 5853      61726700 
 5854              	.LASF75:
 5855 04f9 43414E5F 		.ascii	"CAN_RX_MAILBOX_0\000"
 5855      52585F4D 
 5855      41494C42 
 5855      4F585F30 
 5855      00
 5856              	.LASF74:
 5857 050a 43414E5F 		.ascii	"CAN_RX_MAILBOX_1\000"
 5857      52585F4D 
 5857      41494C42 
 5857      4F585F31 
 5857      00
 5858              	.LASF2:
 5859 051b 73686F72 		.ascii	"short int\000"
 5859      7420696E 
 5859      7400
 5860              	.LASF84:
 5861 0525 72617469 		.ascii	"ratio\000"
 5861      6F00
 5862              	.LASF4:
 5863 052b 6C6F6E67 		.ascii	"long int\000"
 5863      20696E74 
 5863      00
 5864              	.LASF116:
 5865 0534 43616E5F 		.ascii	"Can_addr_Read\000"
 5865      61646472 
 5865      5F526561 
 5865      6400
 5866              	.LASF110:
 5867 0542 43414E5F 		.ascii	"CAN_GlobalIntEnable\000"
 5867      476C6F62 
 5867      616C496E 
 5867      74456E61 
 5867      626C6500 
 5868              	.LASF68:
 5869 0556 7365745F 		.ascii	"set_Position\000"
 5869      506F7369 
ARM GAS  C:\Users\austc\AppData\Local\Temp\ccxzq70h.s 			page 126


 5869      74696F6E 
 5869      00
 5870              	.LASF61:
 5871 0563 43414E5F 		.ascii	"CAN_Send_Model\000"
 5871      53656E64 
 5871      5F4D6F64 
 5871      656C00
 5872              	.LASF51:
 5873 0572 7072696F 		.ascii	"priority\000"
 5873      72697479 
 5873      00
 5874              	.LASF103:
 5875 057b 55415254 		.ascii	"UART_UartPutString\000"
 5875      5F556172 
 5875      74507574 
 5875      53747269 
 5875      6E6700
 5876              	.LASF97:
 5877 058e 656D6572 		.ascii	"emergency\000"
 5877      67656E63 
 5877      7900
 5878              	.LASF71:
 5879 0598 6D657373 		.ascii	"message_id\000"
 5879      6167655F 
 5879      696400
 5880              	.LASF92:
 5881 05a3 43616E5F 		.ascii	"Can_rx_angle\000"
 5881      72785F61 
 5881      6E676C65 
 5881      00
 5882              	.LASF94:
 5883 05b0 636F6D6D 		.ascii	"command_failed\000"
 5883      616E645F 
 5883      6661696C 
 5883      656400
 5884              	.LASF114:
 5885 05bf 55415254 		.ascii	"UART_Start\000"
 5885      5F537461 
 5885      727400
 5886              	.LASF23:
 5887 05ca 73697A65 		.ascii	"sizetype\000"
 5887      74797065 
 5887      00
 5888              	.LASF5:
 5889 05d3 6C6F6E67 		.ascii	"long unsigned int\000"
 5889      20756E73 
 5889      69676E65 
 5889      6420696E 
 5889      7400
 5890              	.LASF32:
 5891 05e5 43414E5F 		.ascii	"CAN_REG_32\000"
 5891      5245475F 
 5891      333200
 5892              	.LASF109:
 5893 05f0 50574D5F 		.ascii	"PWM_Motor_Start\000"
 5893      4D6F746F 
 5893      725F5374 
ARM GAS  C:\Users\austc\AppData\Local\Temp\ccxzq70h.s 			page 127


 5893      61727400 
 5894              	.LASF29:
 5895 0600 62797465 		.ascii	"byte\000"
 5895      00
 5896              	.LASF35:
 5897 0605 72786964 		.ascii	"rxid\000"
 5897      00
 5898              	.LASF1:
 5899 060a 756E7369 		.ascii	"unsigned char\000"
 5899      676E6564 
 5899      20636861 
 5899      7200
 5900              	.LASF69:
 5901 0618 74657374 		.ascii	"test\000"
 5901      00
 5902              	.LASF78:
 5903 061d 47454152 		.ascii	"GEAR_RATIO\000"
 5903      5F524154 
 5903      494F00
 5904              	.LASF34:
 5905 0628 7278636D 		.ascii	"rxcmd\000"
 5905      6400
 5906              	.LASF127:
 5907 062e 61646472 		.ascii	"addr\000"
 5907      00
 5908              	.LASF86:
 5909 0633 6D617856 		.ascii	"maxV\000"
 5909      00
 5910              	.LASF107:
 5911 0638 54696D65 		.ascii	"Timer_1_Start\000"
 5911      725F315F 
 5911      53746172 
 5911      7400
 5912              	.LASF0:
 5913 0646 7369676E 		.ascii	"signed char\000"
 5913      65642063 
 5913      68617200 
 5914              	.LASF3:
 5915 0652 73686F72 		.ascii	"short unsigned int\000"
 5915      7420756E 
 5915      7369676E 
 5915      65642069 
 5915      6E7400
 5916              	.LASF130:
 5917 0665 6D656D63 		.ascii	"memcpy\000"
 5917      707900
 5918              	.LASF128:
 5919 066c 6D61696E 		.ascii	"main\000"
 5919      00
 5920              	.LASF67:
 5921 0671 63757272 		.ascii	"current\000"
 5921      656E7400 
 5922              	.LASF11:
 5923 0679 75696E74 		.ascii	"uint8\000"
 5923      3800
 5924              	.LASF17:
 5925 067f 646F7562 		.ascii	"double\000"
ARM GAS  C:\Users\austc\AppData\Local\Temp\ccxzq70h.s 			page 128


 5925      6C6500
 5926              	.LASF105:
 5927 0686 43414E5F 		.ascii	"CAN_Start\000"
 5927      53746172 
 5927      7400
 5928              	.LASF55:
 5929 0690 74696D65 		.ascii	"timer\000"
 5929      7200
 5930              	.LASF112:
 5931 0696 6973725F 		.ascii	"isr_Limit_1_StartEx\000"
 5931      4C696D69 
 5931      745F315F 
 5931      53746172 
 5931      74457800 
 5932              	.LASF96:
 5933 06aa 6D61696C 		.ascii	"mailbox\000"
 5933      626F7800 
 5934              		.ident	"GCC: (GNU Tools for ARM Embedded Processors) 5.4.1 20160609 (release) [ARM/embedded-5-bran
