ARM GAS  C:\Users\austc\AppData\Local\Temp\ccCUEBM9.s 			page 1


   1              		.syntax unified
   2              		.cpu cortex-m0
   3              		.fpu softvfp
   4              		.eabi_attribute 20, 1
   5              		.eabi_attribute 21, 1
   6              		.eabi_attribute 23, 3
   7              		.eabi_attribute 24, 1
   8              		.eabi_attribute 25, 1
   9              		.eabi_attribute 26, 1
  10              		.eabi_attribute 30, 1
  11              		.eabi_attribute 34, 0
  12              		.eabi_attribute 18, 4
  13              		.thumb
  14              		.syntax unified
  15              		.file	"QuadDec_PM.c"
  16              		.text
  17              	.Ltext0:
  18              		.cfi_sections	.debug_frame
  19              		.section	.text.QuadDec_SaveConfig,"ax",%progbits
  20              		.align	2
  21              		.global	QuadDec_SaveConfig
  22              		.code	16
  23              		.thumb_func
  24              		.type	QuadDec_SaveConfig, %function
  25              	QuadDec_SaveConfig:
  26              	.LFB1:
  27              		.file 1 "Generated_Source\\PSoC4\\QuadDec_PM.c"
   1:Generated_Source\PSoC4/QuadDec_PM.c **** /*******************************************************************************
   2:Generated_Source\PSoC4/QuadDec_PM.c **** * File Name: QuadDec_PM.c
   3:Generated_Source\PSoC4/QuadDec_PM.c **** * Version 3.0
   4:Generated_Source\PSoC4/QuadDec_PM.c **** *
   5:Generated_Source\PSoC4/QuadDec_PM.c **** * Description:
   6:Generated_Source\PSoC4/QuadDec_PM.c **** *  This file contains the setup, control and status commands to support 
   7:Generated_Source\PSoC4/QuadDec_PM.c **** *  component operations in low power mode.  
   8:Generated_Source\PSoC4/QuadDec_PM.c **** *
   9:Generated_Source\PSoC4/QuadDec_PM.c **** * Note:
  10:Generated_Source\PSoC4/QuadDec_PM.c **** *  None.
  11:Generated_Source\PSoC4/QuadDec_PM.c **** *
  12:Generated_Source\PSoC4/QuadDec_PM.c **** ********************************************************************************
  13:Generated_Source\PSoC4/QuadDec_PM.c **** * Copyright 2008-2014, Cypress Semiconductor Corporation.  All rights reserved.
  14:Generated_Source\PSoC4/QuadDec_PM.c **** * You may use this file only in accordance with the license, terms, conditions,
  15:Generated_Source\PSoC4/QuadDec_PM.c **** * disclaimers, and limitations in the end user license agreement accompanying
  16:Generated_Source\PSoC4/QuadDec_PM.c **** * the software package with which this file was provided.
  17:Generated_Source\PSoC4/QuadDec_PM.c **** *******************************************************************************/
  18:Generated_Source\PSoC4/QuadDec_PM.c **** 
  19:Generated_Source\PSoC4/QuadDec_PM.c **** #include "QuadDec.h"
  20:Generated_Source\PSoC4/QuadDec_PM.c **** 
  21:Generated_Source\PSoC4/QuadDec_PM.c **** static QuadDec_BACKUP_STRUCT QuadDec_backup = {0u};
  22:Generated_Source\PSoC4/QuadDec_PM.c **** 
  23:Generated_Source\PSoC4/QuadDec_PM.c **** 
  24:Generated_Source\PSoC4/QuadDec_PM.c **** /*******************************************************************************
  25:Generated_Source\PSoC4/QuadDec_PM.c **** * Function Name: QuadDec_SaveConfig
  26:Generated_Source\PSoC4/QuadDec_PM.c **** ********************************************************************************
  27:Generated_Source\PSoC4/QuadDec_PM.c **** * Summary:
  28:Generated_Source\PSoC4/QuadDec_PM.c **** *  Saves the current user configuration of the component.
  29:Generated_Source\PSoC4/QuadDec_PM.c **** *
  30:Generated_Source\PSoC4/QuadDec_PM.c **** * Parameters:
ARM GAS  C:\Users\austc\AppData\Local\Temp\ccCUEBM9.s 			page 2


  31:Generated_Source\PSoC4/QuadDec_PM.c **** *  None.
  32:Generated_Source\PSoC4/QuadDec_PM.c **** *
  33:Generated_Source\PSoC4/QuadDec_PM.c **** * Return:
  34:Generated_Source\PSoC4/QuadDec_PM.c **** *  None.
  35:Generated_Source\PSoC4/QuadDec_PM.c **** *
  36:Generated_Source\PSoC4/QuadDec_PM.c **** *******************************************************************************/
  37:Generated_Source\PSoC4/QuadDec_PM.c **** void QuadDec_SaveConfig(void) 
  38:Generated_Source\PSoC4/QuadDec_PM.c **** {
  28              		.loc 1 38 0
  29              		.cfi_startproc
  30              		@ args = 0, pretend = 0, frame = 0
  31              		@ frame_needed = 0, uses_anonymous_args = 0
  32 0000 10B5     		push	{r4, lr}
  33              		.cfi_def_cfa_offset 8
  34              		.cfi_offset 4, -8
  35              		.cfi_offset 14, -4
  39:Generated_Source\PSoC4/QuadDec_PM.c ****     #if (QuadDec_COUNTER_SIZE == QuadDec_COUNTER_SIZE_8_BIT)
  40:Generated_Source\PSoC4/QuadDec_PM.c ****         QuadDec_Cnt8_SaveConfig();
  41:Generated_Source\PSoC4/QuadDec_PM.c ****     #else 
  42:Generated_Source\PSoC4/QuadDec_PM.c ****         /* (QuadDec_COUNTER_SIZE == QuadDec_COUNTER_SIZE_16_BIT) || 
  43:Generated_Source\PSoC4/QuadDec_PM.c ****          * (QuadDec_COUNTER_SIZE == QuadDec_COUNTER_SIZE_32_BIT)
  44:Generated_Source\PSoC4/QuadDec_PM.c ****          */
  45:Generated_Source\PSoC4/QuadDec_PM.c ****         QuadDec_Cnt16_SaveConfig();
  36              		.loc 1 45 0
  37 0002 FFF7FEFF 		bl	QuadDec_Cnt16_SaveConfig
  38              	.LVL0:
  46:Generated_Source\PSoC4/QuadDec_PM.c ****     #endif /* (QuadDec_COUNTER_SIZE == QuadDec_COUNTER_SIZE_8_BIT) */
  47:Generated_Source\PSoC4/QuadDec_PM.c **** }
  39              		.loc 1 47 0
  40              		@ sp needed
  41 0006 10BD     		pop	{r4, pc}
  42              		.cfi_endproc
  43              	.LFE1:
  44              		.size	QuadDec_SaveConfig, .-QuadDec_SaveConfig
  45              		.section	.text.QuadDec_RestoreConfig,"ax",%progbits
  46              		.align	2
  47              		.global	QuadDec_RestoreConfig
  48              		.code	16
  49              		.thumb_func
  50              		.type	QuadDec_RestoreConfig, %function
  51              	QuadDec_RestoreConfig:
  52              	.LFB2:
  48:Generated_Source\PSoC4/QuadDec_PM.c **** 
  49:Generated_Source\PSoC4/QuadDec_PM.c **** 
  50:Generated_Source\PSoC4/QuadDec_PM.c **** /*******************************************************************************
  51:Generated_Source\PSoC4/QuadDec_PM.c **** * Function Name: QuadDec_RestoreConfig
  52:Generated_Source\PSoC4/QuadDec_PM.c **** ********************************************************************************
  53:Generated_Source\PSoC4/QuadDec_PM.c **** * Summary:
  54:Generated_Source\PSoC4/QuadDec_PM.c **** *  Restores the current user configuration of the component.
  55:Generated_Source\PSoC4/QuadDec_PM.c **** *
  56:Generated_Source\PSoC4/QuadDec_PM.c **** * Parameters:
  57:Generated_Source\PSoC4/QuadDec_PM.c **** *  None.
  58:Generated_Source\PSoC4/QuadDec_PM.c **** *
  59:Generated_Source\PSoC4/QuadDec_PM.c **** * Return:
  60:Generated_Source\PSoC4/QuadDec_PM.c **** *  None.
  61:Generated_Source\PSoC4/QuadDec_PM.c **** *
  62:Generated_Source\PSoC4/QuadDec_PM.c **** *******************************************************************************/
ARM GAS  C:\Users\austc\AppData\Local\Temp\ccCUEBM9.s 			page 3


  63:Generated_Source\PSoC4/QuadDec_PM.c **** void QuadDec_RestoreConfig(void) 
  64:Generated_Source\PSoC4/QuadDec_PM.c **** {
  53              		.loc 1 64 0
  54              		.cfi_startproc
  55              		@ args = 0, pretend = 0, frame = 0
  56              		@ frame_needed = 0, uses_anonymous_args = 0
  57 0000 10B5     		push	{r4, lr}
  58              		.cfi_def_cfa_offset 8
  59              		.cfi_offset 4, -8
  60              		.cfi_offset 14, -4
  65:Generated_Source\PSoC4/QuadDec_PM.c ****     #if (QuadDec_COUNTER_SIZE == QuadDec_COUNTER_SIZE_8_BIT)
  66:Generated_Source\PSoC4/QuadDec_PM.c ****         QuadDec_Cnt8_RestoreConfig();
  67:Generated_Source\PSoC4/QuadDec_PM.c ****     #else 
  68:Generated_Source\PSoC4/QuadDec_PM.c ****         /* (QuadDec_COUNTER_SIZE == QuadDec_COUNTER_SIZE_16_BIT) || 
  69:Generated_Source\PSoC4/QuadDec_PM.c ****          * (QuadDec_COUNTER_SIZE == QuadDec_COUNTER_SIZE_32_BIT) 
  70:Generated_Source\PSoC4/QuadDec_PM.c ****          */
  71:Generated_Source\PSoC4/QuadDec_PM.c ****         QuadDec_Cnt16_RestoreConfig();
  61              		.loc 1 71 0
  62 0002 FFF7FEFF 		bl	QuadDec_Cnt16_RestoreConfig
  63              	.LVL1:
  72:Generated_Source\PSoC4/QuadDec_PM.c ****     #endif /* (QuadDec_COUNTER_SIZE == QuadDec_COUNTER_SIZE_8_BIT) */
  73:Generated_Source\PSoC4/QuadDec_PM.c **** }
  64              		.loc 1 73 0
  65              		@ sp needed
  66 0006 10BD     		pop	{r4, pc}
  67              		.cfi_endproc
  68              	.LFE2:
  69              		.size	QuadDec_RestoreConfig, .-QuadDec_RestoreConfig
  70              		.section	.text.QuadDec_Sleep,"ax",%progbits
  71              		.align	2
  72              		.global	QuadDec_Sleep
  73              		.code	16
  74              		.thumb_func
  75              		.type	QuadDec_Sleep, %function
  76              	QuadDec_Sleep:
  77              	.LFB3:
  74:Generated_Source\PSoC4/QuadDec_PM.c **** 
  75:Generated_Source\PSoC4/QuadDec_PM.c **** 
  76:Generated_Source\PSoC4/QuadDec_PM.c **** /*******************************************************************************
  77:Generated_Source\PSoC4/QuadDec_PM.c **** * Function Name: QuadDec_Sleep
  78:Generated_Source\PSoC4/QuadDec_PM.c **** ********************************************************************************
  79:Generated_Source\PSoC4/QuadDec_PM.c **** * 
  80:Generated_Source\PSoC4/QuadDec_PM.c **** * Summary:
  81:Generated_Source\PSoC4/QuadDec_PM.c **** *  Prepare Quadrature Decoder Component goes to sleep.
  82:Generated_Source\PSoC4/QuadDec_PM.c **** *
  83:Generated_Source\PSoC4/QuadDec_PM.c **** * Parameters:
  84:Generated_Source\PSoC4/QuadDec_PM.c **** *  None.
  85:Generated_Source\PSoC4/QuadDec_PM.c **** *
  86:Generated_Source\PSoC4/QuadDec_PM.c **** * Return:
  87:Generated_Source\PSoC4/QuadDec_PM.c **** *  None.
  88:Generated_Source\PSoC4/QuadDec_PM.c **** *
  89:Generated_Source\PSoC4/QuadDec_PM.c **** * Global Variables:
  90:Generated_Source\PSoC4/QuadDec_PM.c **** *  QuadDec_backup - modified when non-retention registers are saved.
  91:Generated_Source\PSoC4/QuadDec_PM.c **** *
  92:Generated_Source\PSoC4/QuadDec_PM.c **** * Reentrant:
  93:Generated_Source\PSoC4/QuadDec_PM.c **** *  No.
  94:Generated_Source\PSoC4/QuadDec_PM.c **** *
ARM GAS  C:\Users\austc\AppData\Local\Temp\ccCUEBM9.s 			page 4


  95:Generated_Source\PSoC4/QuadDec_PM.c **** *******************************************************************************/
  96:Generated_Source\PSoC4/QuadDec_PM.c **** void QuadDec_Sleep(void) 
  97:Generated_Source\PSoC4/QuadDec_PM.c **** {
  78              		.loc 1 97 0
  79              		.cfi_startproc
  80              		@ args = 0, pretend = 0, frame = 0
  81              		@ frame_needed = 0, uses_anonymous_args = 0
  82 0000 10B5     		push	{r4, lr}
  83              		.cfi_def_cfa_offset 8
  84              		.cfi_offset 4, -8
  85              		.cfi_offset 14, -4
  98:Generated_Source\PSoC4/QuadDec_PM.c ****     if (0u != (QuadDec_SR_AUX_CONTROL & QuadDec_INTERRUPTS_ENABLE))
  86              		.loc 1 98 0
  87 0002 084B     		ldr	r3, .L6
  88 0004 1B78     		ldrb	r3, [r3]
  89 0006 DB06     		lsls	r3, r3, #27
  90 0008 03D5     		bpl	.L4
  99:Generated_Source\PSoC4/QuadDec_PM.c ****     {
 100:Generated_Source\PSoC4/QuadDec_PM.c ****         QuadDec_backup.enableState = 1u;
  91              		.loc 1 100 0
  92 000a 0122     		movs	r2, #1
  93 000c 064B     		ldr	r3, .L6+4
  94 000e 1A70     		strb	r2, [r3]
  95 0010 02E0     		b	.L5
  96              	.L4:
 101:Generated_Source\PSoC4/QuadDec_PM.c ****     }
 102:Generated_Source\PSoC4/QuadDec_PM.c ****     else /* The Quadrature Decoder Component is disabled */
 103:Generated_Source\PSoC4/QuadDec_PM.c ****     {
 104:Generated_Source\PSoC4/QuadDec_PM.c ****         QuadDec_backup.enableState = 0u;
  97              		.loc 1 104 0
  98 0012 0022     		movs	r2, #0
  99 0014 044B     		ldr	r3, .L6+4
 100 0016 1A70     		strb	r2, [r3]
 101              	.L5:
 105:Generated_Source\PSoC4/QuadDec_PM.c ****     }
 106:Generated_Source\PSoC4/QuadDec_PM.c **** 
 107:Generated_Source\PSoC4/QuadDec_PM.c ****     QuadDec_Stop();
 102              		.loc 1 107 0
 103 0018 FFF7FEFF 		bl	QuadDec_Stop
 104              	.LVL2:
 108:Generated_Source\PSoC4/QuadDec_PM.c ****     QuadDec_SaveConfig();
 105              		.loc 1 108 0
 106 001c FFF7FEFF 		bl	QuadDec_SaveConfig
 107              	.LVL3:
 109:Generated_Source\PSoC4/QuadDec_PM.c **** }
 108              		.loc 1 109 0
 109              		@ sp needed
 110 0020 10BD     		pop	{r4, pc}
 111              	.L7:
 112 0022 C046     		.align	2
 113              	.L6:
 114 0024 90000F40 		.word	1074725008
 115 0028 00000000 		.word	.LANCHOR0
 116              		.cfi_endproc
 117              	.LFE3:
 118              		.size	QuadDec_Sleep, .-QuadDec_Sleep
 119              		.section	.text.QuadDec_Wakeup,"ax",%progbits
ARM GAS  C:\Users\austc\AppData\Local\Temp\ccCUEBM9.s 			page 5


 120              		.align	2
 121              		.global	QuadDec_Wakeup
 122              		.code	16
 123              		.thumb_func
 124              		.type	QuadDec_Wakeup, %function
 125              	QuadDec_Wakeup:
 126              	.LFB4:
 110:Generated_Source\PSoC4/QuadDec_PM.c **** 
 111:Generated_Source\PSoC4/QuadDec_PM.c **** 
 112:Generated_Source\PSoC4/QuadDec_PM.c **** /*******************************************************************************
 113:Generated_Source\PSoC4/QuadDec_PM.c **** * Function Name: QuadDec_Wakeup
 114:Generated_Source\PSoC4/QuadDec_PM.c **** ********************************************************************************
 115:Generated_Source\PSoC4/QuadDec_PM.c **** *
 116:Generated_Source\PSoC4/QuadDec_PM.c **** * Summary:
 117:Generated_Source\PSoC4/QuadDec_PM.c **** *  Prepare Quadrature Decoder Component to wake up.
 118:Generated_Source\PSoC4/QuadDec_PM.c **** *
 119:Generated_Source\PSoC4/QuadDec_PM.c **** * Parameters:
 120:Generated_Source\PSoC4/QuadDec_PM.c **** *  None.
 121:Generated_Source\PSoC4/QuadDec_PM.c **** *
 122:Generated_Source\PSoC4/QuadDec_PM.c **** * Return:
 123:Generated_Source\PSoC4/QuadDec_PM.c **** *  None.
 124:Generated_Source\PSoC4/QuadDec_PM.c **** *
 125:Generated_Source\PSoC4/QuadDec_PM.c **** * Global Variables:
 126:Generated_Source\PSoC4/QuadDec_PM.c **** *  QuadDec_backup - used when non-retention registers are restored.
 127:Generated_Source\PSoC4/QuadDec_PM.c **** *
 128:Generated_Source\PSoC4/QuadDec_PM.c **** *******************************************************************************/
 129:Generated_Source\PSoC4/QuadDec_PM.c **** void QuadDec_Wakeup(void) 
 130:Generated_Source\PSoC4/QuadDec_PM.c **** {
 127              		.loc 1 130 0
 128              		.cfi_startproc
 129              		@ args = 0, pretend = 0, frame = 0
 130              		@ frame_needed = 0, uses_anonymous_args = 0
 131 0000 10B5     		push	{r4, lr}
 132              		.cfi_def_cfa_offset 8
 133              		.cfi_offset 4, -8
 134              		.cfi_offset 14, -4
 131:Generated_Source\PSoC4/QuadDec_PM.c ****     QuadDec_RestoreConfig();
 135              		.loc 1 131 0
 136 0002 FFF7FEFF 		bl	QuadDec_RestoreConfig
 137              	.LVL4:
 132:Generated_Source\PSoC4/QuadDec_PM.c **** 
 133:Generated_Source\PSoC4/QuadDec_PM.c ****     if (QuadDec_backup.enableState != 0u)
 138              		.loc 1 133 0
 139 0006 044B     		ldr	r3, .L10
 140 0008 1B78     		ldrb	r3, [r3]
 141 000a 002B     		cmp	r3, #0
 142 000c 03D0     		beq	.L8
 134:Generated_Source\PSoC4/QuadDec_PM.c ****     {
 135:Generated_Source\PSoC4/QuadDec_PM.c ****         #if (QuadDec_COUNTER_SIZE == QuadDec_COUNTER_SIZE_8_BIT)
 136:Generated_Source\PSoC4/QuadDec_PM.c ****             QuadDec_Cnt8_Enable();
 137:Generated_Source\PSoC4/QuadDec_PM.c ****         #else 
 138:Generated_Source\PSoC4/QuadDec_PM.c ****             /* (QuadDec_COUNTER_SIZE == QuadDec_COUNTER_SIZE_16_BIT) || 
 139:Generated_Source\PSoC4/QuadDec_PM.c ****             *  (QuadDec_COUNTER_SIZE == QuadDec_COUNTER_SIZE_32_BIT) 
 140:Generated_Source\PSoC4/QuadDec_PM.c ****             */
 141:Generated_Source\PSoC4/QuadDec_PM.c ****             QuadDec_Cnt16_Enable();
 143              		.loc 1 141 0
 144 000e FFF7FEFF 		bl	QuadDec_Cnt16_Enable
ARM GAS  C:\Users\austc\AppData\Local\Temp\ccCUEBM9.s 			page 6


 145              	.LVL5:
 142:Generated_Source\PSoC4/QuadDec_PM.c ****         #endif /* (QuadDec_COUNTER_SIZE == QuadDec_COUNTER_SIZE_8_BIT) */
 143:Generated_Source\PSoC4/QuadDec_PM.c **** 
 144:Generated_Source\PSoC4/QuadDec_PM.c ****         /* Enable component's operation */
 145:Generated_Source\PSoC4/QuadDec_PM.c ****         QuadDec_Enable();
 146              		.loc 1 145 0
 147 0012 FFF7FEFF 		bl	QuadDec_Enable
 148              	.LVL6:
 149              	.L8:
 146:Generated_Source\PSoC4/QuadDec_PM.c ****     } /* Do nothing if component's block was disabled before */
 147:Generated_Source\PSoC4/QuadDec_PM.c **** }
 150              		.loc 1 147 0
 151              		@ sp needed
 152 0016 10BD     		pop	{r4, pc}
 153              	.L11:
 154              		.align	2
 155              	.L10:
 156 0018 00000000 		.word	.LANCHOR0
 157              		.cfi_endproc
 158              	.LFE4:
 159              		.size	QuadDec_Wakeup, .-QuadDec_Wakeup
 160              		.bss
 161              		.align	2
 162              		.set	.LANCHOR0,. + 0
 163              		.type	QuadDec_backup, %object
 164              		.size	QuadDec_backup, 1
 165              	QuadDec_backup:
 166 0000 00       		.space	1
 167              		.text
 168              	.Letext0:
 169              		.file 2 "Generated_Source\\PSoC4\\cytypes.h"
 170              		.file 3 "Generated_Source\\PSoC4\\QuadDec.h"
 171              		.file 4 "Generated_Source\\PSoC4\\QuadDec_Cnt16.h"