ARM GAS  C:\Users\austc\AppData\Local\Temp\ccaNEfOM.s 			page 1


   1              		.syntax unified
   2              		.cpu cortex-m0
   3              		.fpu softvfp
   4              		.eabi_attribute 20, 1
   5              		.eabi_attribute 21, 1
   6              		.eabi_attribute 23, 3
   7              		.eabi_attribute 24, 1
   8              		.eabi_attribute 25, 1
   9              		.eabi_attribute 26, 1
  10              		.eabi_attribute 30, 1
  11              		.eabi_attribute 34, 0
  12              		.eabi_attribute 18, 4
  13              		.thumb
  14              		.syntax unified
  15              		.file	"RTC_1.c"
  16              		.text
  17              	.Ltext0:
  18              		.cfi_sections	.debug_frame
  19              		.section	.text.RTC_1_Stop,"ax",%progbits
  20              		.align	2
  21              		.global	RTC_1_Stop
  22              		.code	16
  23              		.thumb_func
  24              		.type	RTC_1_Stop, %function
  25              	RTC_1_Stop:
  26              	.LFB29:
  27              		.file 1 "Generated_Source\\PSoC4\\RTC_1.c"
   1:Generated_Source\PSoC4/RTC_1.c **** /***************************************************************************//**
   2:Generated_Source\PSoC4/RTC_1.c **** * \file Name: RTC_1.c
   3:Generated_Source\PSoC4/RTC_1.c **** * \version 1.30
   4:Generated_Source\PSoC4/RTC_1.c **** *
   5:Generated_Source\PSoC4/RTC_1.c **** *  This file provides the source code to the API for the RTC_P4 Component.
   6:Generated_Source\PSoC4/RTC_1.c **** *
   7:Generated_Source\PSoC4/RTC_1.c **** ********************************************************************************
   8:Generated_Source\PSoC4/RTC_1.c **** * \copyright
   9:Generated_Source\PSoC4/RTC_1.c **** * Copyright 2015-2017, Cypress Semiconductor Corporation. All rights reserved.
  10:Generated_Source\PSoC4/RTC_1.c **** * You may use this file only in accordance with the license, terms, conditions,
  11:Generated_Source\PSoC4/RTC_1.c **** * disclaimers, and limitations in the end user license agreement accompanying
  12:Generated_Source\PSoC4/RTC_1.c **** * the software package with which this file was provided.
  13:Generated_Source\PSoC4/RTC_1.c **** *******************************************************************************/
  14:Generated_Source\PSoC4/RTC_1.c **** 
  15:Generated_Source\PSoC4/RTC_1.c **** #include "RTC_1.h"
  16:Generated_Source\PSoC4/RTC_1.c **** 
  17:Generated_Source\PSoC4/RTC_1.c **** uint8  RTC_1_initVar;
  18:Generated_Source\PSoC4/RTC_1.c **** 
  19:Generated_Source\PSoC4/RTC_1.c **** volatile uint64 RTC_1_unixTime;
  20:Generated_Source\PSoC4/RTC_1.c **** RTC_1_DATE_TIME RTC_1_currentTimeDate;
  21:Generated_Source\PSoC4/RTC_1.c **** 
  22:Generated_Source\PSoC4/RTC_1.c **** static uint32 RTC_1_updateTimePeriod;
  23:Generated_Source\PSoC4/RTC_1.c **** static uint32 RTC_1_tickRefOneSec;
  24:Generated_Source\PSoC4/RTC_1.c **** 
  25:Generated_Source\PSoC4/RTC_1.c **** uint8  RTC_1_dstStatus;
  26:Generated_Source\PSoC4/RTC_1.c **** static uint32 RTC_1_dstTimeOffset;
  27:Generated_Source\PSoC4/RTC_1.c **** #if(0u != RTC_1_INITIAL_DST_STATUS)
  28:Generated_Source\PSoC4/RTC_1.c ****     static volatile uint64 RTC_1_unixTimeDstStart;
  29:Generated_Source\PSoC4/RTC_1.c ****     static volatile uint64 RTC_1_unixTimeDstStop;
  30:Generated_Source\PSoC4/RTC_1.c ****     RTC_1_DST_TIME RTC_1_dstStartTime;
ARM GAS  C:\Users\austc\AppData\Local\Temp\ccaNEfOM.s 			page 2


  31:Generated_Source\PSoC4/RTC_1.c ****     RTC_1_DST_TIME RTC_1_dstStopTime;
  32:Generated_Source\PSoC4/RTC_1.c **** #endif /* (0u != RTC_1_INITIAL_DST_STATUS) */
  33:Generated_Source\PSoC4/RTC_1.c **** 
  34:Generated_Source\PSoC4/RTC_1.c **** uint32 RTC_1_alarmCurStatus;
  35:Generated_Source\PSoC4/RTC_1.c **** #if(0u != RTC_1_INITIAL_ALARM_STATUS)
  36:Generated_Source\PSoC4/RTC_1.c ****     uint32  RTC_1_alarmCfgMask = 0xFFu;
  37:Generated_Source\PSoC4/RTC_1.c ****     static volatile uint64 RTC_1_unixTimeAlarm;
  38:Generated_Source\PSoC4/RTC_1.c ****     RTC_1_DATE_TIME RTC_1_alarmCfgTimeDate;
  39:Generated_Source\PSoC4/RTC_1.c ****     void (*RTC_1_alarmCallbackPtr)(void) = (void *)0;
  40:Generated_Source\PSoC4/RTC_1.c **** #endif /* (0u != RTC_1_INITIAL_ALARM_STATUS) */
  41:Generated_Source\PSoC4/RTC_1.c **** 
  42:Generated_Source\PSoC4/RTC_1.c **** const uint16 RTC_1_daysBeforeMonthTbl[RTC_1_MONTHS_PER_YEAR] = {
  43:Generated_Source\PSoC4/RTC_1.c ****                                                  (0u), /* JANUARY */
  44:Generated_Source\PSoC4/RTC_1.c ****                                                  (0u + 31u), /* FEBRUARY */
  45:Generated_Source\PSoC4/RTC_1.c ****                                                  (0u + 31u + 28u), /* MARCH */
  46:Generated_Source\PSoC4/RTC_1.c ****                                                  (0u + 31u + 28u + 31u), /* APRIL */
  47:Generated_Source\PSoC4/RTC_1.c ****                                                  (0u + 31u + 28u + 31u + 30u), /* MAY */
  48:Generated_Source\PSoC4/RTC_1.c ****                                                  (0u + 31u + 28u + 31u + 30u + 31u), /* JUNE */
  49:Generated_Source\PSoC4/RTC_1.c ****                                                  (0u + 31u + 28u + 31u + 30u + 31u + 30u), /* JULY 
  50:Generated_Source\PSoC4/RTC_1.c ****                                                  (0u + 31u + 28u + 31u + 30u + 31u + 30u + 31u), /*
  51:Generated_Source\PSoC4/RTC_1.c ****                                                  (0u + 31u + 28u + 31u + 30u + 31u + 30u + 31u + 31
  52:Generated_Source\PSoC4/RTC_1.c ****                                                  (0u + 31u + 28u + 31u + 30u + 31u + 30u + 31u + 31
  53:Generated_Source\PSoC4/RTC_1.c ****                                                  (0u + 31u + 28u + 31u + 30u + 31u + 30u + 31u + 31
  54:Generated_Source\PSoC4/RTC_1.c ****                                                  (0u + 31u + 28u + 31u + 30u + 31u + 30u + 31u + 31
  55:Generated_Source\PSoC4/RTC_1.c **** 
  56:Generated_Source\PSoC4/RTC_1.c **** const uint8 RTC_1_daysInMonthTbl[RTC_1_MONTHS_PER_YEAR] = {RTC_1_DAYS_IN_JANUARY,
  57:Generated_Source\PSoC4/RTC_1.c ****                                                                                  RTC_1_DAYS_IN_FEBR
  58:Generated_Source\PSoC4/RTC_1.c ****                                                                                  RTC_1_DAYS_IN_MARC
  59:Generated_Source\PSoC4/RTC_1.c ****                                                                                  RTC_1_DAYS_IN_APRI
  60:Generated_Source\PSoC4/RTC_1.c ****                                                                                  RTC_1_DAYS_IN_MAY,
  61:Generated_Source\PSoC4/RTC_1.c ****                                                                                  RTC_1_DAYS_IN_JUNE
  62:Generated_Source\PSoC4/RTC_1.c ****                                                                                  RTC_1_DAYS_IN_JULY
  63:Generated_Source\PSoC4/RTC_1.c ****                                                                                  RTC_1_DAYS_IN_AUGU
  64:Generated_Source\PSoC4/RTC_1.c ****                                                                                  RTC_1_DAYS_IN_SEPT
  65:Generated_Source\PSoC4/RTC_1.c ****                                                                                  RTC_1_DAYS_IN_OCTO
  66:Generated_Source\PSoC4/RTC_1.c ****                                                                                  RTC_1_DAYS_IN_NOVE
  67:Generated_Source\PSoC4/RTC_1.c ****                                                                                  RTC_1_DAYS_IN_DECE
  68:Generated_Source\PSoC4/RTC_1.c **** 
  69:Generated_Source\PSoC4/RTC_1.c **** 
  70:Generated_Source\PSoC4/RTC_1.c **** /*******************************************************************************
  71:Generated_Source\PSoC4/RTC_1.c **** * Function Name: RTC_1_Start
  72:Generated_Source\PSoC4/RTC_1.c **** ****************************************************************************//**
  73:Generated_Source\PSoC4/RTC_1.c **** *
  74:Generated_Source\PSoC4/RTC_1.c **** * Performs all the required calculations for the time and date registers and
  75:Generated_Source\PSoC4/RTC_1.c **** * initializes the component along with the date and time selected in the
  76:Generated_Source\PSoC4/RTC_1.c **** * customizer. 
  77:Generated_Source\PSoC4/RTC_1.c **** *
  78:Generated_Source\PSoC4/RTC_1.c **** * If "Implement RTC update manually" is disabled in the customizer
  79:Generated_Source\PSoC4/RTC_1.c **** * and if WDT or DeepSleep timer is selected as a source in the clocks 
  80:Generated_Source\PSoC4/RTC_1.c **** * configuration window (low frequency clocks tab), attaches RTC_Update API to a
  81:Generated_Source\PSoC4/RTC_1.c **** * corresponding ISR callback of WDT or DeepSleep Timer.
  82:Generated_Source\PSoC4/RTC_1.c **** *
  83:Generated_Source\PSoC4/RTC_1.c **** * \note "Implement RTC update manually" checkbox is available for PSoC 4200L / 
  84:Generated_Source\PSoC4/RTC_1.c **** * PSoC 4100M / PSoC 4200M / PSoC 4100 BLE / PSoC 4200 BLE / PSoC 4000S / PSoC 
  85:Generated_Source\PSoC4/RTC_1.c **** * 4100S and Analog Coprocessor.
  86:Generated_Source\PSoC4/RTC_1.c **** *
  87:Generated_Source\PSoC4/RTC_1.c **** *******************************************************************************/
ARM GAS  C:\Users\austc\AppData\Local\Temp\ccaNEfOM.s 			page 3


  88:Generated_Source\PSoC4/RTC_1.c **** void RTC_1_Start(void)
  89:Generated_Source\PSoC4/RTC_1.c **** {
  90:Generated_Source\PSoC4/RTC_1.c ****     if(0u == RTC_1_initVar)
  91:Generated_Source\PSoC4/RTC_1.c ****     {
  92:Generated_Source\PSoC4/RTC_1.c ****         RTC_1_Init();
  93:Generated_Source\PSoC4/RTC_1.c ****     }
  94:Generated_Source\PSoC4/RTC_1.c **** 
  95:Generated_Source\PSoC4/RTC_1.c ****     #if defined(CYDEV_RTC_SOURCE_WDT)
  96:Generated_Source\PSoC4/RTC_1.c ****         #if((0u != CYDEV_WDT_GENERATE_ISR) && (0u == RTC_1_INITIAL_UPDATE_MODE))
  97:Generated_Source\PSoC4/RTC_1.c ****             RTC_1_CySysRtcSetCallback(CYDEV_RTC_SOURCE_WDT);
  98:Generated_Source\PSoC4/RTC_1.c ****         #endif /* ((0u != CYDEV_WDT_GENERATE_ISR) && (0u == RTC_1_INITIAL_UPDATE_MODE)) */
  99:Generated_Source\PSoC4/RTC_1.c ****     #endif /* (CYDEV_RTC_SOURCE_WDT) */
 100:Generated_Source\PSoC4/RTC_1.c **** }
 101:Generated_Source\PSoC4/RTC_1.c **** 
 102:Generated_Source\PSoC4/RTC_1.c **** 
 103:Generated_Source\PSoC4/RTC_1.c **** /*******************************************************************************
 104:Generated_Source\PSoC4/RTC_1.c **** * Function Name: RTC_1_Stop
 105:Generated_Source\PSoC4/RTC_1.c **** ****************************************************************************//**
 106:Generated_Source\PSoC4/RTC_1.c **** *
 107:Generated_Source\PSoC4/RTC_1.c **** * Stops the time and date updates.
 108:Generated_Source\PSoC4/RTC_1.c **** *
 109:Generated_Source\PSoC4/RTC_1.c **** *******************************************************************************/
 110:Generated_Source\PSoC4/RTC_1.c **** void RTC_1_Stop(void)
 111:Generated_Source\PSoC4/RTC_1.c **** {
  28              		.loc 1 111 0
  29              		.cfi_startproc
  30              		@ args = 0, pretend = 0, frame = 0
  31              		@ frame_needed = 0, uses_anonymous_args = 0
  32              		@ link register save eliminated.
 112:Generated_Source\PSoC4/RTC_1.c ****     #if defined(CYDEV_RTC_SOURCE_WDT)
 113:Generated_Source\PSoC4/RTC_1.c ****         #if((0u != CYDEV_WDT_GENERATE_ISR) && (0u == RTC_1_INITIAL_UPDATE_MODE))
 114:Generated_Source\PSoC4/RTC_1.c ****             RTC_1_CySysRtcResetCallback(CYDEV_RTC_SOURCE_WDT);
 115:Generated_Source\PSoC4/RTC_1.c ****         #endif /* ((0u != CYDEV_WDT_GENERATE_ISR) && (0u == RTC_1_INITIAL_UPDATE_MODE)) */
 116:Generated_Source\PSoC4/RTC_1.c ****     #endif /* (CYDEV_RTC_SOURCE_WDT) */
 117:Generated_Source\PSoC4/RTC_1.c **** }
  33              		.loc 1 117 0
  34              		@ sp needed
  35 0000 7047     		bx	lr
  36              		.cfi_endproc
  37              	.LFE29:
  38              		.size	RTC_1_Stop, .-RTC_1_Stop
  39 0002 C046     		.section	.text.RTC_1_GetUnixTime,"ax",%progbits
  40              		.align	2
  41              		.global	RTC_1_GetUnixTime
  42              		.code	16
  43              		.thumb_func
  44              		.type	RTC_1_GetUnixTime, %function
  45              	RTC_1_GetUnixTime:
  46              	.LFB33:
 118:Generated_Source\PSoC4/RTC_1.c **** 
 119:Generated_Source\PSoC4/RTC_1.c **** 
 120:Generated_Source\PSoC4/RTC_1.c **** /*******************************************************************************
 121:Generated_Source\PSoC4/RTC_1.c **** * Function Name: RTC_1_Init
 122:Generated_Source\PSoC4/RTC_1.c **** ****************************************************************************//**
 123:Generated_Source\PSoC4/RTC_1.c **** *
 124:Generated_Source\PSoC4/RTC_1.c **** * Initializes or restores the component according to the customizer Configure
 125:Generated_Source\PSoC4/RTC_1.c **** * dialogue settings.
ARM GAS  C:\Users\austc\AppData\Local\Temp\ccaNEfOM.s 			page 4


 126:Generated_Source\PSoC4/RTC_1.c **** *
 127:Generated_Source\PSoC4/RTC_1.c **** * It is not necessary to call RTC_Init() because RTC_Start() API calls this 
 128:Generated_Source\PSoC4/RTC_1.c **** * function and is the preferred method to begin component operation.
 129:Generated_Source\PSoC4/RTC_1.c **** *
 130:Generated_Source\PSoC4/RTC_1.c **** * All registers are set to values according to the customizer Configure
 131:Generated_Source\PSoC4/RTC_1.c **** * dialogue. The default date value, if not set by the user before this function
 132:Generated_Source\PSoC4/RTC_1.c **** * call, is 12:00:00 AM January 1, 2000.
 133:Generated_Source\PSoC4/RTC_1.c **** *
 134:Generated_Source\PSoC4/RTC_1.c **** *******************************************************************************/
 135:Generated_Source\PSoC4/RTC_1.c **** void RTC_1_Init(void)
 136:Generated_Source\PSoC4/RTC_1.c **** {
 137:Generated_Source\PSoC4/RTC_1.c ****     uint32 tmpDate;
 138:Generated_Source\PSoC4/RTC_1.c ****     uint32 tmpTime;
 139:Generated_Source\PSoC4/RTC_1.c **** 
 140:Generated_Source\PSoC4/RTC_1.c ****     #if(0u != RTC_1_INITIAL_DST_STATUS)
 141:Generated_Source\PSoC4/RTC_1.c ****         RTC_1_DST_TIME dstTimeTmp;
 142:Generated_Source\PSoC4/RTC_1.c ****     #endif /* (0u != RTC_1_INITIAL_DST_STATUS) */
 143:Generated_Source\PSoC4/RTC_1.c **** 
 144:Generated_Source\PSoC4/RTC_1.c ****     RTC_1_initVar = 1u;
 145:Generated_Source\PSoC4/RTC_1.c ****     RTC_1_dstTimeOffset = 0uL;
 146:Generated_Source\PSoC4/RTC_1.c ****     RTC_1_currentTimeDate.status = 0uL;
 147:Generated_Source\PSoC4/RTC_1.c **** 
 148:Generated_Source\PSoC4/RTC_1.c ****     RTC_1_dstStatus      = RTC_1_INITIAL_DST_STATUS;
 149:Generated_Source\PSoC4/RTC_1.c ****     RTC_1_alarmCurStatus = RTC_1_INITIAL_ALARM_STATUS;
 150:Generated_Source\PSoC4/RTC_1.c **** 
 151:Generated_Source\PSoC4/RTC_1.c ****     tmpDate = RTC_1_ConstructDate(RTC_1_INITIAL_MONTH,
 152:Generated_Source\PSoC4/RTC_1.c ****                                              RTC_1_INITIAL_DAY,
 153:Generated_Source\PSoC4/RTC_1.c ****                                              RTC_1_INITIAL_YEAR);
 154:Generated_Source\PSoC4/RTC_1.c **** 
 155:Generated_Source\PSoC4/RTC_1.c ****     tmpTime = RTC_1_ConstructTime(RTC_1_INITIAL_TIME_FORMAT,
 156:Generated_Source\PSoC4/RTC_1.c ****                                              0u,
 157:Generated_Source\PSoC4/RTC_1.c ****                                             RTC_1_INITIAL_HOUR,
 158:Generated_Source\PSoC4/RTC_1.c ****                                             RTC_1_INITIAL_MINUTE,
 159:Generated_Source\PSoC4/RTC_1.c ****                                             RTC_1_INITIAL_SECOND);
 160:Generated_Source\PSoC4/RTC_1.c **** 
 161:Generated_Source\PSoC4/RTC_1.c ****     #if(0u != RTC_1_INITIAL_DST_STATUS)
 162:Generated_Source\PSoC4/RTC_1.c ****         RTC_1_dstStatus = 0u;
 163:Generated_Source\PSoC4/RTC_1.c ****         RTC_1_currentTimeDate.status = (1uL << RTC_1_STATUS_DST_OFFSET);
 164:Generated_Source\PSoC4/RTC_1.c **** 
 165:Generated_Source\PSoC4/RTC_1.c ****         dstTimeTmp.timeFormat    = RTC_1_INITIAL_DST_DATE_TYPE;
 166:Generated_Source\PSoC4/RTC_1.c ****         dstTimeTmp.hour          = RTC_1_INITIAL_DST_START_HRS;
 167:Generated_Source\PSoC4/RTC_1.c ****         dstTimeTmp.dayOfWeek     = RTC_1_INITIAL_DST_START_DOW;
 168:Generated_Source\PSoC4/RTC_1.c ****         dstTimeTmp.weekOfMonth   = RTC_1_INITIAL_DST_START_WOM;
 169:Generated_Source\PSoC4/RTC_1.c ****         dstTimeTmp.dayOfMonth    = RTC_1_INITIAL_DST_START_DOM;
 170:Generated_Source\PSoC4/RTC_1.c ****         dstTimeTmp.month         = RTC_1_INITIAL_DST_START_MONTH;
 171:Generated_Source\PSoC4/RTC_1.c ****         RTC_1_SetDSTStartTime(&dstTimeTmp, 
 172:Generated_Source\PSoC4/RTC_1.c ****                                         (RTC_1_DST_DATETYPE_ENUM)RTC_1_INITIAL_DST_DATE_TYPE);
 173:Generated_Source\PSoC4/RTC_1.c **** 
 174:Generated_Source\PSoC4/RTC_1.c ****         dstTimeTmp.timeFormat    = RTC_1_INITIAL_DST_DATE_TYPE;
 175:Generated_Source\PSoC4/RTC_1.c ****         dstTimeTmp.hour          = RTC_1_INITIAL_DST_STOP_HRS;
 176:Generated_Source\PSoC4/RTC_1.c ****         dstTimeTmp.dayOfWeek     = RTC_1_INITIAL_DST_STOP_DOW;
 177:Generated_Source\PSoC4/RTC_1.c ****         dstTimeTmp.weekOfMonth   = RTC_1_INITIAL_DST_STOP_WOM;
 178:Generated_Source\PSoC4/RTC_1.c ****         dstTimeTmp.dayOfMonth    = RTC_1_INITIAL_DST_STOP_DOM;
 179:Generated_Source\PSoC4/RTC_1.c ****         dstTimeTmp.month         = RTC_1_INITIAL_DST_STOP_MONTH;
 180:Generated_Source\PSoC4/RTC_1.c ****         RTC_1_SetDSTStopTime(&dstTimeTmp, 
 181:Generated_Source\PSoC4/RTC_1.c ****                                        (RTC_1_DST_DATETYPE_ENUM)RTC_1_INITIAL_DST_DATE_TYPE);
 182:Generated_Source\PSoC4/RTC_1.c **** 
ARM GAS  C:\Users\austc\AppData\Local\Temp\ccaNEfOM.s 			page 5


 183:Generated_Source\PSoC4/RTC_1.c ****         RTC_1_unixTimeDstStart = RTC_1_GetDstUnixTime(&RTC_1_dstStartTime);
 184:Generated_Source\PSoC4/RTC_1.c ****         RTC_1_unixTimeDstStop  = RTC_1_GetDstUnixTime(&RTC_1_dstStopTime);
 185:Generated_Source\PSoC4/RTC_1.c **** 
 186:Generated_Source\PSoC4/RTC_1.c ****         if((RTC_1_unixTime >= RTC_1_unixTimeDstStart) &&
 187:Generated_Source\PSoC4/RTC_1.c ****            (RTC_1_unixTime <= RTC_1_unixTimeDstStop))
 188:Generated_Source\PSoC4/RTC_1.c ****         {
 189:Generated_Source\PSoC4/RTC_1.c ****             RTC_1_dstStatus = 1u;
 190:Generated_Source\PSoC4/RTC_1.c ****             RTC_1_dstTimeOffset = RTC_1_SECONDS_PER_HOUR;
 191:Generated_Source\PSoC4/RTC_1.c ****         }
 192:Generated_Source\PSoC4/RTC_1.c ****     #endif /* (0u != RTC_1_INITIAL_DST_STATUS) */
 193:Generated_Source\PSoC4/RTC_1.c **** 
 194:Generated_Source\PSoC4/RTC_1.c ****     RTC_1_SetDateAndTime(tmpTime, tmpDate);
 195:Generated_Source\PSoC4/RTC_1.c **** }
 196:Generated_Source\PSoC4/RTC_1.c **** 
 197:Generated_Source\PSoC4/RTC_1.c **** 
 198:Generated_Source\PSoC4/RTC_1.c **** /*******************************************************************************
 199:Generated_Source\PSoC4/RTC_1.c **** * Function Name: RTC_1_SetDateAndTime
 200:Generated_Source\PSoC4/RTC_1.c **** ****************************************************************************//**
 201:Generated_Source\PSoC4/RTC_1.c **** *
 202:Generated_Source\PSoC4/RTC_1.c **** * Sets the time and date values as the current time and date.
 203:Generated_Source\PSoC4/RTC_1.c **** *
 204:Generated_Source\PSoC4/RTC_1.c **** * \param inputTime
 205:Generated_Source\PSoC4/RTC_1.c **** * The time value in the HH:MM:SS format. <br>
 206:Generated_Source\PSoC4/RTC_1.c **** * "HH"- The 2nd 8-bit MSB that denotes the hour value.
 207:Generated_Source\PSoC4/RTC_1.c **** * (0-23 for the 24-hour format and 1-12 for the 12-hour format. The MSB bit of 
 208:Generated_Source\PSoC4/RTC_1.c **** * the value denotes AM/PM for the 12-hour format (0-AM and 1-PM). <br>
 209:Generated_Source\PSoC4/RTC_1.c **** * "MM" - The 3nd 8-bit MSB denotes the minutes value, the valid 
 210:Generated_Source\PSoC4/RTC_1.c **** * entries -> 0-59.<br>
 211:Generated_Source\PSoC4/RTC_1.c **** * "SS" - The 8-bit LSB denotes the seconds value, the valid entries -> 0-59.
 212:Generated_Source\PSoC4/RTC_1.c **** * Each byte is in the BCD format. Invalid time entries retain the
 213:Generated_Source\PSoC4/RTC_1.c **** * previously set values.
 214:Generated_Source\PSoC4/RTC_1.c **** *
 215:Generated_Source\PSoC4/RTC_1.c **** * \param inputDate
 216:Generated_Source\PSoC4/RTC_1.c **** * The date value in the format selected in the customizer.
 217:Generated_Source\PSoC4/RTC_1.c **** * For the MM/DD/YYYY format: <br>
 218:Generated_Source\PSoC4/RTC_1.c **** * "MM" - The 8-bit MSB denotes the month value in BCD, the valid 
 219:Generated_Source\PSoC4/RTC_1.c **** * entries -> 1-12<br>
 220:Generated_Source\PSoC4/RTC_1.c **** * "DD" - The 2nd 8-bit MSB denotes a day of the month value in BCD, the valid
 221:Generated_Source\PSoC4/RTC_1.c **** * entries -> 1-31.<br>
 222:Generated_Source\PSoC4/RTC_1.c **** * "YYYY" - The 16-bit LSB denotes a year in BCD, the valid entries -> 1900-2200.
 223:Generated_Source\PSoC4/RTC_1.c **** * Each byte is in the BCD format. Invalid date entries retain the
 224:Generated_Source\PSoC4/RTC_1.c **** * previously set values.
 225:Generated_Source\PSoC4/RTC_1.c **** *
 226:Generated_Source\PSoC4/RTC_1.c **** *******************************************************************************/
 227:Generated_Source\PSoC4/RTC_1.c **** void RTC_1_SetDateAndTime(uint32 inputTime, uint32 inputDate)
 228:Generated_Source\PSoC4/RTC_1.c **** {
 229:Generated_Source\PSoC4/RTC_1.c ****     uint32 tmpDay;
 230:Generated_Source\PSoC4/RTC_1.c ****     uint32 tmpMonth;
 231:Generated_Source\PSoC4/RTC_1.c ****     uint32 tmpYear;
 232:Generated_Source\PSoC4/RTC_1.c **** 
 233:Generated_Source\PSoC4/RTC_1.c ****     tmpDay   = RTC_1_GetDay(inputDate);
 234:Generated_Source\PSoC4/RTC_1.c ****     tmpMonth = RTC_1_GetMonth(inputDate);
 235:Generated_Source\PSoC4/RTC_1.c ****     tmpYear  = RTC_1_GetYear(inputDate);
 236:Generated_Source\PSoC4/RTC_1.c **** 
 237:Generated_Source\PSoC4/RTC_1.c ****     RTC_1_unixTime = RTC_1_DateTimeToUnix(inputDate, inputTime);
 238:Generated_Source\PSoC4/RTC_1.c ****     RTC_1_currentTimeDate.date = inputDate;
 239:Generated_Source\PSoC4/RTC_1.c ****     RTC_1_currentTimeDate.time = inputTime;
ARM GAS  C:\Users\austc\AppData\Local\Temp\ccaNEfOM.s 			page 6


 240:Generated_Source\PSoC4/RTC_1.c ****     RTC_1_currentTimeDate.dayOfWeek = RTC_1_GetDayOfWeek(tmpDay, tmpMonth, tmpYear);
 241:Generated_Source\PSoC4/RTC_1.c **** 
 242:Generated_Source\PSoC4/RTC_1.c ****     #if(0u != RTC_1_INITIAL_DST_STATUS)
 243:Generated_Source\PSoC4/RTC_1.c ****         RTC_1_unixTimeDstStart = RTC_1_GetDstUnixTime(&RTC_1_dstStartTime);
 244:Generated_Source\PSoC4/RTC_1.c ****         RTC_1_unixTimeDstStop  = RTC_1_GetDstUnixTime(&RTC_1_dstStopTime);
 245:Generated_Source\PSoC4/RTC_1.c **** 
 246:Generated_Source\PSoC4/RTC_1.c ****         if((RTC_1_unixTime >= RTC_1_unixTimeDstStart) &&
 247:Generated_Source\PSoC4/RTC_1.c ****            (RTC_1_unixTime <= RTC_1_unixTimeDstStop))
 248:Generated_Source\PSoC4/RTC_1.c ****         {
 249:Generated_Source\PSoC4/RTC_1.c ****             RTC_1_dstStatus = 1u;
 250:Generated_Source\PSoC4/RTC_1.c ****             RTC_1_dstTimeOffset = RTC_1_SECONDS_PER_HOUR;
 251:Generated_Source\PSoC4/RTC_1.c ****             RTC_1_unixTime -= RTC_1_dstTimeOffset;
 252:Generated_Source\PSoC4/RTC_1.c ****         }
 253:Generated_Source\PSoC4/RTC_1.c ****         else
 254:Generated_Source\PSoC4/RTC_1.c ****         {
 255:Generated_Source\PSoC4/RTC_1.c ****             RTC_1_dstStatus = 0u;
 256:Generated_Source\PSoC4/RTC_1.c ****             RTC_1_dstTimeOffset = 0uL;
 257:Generated_Source\PSoC4/RTC_1.c ****         }
 258:Generated_Source\PSoC4/RTC_1.c ****     #endif /* (0u != RTC_1_INITIAL_DST_STATUS) */
 259:Generated_Source\PSoC4/RTC_1.c **** 
 260:Generated_Source\PSoC4/RTC_1.c ****     #if(0u != RTC_1_INITIAL_ALARM_STATUS)
 261:Generated_Source\PSoC4/RTC_1.c ****         RTC_1_unixTimeAlarm = RTC_1_ConstructUnixAlarmTime(&RTC_1_alarmCfgTimeDate,
 262:Generated_Source\PSoC4/RTC_1.c ****                                                                                  (uint8)RTC_1_alarm
 263:Generated_Source\PSoC4/RTC_1.c ****     #endif /* (0u != RTC_1_INITIAL_ALARM_STATUS) */
 264:Generated_Source\PSoC4/RTC_1.c **** }
 265:Generated_Source\PSoC4/RTC_1.c **** 
 266:Generated_Source\PSoC4/RTC_1.c **** 
 267:Generated_Source\PSoC4/RTC_1.c **** /*******************************************************************************
 268:Generated_Source\PSoC4/RTC_1.c **** * Function Name: RTC_1_SetUnixTime
 269:Generated_Source\PSoC4/RTC_1.c **** ****************************************************************************//**
 270:Generated_Source\PSoC4/RTC_1.c **** *
 271:Generated_Source\PSoC4/RTC_1.c **** * Sets the time in the Unix/Epoch time format - the number of seconds elapsed
 272:Generated_Source\PSoC4/RTC_1.c **** * from January 1, 1970 UTC 00:00 hrs.
 273:Generated_Source\PSoC4/RTC_1.c **** *
 274:Generated_Source\PSoC4/RTC_1.c **** * \param unixTime
 275:Generated_Source\PSoC4/RTC_1.c **** * The time value in the Unix time/Epoch time format.
 276:Generated_Source\PSoC4/RTC_1.c **** *
 277:Generated_Source\PSoC4/RTC_1.c **** *******************************************************************************/
 278:Generated_Source\PSoC4/RTC_1.c **** void RTC_1_SetUnixTime(uint64 unixTime)
 279:Generated_Source\PSoC4/RTC_1.c **** {
 280:Generated_Source\PSoC4/RTC_1.c ****     RTC_1_DATE_TIME tmpDateTime;
 281:Generated_Source\PSoC4/RTC_1.c **** 
 282:Generated_Source\PSoC4/RTC_1.c ****     RTC_1_unixTime = unixTime;
 283:Generated_Source\PSoC4/RTC_1.c ****     RTC_1_UnixToDateTime(&tmpDateTime, unixTime, (uint32)RTC_1_24_HOURS_FORMAT);
 284:Generated_Source\PSoC4/RTC_1.c **** 
 285:Generated_Source\PSoC4/RTC_1.c ****     #if(0u != RTC_1_INITIAL_DST_STATUS)
 286:Generated_Source\PSoC4/RTC_1.c ****         RTC_1_unixTimeDstStart = RTC_1_GetDstUnixTime(&RTC_1_dstStartTime);
 287:Generated_Source\PSoC4/RTC_1.c ****         RTC_1_unixTimeDstStop  = RTC_1_GetDstUnixTime(&RTC_1_dstStopTime);
 288:Generated_Source\PSoC4/RTC_1.c **** 
 289:Generated_Source\PSoC4/RTC_1.c ****         if((RTC_1_unixTime >= RTC_1_unixTimeDstStart) &&
 290:Generated_Source\PSoC4/RTC_1.c ****            (RTC_1_unixTime <= RTC_1_unixTimeDstStop))
 291:Generated_Source\PSoC4/RTC_1.c ****         {
 292:Generated_Source\PSoC4/RTC_1.c ****             RTC_1_dstStatus = 1u;
 293:Generated_Source\PSoC4/RTC_1.c ****             RTC_1_dstTimeOffset = RTC_1_SECONDS_PER_HOUR;
 294:Generated_Source\PSoC4/RTC_1.c ****         }
 295:Generated_Source\PSoC4/RTC_1.c ****         else
 296:Generated_Source\PSoC4/RTC_1.c ****         {
ARM GAS  C:\Users\austc\AppData\Local\Temp\ccaNEfOM.s 			page 7


 297:Generated_Source\PSoC4/RTC_1.c ****             RTC_1_dstStatus = 0u;
 298:Generated_Source\PSoC4/RTC_1.c ****             RTC_1_dstTimeOffset = 0uL;
 299:Generated_Source\PSoC4/RTC_1.c ****         }
 300:Generated_Source\PSoC4/RTC_1.c ****     #endif /* (0u != RTC_1_INITIAL_DST_STATUS) */
 301:Generated_Source\PSoC4/RTC_1.c **** }
 302:Generated_Source\PSoC4/RTC_1.c **** 
 303:Generated_Source\PSoC4/RTC_1.c **** 
 304:Generated_Source\PSoC4/RTC_1.c **** /*******************************************************************************
 305:Generated_Source\PSoC4/RTC_1.c **** * Function Name: RTC_1_GetUnixTime
 306:Generated_Source\PSoC4/RTC_1.c **** ****************************************************************************//**
 307:Generated_Source\PSoC4/RTC_1.c **** *
 308:Generated_Source\PSoC4/RTC_1.c **** * Returns the time in the Unix/Epoch time format - the number of seconds 
 309:Generated_Source\PSoC4/RTC_1.c **** * elapsed from January 1, 1970 UTC 00:00 hrs.
 310:Generated_Source\PSoC4/RTC_1.c **** *
 311:Generated_Source\PSoC4/RTC_1.c **** * \return
 312:Generated_Source\PSoC4/RTC_1.c **** * Time The time value in the Unix time/Epoch time format.
 313:Generated_Source\PSoC4/RTC_1.c **** *
 314:Generated_Source\PSoC4/RTC_1.c **** *******************************************************************************/
 315:Generated_Source\PSoC4/RTC_1.c **** uint64 RTC_1_GetUnixTime(void)
 316:Generated_Source\PSoC4/RTC_1.c **** {
  47              		.loc 1 316 0
  48              		.cfi_startproc
  49              		@ args = 0, pretend = 0, frame = 0
  50              		@ frame_needed = 0, uses_anonymous_args = 0
  51              		@ link register save eliminated.
 317:Generated_Source\PSoC4/RTC_1.c ****     return (RTC_1_unixTime);
  52              		.loc 1 317 0
  53 0000 014B     		ldr	r3, .L3
  54 0002 1868     		ldr	r0, [r3]
  55 0004 5968     		ldr	r1, [r3, #4]
 318:Generated_Source\PSoC4/RTC_1.c **** }
  56              		.loc 1 318 0
  57              		@ sp needed
  58 0006 7047     		bx	lr
  59              	.L4:
  60              		.align	2
  61              	.L3:
  62 0008 00000000 		.word	RTC_1_unixTime
  63              		.cfi_endproc
  64              	.LFE33:
  65              		.size	RTC_1_GetUnixTime, .-RTC_1_GetUnixTime
  66              		.section	.text.RTC_1_SetPeriod,"ax",%progbits
  67              		.align	2
  68              		.global	RTC_1_SetPeriod
  69              		.code	16
  70              		.thumb_func
  71              		.type	RTC_1_SetPeriod, %function
  72              	RTC_1_SetPeriod:
  73              	.LFB34:
 319:Generated_Source\PSoC4/RTC_1.c **** 
 320:Generated_Source\PSoC4/RTC_1.c **** 
 321:Generated_Source\PSoC4/RTC_1.c **** /*******************************************************************************
 322:Generated_Source\PSoC4/RTC_1.c **** * Function Name: RTC_1_SetPeriod
 323:Generated_Source\PSoC4/RTC_1.c **** ****************************************************************************//**
 324:Generated_Source\PSoC4/RTC_1.c **** *
 325:Generated_Source\PSoC4/RTC_1.c **** * Sets the RTC time update API period.
 326:Generated_Source\PSoC4/RTC_1.c **** *
ARM GAS  C:\Users\austc\AppData\Local\Temp\ccaNEfOM.s 			page 8


 327:Generated_Source\PSoC4/RTC_1.c **** * The user needs to pass the period as
 328:Generated_Source\PSoC4/RTC_1.c **** * a number of ticks and also a reference number of ticks taken by the same 
 329:Generated_Source\PSoC4/RTC_1.c **** * clock source for one second. For instance, for a 32 kHz clock source and RTC
 330:Generated_Source\PSoC4/RTC_1.c **** * period of 100 ms, the "ticks" value is 3200 and the "refOneSecTicks" value
 331:Generated_Source\PSoC4/RTC_1.c **** * is 32000. This value is used to increment the time every time
 332:Generated_Source\PSoC4/RTC_1.c **** * RTC_1_Update() API is called.
 333:Generated_Source\PSoC4/RTC_1.c **** *
 334:Generated_Source\PSoC4/RTC_1.c **** * \param ticks
 335:Generated_Source\PSoC4/RTC_1.c **** * The clock period taken as a number of ticks.
 336:Generated_Source\PSoC4/RTC_1.c **** *
 337:Generated_Source\PSoC4/RTC_1.c **** * \param refOneSecTicks
 338:Generated_Source\PSoC4/RTC_1.c **** * The reference number of ticks taken by the same clock source
 339:Generated_Source\PSoC4/RTC_1.c **** * for one second (the input clock frequency in Hz).
 340:Generated_Source\PSoC4/RTC_1.c **** *
 341:Generated_Source\PSoC4/RTC_1.c **** *******************************************************************************/
 342:Generated_Source\PSoC4/RTC_1.c **** void RTC_1_SetPeriod(uint32 ticks, uint32 refOneSecTicks)
 343:Generated_Source\PSoC4/RTC_1.c **** {
  74              		.loc 1 343 0
  75              		.cfi_startproc
  76              		@ args = 0, pretend = 0, frame = 0
  77              		@ frame_needed = 0, uses_anonymous_args = 0
  78              		@ link register save eliminated.
  79              	.LVL0:
 344:Generated_Source\PSoC4/RTC_1.c ****     RTC_1_updateTimePeriod = ticks;
  80              		.loc 1 344 0
  81 0000 014B     		ldr	r3, .L6
  82 0002 1860     		str	r0, [r3]
 345:Generated_Source\PSoC4/RTC_1.c ****     RTC_1_tickRefOneSec    = refOneSecTicks;
  83              		.loc 1 345 0
  84 0004 5960     		str	r1, [r3, #4]
 346:Generated_Source\PSoC4/RTC_1.c **** }
  85              		.loc 1 346 0
  86              		@ sp needed
  87 0006 7047     		bx	lr
  88              	.L7:
  89              		.align	2
  90              	.L6:
  91 0008 00000000 		.word	.LANCHOR0
  92              		.cfi_endproc
  93              	.LFE34:
  94              		.size	RTC_1_SetPeriod, .-RTC_1_SetPeriod
  95              		.section	.text.RTC_1_GetPeriod,"ax",%progbits
  96              		.align	2
  97              		.global	RTC_1_GetPeriod
  98              		.code	16
  99              		.thumb_func
 100              		.type	RTC_1_GetPeriod, %function
 101              	RTC_1_GetPeriod:
 102              	.LFB35:
 347:Generated_Source\PSoC4/RTC_1.c **** 
 348:Generated_Source\PSoC4/RTC_1.c **** 
 349:Generated_Source\PSoC4/RTC_1.c **** /*******************************************************************************
 350:Generated_Source\PSoC4/RTC_1.c **** * Function Name: RTC_1_SetPeriod
 351:Generated_Source\PSoC4/RTC_1.c **** ****************************************************************************//**
 352:Generated_Source\PSoC4/RTC_1.c **** *
 353:Generated_Source\PSoC4/RTC_1.c **** * Gets the RTC time update API period.
 354:Generated_Source\PSoC4/RTC_1.c **** *
ARM GAS  C:\Users\austc\AppData\Local\Temp\ccaNEfOM.s 			page 9


 355:Generated_Source\PSoC4/RTC_1.c **** * \return
 356:Generated_Source\PSoC4/RTC_1.c **** * Period The clock period taken as a number of ticks.
 357:Generated_Source\PSoC4/RTC_1.c **** *
 358:Generated_Source\PSoC4/RTC_1.c **** *******************************************************************************/
 359:Generated_Source\PSoC4/RTC_1.c **** uint32 RTC_1_GetPeriod(void)
 360:Generated_Source\PSoC4/RTC_1.c **** {
 103              		.loc 1 360 0
 104              		.cfi_startproc
 105              		@ args = 0, pretend = 0, frame = 0
 106              		@ frame_needed = 0, uses_anonymous_args = 0
 107              		@ link register save eliminated.
 361:Generated_Source\PSoC4/RTC_1.c ****     return(RTC_1_updateTimePeriod);
 108              		.loc 1 361 0
 109 0000 014B     		ldr	r3, .L9
 110 0002 1868     		ldr	r0, [r3]
 362:Generated_Source\PSoC4/RTC_1.c **** }
 111              		.loc 1 362 0
 112              		@ sp needed
 113 0004 7047     		bx	lr
 114              	.L10:
 115 0006 C046     		.align	2
 116              	.L9:
 117 0008 00000000 		.word	.LANCHOR0
 118              		.cfi_endproc
 119              	.LFE35:
 120              		.size	RTC_1_GetPeriod, .-RTC_1_GetPeriod
 121              		.section	.text.RTC_1_GetRefOneSec,"ax",%progbits
 122              		.align	2
 123              		.global	RTC_1_GetRefOneSec
 124              		.code	16
 125              		.thumb_func
 126              		.type	RTC_1_GetRefOneSec, %function
 127              	RTC_1_GetRefOneSec:
 128              	.LFB36:
 363:Generated_Source\PSoC4/RTC_1.c **** 
 364:Generated_Source\PSoC4/RTC_1.c **** 
 365:Generated_Source\PSoC4/RTC_1.c **** /*******************************************************************************
 366:Generated_Source\PSoC4/RTC_1.c **** * Function Name: RTC_1_GetRefOneSec
 367:Generated_Source\PSoC4/RTC_1.c **** ****************************************************************************//**
 368:Generated_Source\PSoC4/RTC_1.c **** *
 369:Generated_Source\PSoC4/RTC_1.c **** * Gets the RTC time update API period.
 370:Generated_Source\PSoC4/RTC_1.c **** *
 371:Generated_Source\PSoC4/RTC_1.c **** * \return
 372:Generated_Source\PSoC4/RTC_1.c **** * Period The reference number of ticks taken by the RTC clock source for one
 373:Generated_Source\PSoC4/RTC_1.c **** * second.
 374:Generated_Source\PSoC4/RTC_1.c **** *
 375:Generated_Source\PSoC4/RTC_1.c **** *******************************************************************************/
 376:Generated_Source\PSoC4/RTC_1.c **** uint32 RTC_1_GetRefOneSec(void)
 377:Generated_Source\PSoC4/RTC_1.c **** {
 129              		.loc 1 377 0
 130              		.cfi_startproc
 131              		@ args = 0, pretend = 0, frame = 0
 132              		@ frame_needed = 0, uses_anonymous_args = 0
 133              		@ link register save eliminated.
 378:Generated_Source\PSoC4/RTC_1.c ****     return(RTC_1_tickRefOneSec);
 134              		.loc 1 378 0
 135 0000 014B     		ldr	r3, .L12
ARM GAS  C:\Users\austc\AppData\Local\Temp\ccaNEfOM.s 			page 10


 136 0002 5868     		ldr	r0, [r3, #4]
 379:Generated_Source\PSoC4/RTC_1.c **** }
 137              		.loc 1 379 0
 138              		@ sp needed
 139 0004 7047     		bx	lr
 140              	.L13:
 141 0006 C046     		.align	2
 142              	.L12:
 143 0008 00000000 		.word	.LANCHOR0
 144              		.cfi_endproc
 145              	.LFE36:
 146              		.size	RTC_1_GetRefOneSec, .-RTC_1_GetRefOneSec
 147              		.section	.text.RTC_1_ConvertBCDToDec,"ax",%progbits
 148              		.align	2
 149              		.global	RTC_1_ConvertBCDToDec
 150              		.code	16
 151              		.thumb_func
 152              		.type	RTC_1_ConvertBCDToDec, %function
 153              	RTC_1_ConvertBCDToDec:
 154              	.LFB41:
 380:Generated_Source\PSoC4/RTC_1.c **** 
 381:Generated_Source\PSoC4/RTC_1.c **** 
 382:Generated_Source\PSoC4/RTC_1.c **** /*******************************************************************************
 383:Generated_Source\PSoC4/RTC_1.c **** * Function Name: RTC_1_GetDateAndTime
 384:Generated_Source\PSoC4/RTC_1.c **** ****************************************************************************//**
 385:Generated_Source\PSoC4/RTC_1.c **** *
 386:Generated_Source\PSoC4/RTC_1.c **** * Reads the current time and date.
 387:Generated_Source\PSoC4/RTC_1.c **** *
 388:Generated_Source\PSoC4/RTC_1.c **** * \param dateTime
 389:Generated_Source\PSoC4/RTC_1.c **** * The pointer to the RTC_date_time structure to which time and date is returned.
 390:Generated_Source\PSoC4/RTC_1.c **** *
 391:Generated_Source\PSoC4/RTC_1.c **** *******************************************************************************/
 392:Generated_Source\PSoC4/RTC_1.c **** void RTC_1_GetDateAndTime(RTC_1_DATE_TIME* dateTime)
 393:Generated_Source\PSoC4/RTC_1.c **** {
 394:Generated_Source\PSoC4/RTC_1.c ****     RTC_1_UnixToDateTime(dateTime, (RTC_1_unixTime  + RTC_1_dstTimeOffset),
 395:Generated_Source\PSoC4/RTC_1.c ****                                                                             RTC_1_INITIAL_TIME_FORM
 396:Generated_Source\PSoC4/RTC_1.c **** }
 397:Generated_Source\PSoC4/RTC_1.c **** 
 398:Generated_Source\PSoC4/RTC_1.c **** 
 399:Generated_Source\PSoC4/RTC_1.c **** /*******************************************************************************
 400:Generated_Source\PSoC4/RTC_1.c **** * Function Name: RTC_1_GetTime
 401:Generated_Source\PSoC4/RTC_1.c **** ****************************************************************************//**
 402:Generated_Source\PSoC4/RTC_1.c **** *
 403:Generated_Source\PSoC4/RTC_1.c **** * Reads the current time.
 404:Generated_Source\PSoC4/RTC_1.c **** *
 405:Generated_Source\PSoC4/RTC_1.c **** * \return
 406:Generated_Source\PSoC4/RTC_1.c **** * time The time value in the format selected by the user (12/24 hr);
 407:Generated_Source\PSoC4/RTC_1.c **** * The time value is available in the BCD format.
 408:Generated_Source\PSoC4/RTC_1.c **** *
 409:Generated_Source\PSoC4/RTC_1.c **** * \warning
 410:Generated_Source\PSoC4/RTC_1.c **** * Using RTC_1_GetTime and RTC_GetDate API separately might result
 411:Generated_Source\PSoC4/RTC_1.c **** * in errors when the time wraps around the end of the day. To avoid this,
 412:Generated_Source\PSoC4/RTC_1.c **** * use RTC_1_GetDateAndTime API.
 413:Generated_Source\PSoC4/RTC_1.c **** *
 414:Generated_Source\PSoC4/RTC_1.c **** *******************************************************************************/
 415:Generated_Source\PSoC4/RTC_1.c **** uint32 RTC_1_GetTime(void)
 416:Generated_Source\PSoC4/RTC_1.c **** {
ARM GAS  C:\Users\austc\AppData\Local\Temp\ccaNEfOM.s 			page 11


 417:Generated_Source\PSoC4/RTC_1.c ****     RTC_1_UnixToDateTime(&RTC_1_currentTimeDate,
 418:Generated_Source\PSoC4/RTC_1.c ****                                     (RTC_1_unixTime  + RTC_1_dstTimeOffset),
 419:Generated_Source\PSoC4/RTC_1.c ****                                      RTC_1_INITIAL_TIME_FORMAT);
 420:Generated_Source\PSoC4/RTC_1.c **** 
 421:Generated_Source\PSoC4/RTC_1.c ****     return(RTC_1_currentTimeDate.time);
 422:Generated_Source\PSoC4/RTC_1.c **** }
 423:Generated_Source\PSoC4/RTC_1.c **** 
 424:Generated_Source\PSoC4/RTC_1.c **** 
 425:Generated_Source\PSoC4/RTC_1.c **** /*******************************************************************************
 426:Generated_Source\PSoC4/RTC_1.c **** * Function Name: RTC_1_GetDate
 427:Generated_Source\PSoC4/RTC_1.c **** ****************************************************************************//**
 428:Generated_Source\PSoC4/RTC_1.c **** *
 429:Generated_Source\PSoC4/RTC_1.c **** * Reads the current date.
 430:Generated_Source\PSoC4/RTC_1.c **** *
 431:Generated_Source\PSoC4/RTC_1.c **** * \return
 432:Generated_Source\PSoC4/RTC_1.c **** * date The value of date in the user selected format. The date value is 
 433:Generated_Source\PSoC4/RTC_1.c **** * available in the BCD format.
 434:Generated_Source\PSoC4/RTC_1.c **** *
 435:Generated_Source\PSoC4/RTC_1.c **** * \note
 436:Generated_Source\PSoC4/RTC_1.c **** * Using RTC_1_GetTime and RTC_1_GetDate API separately
 437:Generated_Source\PSoC4/RTC_1.c **** * might result in errors when the time wraps around the end of the day. To
 438:Generated_Source\PSoC4/RTC_1.c **** * avoid this, use RTC_1_GetDateAndTime API.
 439:Generated_Source\PSoC4/RTC_1.c **** *
 440:Generated_Source\PSoC4/RTC_1.c **** *******************************************************************************/
 441:Generated_Source\PSoC4/RTC_1.c **** uint32 RTC_1_GetDate(void)
 442:Generated_Source\PSoC4/RTC_1.c **** {
 443:Generated_Source\PSoC4/RTC_1.c ****     RTC_1_UnixToDateTime(&RTC_1_currentTimeDate,
 444:Generated_Source\PSoC4/RTC_1.c ****                                     (RTC_1_unixTime  + RTC_1_dstTimeOffset),
 445:Generated_Source\PSoC4/RTC_1.c ****                                      RTC_1_INITIAL_TIME_FORMAT);
 446:Generated_Source\PSoC4/RTC_1.c **** 
 447:Generated_Source\PSoC4/RTC_1.c ****     return(RTC_1_currentTimeDate.date);
 448:Generated_Source\PSoC4/RTC_1.c **** }
 449:Generated_Source\PSoC4/RTC_1.c **** 
 450:Generated_Source\PSoC4/RTC_1.c **** 
 451:Generated_Source\PSoC4/RTC_1.c **** #if(0u != RTC_1_INITIAL_ALARM_STATUS)
 452:Generated_Source\PSoC4/RTC_1.c ****     /*******************************************************************************
 453:Generated_Source\PSoC4/RTC_1.c ****     * Function Name: RTC_1_SetAlarmDateAndTime
 454:Generated_Source\PSoC4/RTC_1.c ****     ****************************************************************************//**
 455:Generated_Source\PSoC4/RTC_1.c ****     *
 456:Generated_Source\PSoC4/RTC_1.c ****     * Writes the time and date values as the current alarm time and date.
 457:Generated_Source\PSoC4/RTC_1.c ****     *
 458:Generated_Source\PSoC4/RTC_1.c ****     * \param alarmTime
 459:Generated_Source\PSoC4/RTC_1.c ****     * The pointer to the RTC_1_date_time global structure 
 460:Generated_Source\PSoC4/RTC_1.c ****     * where new values of the alarm time and date are stored, 
 461:Generated_Source\PSoC4/RTC_1.c ****     * see \ref RTC_1_DATE_TIME.
 462:Generated_Source\PSoC4/RTC_1.c ****     *
 463:Generated_Source\PSoC4/RTC_1.c ****     * \note
 464:Generated_Source\PSoC4/RTC_1.c ****     * Invalid time entries are written with "00:00:00:00" for the 24-hour format 
 465:Generated_Source\PSoC4/RTC_1.c ****     * and "AM 12:00:00:00" for the 12-hour format. Invalid date entries are 
 466:Generated_Source\PSoC4/RTC_1.c ****     * written with a date equivalent to 01-JAN-2000.
 467:Generated_Source\PSoC4/RTC_1.c ****     *
 468:Generated_Source\PSoC4/RTC_1.c ****     *******************************************************************************/
 469:Generated_Source\PSoC4/RTC_1.c ****     void RTC_1_SetAlarmDateAndTime(const RTC_1_DATE_TIME* alarmTime)
 470:Generated_Source\PSoC4/RTC_1.c ****     {
 471:Generated_Source\PSoC4/RTC_1.c ****         RTC_1_alarmCfgTimeDate = *alarmTime;
 472:Generated_Source\PSoC4/RTC_1.c ****         RTC_1_unixTimeAlarm = 
 473:Generated_Source\PSoC4/RTC_1.c ****         RTC_1_ConstructUnixAlarmTime(alarmTime, (uint8)RTC_1_alarmCfgMask);
ARM GAS  C:\Users\austc\AppData\Local\Temp\ccaNEfOM.s 			page 12


 474:Generated_Source\PSoC4/RTC_1.c ****     }
 475:Generated_Source\PSoC4/RTC_1.c **** 
 476:Generated_Source\PSoC4/RTC_1.c **** 
 477:Generated_Source\PSoC4/RTC_1.c ****     /*******************************************************************************
 478:Generated_Source\PSoC4/RTC_1.c ****     * Function Name: RTC_1_GetAlarmDateAndTime
 479:Generated_Source\PSoC4/RTC_1.c ****     ****************************************************************************//**
 480:Generated_Source\PSoC4/RTC_1.c ****     *
 481:Generated_Source\PSoC4/RTC_1.c ****     * Reads the current alarm time and date.
 482:Generated_Source\PSoC4/RTC_1.c ****     *
 483:Generated_Source\PSoC4/RTC_1.c ****     * \param alarmTimeDate
 484:Generated_Source\PSoC4/RTC_1.c ****     * The pointer to the RTC_1_date_time structure to which the alarm 
 485:Generated_Source\PSoC4/RTC_1.c ****     * date and time are returned, see \ref RTC_1_DATE_TIME.
 486:Generated_Source\PSoC4/RTC_1.c ****     *
 487:Generated_Source\PSoC4/RTC_1.c ****     *******************************************************************************/
 488:Generated_Source\PSoC4/RTC_1.c ****     void RTC_1_GetAlarmDateAndTime(RTC_1_DATE_TIME* alarmTimeDate)
 489:Generated_Source\PSoC4/RTC_1.c ****     {
 490:Generated_Source\PSoC4/RTC_1.c ****         *alarmTimeDate = RTC_1_alarmCfgTimeDate;
 491:Generated_Source\PSoC4/RTC_1.c ****     }
 492:Generated_Source\PSoC4/RTC_1.c **** 
 493:Generated_Source\PSoC4/RTC_1.c **** 
 494:Generated_Source\PSoC4/RTC_1.c ****     /*******************************************************************************
 495:Generated_Source\PSoC4/RTC_1.c ****     * Function Name: RTC_1_SetAlarmMask
 496:Generated_Source\PSoC4/RTC_1.c ****     ****************************************************************************//**
 497:Generated_Source\PSoC4/RTC_1.c ****     *
 498:Generated_Source\PSoC4/RTC_1.c ****     * Writes the Alarm Mask software register with one bit per time/date entry.
 499:Generated_Source\PSoC4/RTC_1.c ****     * The alarm is true when all masked time/date values match the Alarm values.
 500:Generated_Source\PSoC4/RTC_1.c ****     * Generated only if the alarm functionality is enabled.
 501:Generated_Source\PSoC4/RTC_1.c ****     *
 502:Generated_Source\PSoC4/RTC_1.c ****     * \param mask
 503:Generated_Source\PSoC4/RTC_1.c ****     * The Alarm Mask software register value. The values shown below can be
 504:Generated_Source\PSoC4/RTC_1.c ****     * OR'ed and passed as an argument as well, see \ref group_rtc_alarm_mask.
 505:Generated_Source\PSoC4/RTC_1.c ****     *
 506:Generated_Source\PSoC4/RTC_1.c ****     *******************************************************************************/
 507:Generated_Source\PSoC4/RTC_1.c ****     void RTC_1_SetAlarmMask(uint32 mask)
 508:Generated_Source\PSoC4/RTC_1.c ****     {
 509:Generated_Source\PSoC4/RTC_1.c ****         RTC_1_alarmCfgMask = (uint8)mask;
 510:Generated_Source\PSoC4/RTC_1.c ****         RTC_1_unixTimeAlarm = 
 511:Generated_Source\PSoC4/RTC_1.c ****         RTC_1_ConstructUnixAlarmTime(&RTC_1_alarmCfgTimeDate, (uint8)mask);
 512:Generated_Source\PSoC4/RTC_1.c ****     }
 513:Generated_Source\PSoC4/RTC_1.c **** 
 514:Generated_Source\PSoC4/RTC_1.c **** 
 515:Generated_Source\PSoC4/RTC_1.c ****     /*******************************************************************************
 516:Generated_Source\PSoC4/RTC_1.c ****     * Function Name: RTC_1_GetAlarmMask
 517:Generated_Source\PSoC4/RTC_1.c ****     ****************************************************************************//**
 518:Generated_Source\PSoC4/RTC_1.c ****     *
 519:Generated_Source\PSoC4/RTC_1.c ****     * Reads the Alarm Mask software register. Generated only if the alarm 
 520:Generated_Source\PSoC4/RTC_1.c ****     * functionality is enabled, see \ref group_rtc_alarm_mask.
 521:Generated_Source\PSoC4/RTC_1.c ****     *
 522:Generated_Source\PSoC4/RTC_1.c ****     *******************************************************************************/
 523:Generated_Source\PSoC4/RTC_1.c ****     uint32 RTC_1_GetAlarmMask(void)
 524:Generated_Source\PSoC4/RTC_1.c ****     {
 525:Generated_Source\PSoC4/RTC_1.c ****         return((uint32)RTC_1_alarmCfgMask);
 526:Generated_Source\PSoC4/RTC_1.c ****     }
 527:Generated_Source\PSoC4/RTC_1.c **** 
 528:Generated_Source\PSoC4/RTC_1.c **** 
 529:Generated_Source\PSoC4/RTC_1.c ****     /*******************************************************************************
 530:Generated_Source\PSoC4/RTC_1.c ****     * Function Name: RTC_1_GetAlarmStatus
ARM GAS  C:\Users\austc\AppData\Local\Temp\ccaNEfOM.s 			page 13


 531:Generated_Source\PSoC4/RTC_1.c ****     ****************************************************************************//**
 532:Generated_Source\PSoC4/RTC_1.c ****     *
 533:Generated_Source\PSoC4/RTC_1.c ****     *  Returns the alarm status of RTC.
 534:Generated_Source\PSoC4/RTC_1.c ****     *
 535:Generated_Source\PSoC4/RTC_1.c ****     * \return
 536:Generated_Source\PSoC4/RTC_1.c ****     * The Alarm active status. This bit is high when the current time and date 
 537:Generated_Source\PSoC4/RTC_1.c ****     * match the alarm time and date. <br>
 538:Generated_Source\PSoC4/RTC_1.c ****     * 0 - The Alarm status is not active <br>
 539:Generated_Source\PSoC4/RTC_1.c ****     * 1 - The Alarm status is active.
 540:Generated_Source\PSoC4/RTC_1.c ****     *
 541:Generated_Source\PSoC4/RTC_1.c ****     *******************************************************************************/
 542:Generated_Source\PSoC4/RTC_1.c ****     uint32 RTC_1_GetAlarmStatus(void)
 543:Generated_Source\PSoC4/RTC_1.c ****     {
 544:Generated_Source\PSoC4/RTC_1.c ****         return((0uL != (RTC_1_currentTimeDate.status & (1uL << RTC_1_STATUS_ALARM_OFFSET))) ?
 545:Generated_Source\PSoC4/RTC_1.c ****                 1uL : 
 546:Generated_Source\PSoC4/RTC_1.c ****                 0uL);
 547:Generated_Source\PSoC4/RTC_1.c ****     }
 548:Generated_Source\PSoC4/RTC_1.c **** 
 549:Generated_Source\PSoC4/RTC_1.c **** 
 550:Generated_Source\PSoC4/RTC_1.c ****     /*******************************************************************************
 551:Generated_Source\PSoC4/RTC_1.c ****     * Function Name: RTC_1_ClearAlarmStatus
 552:Generated_Source\PSoC4/RTC_1.c ****     ****************************************************************************//**
 553:Generated_Source\PSoC4/RTC_1.c ****     *
 554:Generated_Source\PSoC4/RTC_1.c ****     *  Clears the alarm status of RTC.
 555:Generated_Source\PSoC4/RTC_1.c ****     *
 556:Generated_Source\PSoC4/RTC_1.c ****     * \note
 557:Generated_Source\PSoC4/RTC_1.c ****     * The Alarm active (AA) flag clears after read. This bit will be set in the next
 558:Generated_Source\PSoC4/RTC_1.c ****     * alarm match event only. If Alarm is set on only minutes and the alarm
 559:Generated_Source\PSoC4/RTC_1.c ****     * minutes is 20 minutes - the alarm triggers once every 20th minute of
 560:Generated_Source\PSoC4/RTC_1.c ****     * every hour.
 561:Generated_Source\PSoC4/RTC_1.c ****     *
 562:Generated_Source\PSoC4/RTC_1.c ****     *******************************************************************************/
 563:Generated_Source\PSoC4/RTC_1.c ****     void RTC_1_ClearAlarmStatus(void)
 564:Generated_Source\PSoC4/RTC_1.c ****     {
 565:Generated_Source\PSoC4/RTC_1.c ****         RTC_1_currentTimeDate.status &= (~(1uL << RTC_1_STATUS_ALARM_OFFSET));
 566:Generated_Source\PSoC4/RTC_1.c ****         RTC_1_alarmCurStatus = 0u;
 567:Generated_Source\PSoC4/RTC_1.c ****     }
 568:Generated_Source\PSoC4/RTC_1.c **** 
 569:Generated_Source\PSoC4/RTC_1.c **** 
 570:Generated_Source\PSoC4/RTC_1.c ****     /*******************************************************************************
 571:Generated_Source\PSoC4/RTC_1.c ****     * Function Name: RTC_1_SetAlarmHandler
 572:Generated_Source\PSoC4/RTC_1.c ****     ****************************************************************************//**
 573:Generated_Source\PSoC4/RTC_1.c ****     *
 574:Generated_Source\PSoC4/RTC_1.c ****     *  This API sets the function to be called when the alarm goes off / triggers.
 575:Generated_Source\PSoC4/RTC_1.c ****     *  This API is generated only if the alarm functionality is enabled in the
 576:Generated_Source\PSoC4/RTC_1.c ****     *  customizer.
 577:Generated_Source\PSoC4/RTC_1.c ****     *
 578:Generated_Source\PSoC4/RTC_1.c ****     * \param CallbackFunction
 579:Generated_Source\PSoC4/RTC_1.c ****     * The callback function address.
 580:Generated_Source\PSoC4/RTC_1.c ****     *
 581:Generated_Source\PSoC4/RTC_1.c ****     * \return
 582:Generated_Source\PSoC4/RTC_1.c ****     * A previous callback function address.
 583:Generated_Source\PSoC4/RTC_1.c ****     *
 584:Generated_Source\PSoC4/RTC_1.c ****     *******************************************************************************/
 585:Generated_Source\PSoC4/RTC_1.c ****     void* RTC_1_SetAlarmHandler(void (*CallbackFunction)(void))
 586:Generated_Source\PSoC4/RTC_1.c ****     {
 587:Generated_Source\PSoC4/RTC_1.c ****         void (*tmpCallbackPtr)(void);
ARM GAS  C:\Users\austc\AppData\Local\Temp\ccaNEfOM.s 			page 14


 588:Generated_Source\PSoC4/RTC_1.c **** 
 589:Generated_Source\PSoC4/RTC_1.c ****         tmpCallbackPtr = RTC_1_alarmCallbackPtr;
 590:Generated_Source\PSoC4/RTC_1.c ****         RTC_1_alarmCallbackPtr = CallbackFunction;
 591:Generated_Source\PSoC4/RTC_1.c **** 
 592:Generated_Source\PSoC4/RTC_1.c ****         return((void*)tmpCallbackPtr);
 593:Generated_Source\PSoC4/RTC_1.c ****     }
 594:Generated_Source\PSoC4/RTC_1.c **** 
 595:Generated_Source\PSoC4/RTC_1.c **** 
 596:Generated_Source\PSoC4/RTC_1.c ****     /*******************************************************************************
 597:Generated_Source\PSoC4/RTC_1.c ****     * Function Name: RTC_1_GetNexAlarmTime
 598:Generated_Source\PSoC4/RTC_1.c ****     ****************************************************************************//**
 599:Generated_Source\PSoC4/RTC_1.c ****     *
 600:Generated_Source\PSoC4/RTC_1.c ****     *  This is an internal function that calculates the time of the next alarm
 601:Generated_Source\PSoC4/RTC_1.c ****     *  in the UNIX format taking into account the current "Alarm Config Mask".
 602:Generated_Source\PSoC4/RTC_1.c ****     *
 603:Generated_Source\PSoC4/RTC_1.c ****     * \param curUnixTime
 604:Generated_Source\PSoC4/RTC_1.c ****     * The current time value in the UNIX format.
 605:Generated_Source\PSoC4/RTC_1.c ****     *
 606:Generated_Source\PSoC4/RTC_1.c ****     * \param alarmCfgMask
 607:Generated_Source\PSoC4/RTC_1.c ****     * The current Alarm Config Mask.
 608:Generated_Source\PSoC4/RTC_1.c ****     *
 609:Generated_Source\PSoC4/RTC_1.c ****     * \return
 610:Generated_Source\PSoC4/RTC_1.c ****     * Returns time of the next alarm in the UNIX format.
 611:Generated_Source\PSoC4/RTC_1.c ****     *
 612:Generated_Source\PSoC4/RTC_1.c ****     *******************************************************************************/
 613:Generated_Source\PSoC4/RTC_1.c ****     uint64 RTC_1_GetNexAlarmTime(uint64 curUnixTime, uint8 alarmCfgMask)
 614:Generated_Source\PSoC4/RTC_1.c ****     {
 615:Generated_Source\PSoC4/RTC_1.c ****         uint32 prevVal;
 616:Generated_Source\PSoC4/RTC_1.c ****         uint32 nextVal;
 617:Generated_Source\PSoC4/RTC_1.c ****         uint32 carryFlag;
 618:Generated_Source\PSoC4/RTC_1.c ****         uint32 daysInMonth;
 619:Generated_Source\PSoC4/RTC_1.c ****         RTC_1_DATE_TIME curDateTime;
 620:Generated_Source\PSoC4/RTC_1.c **** 
 621:Generated_Source\PSoC4/RTC_1.c ****         carryFlag = 1u;
 622:Generated_Source\PSoC4/RTC_1.c ****         RTC_1_UnixToDateTime(&curDateTime, curUnixTime, (uint32)RTC_1_24_HOURS_FORMAT);
 623:Generated_Source\PSoC4/RTC_1.c **** 
 624:Generated_Source\PSoC4/RTC_1.c ****         /* Calculates Second value of next alarm time based on current time and Alarm Config Mask *
 625:Generated_Source\PSoC4/RTC_1.c ****         if(0uL != ((~((uint32)alarmCfgMask)) & RTC_1_ALARM_SEC_MASK))
 626:Generated_Source\PSoC4/RTC_1.c ****         {
 627:Generated_Source\PSoC4/RTC_1.c ****             prevVal = RTC_1_GetSecond(curDateTime.time);
 628:Generated_Source\PSoC4/RTC_1.c ****             nextVal = RTC_1_GetNextMinSec(prevVal);
 629:Generated_Source\PSoC4/RTC_1.c ****             curDateTime.time = RTC_1_SetSecond(curDateTime.time, nextVal);
 630:Generated_Source\PSoC4/RTC_1.c ****             carryFlag = (nextVal < prevVal) ? 1u : 0u;
 631:Generated_Source\PSoC4/RTC_1.c ****         }
 632:Generated_Source\PSoC4/RTC_1.c **** 
 633:Generated_Source\PSoC4/RTC_1.c ****         /* Calculates Minute value of next alarm time based on current time and Alarm Config Mask *
 634:Generated_Source\PSoC4/RTC_1.c ****         if((0uL != carryFlag) && (0uL != ((~((uint32)alarmCfgMask)) & RTC_1_ALARM_MIN_MASK)))
 635:Generated_Source\PSoC4/RTC_1.c ****         {
 636:Generated_Source\PSoC4/RTC_1.c ****             prevVal = RTC_1_GetMinutes(curDateTime.time);
 637:Generated_Source\PSoC4/RTC_1.c ****             nextVal = RTC_1_GetNextMinSec(prevVal);
 638:Generated_Source\PSoC4/RTC_1.c ****             curDateTime.time = RTC_1_SetMinutes(curDateTime.time, nextVal);
 639:Generated_Source\PSoC4/RTC_1.c ****             carryFlag = (nextVal < prevVal) ? 1u : 0u;
 640:Generated_Source\PSoC4/RTC_1.c ****         }
 641:Generated_Source\PSoC4/RTC_1.c **** 
 642:Generated_Source\PSoC4/RTC_1.c ****         /* Calculates Hour value of next alarm time based on current time and Alarm Config Mask */
 643:Generated_Source\PSoC4/RTC_1.c ****         if((0uL != carryFlag) && (0uL != ((~((uint32)alarmCfgMask)) & RTC_1_ALARM_HOUR_MASK)))
 644:Generated_Source\PSoC4/RTC_1.c ****         {
ARM GAS  C:\Users\austc\AppData\Local\Temp\ccaNEfOM.s 			page 15


 645:Generated_Source\PSoC4/RTC_1.c ****             prevVal = RTC_1_GetHours(curDateTime.time);
 646:Generated_Source\PSoC4/RTC_1.c ****             nextVal = RTC_1_GetNextHour(prevVal);
 647:Generated_Source\PSoC4/RTC_1.c ****             curDateTime.time = RTC_1_SetHours(curDateTime.time, nextVal);
 648:Generated_Source\PSoC4/RTC_1.c ****             carryFlag = (nextVal < prevVal) ? 1u : 0u;
 649:Generated_Source\PSoC4/RTC_1.c ****         }
 650:Generated_Source\PSoC4/RTC_1.c **** 
 651:Generated_Source\PSoC4/RTC_1.c ****         /* Calculates Day value of next alarm time based on current time and Alarm Config Mask */
 652:Generated_Source\PSoC4/RTC_1.c ****         if((0uL != carryFlag) && (0uL != ((~((uint32)alarmCfgMask)) & RTC_1_ALARM_DAYOFMONTH_MASK))
 653:Generated_Source\PSoC4/RTC_1.c ****         {
 654:Generated_Source\PSoC4/RTC_1.c ****             prevVal = RTC_1_GetDay(curDateTime.date);
 655:Generated_Source\PSoC4/RTC_1.c ****             if(0u != (alarmCfgMask & RTC_1_ALARM_DAYOFWEEK_MASK))
 656:Generated_Source\PSoC4/RTC_1.c ****             {
 657:Generated_Source\PSoC4/RTC_1.c ****                 daysInMonth = RTC_1_DaysInMonth(RTC_1_GetMonth(curDateTime.date),
 658:Generated_Source\PSoC4/RTC_1.c ****                                                            RTC_1_GetYear(curDateTime.date));
 659:Generated_Source\PSoC4/RTC_1.c ****                 nextVal = prevVal + RTC_1_DAYS_PER_WEEK;
 660:Generated_Source\PSoC4/RTC_1.c ****                 nextVal = (nextVal > daysInMonth) ? (nextVal - daysInMonth) : nextVal;
 661:Generated_Source\PSoC4/RTC_1.c ****             }
 662:Generated_Source\PSoC4/RTC_1.c ****             else
 663:Generated_Source\PSoC4/RTC_1.c ****             {
 664:Generated_Source\PSoC4/RTC_1.c ****                 nextVal = RTC_1_GetNextDay(RTC_1_GetYear(curDateTime.date),
 665:Generated_Source\PSoC4/RTC_1.c ****                                                       RTC_1_GetMonth(curDateTime.date),
 666:Generated_Source\PSoC4/RTC_1.c ****                                                       RTC_1_GetDay(curDateTime.date),
 667:Generated_Source\PSoC4/RTC_1.c ****                                                       (~((uint32)alarmCfgMask)));
 668:Generated_Source\PSoC4/RTC_1.c ****             }
 669:Generated_Source\PSoC4/RTC_1.c ****             curDateTime.date = RTC_1_SetDay(curDateTime.date, nextVal);
 670:Generated_Source\PSoC4/RTC_1.c ****             carryFlag = (nextVal < prevVal) ? 1u : 0u;
 671:Generated_Source\PSoC4/RTC_1.c ****         }
 672:Generated_Source\PSoC4/RTC_1.c **** 
 673:Generated_Source\PSoC4/RTC_1.c ****         /* Calculates Month value of next alarm time based on current time and Alarm Config Mask */
 674:Generated_Source\PSoC4/RTC_1.c ****         if((0uL != carryFlag) && (0uL != ((~((uint32)alarmCfgMask)) & RTC_1_ALARM_MONTH_MASK)))
 675:Generated_Source\PSoC4/RTC_1.c ****         {
 676:Generated_Source\PSoC4/RTC_1.c ****             prevVal = RTC_1_GetMonth(curDateTime.date);
 677:Generated_Source\PSoC4/RTC_1.c ****             nextVal = RTC_1_GetNextMonth(prevVal);
 678:Generated_Source\PSoC4/RTC_1.c ****             curDateTime.date = RTC_1_SetMonth(curDateTime.date, nextVal);
 679:Generated_Source\PSoC4/RTC_1.c ****             carryFlag = (nextVal < prevVal) ? 1u : 0u;
 680:Generated_Source\PSoC4/RTC_1.c ****         }
 681:Generated_Source\PSoC4/RTC_1.c **** 
 682:Generated_Source\PSoC4/RTC_1.c ****         /* Calculates Year value of next alarm time based on current time and Alarm Config Mask */
 683:Generated_Source\PSoC4/RTC_1.c ****         if((0uL != carryFlag) && (0uL != ((~((uint32)alarmCfgMask)) & RTC_1_ALARM_YEAR_MASK)))
 684:Generated_Source\PSoC4/RTC_1.c ****         {
 685:Generated_Source\PSoC4/RTC_1.c ****             prevVal = RTC_1_GetYear(curDateTime.date);
 686:Generated_Source\PSoC4/RTC_1.c ****             nextVal = RTC_1_GetNextYear(prevVal);
 687:Generated_Source\PSoC4/RTC_1.c ****             curDateTime.date = RTC_1_SetYear(curDateTime.date, nextVal);
 688:Generated_Source\PSoC4/RTC_1.c ****         }
 689:Generated_Source\PSoC4/RTC_1.c **** 
 690:Generated_Source\PSoC4/RTC_1.c ****         return(RTC_1_DateTimeToUnix(curDateTime.date, curDateTime.time));
 691:Generated_Source\PSoC4/RTC_1.c ****     }
 692:Generated_Source\PSoC4/RTC_1.c **** 
 693:Generated_Source\PSoC4/RTC_1.c **** 
 694:Generated_Source\PSoC4/RTC_1.c ****     /*******************************************************************************
 695:Generated_Source\PSoC4/RTC_1.c ****     * Function Name: RTC_1_ConstructUnixAlarmTime
 696:Generated_Source\PSoC4/RTC_1.c ****     ****************************************************************************//**
 697:Generated_Source\PSoC4/RTC_1.c ****     *
 698:Generated_Source\PSoC4/RTC_1.c ****     * This is an internal function that calculates the time of the first alarm
 699:Generated_Source\PSoC4/RTC_1.c ****     * in the UNIX format taking into account the current "Alarm Config Mask".
 700:Generated_Source\PSoC4/RTC_1.c ****     *
 701:Generated_Source\PSoC4/RTC_1.c ****     * \param alarmTime
ARM GAS  C:\Users\austc\AppData\Local\Temp\ccaNEfOM.s 			page 16


 702:Generated_Source\PSoC4/RTC_1.c ****     * Desired alarm time in the regular time format, 
 703:Generated_Source\PSoC4/RTC_1.c ****     * see \ref RTC_1_DATE_TIME
 704:Generated_Source\PSoC4/RTC_1.c ****     *
 705:Generated_Source\PSoC4/RTC_1.c ****     * \param alarmCfgMask
 706:Generated_Source\PSoC4/RTC_1.c ****     * The current Alarm Config Mask.
 707:Generated_Source\PSoC4/RTC_1.c ****     *
 708:Generated_Source\PSoC4/RTC_1.c ****     * \return
 709:Generated_Source\PSoC4/RTC_1.c ****     * time of the first alarm in the UNIX format.
 710:Generated_Source\PSoC4/RTC_1.c ****     *
 711:Generated_Source\PSoC4/RTC_1.c ****     *******************************************************************************/
 712:Generated_Source\PSoC4/RTC_1.c ****     uint64 RTC_1_ConstructUnixAlarmTime(const RTC_1_DATE_TIME* alarmTime, uint8 alarmCfgMask)
 713:Generated_Source\PSoC4/RTC_1.c ****     {
 714:Generated_Source\PSoC4/RTC_1.c ****         uint32 tmpCurVal;
 715:Generated_Source\PSoC4/RTC_1.c ****         uint32 tmpNextVal;
 716:Generated_Source\PSoC4/RTC_1.c ****         uint32 carryFlag;
 717:Generated_Source\PSoC4/RTC_1.c ****         uint32 tmpAlarmDate;
 718:Generated_Source\PSoC4/RTC_1.c ****         uint32 tmpAlarmTime;
 719:Generated_Source\PSoC4/RTC_1.c ****         uint32 daysInMonth;
 720:Generated_Source\PSoC4/RTC_1.c ****         RTC_1_DATE_TIME curDateTime;
 721:Generated_Source\PSoC4/RTC_1.c **** 
 722:Generated_Source\PSoC4/RTC_1.c ****         tmpAlarmDate = 0u;
 723:Generated_Source\PSoC4/RTC_1.c ****         tmpAlarmTime = 0u;
 724:Generated_Source\PSoC4/RTC_1.c ****         RTC_1_UnixToDateTime(&curDateTime, RTC_1_unixTime, 
 725:Generated_Source\PSoC4/RTC_1.c ****                                        (uint32)RTC_1_24_HOURS_FORMAT);
 726:Generated_Source\PSoC4/RTC_1.c **** 
 727:Generated_Source\PSoC4/RTC_1.c ****         /* Calculates Seconds value of first Alarm based on current time and Alarm Config Mask */
 728:Generated_Source\PSoC4/RTC_1.c ****         tmpCurVal =  RTC_1_GetSecond(curDateTime.time);
 729:Generated_Source\PSoC4/RTC_1.c ****         tmpNextVal = RTC_1_GetSecond(alarmTime->time);
 730:Generated_Source\PSoC4/RTC_1.c ****         carryFlag = (tmpCurVal > tmpNextVal) ? 1u : 0u;
 731:Generated_Source\PSoC4/RTC_1.c ****         if(0u != ((~((uint32)alarmCfgMask)) & RTC_1_ALARM_SEC_MASK))
 732:Generated_Source\PSoC4/RTC_1.c ****         {
 733:Generated_Source\PSoC4/RTC_1.c ****             tmpNextVal = (0u != carryFlag) ? 0u : tmpCurVal;
 734:Generated_Source\PSoC4/RTC_1.c ****         }
 735:Generated_Source\PSoC4/RTC_1.c ****         tmpAlarmTime = RTC_1_SetSecond(tmpAlarmTime, tmpNextVal);
 736:Generated_Source\PSoC4/RTC_1.c **** 
 737:Generated_Source\PSoC4/RTC_1.c ****         /* Calculates Minutes value of first Alarm based on current time and Alarm Config Mask */
 738:Generated_Source\PSoC4/RTC_1.c ****         tmpCurVal  = RTC_1_GetMinutes(curDateTime.time);
 739:Generated_Source\PSoC4/RTC_1.c ****         if(0u != ((~((uint32)alarmCfgMask)) & RTC_1_ALARM_MIN_MASK))
 740:Generated_Source\PSoC4/RTC_1.c ****         {
 741:Generated_Source\PSoC4/RTC_1.c ****             tmpNextVal = (0u != carryFlag) ? RTC_1_GetNextMinSec(tmpCurVal) : tmpCurVal;
 742:Generated_Source\PSoC4/RTC_1.c ****         }
 743:Generated_Source\PSoC4/RTC_1.c ****         else
 744:Generated_Source\PSoC4/RTC_1.c ****         {
 745:Generated_Source\PSoC4/RTC_1.c ****             tmpNextVal = RTC_1_GetMinutes(alarmTime->time);
 746:Generated_Source\PSoC4/RTC_1.c ****         }
 747:Generated_Source\PSoC4/RTC_1.c ****         carryFlag  = (tmpNextVal < tmpCurVal) ? 1u : 0u;
 748:Generated_Source\PSoC4/RTC_1.c ****         tmpAlarmTime =  RTC_1_SetMinutes(tmpAlarmTime, tmpNextVal);
 749:Generated_Source\PSoC4/RTC_1.c **** 
 750:Generated_Source\PSoC4/RTC_1.c ****         /* Calculates Hours value of first Alarm based on current time and Alarm Config Mask */
 751:Generated_Source\PSoC4/RTC_1.c ****         tmpCurVal  = RTC_1_GetHours(curDateTime.time);
 752:Generated_Source\PSoC4/RTC_1.c ****         if(0u != ((~((uint32)alarmCfgMask)) & RTC_1_ALARM_HOUR_MASK))
 753:Generated_Source\PSoC4/RTC_1.c ****         {
 754:Generated_Source\PSoC4/RTC_1.c ****             tmpNextVal = (0u != carryFlag) ? RTC_1_GetNextHour(tmpCurVal) : tmpCurVal;
 755:Generated_Source\PSoC4/RTC_1.c ****         }
 756:Generated_Source\PSoC4/RTC_1.c ****         else
 757:Generated_Source\PSoC4/RTC_1.c ****         {
 758:Generated_Source\PSoC4/RTC_1.c ****             tmpNextVal = RTC_1_GetHours(alarmTime->time);
ARM GAS  C:\Users\austc\AppData\Local\Temp\ccaNEfOM.s 			page 17


 759:Generated_Source\PSoC4/RTC_1.c ****             if((uint32)RTC_1_24_HOURS_FORMAT != RTC_1_GetTimeFormat(alarmTime->time))
 760:Generated_Source\PSoC4/RTC_1.c ****             {
 761:Generated_Source\PSoC4/RTC_1.c ****                 if((uint32)RTC_1_AM != RTC_1_GetAmPm(alarmTime->time))
 762:Generated_Source\PSoC4/RTC_1.c ****                 {
 763:Generated_Source\PSoC4/RTC_1.c ****                     tmpNextVal += RTC_1_HOURS_PER_HALF_DAY;
 764:Generated_Source\PSoC4/RTC_1.c ****                 }
 765:Generated_Source\PSoC4/RTC_1.c ****             }
 766:Generated_Source\PSoC4/RTC_1.c ****         }
 767:Generated_Source\PSoC4/RTC_1.c ****         carryFlag  = (tmpNextVal < tmpCurVal) ? 1u : 0u;
 768:Generated_Source\PSoC4/RTC_1.c ****         tmpAlarmTime =  RTC_1_SetHours(tmpAlarmTime, tmpNextVal);
 769:Generated_Source\PSoC4/RTC_1.c **** 
 770:Generated_Source\PSoC4/RTC_1.c ****         /* Calculates Day value of first Alarm based on current time and Alarm Config Mask */
 771:Generated_Source\PSoC4/RTC_1.c ****         tmpCurVal  = RTC_1_GetDay(curDateTime.date);
 772:Generated_Source\PSoC4/RTC_1.c ****         tmpNextVal = RTC_1_GetDay(alarmTime->date);
 773:Generated_Source\PSoC4/RTC_1.c ****         if(0u != ((~((uint32)alarmCfgMask)) & RTC_1_ALARM_DAYOFMONTH_MASK))
 774:Generated_Source\PSoC4/RTC_1.c ****         {
 775:Generated_Source\PSoC4/RTC_1.c ****             if(0u != (alarmCfgMask & RTC_1_ALARM_DAYOFWEEK_MASK))
 776:Generated_Source\PSoC4/RTC_1.c ****             {
 777:Generated_Source\PSoC4/RTC_1.c ****                 daysInMonth = RTC_1_DaysInMonth(RTC_1_GetMonth(curDateTime.date),
 778:Generated_Source\PSoC4/RTC_1.c ****                                                            RTC_1_GetYear(curDateTime.date));
 779:Generated_Source\PSoC4/RTC_1.c ****                 tmpNextVal = 
 780:Generated_Source\PSoC4/RTC_1.c ****                 (curDateTime.dayOfWeek <= alarmTime->dayOfWeek) ? (alarmTime->dayOfWeek - curDateTi
 781:Generated_Source\PSoC4/RTC_1.c ****                                 ((RTC_1_DAYS_PER_WEEK - curDateTime.dayOfWeek) + alarmTime->dayOfWe
 782:Generated_Source\PSoC4/RTC_1.c ****                 tmpNextVal = tmpCurVal + tmpNextVal;
 783:Generated_Source\PSoC4/RTC_1.c ****                 tmpNextVal = (tmpNextVal > daysInMonth) ? (tmpNextVal - daysInMonth) : tmpNextVal;
 784:Generated_Source\PSoC4/RTC_1.c ****             }
 785:Generated_Source\PSoC4/RTC_1.c ****             else
 786:Generated_Source\PSoC4/RTC_1.c ****             {
 787:Generated_Source\PSoC4/RTC_1.c ****                 tmpNextVal = 
 788:Generated_Source\PSoC4/RTC_1.c ****                 (0u == carryFlag) ? tmpCurVal : RTC_1_GetNextDay(RTC_1_GetYear(curDateTime.date),
 789:Generated_Source\PSoC4/RTC_1.c ****                                                 RTC_1_GetMonth(curDateTime.date),
 790:Generated_Source\PSoC4/RTC_1.c ****                                                 tmpCurVal,
 791:Generated_Source\PSoC4/RTC_1.c ****                                                 RTC_1_ALARM_DAYOFMONTH_MASK);
 792:Generated_Source\PSoC4/RTC_1.c ****             }
 793:Generated_Source\PSoC4/RTC_1.c ****         }
 794:Generated_Source\PSoC4/RTC_1.c ****         carryFlag  = (tmpNextVal < tmpCurVal) ? 1u : 0u;
 795:Generated_Source\PSoC4/RTC_1.c ****         tmpAlarmDate =  RTC_1_SetDay(tmpAlarmDate, tmpNextVal);
 796:Generated_Source\PSoC4/RTC_1.c **** 
 797:Generated_Source\PSoC4/RTC_1.c ****         /* Calculates Month value of first Alarm based on current time and Alarm Config Mask */
 798:Generated_Source\PSoC4/RTC_1.c ****         tmpCurVal  = RTC_1_GetMonth(curDateTime.date);
 799:Generated_Source\PSoC4/RTC_1.c ****         if(0u != ((~((uint32)alarmCfgMask)) & RTC_1_ALARM_MONTH_MASK))
 800:Generated_Source\PSoC4/RTC_1.c ****         {
 801:Generated_Source\PSoC4/RTC_1.c ****             tmpNextVal = (0u != carryFlag) ? RTC_1_GetNextMonth(tmpCurVal) : tmpCurVal;
 802:Generated_Source\PSoC4/RTC_1.c ****         }
 803:Generated_Source\PSoC4/RTC_1.c ****         else
 804:Generated_Source\PSoC4/RTC_1.c ****         {
 805:Generated_Source\PSoC4/RTC_1.c ****             tmpNextVal = RTC_1_GetMonth(alarmTime->date);
 806:Generated_Source\PSoC4/RTC_1.c ****         }
 807:Generated_Source\PSoC4/RTC_1.c ****         carryFlag  = (tmpNextVal < tmpCurVal) ? 1u : 0u;
 808:Generated_Source\PSoC4/RTC_1.c ****         tmpAlarmDate =  RTC_1_SetMonth(tmpAlarmDate, tmpNextVal);
 809:Generated_Source\PSoC4/RTC_1.c **** 
 810:Generated_Source\PSoC4/RTC_1.c ****         /* Calculates Year value of first Alarm based on current time and Alarm Config Mask */
 811:Generated_Source\PSoC4/RTC_1.c ****         tmpCurVal  = RTC_1_GetYear(curDateTime.date);
 812:Generated_Source\PSoC4/RTC_1.c ****         if(0u != ((~((uint32)alarmCfgMask)) & RTC_1_ALARM_MONTH_MASK))
 813:Generated_Source\PSoC4/RTC_1.c ****         {
 814:Generated_Source\PSoC4/RTC_1.c ****             tmpNextVal = (0u != carryFlag) ? RTC_1_GetNextYear(tmpCurVal) : tmpCurVal;
 815:Generated_Source\PSoC4/RTC_1.c ****         }
ARM GAS  C:\Users\austc\AppData\Local\Temp\ccaNEfOM.s 			page 18


 816:Generated_Source\PSoC4/RTC_1.c ****         else
 817:Generated_Source\PSoC4/RTC_1.c ****         {
 818:Generated_Source\PSoC4/RTC_1.c ****             tmpNextVal = RTC_1_GetYear(alarmTime->date);
 819:Generated_Source\PSoC4/RTC_1.c ****         }
 820:Generated_Source\PSoC4/RTC_1.c ****         tmpAlarmDate =  RTC_1_SetYear(tmpAlarmDate, tmpNextVal);
 821:Generated_Source\PSoC4/RTC_1.c **** 
 822:Generated_Source\PSoC4/RTC_1.c ****         return(RTC_1_DateTimeToUnix(tmpAlarmDate, tmpAlarmTime));
 823:Generated_Source\PSoC4/RTC_1.c ****     }
 824:Generated_Source\PSoC4/RTC_1.c **** #endif/* (0u != RTC_1_INITIAL_ALARM_STATUS) */
 825:Generated_Source\PSoC4/RTC_1.c **** 
 826:Generated_Source\PSoC4/RTC_1.c **** 
 827:Generated_Source\PSoC4/RTC_1.c **** /*******************************************************************************
 828:Generated_Source\PSoC4/RTC_1.c **** * Function Name: RTC_1_ReadStatus
 829:Generated_Source\PSoC4/RTC_1.c **** ****************************************************************************//**
 830:Generated_Source\PSoC4/RTC_1.c **** *
 831:Generated_Source\PSoC4/RTC_1.c **** * Reads the Status software register, which has flags for DST (DST),
 832:Generated_Source\PSoC4/RTC_1.c **** * Leap Year (LY), AM/PM (AM_PM).
 833:Generated_Source\PSoC4/RTC_1.c **** *
 834:Generated_Source\PSoC4/RTC_1.c **** * \return
 835:Generated_Source\PSoC4/RTC_1.c **** * The values shown below are OR'ed and returned if more than one status
 836:Generated_Source\PSoC4/RTC_1.c **** * bits are set, see \ref group_rtc_status.
 837:Generated_Source\PSoC4/RTC_1.c **** *
 838:Generated_Source\PSoC4/RTC_1.c **** * \note
 839:Generated_Source\PSoC4/RTC_1.c **** * Reading the status without sync with the date and time read may cause an
 840:Generated_Source\PSoC4/RTC_1.c **** * error due to a roll-over at AM/PM, the end of a year, the end of a day;
 841:Generated_Source\PSoC4/RTC_1.c **** * RTC_1_GetDateAndTime() API is used to obtain the status and
 842:Generated_Source\PSoC4/RTC_1.c **** * the status member of the returned structure can be checked with the masks.
 843:Generated_Source\PSoC4/RTC_1.c **** *
 844:Generated_Source\PSoC4/RTC_1.c **** *******************************************************************************/
 845:Generated_Source\PSoC4/RTC_1.c **** uint32 RTC_1_ReadStatus(void)
 846:Generated_Source\PSoC4/RTC_1.c **** {
 847:Generated_Source\PSoC4/RTC_1.c ****     uint32 tmpYear;
 848:Generated_Source\PSoC4/RTC_1.c ****     RTC_1_DATE_TIME tmpTimeDate;
 849:Generated_Source\PSoC4/RTC_1.c **** 
 850:Generated_Source\PSoC4/RTC_1.c ****     RTC_1_GetDateAndTime(&tmpTimeDate);
 851:Generated_Source\PSoC4/RTC_1.c ****     tmpYear = RTC_1_GetYear(tmpTimeDate.date);
 852:Generated_Source\PSoC4/RTC_1.c **** 
 853:Generated_Source\PSoC4/RTC_1.c ****     if(0uL != RTC_1_LeapYear(tmpYear))
 854:Generated_Source\PSoC4/RTC_1.c ****     {
 855:Generated_Source\PSoC4/RTC_1.c ****         RTC_1_currentTimeDate.status |= (1uL << RTC_1_STATUS_LY_OFFSET);
 856:Generated_Source\PSoC4/RTC_1.c ****     }
 857:Generated_Source\PSoC4/RTC_1.c ****     else
 858:Generated_Source\PSoC4/RTC_1.c ****     {
 859:Generated_Source\PSoC4/RTC_1.c ****         RTC_1_currentTimeDate.status &= ~(1uL << RTC_1_STATUS_LY_OFFSET);
 860:Generated_Source\PSoC4/RTC_1.c ****     }
 861:Generated_Source\PSoC4/RTC_1.c **** 
 862:Generated_Source\PSoC4/RTC_1.c **** 
 863:Generated_Source\PSoC4/RTC_1.c ****     if(0uL != RTC_1_GetAmPm(tmpTimeDate.time))
 864:Generated_Source\PSoC4/RTC_1.c ****     {
 865:Generated_Source\PSoC4/RTC_1.c ****         RTC_1_currentTimeDate.status |= (1uL << RTC_1_STATUS_AM_PM_OFFSET);
 866:Generated_Source\PSoC4/RTC_1.c ****     }
 867:Generated_Source\PSoC4/RTC_1.c ****     else
 868:Generated_Source\PSoC4/RTC_1.c ****     {
 869:Generated_Source\PSoC4/RTC_1.c ****         RTC_1_currentTimeDate.status &= ~(1uL << RTC_1_STATUS_AM_PM_OFFSET);
 870:Generated_Source\PSoC4/RTC_1.c ****     }
 871:Generated_Source\PSoC4/RTC_1.c **** 
 872:Generated_Source\PSoC4/RTC_1.c ****     return(RTC_1_currentTimeDate.status);
ARM GAS  C:\Users\austc\AppData\Local\Temp\ccaNEfOM.s 			page 19


 873:Generated_Source\PSoC4/RTC_1.c **** }
 874:Generated_Source\PSoC4/RTC_1.c **** 
 875:Generated_Source\PSoC4/RTC_1.c **** 
 876:Generated_Source\PSoC4/RTC_1.c **** #if(0u != RTC_1_INITIAL_DST_STATUS)
 877:Generated_Source\PSoC4/RTC_1.c ****     /*******************************************************************************
 878:Generated_Source\PSoC4/RTC_1.c ****     * Function Name: RTC_1_SetDSTStartTime
 879:Generated_Source\PSoC4/RTC_1.c ****     ****************************************************************************//**
 880:Generated_Source\PSoC4/RTC_1.c ****     *
 881:Generated_Source\PSoC4/RTC_1.c ****     * Stores the DST Start time.
 882:Generated_Source\PSoC4/RTC_1.c ****     *
 883:Generated_Source\PSoC4/RTC_1.c ****     * Only generated if DST is enabled. The date passed can be relative or fixed. 
 884:Generated_Source\PSoC4/RTC_1.c ****     * For a relative date, the user needs to provide a valid day of a week, a 
 885:Generated_Source\PSoC4/RTC_1.c ****     * week of a month and a month in the dstStartTime structure.
 886:Generated_Source\PSoC4/RTC_1.c ****     * For a fixed date, the user needs to enter a valid day of a month and a month 
 887:Generated_Source\PSoC4/RTC_1.c ****     * in the dstStartTime structure. The hour value is optional and if invalid
 888:Generated_Source\PSoC4/RTC_1.c ****     * taken as 00 hrs. Invalid entries are not stored and the DST start date
 889:Generated_Source\PSoC4/RTC_1.c ****     * retains a previous value or no value at all.
 890:Generated_Source\PSoC4/RTC_1.c ****     *
 891:Generated_Source\PSoC4/RTC_1.c ****     * \param dstStartTime
 892:Generated_Source\PSoC4/RTC_1.c ****     * The DST Start time register value, see \ref RTC_1_DST_TIME
 893:Generated_Source\PSoC4/RTC_1.c ****     *
 894:Generated_Source\PSoC4/RTC_1.c ****     * \param type
 895:Generated_Source\PSoC4/RTC_1.c ****     * Defines the DST operation mode, see \ref RTC_1_DST_DATETYPE_ENUM.
 896:Generated_Source\PSoC4/RTC_1.c ****     *
 897:Generated_Source\PSoC4/RTC_1.c ****     *******************************************************************************/
 898:Generated_Source\PSoC4/RTC_1.c ****     void RTC_1_SetDSTStartTime(const RTC_1_DST_TIME* dstStartTime,
 899:Generated_Source\PSoC4/RTC_1.c ****                                                 RTC_1_DST_DATETYPE_ENUM type)
 900:Generated_Source\PSoC4/RTC_1.c ****     {
 901:Generated_Source\PSoC4/RTC_1.c ****         RTC_1_dstStartTime.timeFormat    = (uint8)type;
 902:Generated_Source\PSoC4/RTC_1.c ****         RTC_1_dstStartTime.hour          = dstStartTime->hour;
 903:Generated_Source\PSoC4/RTC_1.c ****         RTC_1_dstStartTime.dayOfWeek     = dstStartTime->dayOfWeek;
 904:Generated_Source\PSoC4/RTC_1.c ****         RTC_1_dstStartTime.weekOfMonth   = dstStartTime->weekOfMonth;
 905:Generated_Source\PSoC4/RTC_1.c ****         RTC_1_dstStartTime.dayOfMonth    = dstStartTime->dayOfMonth;
 906:Generated_Source\PSoC4/RTC_1.c ****         RTC_1_dstStartTime.month         = dstStartTime->month;
 907:Generated_Source\PSoC4/RTC_1.c **** 
 908:Generated_Source\PSoC4/RTC_1.c ****         RTC_1_unixTimeDstStart = RTC_1_GetDstUnixTime(&RTC_1_dstStartTime);
 909:Generated_Source\PSoC4/RTC_1.c **** 
 910:Generated_Source\PSoC4/RTC_1.c ****         if((RTC_1_unixTime >= RTC_1_unixTimeDstStart) &&
 911:Generated_Source\PSoC4/RTC_1.c ****            (RTC_1_unixTime <= RTC_1_unixTimeDstStop))
 912:Generated_Source\PSoC4/RTC_1.c ****         {
 913:Generated_Source\PSoC4/RTC_1.c ****             RTC_1_dstStatus = 1u;
 914:Generated_Source\PSoC4/RTC_1.c ****             RTC_1_dstTimeOffset = RTC_1_SECONDS_PER_HOUR;
 915:Generated_Source\PSoC4/RTC_1.c ****         }
 916:Generated_Source\PSoC4/RTC_1.c ****         else
 917:Generated_Source\PSoC4/RTC_1.c ****         {
 918:Generated_Source\PSoC4/RTC_1.c ****             RTC_1_dstStatus = 0u;
 919:Generated_Source\PSoC4/RTC_1.c ****             RTC_1_dstTimeOffset = 0uL;
 920:Generated_Source\PSoC4/RTC_1.c ****         }
 921:Generated_Source\PSoC4/RTC_1.c ****     }
 922:Generated_Source\PSoC4/RTC_1.c **** 
 923:Generated_Source\PSoC4/RTC_1.c **** 
 924:Generated_Source\PSoC4/RTC_1.c ****     /*******************************************************************************
 925:Generated_Source\PSoC4/RTC_1.c ****     * Function Name: RTC_1_SetDSTStopTime
 926:Generated_Source\PSoC4/RTC_1.c ****     ****************************************************************************//**
 927:Generated_Source\PSoC4/RTC_1.c ****     *
 928:Generated_Source\PSoC4/RTC_1.c ****     * Stores the DST Stop time.
 929:Generated_Source\PSoC4/RTC_1.c ****     * 
ARM GAS  C:\Users\austc\AppData\Local\Temp\ccaNEfOM.s 			page 20


 930:Generated_Source\PSoC4/RTC_1.c ****     * Only generated if DST is enabled. The date passed can be relative or fixed. 
 931:Generated_Source\PSoC4/RTC_1.c ****     * For a relative date, the user needs to provide a valid day of a week, a week 
 932:Generated_Source\PSoC4/RTC_1.c ****     * of a month and a month in the dstStopTime structure.
 933:Generated_Source\PSoC4/RTC_1.c ****     * For a fixed date, the user needs to enter a valid day of a month and a month
 934:Generated_Source\PSoC4/RTC_1.c ****     * in the dstSoptTime structure. The hour value is optional and if invalid 
 935:Generated_Source\PSoC4/RTC_1.c ****     * taken as 00 hrs. Invalid entries are not stored and the DST start date 
 936:Generated_Source\PSoC4/RTC_1.c ****     * retains a previous value or no value at all.
 937:Generated_Source\PSoC4/RTC_1.c ****     *
 938:Generated_Source\PSoC4/RTC_1.c ****     * \param dstStopTime
 939:Generated_Source\PSoC4/RTC_1.c ****     * DST Stop time register values, see \ref RTC_1_DST_TIME
 940:Generated_Source\PSoC4/RTC_1.c ****     *
 941:Generated_Source\PSoC4/RTC_1.c ****     * \param type
 942:Generated_Source\PSoC4/RTC_1.c ****     * Defines the DST operation mode, see \ref RTC_1_DST_DATETYPE_ENUM.
 943:Generated_Source\PSoC4/RTC_1.c ****     *
 944:Generated_Source\PSoC4/RTC_1.c ****     *******************************************************************************/
 945:Generated_Source\PSoC4/RTC_1.c ****     void RTC_1_SetDSTStopTime(const RTC_1_DST_TIME* dstStopTime,
 946:Generated_Source\PSoC4/RTC_1.c ****                                                RTC_1_DST_DATETYPE_ENUM type)
 947:Generated_Source\PSoC4/RTC_1.c ****     {
 948:Generated_Source\PSoC4/RTC_1.c **** 
 949:Generated_Source\PSoC4/RTC_1.c ****         RTC_1_dstStopTime.timeFormat  = (uint8)type;
 950:Generated_Source\PSoC4/RTC_1.c ****         RTC_1_dstStopTime.hour           = dstStopTime->hour;
 951:Generated_Source\PSoC4/RTC_1.c ****         RTC_1_dstStopTime.dayOfWeek      = dstStopTime->dayOfWeek;
 952:Generated_Source\PSoC4/RTC_1.c ****         RTC_1_dstStopTime.weekOfMonth = dstStopTime->weekOfMonth;
 953:Generated_Source\PSoC4/RTC_1.c ****         RTC_1_dstStopTime.dayOfMonth     = dstStopTime->dayOfMonth;
 954:Generated_Source\PSoC4/RTC_1.c ****         RTC_1_dstStopTime.month         = dstStopTime->month;
 955:Generated_Source\PSoC4/RTC_1.c **** 
 956:Generated_Source\PSoC4/RTC_1.c ****         RTC_1_unixTimeDstStop  = RTC_1_GetDstUnixTime(&RTC_1_dstStopTime);
 957:Generated_Source\PSoC4/RTC_1.c **** 
 958:Generated_Source\PSoC4/RTC_1.c ****         if((RTC_1_unixTime >= RTC_1_unixTimeDstStart) &&
 959:Generated_Source\PSoC4/RTC_1.c ****            (RTC_1_unixTime <= RTC_1_unixTimeDstStop))
 960:Generated_Source\PSoC4/RTC_1.c ****         {
 961:Generated_Source\PSoC4/RTC_1.c ****             RTC_1_dstStatus = 1u;
 962:Generated_Source\PSoC4/RTC_1.c ****             RTC_1_dstTimeOffset = RTC_1_SECONDS_PER_HOUR;
 963:Generated_Source\PSoC4/RTC_1.c ****         }
 964:Generated_Source\PSoC4/RTC_1.c ****         else
 965:Generated_Source\PSoC4/RTC_1.c ****         {
 966:Generated_Source\PSoC4/RTC_1.c ****             RTC_1_dstStatus = 0u;
 967:Generated_Source\PSoC4/RTC_1.c ****             RTC_1_dstTimeOffset = 0uL;
 968:Generated_Source\PSoC4/RTC_1.c ****         }
 969:Generated_Source\PSoC4/RTC_1.c ****     }
 970:Generated_Source\PSoC4/RTC_1.c **** 
 971:Generated_Source\PSoC4/RTC_1.c **** 
 972:Generated_Source\PSoC4/RTC_1.c ****     /*******************************************************************************
 973:Generated_Source\PSoC4/RTC_1.c ****     * Function Name: RTC_1_GetDstUnixTime
 974:Generated_Source\PSoC4/RTC_1.c ****     ****************************************************************************//**
 975:Generated_Source\PSoC4/RTC_1.c ****     *
 976:Generated_Source\PSoC4/RTC_1.c ****     * Calculates the DST Start/Stop time in the UNIX format.
 977:Generated_Source\PSoC4/RTC_1.c ****     *
 978:Generated_Source\PSoC4/RTC_1.c ****     * \param dstTime
 979:Generated_Source\PSoC4/RTC_1.c ****     * The DST Start/Stop time in the regular time format,
 980:Generated_Source\PSoC4/RTC_1.c ****     * see \ref RTC_1_DST_TIME
 981:Generated_Source\PSoC4/RTC_1.c ****     *
 982:Generated_Source\PSoC4/RTC_1.c ****     * \return
 983:Generated_Source\PSoC4/RTC_1.c ****     * The DST Start/Stop time in the UNIX format.
 984:Generated_Source\PSoC4/RTC_1.c ****     *
 985:Generated_Source\PSoC4/RTC_1.c ****     *******************************************************************************/
 986:Generated_Source\PSoC4/RTC_1.c ****     uint64 RTC_1_GetDstUnixTime(const RTC_1_DST_TIME* dstTime)
ARM GAS  C:\Users\austc\AppData\Local\Temp\ccaNEfOM.s 			page 21


 987:Generated_Source\PSoC4/RTC_1.c ****     {
 988:Generated_Source\PSoC4/RTC_1.c ****         uint32 tmpYear;
 989:Generated_Source\PSoC4/RTC_1.c ****         uint32 tmpDate;
 990:Generated_Source\PSoC4/RTC_1.c ****         uint64 dstUnixTime;
 991:Generated_Source\PSoC4/RTC_1.c **** 
 992:Generated_Source\PSoC4/RTC_1.c ****         RTC_1_DATE_TIME tmpTimeDate;
 993:Generated_Source\PSoC4/RTC_1.c **** 
 994:Generated_Source\PSoC4/RTC_1.c ****         RTC_1_UnixToDateTime(&tmpTimeDate, RTC_1_unixTime, RTC_1_INITIAL_TIME_FORMAT);
 995:Generated_Source\PSoC4/RTC_1.c ****         tmpYear = RTC_1_GetYear(tmpTimeDate.date);
 996:Generated_Source\PSoC4/RTC_1.c **** 
 997:Generated_Source\PSoC4/RTC_1.c ****         if(dstTime->timeFormat == (uint8)RTC_1_DST_DATE_FIXED)
 998:Generated_Source\PSoC4/RTC_1.c ****         {
 999:Generated_Source\PSoC4/RTC_1.c ****             tmpDate =  RTC_1_ConstructDate(dstTime->month, dstTime->dayOfMonth, tmpYear);
1000:Generated_Source\PSoC4/RTC_1.c ****         }
1001:Generated_Source\PSoC4/RTC_1.c ****         else
1002:Generated_Source\PSoC4/RTC_1.c ****         {
1003:Generated_Source\PSoC4/RTC_1.c ****             tmpDate = 
1004:Generated_Source\PSoC4/RTC_1.c ****             RTC_1_RelativeToFixed(dstTime->dayOfWeek, dstTime->weekOfMonth, dstTime->month, tmpYear
1005:Generated_Source\PSoC4/RTC_1.c ****         }
1006:Generated_Source\PSoC4/RTC_1.c **** 
1007:Generated_Source\PSoC4/RTC_1.c ****         tmpTimeDate.time = 
1008:Generated_Source\PSoC4/RTC_1.c ****         RTC_1_ConstructTime((uint32)RTC_1_24_HOURS_FORMAT, 0u, dstTime->hour, 0u, 0u);
1009:Generated_Source\PSoC4/RTC_1.c ****         dstUnixTime = RTC_1_DateTimeToUnix(tmpDate, tmpTimeDate.time);
1010:Generated_Source\PSoC4/RTC_1.c **** 
1011:Generated_Source\PSoC4/RTC_1.c ****         return(dstUnixTime);
1012:Generated_Source\PSoC4/RTC_1.c ****     }
1013:Generated_Source\PSoC4/RTC_1.c **** 
1014:Generated_Source\PSoC4/RTC_1.c **** #endif /* (0u != RTC_1_INITIAL_DST_STATUS) */
1015:Generated_Source\PSoC4/RTC_1.c **** 
1016:Generated_Source\PSoC4/RTC_1.c **** 
1017:Generated_Source\PSoC4/RTC_1.c **** /*******************************************************************************
1018:Generated_Source\PSoC4/RTC_1.c **** * Function Name: RTC_1_ConvertBCDToDec
1019:Generated_Source\PSoC4/RTC_1.c **** ****************************************************************************//**
1020:Generated_Source\PSoC4/RTC_1.c **** *
1021:Generated_Source\PSoC4/RTC_1.c **** * Converts a 4-byte BCD number into a 4-byte hexadecimal number. Each byte is
1022:Generated_Source\PSoC4/RTC_1.c **** * converted individually and returned as an individual byte in the 32-bit
1023:Generated_Source\PSoC4/RTC_1.c **** * variable.
1024:Generated_Source\PSoC4/RTC_1.c **** *
1025:Generated_Source\PSoC4/RTC_1.c **** * \param bcdNum
1026:Generated_Source\PSoC4/RTC_1.c **** * A 4-byte BCD number. Each byte represents BCD.
1027:Generated_Source\PSoC4/RTC_1.c **** * 0x11223344 -> 4 bytes 0x11, 0x22, 0x33 and 0x44 the in BCD format.
1028:Generated_Source\PSoC4/RTC_1.c **** *
1029:Generated_Source\PSoC4/RTC_1.c **** * \return
1030:Generated_Source\PSoC4/RTC_1.c **** * decNum A 4-byte hexadecimal equivalent number of the BCD number.
1031:Generated_Source\PSoC4/RTC_1.c **** * BCD number 0x11223344 -> returned hexadecimal number 0x0B16212C.
1032:Generated_Source\PSoC4/RTC_1.c **** *
1033:Generated_Source\PSoC4/RTC_1.c **** *******************************************************************************/
1034:Generated_Source\PSoC4/RTC_1.c **** uint32 RTC_1_ConvertBCDToDec(uint32 bcdNum)
1035:Generated_Source\PSoC4/RTC_1.c **** {
 155              		.loc 1 1035 0
 156              		.cfi_startproc
 157              		@ args = 0, pretend = 0, frame = 0
 158              		@ frame_needed = 0, uses_anonymous_args = 0
 159              	.LVL1:
 160 0000 10B5     		push	{r4, lr}
 161              		.cfi_def_cfa_offset 8
 162              		.cfi_offset 4, -8
ARM GAS  C:\Users\austc\AppData\Local\Temp\ccaNEfOM.s 			page 22


 163              		.cfi_offset 14, -4
 164              	.LVL2:
1036:Generated_Source\PSoC4/RTC_1.c ****     uint32 i;
1037:Generated_Source\PSoC4/RTC_1.c ****     uint32 mult;
1038:Generated_Source\PSoC4/RTC_1.c ****     uint32 retVal;
1039:Generated_Source\PSoC4/RTC_1.c **** 
1040:Generated_Source\PSoC4/RTC_1.c ****     mult   = 1u;
1041:Generated_Source\PSoC4/RTC_1.c ****     retVal = 0u;
 165              		.loc 1 1041 0
 166 0002 0024     		movs	r4, #0
1040:Generated_Source\PSoC4/RTC_1.c ****     retVal = 0u;
 167              		.loc 1 1040 0
 168 0004 0123     		movs	r3, #1
1042:Generated_Source\PSoC4/RTC_1.c **** 
1043:Generated_Source\PSoC4/RTC_1.c ****     for(i = 0u; i < 16u; i++)
 169              		.loc 1 1043 0
 170 0006 0021     		movs	r1, #0
 171 0008 09E0     		b	.L15
 172              	.LVL3:
 173              	.L16:
1044:Generated_Source\PSoC4/RTC_1.c ****     {
1045:Generated_Source\PSoC4/RTC_1.c ****         retVal += (bcdNum & RTC_1_BCD_ONE_DIGIT_MASK) * mult;
 174              		.loc 1 1045 0 discriminator 3
 175 000a 0F22     		movs	r2, #15
 176 000c 0240     		ands	r2, r0
 177 000e 5A43     		muls	r2, r3
 178 0010 A418     		adds	r4, r4, r2
 179              	.LVL4:
1046:Generated_Source\PSoC4/RTC_1.c ****         bcdNum >>= RTC_1_BCD_NUMBER_SIZE;
 180              		.loc 1 1046 0 discriminator 3
 181 0012 0009     		lsrs	r0, r0, #4
 182              	.LVL5:
1047:Generated_Source\PSoC4/RTC_1.c ****         mult *= 10u;
 183              		.loc 1 1047 0 discriminator 3
 184 0014 9A00     		lsls	r2, r3, #2
 185 0016 D318     		adds	r3, r2, r3
 186              	.LVL6:
 187 0018 5A00     		lsls	r2, r3, #1
 188 001a 1300     		movs	r3, r2
 189              	.LVL7:
1043:Generated_Source\PSoC4/RTC_1.c ****     {
 190              		.loc 1 1043 0 discriminator 3
 191 001c 0131     		adds	r1, r1, #1
 192              	.LVL8:
 193              	.L15:
1043:Generated_Source\PSoC4/RTC_1.c ****     {
 194              		.loc 1 1043 0 is_stmt 0 discriminator 1
 195 001e 0F29     		cmp	r1, #15
 196 0020 F3D9     		bls	.L16
1048:Generated_Source\PSoC4/RTC_1.c ****     }
1049:Generated_Source\PSoC4/RTC_1.c **** 
1050:Generated_Source\PSoC4/RTC_1.c ****     return(retVal);
1051:Generated_Source\PSoC4/RTC_1.c **** }
 197              		.loc 1 1051 0 is_stmt 1
 198 0022 2000     		movs	r0, r4
 199              	.LVL9:
 200              		@ sp needed
ARM GAS  C:\Users\austc\AppData\Local\Temp\ccaNEfOM.s 			page 23


 201              	.LVL10:
 202 0024 10BD     		pop	{r4, pc}
 203              		.cfi_endproc
 204              	.LFE41:
 205              		.size	RTC_1_ConvertBCDToDec, .-RTC_1_ConvertBCDToDec
 206              		.global	__aeabi_uidivmod
 207              		.global	__aeabi_uidiv
 208 0026 C046     		.section	.text.RTC_1_ConvertDecToBCD,"ax",%progbits
 209              		.align	2
 210              		.global	RTC_1_ConvertDecToBCD
 211              		.code	16
 212              		.thumb_func
 213              		.type	RTC_1_ConvertDecToBCD, %function
 214              	RTC_1_ConvertDecToBCD:
 215              	.LFB42:
1052:Generated_Source\PSoC4/RTC_1.c **** 
1053:Generated_Source\PSoC4/RTC_1.c **** 
1054:Generated_Source\PSoC4/RTC_1.c **** /*******************************************************************************
1055:Generated_Source\PSoC4/RTC_1.c **** * Function Name: RTC_1_ConvertDecToBCD
1056:Generated_Source\PSoC4/RTC_1.c **** ****************************************************************************//**
1057:Generated_Source\PSoC4/RTC_1.c **** *
1058:Generated_Source\PSoC4/RTC_1.c **** * Converts a 4-byte hexadecimal number into a 4-byte BCD number. Each byte
1059:Generated_Source\PSoC4/RTC_1.c **** * is converted individually and returned as an individual byte in the 32-bit
1060:Generated_Source\PSoC4/RTC_1.c **** * variable.
1061:Generated_Source\PSoC4/RTC_1.c **** *
1062:Generated_Source\PSoC4/RTC_1.c **** * \param decNum
1063:Generated_Source\PSoC4/RTC_1.c **** * A 4-byte hexadecimal number. Each byte is represented in hex.
1064:Generated_Source\PSoC4/RTC_1.c **** * 0x11223344 -> 4 bytes 0x11, 0x22, 0x33 and 0x44 in the hex format.
1065:Generated_Source\PSoC4/RTC_1.c **** *
1066:Generated_Source\PSoC4/RTC_1.c **** * \return
1067:Generated_Source\PSoC4/RTC_1.c **** * bcdNum - A 4-byte BCD equivalent of the passed hexadecimal number. 
1068:Generated_Source\PSoC4/RTC_1.c **** * Hexadecimal number 0x11223344 -> returned BCD number 0x17345168.
1069:Generated_Source\PSoC4/RTC_1.c **** *
1070:Generated_Source\PSoC4/RTC_1.c **** *******************************************************************************/
1071:Generated_Source\PSoC4/RTC_1.c **** uint32 RTC_1_ConvertDecToBCD(uint32 decNum)
1072:Generated_Source\PSoC4/RTC_1.c **** {
 216              		.loc 1 1072 0
 217              		.cfi_startproc
 218              		@ args = 0, pretend = 0, frame = 0
 219              		@ frame_needed = 0, uses_anonymous_args = 0
 220              	.LVL11:
 221 0000 70B5     		push	{r4, r5, r6, lr}
 222              		.cfi_def_cfa_offset 16
 223              		.cfi_offset 4, -16
 224              		.cfi_offset 5, -12
 225              		.cfi_offset 6, -8
 226              		.cfi_offset 14, -4
 227 0002 0400     		movs	r4, r0
 228              	.LVL12:
1073:Generated_Source\PSoC4/RTC_1.c ****     uint32 shift;
1074:Generated_Source\PSoC4/RTC_1.c ****     uint32 tmpVal;
1075:Generated_Source\PSoC4/RTC_1.c ****     uint32 retVal;
1076:Generated_Source\PSoC4/RTC_1.c **** 
1077:Generated_Source\PSoC4/RTC_1.c ****     shift  = 0u;
1078:Generated_Source\PSoC4/RTC_1.c ****     retVal = 0u;
 229              		.loc 1 1078 0
 230 0004 0026     		movs	r6, #0
ARM GAS  C:\Users\austc\AppData\Local\Temp\ccaNEfOM.s 			page 24


1077:Generated_Source\PSoC4/RTC_1.c ****     retVal = 0u;
 231              		.loc 1 1077 0
 232 0006 0025     		movs	r5, #0
 233              	.LVL13:
 234              	.L18:
1079:Generated_Source\PSoC4/RTC_1.c ****     tmpVal = decNum;
1080:Generated_Source\PSoC4/RTC_1.c **** 
1081:Generated_Source\PSoC4/RTC_1.c ****     do
1082:Generated_Source\PSoC4/RTC_1.c ****     {
1083:Generated_Source\PSoC4/RTC_1.c ****         retVal |= ((tmpVal % 10u) << shift);
 235              		.loc 1 1083 0 discriminator 1
 236 0008 0A21     		movs	r1, #10
 237 000a 2000     		movs	r0, r4
 238 000c FFF7FEFF 		bl	__aeabi_uidivmod
 239              	.LVL14:
 240 0010 A940     		lsls	r1, r1, r5
 241 0012 0E43     		orrs	r6, r1
 242              	.LVL15:
1084:Generated_Source\PSoC4/RTC_1.c ****         tmpVal /= 10u;
 243              		.loc 1 1084 0 discriminator 1
 244 0014 0A21     		movs	r1, #10
 245 0016 2000     		movs	r0, r4
 246 0018 FFF7FEFF 		bl	__aeabi_uidiv
 247              	.LVL16:
 248 001c 0400     		movs	r4, r0
 249              	.LVL17:
1085:Generated_Source\PSoC4/RTC_1.c ****         shift  += RTC_1_BCD_NUMBER_SIZE;
 250              		.loc 1 1085 0 discriminator 1
 251 001e 0435     		adds	r5, r5, #4
 252              	.LVL18:
1086:Generated_Source\PSoC4/RTC_1.c ****     }
1087:Generated_Source\PSoC4/RTC_1.c ****     while(tmpVal >= 10u);
 253              		.loc 1 1087 0 discriminator 1
 254 0020 0928     		cmp	r0, #9
 255 0022 F1D8     		bhi	.L18
1088:Generated_Source\PSoC4/RTC_1.c **** 
1089:Generated_Source\PSoC4/RTC_1.c ****     retVal |= (tmpVal << shift);
 256              		.loc 1 1089 0
 257 0024 A840     		lsls	r0, r0, r5
 258              	.LVL19:
 259 0026 3043     		orrs	r0, r6
 260              	.LVL20:
1090:Generated_Source\PSoC4/RTC_1.c **** 
1091:Generated_Source\PSoC4/RTC_1.c ****     return(retVal);
1092:Generated_Source\PSoC4/RTC_1.c **** }
 261              		.loc 1 1092 0
 262              		@ sp needed
 263              	.LVL21:
 264              	.LVL22:
 265 0028 70BD     		pop	{r4, r5, r6, pc}
 266              		.cfi_endproc
 267              	.LFE42:
 268              		.size	RTC_1_ConvertDecToBCD, .-RTC_1_ConvertDecToBCD
 269 002a C046     		.section	.text.RTC_1_Update,"ax",%progbits
 270              		.align	2
 271              		.global	RTC_1_Update
 272              		.code	16
ARM GAS  C:\Users\austc\AppData\Local\Temp\ccaNEfOM.s 			page 25


 273              		.thumb_func
 274              		.type	RTC_1_Update, %function
 275              	RTC_1_Update:
 276              	.LFB43:
1093:Generated_Source\PSoC4/RTC_1.c **** 
1094:Generated_Source\PSoC4/RTC_1.c **** 
1095:Generated_Source\PSoC4/RTC_1.c **** /*******************************************************************************
1096:Generated_Source\PSoC4/RTC_1.c **** * Function Name: RTC_1_Update
1097:Generated_Source\PSoC4/RTC_1.c **** ****************************************************************************//**
1098:Generated_Source\PSoC4/RTC_1.c **** *
1099:Generated_Source\PSoC4/RTC_1.c **** * This API updates the time registers and performs alarm/DST check.
1100:Generated_Source\PSoC4/RTC_1.c **** *
1101:Generated_Source\PSoC4/RTC_1.c **** * This function increments the time/date registers by an input clock period.
1102:Generated_Source\PSoC4/RTC_1.c **** * The period is set by RTC_1_SetPeriod() API or WDT period selected 
1103:Generated_Source\PSoC4/RTC_1.c **** * for RTC in the clocks configuration window (low frequency clocks tab) 
1104:Generated_Source\PSoC4/RTC_1.c **** * interface every time it is called.
1105:Generated_Source\PSoC4/RTC_1.c **** *
1106:Generated_Source\PSoC4/RTC_1.c **** * API is automatically mapped to the callback slot of WDT or DeepSleep Timer 
1107:Generated_Source\PSoC4/RTC_1.c **** * and period, if the configuration is as follows:
1108:Generated_Source\PSoC4/RTC_1.c **** * 1) Option "Implement RTC update manually" in the customizer is unchecked
1109:Generated_Source\PSoC4/RTC_1.c **** * 2) One of WDTs or DeeSleep Timers is selected in the "Use for RTC" panel of 
1110:Generated_Source\PSoC4/RTC_1.c **** * the low frequency clocks tab
1111:Generated_Source\PSoC4/RTC_1.c **** * 3) Option "Implementation by IDE" is selected in the "Timer (WDT) ISR" panel.
1112:Generated_Source\PSoC4/RTC_1.c **** *
1113:Generated_Source\PSoC4/RTC_1.c **** * If option "Implement RTC update manually" is checked in the customizer or
1114:Generated_Source\PSoC4/RTC_1.c **** * option "None" is selected in the "Use for RTC" panel, it is the user's
1115:Generated_Source\PSoC4/RTC_1.c **** * responsibility:
1116:Generated_Source\PSoC4/RTC_1.c **** * 1) to call this API from the clock ISR to be used as the RTC's input
1117:Generated_Source\PSoC4/RTC_1.c **** * 2) set the period of the RTC through RTC_1_SetPeriod() API.
1118:Generated_Source\PSoC4/RTC_1.c **** *
1119:Generated_Source\PSoC4/RTC_1.c **** * \note Updates the Unix time register, updates the alarm and DST status.
1120:Generated_Source\PSoC4/RTC_1.c **** *
1121:Generated_Source\PSoC4/RTC_1.c **** *******************************************************************************/
1122:Generated_Source\PSoC4/RTC_1.c **** void RTC_1_Update(void)
1123:Generated_Source\PSoC4/RTC_1.c **** {
 277              		.loc 1 1123 0
 278              		.cfi_startproc
 279              		@ args = 0, pretend = 0, frame = 0
 280              		@ frame_needed = 0, uses_anonymous_args = 0
 281 0000 70B5     		push	{r4, r5, r6, lr}
 282              		.cfi_def_cfa_offset 16
 283              		.cfi_offset 4, -16
 284              		.cfi_offset 5, -12
 285              		.cfi_offset 6, -8
 286              		.cfi_offset 14, -4
1124:Generated_Source\PSoC4/RTC_1.c ****     static uint32 RTC_1_currentTickNumber = 0u;
1125:Generated_Source\PSoC4/RTC_1.c ****     RTC_1_currentTickNumber += RTC_1_updateTimePeriod;
 287              		.loc 1 1125 0
 288 0002 0B4A     		ldr	r2, .L21
 289 0004 9368     		ldr	r3, [r2, #8]
 290 0006 1168     		ldr	r1, [r2]
 291 0008 8C46     		mov	ip, r1
 292 000a 6344     		add	r3, r3, ip
 293 000c 9360     		str	r3, [r2, #8]
1126:Generated_Source\PSoC4/RTC_1.c **** 
1127:Generated_Source\PSoC4/RTC_1.c ****     if(RTC_1_currentTickNumber >= RTC_1_tickRefOneSec)
 294              		.loc 1 1127 0
ARM GAS  C:\Users\austc\AppData\Local\Temp\ccaNEfOM.s 			page 26


 295 000e 5268     		ldr	r2, [r2, #4]
 296 0010 9342     		cmp	r3, r2
 297 0012 0BD3     		bcc	.L19
1128:Generated_Source\PSoC4/RTC_1.c ****     {
1129:Generated_Source\PSoC4/RTC_1.c ****         RTC_1_unixTime++;
 298              		.loc 1 1129 0
 299 0014 074E     		ldr	r6, .L21+4
 300 0016 3468     		ldr	r4, [r6]
 301 0018 7568     		ldr	r5, [r6, #4]
 302 001a 0120     		movs	r0, #1
 303 001c 0021     		movs	r1, #0
 304 001e 0019     		adds	r0, r0, r4
 305 0020 6941     		adcs	r1, r1, r5
 306 0022 3060     		str	r0, [r6]
 307 0024 7160     		str	r1, [r6, #4]
1130:Generated_Source\PSoC4/RTC_1.c ****         RTC_1_currentTickNumber = 
1131:Generated_Source\PSoC4/RTC_1.c ****         (uint32) RTC_1_currentTickNumber - RTC_1_tickRefOneSec;
 308              		.loc 1 1131 0
 309 0026 9B1A     		subs	r3, r3, r2
1130:Generated_Source\PSoC4/RTC_1.c ****         RTC_1_currentTickNumber = 
 310              		.loc 1 1130 0
 311 0028 014A     		ldr	r2, .L21
 312 002a 9360     		str	r3, [r2, #8]
 313              	.L19:
1132:Generated_Source\PSoC4/RTC_1.c **** 
1133:Generated_Source\PSoC4/RTC_1.c ****     #if(0u != RTC_1_INITIAL_DST_STATUS)
1134:Generated_Source\PSoC4/RTC_1.c ****         if(RTC_1_unixTime == RTC_1_unixTimeDstStart)
1135:Generated_Source\PSoC4/RTC_1.c ****         {
1136:Generated_Source\PSoC4/RTC_1.c ****             RTC_1_dstStatus = 1u;
1137:Generated_Source\PSoC4/RTC_1.c ****             RTC_1_dstTimeOffset = RTC_1_SECONDS_PER_HOUR;
1138:Generated_Source\PSoC4/RTC_1.c ****         }
1139:Generated_Source\PSoC4/RTC_1.c **** 
1140:Generated_Source\PSoC4/RTC_1.c ****         if(RTC_1_unixTime == (RTC_1_unixTimeDstStop - RTC_1_dstTimeOffset))
1141:Generated_Source\PSoC4/RTC_1.c ****         {
1142:Generated_Source\PSoC4/RTC_1.c ****             RTC_1_dstStatus = 0u;
1143:Generated_Source\PSoC4/RTC_1.c ****             RTC_1_dstTimeOffset = 0u;
1144:Generated_Source\PSoC4/RTC_1.c ****             RTC_1_unixTimeDstStart = RTC_1_GetDstUnixTime(&RTC_1_dstStartTime);
1145:Generated_Source\PSoC4/RTC_1.c ****             RTC_1_unixTimeDstStop  = RTC_1_GetDstUnixTime(&RTC_1_dstStopTime);
1146:Generated_Source\PSoC4/RTC_1.c ****         }
1147:Generated_Source\PSoC4/RTC_1.c ****     #endif /* (0u != RTC_1_INITIAL_DST_STATUS) */
1148:Generated_Source\PSoC4/RTC_1.c **** 
1149:Generated_Source\PSoC4/RTC_1.c ****     #if(0u != RTC_1_INITIAL_ALARM_STATUS)
1150:Generated_Source\PSoC4/RTC_1.c ****         if((RTC_1_unixTime + RTC_1_dstTimeOffset) == RTC_1_unixTimeAlarm)
1151:Generated_Source\PSoC4/RTC_1.c ****         {
1152:Generated_Source\PSoC4/RTC_1.c ****             RTC_1_currentTimeDate.status |= (1uL << RTC_1_STATUS_ALARM_OFFSET);
1153:Generated_Source\PSoC4/RTC_1.c ****             RTC_1_alarmCurStatus = RTC_1_alarmCfgMask;
1154:Generated_Source\PSoC4/RTC_1.c **** 
1155:Generated_Source\PSoC4/RTC_1.c ****             RTC_1_unixTimeAlarm = 
1156:Generated_Source\PSoC4/RTC_1.c ****             RTC_1_GetNexAlarmTime(RTC_1_unixTime + RTC_1_dstTimeOffset,
1157:Generated_Source\PSoC4/RTC_1.c ****                                                                    (uint8)RTC_1_alarmCfgMask);
1158:Generated_Source\PSoC4/RTC_1.c **** 
1159:Generated_Source\PSoC4/RTC_1.c ****             /* Call callback function only after new alarm time is obtained.
1160:Generated_Source\PSoC4/RTC_1.c ****             * Cypress ticket #264756
1161:Generated_Source\PSoC4/RTC_1.c ****             */
1162:Generated_Source\PSoC4/RTC_1.c ****             if (RTC_1_alarmCallbackPtr != NULL)
1163:Generated_Source\PSoC4/RTC_1.c ****             {
1164:Generated_Source\PSoC4/RTC_1.c ****                 RTC_1_alarmCallbackPtr();
ARM GAS  C:\Users\austc\AppData\Local\Temp\ccaNEfOM.s 			page 27


1165:Generated_Source\PSoC4/RTC_1.c ****             }
1166:Generated_Source\PSoC4/RTC_1.c ****         }
1167:Generated_Source\PSoC4/RTC_1.c ****     #endif/* (0u != RTC_1_INITIAL_ALARM_STATUS) */
1168:Generated_Source\PSoC4/RTC_1.c ****     }
1169:Generated_Source\PSoC4/RTC_1.c **** }
 314              		.loc 1 1169 0
 315              		@ sp needed
 316 002c 70BD     		pop	{r4, r5, r6, pc}
 317              	.L22:
 318 002e C046     		.align	2
 319              	.L21:
 320 0030 00000000 		.word	.LANCHOR0
 321 0034 00000000 		.word	RTC_1_unixTime
 322              		.cfi_endproc
 323              	.LFE43:
 324              		.size	RTC_1_Update, .-RTC_1_Update
 325              		.global	__aeabi_lmul
 326              		.section	.text.RTC_1_DateTimeToUnix,"ax",%progbits
 327              		.align	2
 328              		.global	RTC_1_DateTimeToUnix
 329              		.code	16
 330              		.thumb_func
 331              		.type	RTC_1_DateTimeToUnix, %function
 332              	RTC_1_DateTimeToUnix:
 333              	.LFB44:
1170:Generated_Source\PSoC4/RTC_1.c **** 
1171:Generated_Source\PSoC4/RTC_1.c **** 
1172:Generated_Source\PSoC4/RTC_1.c **** /*******************************************************************************
1173:Generated_Source\PSoC4/RTC_1.c **** * Function Name: RTC_1_DateTimeToUnix
1174:Generated_Source\PSoC4/RTC_1.c **** ****************************************************************************//**
1175:Generated_Source\PSoC4/RTC_1.c **** *
1176:Generated_Source\PSoC4/RTC_1.c **** * This is an internal function to convert the date and time from the regular 
1177:Generated_Source\PSoC4/RTC_1.c **** * time format into the UNIX time format.
1178:Generated_Source\PSoC4/RTC_1.c **** *
1179:Generated_Source\PSoC4/RTC_1.c **** * \param inputDate
1180:Generated_Source\PSoC4/RTC_1.c **** * The date in the selected in the customizer "date format"
1181:Generated_Source\PSoC4/RTC_1.c **** *
1182:Generated_Source\PSoC4/RTC_1.c **** * \param inputTime
1183:Generated_Source\PSoC4/RTC_1.c **** * The time in the defined "time format"
1184:Generated_Source\PSoC4/RTC_1.c **** *
1185:Generated_Source\PSoC4/RTC_1.c **** * \return
1186:Generated_Source\PSoC4/RTC_1.c **** * Returns the date and time in the UNIX format
1187:Generated_Source\PSoC4/RTC_1.c **** *
1188:Generated_Source\PSoC4/RTC_1.c **** *******************************************************************************/
1189:Generated_Source\PSoC4/RTC_1.c **** uint64 RTC_1_DateTimeToUnix(uint32 inputDate, uint32 inputTime)
1190:Generated_Source\PSoC4/RTC_1.c **** {
 334              		.loc 1 1190 0
 335              		.cfi_startproc
 336              		@ args = 0, pretend = 0, frame = 0
 337              		@ frame_needed = 0, uses_anonymous_args = 0
 338              	.LVL23:
 339 0000 F0B5     		push	{r4, r5, r6, r7, lr}
 340              		.cfi_def_cfa_offset 20
 341              		.cfi_offset 4, -20
 342              		.cfi_offset 5, -16
 343              		.cfi_offset 6, -12
 344              		.cfi_offset 7, -8
ARM GAS  C:\Users\austc\AppData\Local\Temp\ccaNEfOM.s 			page 28


 345              		.cfi_offset 14, -4
 346 0002 5746     		mov	r7, r10
 347 0004 4E46     		mov	r6, r9
 348 0006 4546     		mov	r5, r8
 349 0008 E0B4     		push	{r5, r6, r7}
 350              		.cfi_def_cfa_offset 32
 351              		.cfi_offset 8, -32
 352              		.cfi_offset 9, -28
 353              		.cfi_offset 10, -24
 354 000a 8046     		mov	r8, r0
 355 000c 0E00     		movs	r6, r1
 356              	.LVL24:
 357              	.LBB61:
 358              	.LBB62:
 359              		.file 2 "Generated_Source\\PSoC4\\RTC_1.h"
   1:Generated_Source\PSoC4/RTC_1.h **** /***************************************************************************//**
   2:Generated_Source\PSoC4/RTC_1.h **** * \file Name: RTC_1.h
   3:Generated_Source\PSoC4/RTC_1.h **** * \version 1.30
   4:Generated_Source\PSoC4/RTC_1.h **** *
   5:Generated_Source\PSoC4/RTC_1.h **** *  This file provides constants and parameter values for the RTC_P4 Component.
   6:Generated_Source\PSoC4/RTC_1.h **** *
   7:Generated_Source\PSoC4/RTC_1.h **** ********************************************************************************
   8:Generated_Source\PSoC4/RTC_1.h **** * Copyright 2015-2017, Cypress Semiconductor Corporation.  All rights reserved.
   9:Generated_Source\PSoC4/RTC_1.h **** * You may use this file only in accordance with the license, terms, conditions,
  10:Generated_Source\PSoC4/RTC_1.h **** * disclaimers, and limitations in the end user license agreement accompanying
  11:Generated_Source\PSoC4/RTC_1.h **** * the software package with which this file was provided.
  12:Generated_Source\PSoC4/RTC_1.h **** *******************************************************************************/
  13:Generated_Source\PSoC4/RTC_1.h **** 
  14:Generated_Source\PSoC4/RTC_1.h **** #if !defined(CY_RTC_P4_RTC_1_H)
  15:Generated_Source\PSoC4/RTC_1.h **** #define CY_RTC_P4_RTC_1_H
  16:Generated_Source\PSoC4/RTC_1.h **** 
  17:Generated_Source\PSoC4/RTC_1.h **** #include <cytypes.h>
  18:Generated_Source\PSoC4/RTC_1.h **** #include <CyLib.h>
  19:Generated_Source\PSoC4/RTC_1.h **** 
  20:Generated_Source\PSoC4/RTC_1.h **** 
  21:Generated_Source\PSoC4/RTC_1.h **** /*******************************************************************************
  22:Generated_Source\PSoC4/RTC_1.h **** *    Data types definition
  23:Generated_Source\PSoC4/RTC_1.h **** *******************************************************************************/
  24:Generated_Source\PSoC4/RTC_1.h **** /**
  25:Generated_Source\PSoC4/RTC_1.h **** * \addtogroup group_enums
  26:Generated_Source\PSoC4/RTC_1.h **** * \{
  27:Generated_Source\PSoC4/RTC_1.h **** */
  28:Generated_Source\PSoC4/RTC_1.h **** /** Daylight saving Time format enumeration */
  29:Generated_Source\PSoC4/RTC_1.h **** typedef enum
  30:Generated_Source\PSoC4/RTC_1.h **** {
  31:Generated_Source\PSoC4/RTC_1.h ****     RTC_1_DST_DATE_RELATIVE = 0u,  /**< Relative DST format */
  32:Generated_Source\PSoC4/RTC_1.h ****     RTC_1_DST_DATE_FIXED = 1u      /**< Fixed DST format */
  33:Generated_Source\PSoC4/RTC_1.h **** }RTC_1_DST_DATETYPE_ENUM;
  34:Generated_Source\PSoC4/RTC_1.h **** /** \} group_enums */
  35:Generated_Source\PSoC4/RTC_1.h **** 
  36:Generated_Source\PSoC4/RTC_1.h **** /**
  37:Generated_Source\PSoC4/RTC_1.h **** * \addtogroup group_structures
  38:Generated_Source\PSoC4/RTC_1.h **** * \{
  39:Generated_Source\PSoC4/RTC_1.h **** */
  40:Generated_Source\PSoC4/RTC_1.h **** 
  41:Generated_Source\PSoC4/RTC_1.h **** /** RTC_1_DATE_TIME structure is the data structure that is used to 
  42:Generated_Source\PSoC4/RTC_1.h **** * save the current time and date (RTC_currentTimeDate), and Alarm time and date 
ARM GAS  C:\Users\austc\AppData\Local\Temp\ccaNEfOM.s 			page 29


  43:Generated_Source\PSoC4/RTC_1.h **** *(RTC_alarmCfgTimeDate)
  44:Generated_Source\PSoC4/RTC_1.h **** *
  45:Generated_Source\PSoC4/RTC_1.h **** */
  46:Generated_Source\PSoC4/RTC_1.h **** typedef struct
  47:Generated_Source\PSoC4/RTC_1.h **** {
  48:Generated_Source\PSoC4/RTC_1.h ****     uint32 time;        /**< Time in the format used in API*/
  49:Generated_Source\PSoC4/RTC_1.h ****     uint32 date;        /**< Date in the format used in API*/
  50:Generated_Source\PSoC4/RTC_1.h ****     uint32 dayOfWeek;   /**< Day of the week, see \ref group_rtc_day_of_the_week */
  51:Generated_Source\PSoC4/RTC_1.h ****     uint32 status;      /**< RTC status, see \ref group_rtc_status */
  52:Generated_Source\PSoC4/RTC_1.h **** }RTC_1_DATE_TIME;
  53:Generated_Source\PSoC4/RTC_1.h **** 
  54:Generated_Source\PSoC4/RTC_1.h **** /*
  55:Generated_Source\PSoC4/RTC_1.h **** * RTC_1_DST_TIME structure is the data structure that is used to 
  56:Generated_Source\PSoC4/RTC_1.h **** * save time and date values for Daylight Savings Time Start and Stop 
  57:Generated_Source\PSoC4/RTC_1.h **** * (RTC_dstTimeDateStart and RTC_dstTimeDateStop)
  58:Generated_Source\PSoC4/RTC_1.h **** */
  59:Generated_Source\PSoC4/RTC_1.h **** typedef struct
  60:Generated_Source\PSoC4/RTC_1.h **** {
  61:Generated_Source\PSoC4/RTC_1.h ****     uint32 hour;          /**< Hour value */
  62:Generated_Source\PSoC4/RTC_1.h ****     uint32 dayOfWeek;     /**< Day of the week, see \ref group_rtc_day_of_the_week */
  63:Generated_Source\PSoC4/RTC_1.h ****     uint32 dayOfMonth;    /**< Day of the month */
  64:Generated_Source\PSoC4/RTC_1.h ****     uint32 weekOfMonth;   /**< Week of the month, see \ref group_rtc_dst_week_of_month */
  65:Generated_Source\PSoC4/RTC_1.h ****     uint32 month;         /**< Month value, see \ref group_rtc_month */
  66:Generated_Source\PSoC4/RTC_1.h ****     uint8  timeFormat;    /**< The DST operation mode, see \ref 
  67:Generated_Source\PSoC4/RTC_1.h ****                                RTC_1_DST_DATETYPE_ENUM */
  68:Generated_Source\PSoC4/RTC_1.h **** }RTC_1_DST_TIME;
  69:Generated_Source\PSoC4/RTC_1.h **** /** \} group_structures */
  70:Generated_Source\PSoC4/RTC_1.h **** 
  71:Generated_Source\PSoC4/RTC_1.h **** /*******************************************************************************
  72:Generated_Source\PSoC4/RTC_1.h **** *    Enumerated Types and Parameters
  73:Generated_Source\PSoC4/RTC_1.h **** *******************************************************************************/
  74:Generated_Source\PSoC4/RTC_1.h **** /* Time Format setting constants */
  75:Generated_Source\PSoC4/RTC_1.h **** #define RTC_1__HOUR_12 1
  76:Generated_Source\PSoC4/RTC_1.h **** #define RTC_1__HOUR_24 0
  77:Generated_Source\PSoC4/RTC_1.h **** 
  78:Generated_Source\PSoC4/RTC_1.h **** /*  Date Format setting constants */
  79:Generated_Source\PSoC4/RTC_1.h **** #define RTC_1__MM_DD_YYYY 0
  80:Generated_Source\PSoC4/RTC_1.h **** #define RTC_1__DD_MM_YYYY 1
  81:Generated_Source\PSoC4/RTC_1.h **** #define RTC_1__YYYY_MM_DD 2
  82:Generated_Source\PSoC4/RTC_1.h **** 
  83:Generated_Source\PSoC4/RTC_1.h **** /* Date Type setting constants */
  84:Generated_Source\PSoC4/RTC_1.h **** #define RTC_1__RELATIVE 0
  85:Generated_Source\PSoC4/RTC_1.h **** #define RTC_1__FIXED 1
  86:Generated_Source\PSoC4/RTC_1.h **** 
  87:Generated_Source\PSoC4/RTC_1.h **** /* DST Hour setting constants */
  88:Generated_Source\PSoC4/RTC_1.h **** #define RTC_1__H0000 0
  89:Generated_Source\PSoC4/RTC_1.h **** #define RTC_1__H0100 1
  90:Generated_Source\PSoC4/RTC_1.h **** #define RTC_1__H0200 2
  91:Generated_Source\PSoC4/RTC_1.h **** #define RTC_1__H0300 3
  92:Generated_Source\PSoC4/RTC_1.h **** #define RTC_1__H0400 4
  93:Generated_Source\PSoC4/RTC_1.h **** #define RTC_1__H0500 5
  94:Generated_Source\PSoC4/RTC_1.h **** #define RTC_1__H0600 6
  95:Generated_Source\PSoC4/RTC_1.h **** #define RTC_1__H0700 7
  96:Generated_Source\PSoC4/RTC_1.h **** #define RTC_1__H0800 8
  97:Generated_Source\PSoC4/RTC_1.h **** #define RTC_1__H0900 9
  98:Generated_Source\PSoC4/RTC_1.h **** #define RTC_1__H1000 10
  99:Generated_Source\PSoC4/RTC_1.h **** #define RTC_1__H1100 11
ARM GAS  C:\Users\austc\AppData\Local\Temp\ccaNEfOM.s 			page 30


 100:Generated_Source\PSoC4/RTC_1.h **** #define RTC_1__H1200 12
 101:Generated_Source\PSoC4/RTC_1.h **** #define RTC_1__H1300 13
 102:Generated_Source\PSoC4/RTC_1.h **** #define RTC_1__H1400 14
 103:Generated_Source\PSoC4/RTC_1.h **** #define RTC_1__H1500 15
 104:Generated_Source\PSoC4/RTC_1.h **** #define RTC_1__H1600 16
 105:Generated_Source\PSoC4/RTC_1.h **** #define RTC_1__H1700 17
 106:Generated_Source\PSoC4/RTC_1.h **** #define RTC_1__H1800 18
 107:Generated_Source\PSoC4/RTC_1.h **** #define RTC_1__H1900 19
 108:Generated_Source\PSoC4/RTC_1.h **** #define RTC_1__H2000 20
 109:Generated_Source\PSoC4/RTC_1.h **** #define RTC_1__H2100 21
 110:Generated_Source\PSoC4/RTC_1.h **** #define RTC_1__H2200 22
 111:Generated_Source\PSoC4/RTC_1.h **** #define RTC_1__H2300 23
 112:Generated_Source\PSoC4/RTC_1.h **** 
 113:Generated_Source\PSoC4/RTC_1.h **** /* DST DayOfWeek setting constants */
 114:Generated_Source\PSoC4/RTC_1.h **** #define RTC_1__SUNDAY 1
 115:Generated_Source\PSoC4/RTC_1.h **** #define RTC_1__MONDAY 2
 116:Generated_Source\PSoC4/RTC_1.h **** #define RTC_1__TUESDAY 3
 117:Generated_Source\PSoC4/RTC_1.h **** #define RTC_1__WEDNESDAY 4
 118:Generated_Source\PSoC4/RTC_1.h **** #define RTC_1__THURSDAY 5
 119:Generated_Source\PSoC4/RTC_1.h **** #define RTC_1__FRIDAY 6
 120:Generated_Source\PSoC4/RTC_1.h **** #define RTC_1__SATURDAY 7
 121:Generated_Source\PSoC4/RTC_1.h **** 
 122:Generated_Source\PSoC4/RTC_1.h **** /* DST Month setting constants */
 123:Generated_Source\PSoC4/RTC_1.h **** #define RTC_1__JAN 1
 124:Generated_Source\PSoC4/RTC_1.h **** #define RTC_1__FEB 2
 125:Generated_Source\PSoC4/RTC_1.h **** #define RTC_1__MAR 3
 126:Generated_Source\PSoC4/RTC_1.h **** #define RTC_1__APR 4
 127:Generated_Source\PSoC4/RTC_1.h **** #define RTC_1__MAY 5
 128:Generated_Source\PSoC4/RTC_1.h **** #define RTC_1__JUN 6
 129:Generated_Source\PSoC4/RTC_1.h **** #define RTC_1__JUL 7
 130:Generated_Source\PSoC4/RTC_1.h **** #define RTC_1__AUG 8
 131:Generated_Source\PSoC4/RTC_1.h **** #define RTC_1__SEP 9
 132:Generated_Source\PSoC4/RTC_1.h **** #define RTC_1__OCT 10
 133:Generated_Source\PSoC4/RTC_1.h **** #define RTC_1__NOV 11
 134:Generated_Source\PSoC4/RTC_1.h **** #define RTC_1__DEC 12
 135:Generated_Source\PSoC4/RTC_1.h **** 
 136:Generated_Source\PSoC4/RTC_1.h **** /* DST WeekOfMonth setting constants */
 137:Generated_Source\PSoC4/RTC_1.h **** #define RTC_1__FIRST 1
 138:Generated_Source\PSoC4/RTC_1.h **** #define RTC_1__SECOND 2
 139:Generated_Source\PSoC4/RTC_1.h **** #define RTC_1__THIRD 3
 140:Generated_Source\PSoC4/RTC_1.h **** #define RTC_1__FOURTH 4
 141:Generated_Source\PSoC4/RTC_1.h **** #define RTC_1__FIFTH 5
 142:Generated_Source\PSoC4/RTC_1.h **** #define RTC_1__LAST 6
 143:Generated_Source\PSoC4/RTC_1.h **** 
 144:Generated_Source\PSoC4/RTC_1.h **** 
 145:Generated_Source\PSoC4/RTC_1.h **** #define RTC_1_INITIAL_DATA_FORMAT     (0u)
 146:Generated_Source\PSoC4/RTC_1.h **** #define RTC_1_INITIAL_TIME_FORMAT     (1u)
 147:Generated_Source\PSoC4/RTC_1.h **** #define RTC_1_INITIAL_UPDATE_MODE     (0u)
 148:Generated_Source\PSoC4/RTC_1.h **** #define RTC_1_INITIAL_SECOND          (0u)
 149:Generated_Source\PSoC4/RTC_1.h **** #define RTC_1_INITIAL_MINUTE          (0u)
 150:Generated_Source\PSoC4/RTC_1.h **** #define RTC_1_INITIAL_HOUR            (0u)
 151:Generated_Source\PSoC4/RTC_1.h **** #define RTC_1_INITIAL_DAY             (1u)
 152:Generated_Source\PSoC4/RTC_1.h **** #define RTC_1_INITIAL_MONTH           (1u)
 153:Generated_Source\PSoC4/RTC_1.h **** #define RTC_1_INITIAL_YEAR            (1970u)
 154:Generated_Source\PSoC4/RTC_1.h **** 
 155:Generated_Source\PSoC4/RTC_1.h **** #define RTC_1_INITIAL_ALARM_STATUS    (0u)
 156:Generated_Source\PSoC4/RTC_1.h **** 
ARM GAS  C:\Users\austc\AppData\Local\Temp\ccaNEfOM.s 			page 31


 157:Generated_Source\PSoC4/RTC_1.h **** #define RTC_1_INITIAL_DST_STATUS      (0u)
 158:Generated_Source\PSoC4/RTC_1.h **** #define RTC_1_INITIAL_DST_DATE_TYPE   (0u)
 159:Generated_Source\PSoC4/RTC_1.h **** #define RTC_1_INITIAL_DST_START_MONTH (3uL)
 160:Generated_Source\PSoC4/RTC_1.h **** #define RTC_1_INITIAL_DST_START_WOM   (6uL)
 161:Generated_Source\PSoC4/RTC_1.h **** #define RTC_1_INITIAL_DST_START_DOM   (22uL)
 162:Generated_Source\PSoC4/RTC_1.h **** #define RTC_1_INITIAL_DST_START_DOW   (1uL)
 163:Generated_Source\PSoC4/RTC_1.h **** #define RTC_1_INITIAL_DST_START_HRS   (0uL)
 164:Generated_Source\PSoC4/RTC_1.h **** #define RTC_1_INITIAL_DST_STOP_MONTH  (10uL)
 165:Generated_Source\PSoC4/RTC_1.h **** #define RTC_1_INITIAL_DST_STOP_DOM    (22uL)
 166:Generated_Source\PSoC4/RTC_1.h **** #define RTC_1_INITIAL_DST_STOP_DOW    (1uL)
 167:Generated_Source\PSoC4/RTC_1.h **** #define RTC_1_INITIAL_DST_STOP_WOM    (6uL)
 168:Generated_Source\PSoC4/RTC_1.h **** #define RTC_1_INITIAL_DST_STOP_HRS    (0uL)
 169:Generated_Source\PSoC4/RTC_1.h **** 
 170:Generated_Source\PSoC4/RTC_1.h **** /**
 171:Generated_Source\PSoC4/RTC_1.h **** * \addtogroup group_constants
 172:Generated_Source\PSoC4/RTC_1.h **** * \{
 173:Generated_Source\PSoC4/RTC_1.h **** */
 174:Generated_Source\PSoC4/RTC_1.h **** 
 175:Generated_Source\PSoC4/RTC_1.h **** /**
 176:Generated_Source\PSoC4/RTC_1.h **** * \defgroup group_rtc_day_of_the_week Day of the week definitions
 177:Generated_Source\PSoC4/RTC_1.h **** * \{
 178:Generated_Source\PSoC4/RTC_1.h **** * Definitions of days in the week
 179:Generated_Source\PSoC4/RTC_1.h **** */
 180:Generated_Source\PSoC4/RTC_1.h **** #define RTC_1_SUNDAY     (RTC_1__SUNDAY)       /**< Sequential number of Sunday in the week */
 181:Generated_Source\PSoC4/RTC_1.h **** #define RTC_1_MONDAY     (RTC_1__MONDAY)       /**< Sequential number of Monday in the week */
 182:Generated_Source\PSoC4/RTC_1.h **** #define RTC_1_TUESDAY    (RTC_1__TUESDAY)      /**< Sequential number of Tuesday in the week */
 183:Generated_Source\PSoC4/RTC_1.h **** #define RTC_1_WEDNESDAY  (RTC_1__WEDNESDAY)    /**< Sequential number of Wednesday in the week */
 184:Generated_Source\PSoC4/RTC_1.h **** #define RTC_1_THURSDAY   (RTC_1__THURSDAY)     /**< Sequential number of Thursday in the week */
 185:Generated_Source\PSoC4/RTC_1.h **** #define RTC_1_FRIDAY     (RTC_1__FRIDAY)       /**< Sequential number of Friday in the week */
 186:Generated_Source\PSoC4/RTC_1.h **** #define RTC_1_SATURDAY   (RTC_1__SATURDAY)     /**< Sequential number of Saturday in the week */
 187:Generated_Source\PSoC4/RTC_1.h **** /** \} group_rtc_day_of_the_week */
 188:Generated_Source\PSoC4/RTC_1.h **** 
 189:Generated_Source\PSoC4/RTC_1.h **** /**
 190:Generated_Source\PSoC4/RTC_1.h **** * \defgroup group_rtc_dst_week_of_month DST Week of month setting constants definitions
 191:Generated_Source\PSoC4/RTC_1.h **** * \{
 192:Generated_Source\PSoC4/RTC_1.h **** * Week of month setting constants definitions for Daylight Saving Time feature
 193:Generated_Source\PSoC4/RTC_1.h **** */
 194:Generated_Source\PSoC4/RTC_1.h **** #define RTC_1_FIRST      (RTC_1__FIRST)   /**< First week in the month */
 195:Generated_Source\PSoC4/RTC_1.h **** #define RTC_1_SECOND     (RTC_1__SECOND)  /**< Second week in the month  */
 196:Generated_Source\PSoC4/RTC_1.h **** #define RTC_1_THIRD      (RTC_1__THIRD)   /**< Third week in the month  */
 197:Generated_Source\PSoC4/RTC_1.h **** #define RTC_1_FOURTH     (RTC_1__FOURTH)  /**< Fourth week in the month  */
 198:Generated_Source\PSoC4/RTC_1.h **** #define RTC_1_FIFTH      (RTC_1__FIFTH)   /**< Fifth week in the month  */
 199:Generated_Source\PSoC4/RTC_1.h **** #define RTC_1_LAST       (RTC_1__LAST)    /**< Last week in the month  */
 200:Generated_Source\PSoC4/RTC_1.h **** /** \} group_rtc_dst_week_of_month */
 201:Generated_Source\PSoC4/RTC_1.h **** 
 202:Generated_Source\PSoC4/RTC_1.h **** /**
 203:Generated_Source\PSoC4/RTC_1.h **** * \defgroup group_rtc_month Month definitions
 204:Generated_Source\PSoC4/RTC_1.h **** * \{
 205:Generated_Source\PSoC4/RTC_1.h **** * Constants definition for Months
 206:Generated_Source\PSoC4/RTC_1.h **** */
 207:Generated_Source\PSoC4/RTC_1.h **** #define RTC_1_JANUARY    (RTC_1__JAN)    /**< Sequential number of January in the year */
 208:Generated_Source\PSoC4/RTC_1.h **** #define RTC_1_FEBRUARY   (RTC_1__FEB)    /**< Sequential number of February in the year */
 209:Generated_Source\PSoC4/RTC_1.h **** #define RTC_1_MARCH      (RTC_1__MAR)    /**< Sequential number of March in the year */
 210:Generated_Source\PSoC4/RTC_1.h **** #define RTC_1_APRIL      (RTC_1__APR)    /**< Sequential number of April in the year */
 211:Generated_Source\PSoC4/RTC_1.h **** #define RTC_1_MAY        (RTC_1__MAY)    /**< Sequential number of May in the year */
 212:Generated_Source\PSoC4/RTC_1.h **** #define RTC_1_JUNE       (RTC_1__JUN)    /**< Sequential number of June in the year */
 213:Generated_Source\PSoC4/RTC_1.h **** #define RTC_1_JULY       (RTC_1__JUL)    /**< Sequential number of July in the year */
ARM GAS  C:\Users\austc\AppData\Local\Temp\ccaNEfOM.s 			page 32


 214:Generated_Source\PSoC4/RTC_1.h **** #define RTC_1_AUGUST     (RTC_1__AUG)    /**< Sequential number of August in the year */
 215:Generated_Source\PSoC4/RTC_1.h **** #define RTC_1_SEPTEMBER  (RTC_1__SEP)    /**< Sequential number of September in the year */
 216:Generated_Source\PSoC4/RTC_1.h **** #define RTC_1_OCTOBER    (RTC_1__OCT)    /**< Sequential number of October in the year */
 217:Generated_Source\PSoC4/RTC_1.h **** #define RTC_1_NOVEMBER   (RTC_1__NOV)    /**< Sequential number of November in the year */
 218:Generated_Source\PSoC4/RTC_1.h **** #define RTC_1_DECEMBER   (RTC_1__DEC)    /**< Sequential number of December in the year */
 219:Generated_Source\PSoC4/RTC_1.h **** /** \} group_rtc_month */
 220:Generated_Source\PSoC4/RTC_1.h **** 
 221:Generated_Source\PSoC4/RTC_1.h **** /**
 222:Generated_Source\PSoC4/RTC_1.h **** * \defgroup group_rtc_am_pm AM/PM status definitions
 223:Generated_Source\PSoC4/RTC_1.h **** * \{
 224:Generated_Source\PSoC4/RTC_1.h **** * Definitions for 12 hour format for indicating the AM/PM period of day
 225:Generated_Source\PSoC4/RTC_1.h **** */
 226:Generated_Source\PSoC4/RTC_1.h **** #define RTC_1_AM                 (0u)    /**< AM period of day */
 227:Generated_Source\PSoC4/RTC_1.h **** #define RTC_1_PM                 (1u)    /**< PM period of day */
 228:Generated_Source\PSoC4/RTC_1.h **** /** \} group_rtc_am_pm */
 229:Generated_Source\PSoC4/RTC_1.h **** 
 230:Generated_Source\PSoC4/RTC_1.h **** /**
 231:Generated_Source\PSoC4/RTC_1.h **** * \defgroup group_rtc_hour_format Hour format definitions
 232:Generated_Source\PSoC4/RTC_1.h **** * \{
 233:Generated_Source\PSoC4/RTC_1.h **** * Definitions for hour format
 234:Generated_Source\PSoC4/RTC_1.h **** */
 235:Generated_Source\PSoC4/RTC_1.h **** #define RTC_1_12_HOURS_FORMAT    (RTC_1__HOUR_12) /**< The 12 hour (AM/PM) format */
 236:Generated_Source\PSoC4/RTC_1.h **** #define RTC_1_24_HOURS_FORMAT    (RTC_1__HOUR_24) /**< The 24 hour format */
 237:Generated_Source\PSoC4/RTC_1.h **** /** \} group_rtc_hour_format */
 238:Generated_Source\PSoC4/RTC_1.h **** 
 239:Generated_Source\PSoC4/RTC_1.h **** /**
 240:Generated_Source\PSoC4/RTC_1.h **** * \defgroup group_rtc_days_in_month Number of days in month definitions
 241:Generated_Source\PSoC4/RTC_1.h **** * \{
 242:Generated_Source\PSoC4/RTC_1.h **** * Definition of days in current month
 243:Generated_Source\PSoC4/RTC_1.h **** */
 244:Generated_Source\PSoC4/RTC_1.h **** #define RTC_1_DAYS_IN_JANUARY     (31u)    /**< Number of days in January  */
 245:Generated_Source\PSoC4/RTC_1.h **** #define RTC_1_DAYS_IN_FEBRUARY    (28u)    /**< Number of days in February */
 246:Generated_Source\PSoC4/RTC_1.h **** #define RTC_1_DAYS_IN_MARCH       (31u)    /**< Number of days in March */
 247:Generated_Source\PSoC4/RTC_1.h **** #define RTC_1_DAYS_IN_APRIL       (30u)    /**< Number of days in April */
 248:Generated_Source\PSoC4/RTC_1.h **** #define RTC_1_DAYS_IN_MAY         (31u)    /**< Number of days in May */
 249:Generated_Source\PSoC4/RTC_1.h **** #define RTC_1_DAYS_IN_JUNE        (30u)    /**< Number of days in June */
 250:Generated_Source\PSoC4/RTC_1.h **** #define RTC_1_DAYS_IN_JULY        (31u)    /**< Number of days in July */
 251:Generated_Source\PSoC4/RTC_1.h **** #define RTC_1_DAYS_IN_AUGUST      (31u)    /**< Number of days in August */
 252:Generated_Source\PSoC4/RTC_1.h **** #define RTC_1_DAYS_IN_SEPTEMBER   (30u)    /**< Number of days in September */
 253:Generated_Source\PSoC4/RTC_1.h **** #define RTC_1_DAYS_IN_OCTOBER     (31u)    /**< Number of days in October */
 254:Generated_Source\PSoC4/RTC_1.h **** #define RTC_1_DAYS_IN_NOVEMBER    (30u)    /**< Number of days in November */
 255:Generated_Source\PSoC4/RTC_1.h **** #define RTC_1_DAYS_IN_DECEMBER    (31u)    /**< Number of days in December */
 256:Generated_Source\PSoC4/RTC_1.h **** /** \} group_rtc_days_in_month */
 257:Generated_Source\PSoC4/RTC_1.h **** 
 258:Generated_Source\PSoC4/RTC_1.h **** /**
 259:Generated_Source\PSoC4/RTC_1.h **** * \defgroup group_rtc_status Definitions of the RTC status values
 260:Generated_Source\PSoC4/RTC_1.h **** * \{
 261:Generated_Source\PSoC4/RTC_1.h **** * Definitions for status software register, which has flags for DST (DST),
 262:Generated_Source\PSoC4/RTC_1.h **** * Leap Year (LY), AM/PM (AM_PM).
 263:Generated_Source\PSoC4/RTC_1.h **** */
 264:Generated_Source\PSoC4/RTC_1.h **** 
 265:Generated_Source\PSoC4/RTC_1.h **** /** Status of Daylight Saving Time. This bit
 266:Generated_Source\PSoC4/RTC_1.h **** * goes high when the current time and date match the DST time and date and the 
 267:Generated_Source\PSoC4/RTC_1.h **** * time is incremented. This bit goes low after the DST interval and the time is 
 268:Generated_Source\PSoC4/RTC_1.h **** * decremented.
 269:Generated_Source\PSoC4/RTC_1.h **** */
 270:Generated_Source\PSoC4/RTC_1.h **** #define RTC_1_STATUS_DST     (1uL << RTC_1_STATUS_DST_OFFSET)
ARM GAS  C:\Users\austc\AppData\Local\Temp\ccaNEfOM.s 			page 33


 271:Generated_Source\PSoC4/RTC_1.h **** 
 272:Generated_Source\PSoC4/RTC_1.h **** /** Status of Leap Year. This bit goes high when the current year is a leap year */
 273:Generated_Source\PSoC4/RTC_1.h **** #define RTC_1_STATUS_LY      (1uL << RTC_1_STATUS_LY_OFFSET)
 274:Generated_Source\PSoC4/RTC_1.h **** 
 275:Generated_Source\PSoC4/RTC_1.h **** /** Status of Current Time. This bit is low from midnight to noon and high from 
 276:Generated_Source\PSoC4/RTC_1.h **** *  noon to midnight. */
 277:Generated_Source\PSoC4/RTC_1.h **** #define RTC_1_STATUS_AM_PM   (1uL << RTC_1_STATUS_AM_PM_OFFSET)
 278:Generated_Source\PSoC4/RTC_1.h **** /** \} group_rtc_status */
 279:Generated_Source\PSoC4/RTC_1.h **** 
 280:Generated_Source\PSoC4/RTC_1.h **** /**
 281:Generated_Source\PSoC4/RTC_1.h **** * \defgroup group_rtc_alarm_mask Definitions for Alarm Mask software register
 282:Generated_Source\PSoC4/RTC_1.h **** * \{
 283:Generated_Source\PSoC4/RTC_1.h **** * Definitions for Alarm Mask software register. These masks allow 
 284:Generated_Source\PSoC4/RTC_1.h **** * matching the alarm value register with the current value register.
 285:Generated_Source\PSoC4/RTC_1.h **** */
 286:Generated_Source\PSoC4/RTC_1.h **** 
 287:Generated_Source\PSoC4/RTC_1.h **** /** The second alarm mask allows matching the alarm second register with the 
 288:Generated_Source\PSoC4/RTC_1.h **** *   current second register.
 289:Generated_Source\PSoC4/RTC_1.h **** */
 290:Generated_Source\PSoC4/RTC_1.h **** #define RTC_1_ALARM_SEC_MASK         (0x00000001uL)
 291:Generated_Source\PSoC4/RTC_1.h **** 
 292:Generated_Source\PSoC4/RTC_1.h **** /** The minute alarm mask allows matching the alarm minute register with the 
 293:Generated_Source\PSoC4/RTC_1.h **** *   current minute register.
 294:Generated_Source\PSoC4/RTC_1.h **** */
 295:Generated_Source\PSoC4/RTC_1.h **** #define RTC_1_ALARM_MIN_MASK         (0x00000002uL)
 296:Generated_Source\PSoC4/RTC_1.h **** 
 297:Generated_Source\PSoC4/RTC_1.h **** /** The hour alarm mask allows matching the alarm hour register with the 
 298:Generated_Source\PSoC4/RTC_1.h **** *   current hour register.
 299:Generated_Source\PSoC4/RTC_1.h **** */
 300:Generated_Source\PSoC4/RTC_1.h **** #define RTC_1_ALARM_HOUR_MASK        (0x00000004uL)
 301:Generated_Source\PSoC4/RTC_1.h **** 
 302:Generated_Source\PSoC4/RTC_1.h **** /** The day of the week alarm mask allows matching the alarm hour register with 
 303:Generated_Source\PSoC4/RTC_1.h **** *   the current day of the week register.
 304:Generated_Source\PSoC4/RTC_1.h **** */
 305:Generated_Source\PSoC4/RTC_1.h **** #define RTC_1_ALARM_DAYOFWEEK_MASK   (0x00000008uL)
 306:Generated_Source\PSoC4/RTC_1.h **** 
 307:Generated_Source\PSoC4/RTC_1.h **** /** The day of the Month alarm mask allows matching the alarm hour register with 
 308:Generated_Source\PSoC4/RTC_1.h **** *   the current day of the Month register.
 309:Generated_Source\PSoC4/RTC_1.h **** */
 310:Generated_Source\PSoC4/RTC_1.h **** #define RTC_1_ALARM_DAYOFMONTH_MASK  (0x00000010uL)
 311:Generated_Source\PSoC4/RTC_1.h **** 
 312:Generated_Source\PSoC4/RTC_1.h **** /** The month alarm mask allows matching the alarm hour register with the
 313:Generated_Source\PSoC4/RTC_1.h **** *   current month register.
 314:Generated_Source\PSoC4/RTC_1.h **** */
 315:Generated_Source\PSoC4/RTC_1.h **** #define RTC_1_ALARM_MONTH_MASK       (0x00000020uL)
 316:Generated_Source\PSoC4/RTC_1.h **** 
 317:Generated_Source\PSoC4/RTC_1.h **** /** The year alarm mask allows matching the alarm hour register with the
 318:Generated_Source\PSoC4/RTC_1.h **** *   current year register.
 319:Generated_Source\PSoC4/RTC_1.h **** */
 320:Generated_Source\PSoC4/RTC_1.h **** #define RTC_1_ALARM_YEAR_MASK        (0x00000040uL)
 321:Generated_Source\PSoC4/RTC_1.h **** 
 322:Generated_Source\PSoC4/RTC_1.h **** /** \} group_rtc_alarm_mask */
 323:Generated_Source\PSoC4/RTC_1.h **** /** \} group_constants */
 324:Generated_Source\PSoC4/RTC_1.h **** 
 325:Generated_Source\PSoC4/RTC_1.h **** #define RTC_1_DAYS_PER_WEEK       (7u)
 326:Generated_Source\PSoC4/RTC_1.h **** 
 327:Generated_Source\PSoC4/RTC_1.h **** #define RTC_1_MONTHS_PER_YEAR     (12uL)
ARM GAS  C:\Users\austc\AppData\Local\Temp\ccaNEfOM.s 			page 34


 328:Generated_Source\PSoC4/RTC_1.h **** 
 329:Generated_Source\PSoC4/RTC_1.h **** #define RTC_1_HOURS_PER_DAY       (24uL)
 330:Generated_Source\PSoC4/RTC_1.h **** #define RTC_1_HOURS_PER_HALF_DAY  (12uL)
 331:Generated_Source\PSoC4/RTC_1.h **** 
 332:Generated_Source\PSoC4/RTC_1.h **** #define RTC_1_SECONDS_PER_MINUTE  (60uL)
 333:Generated_Source\PSoC4/RTC_1.h **** #define RTC_1_SECONDS_PER_HOUR    (3600uL)
 334:Generated_Source\PSoC4/RTC_1.h **** #define RTC_1_SECONDS_PER_DAY     (24uL * 3600uL)
 335:Generated_Source\PSoC4/RTC_1.h **** 
 336:Generated_Source\PSoC4/RTC_1.h **** #define RTC_1_SECONDS_PER_LEAP_YEAR    (366uL * 24uL * 3600uL)
 337:Generated_Source\PSoC4/RTC_1.h **** #define RTC_1_SECONDS_PER_NONLEAP_YEAR (365uL * 24uL * 3600uL)
 338:Generated_Source\PSoC4/RTC_1.h **** 
 339:Generated_Source\PSoC4/RTC_1.h **** #define RTC_1_UNIX_TIME_PM        ((12uL * 3600uL) + 1uL)
 340:Generated_Source\PSoC4/RTC_1.h **** 
 341:Generated_Source\PSoC4/RTC_1.h **** /* Unix time begins in 1970 year */
 342:Generated_Source\PSoC4/RTC_1.h **** #define RTC_1_YEAR_0             (1970u)
 343:Generated_Source\PSoC4/RTC_1.h **** 
 344:Generated_Source\PSoC4/RTC_1.h **** /* Definition of date register fields */
 345:Generated_Source\PSoC4/RTC_1.h **** #if(RTC_1_INITIAL_DATA_FORMAT == RTC_1__MM_DD_YYYY)
 346:Generated_Source\PSoC4/RTC_1.h ****     #define RTC_1_10_MONTH_OFFSET   (28u)
 347:Generated_Source\PSoC4/RTC_1.h ****     #define RTC_1_MONTH_OFFSET      (24u)
 348:Generated_Source\PSoC4/RTC_1.h ****     #define RTC_1_10_DAY_OFFSET     (20u)
 349:Generated_Source\PSoC4/RTC_1.h ****     #define RTC_1_DAY_OFFSET        (16u)
 350:Generated_Source\PSoC4/RTC_1.h ****     #define RTC_1_1000_YEAR_OFFSET  (12u)
 351:Generated_Source\PSoC4/RTC_1.h ****     #define RTC_1_100_YEAR_OFFSET   (8u)
 352:Generated_Source\PSoC4/RTC_1.h ****     #define RTC_1_10_YEAR_OFFSET    (4u)
 353:Generated_Source\PSoC4/RTC_1.h ****     #define RTC_1_YEAR_OFFSET       (0u)
 354:Generated_Source\PSoC4/RTC_1.h **** #elif(RTC_1_INITIAL_DATA_FORMAT == RTC_1__DD_MM_YYYY)
 355:Generated_Source\PSoC4/RTC_1.h ****     #define RTC_1_10_MONTH_OFFSET   (20u)
 356:Generated_Source\PSoC4/RTC_1.h ****     #define RTC_1_MONTH_OFFSET      (16u)
 357:Generated_Source\PSoC4/RTC_1.h ****     #define RTC_1_10_DAY_OFFSET     (28u)
 358:Generated_Source\PSoC4/RTC_1.h ****     #define RTC_1_DAY_OFFSET        (24u)
 359:Generated_Source\PSoC4/RTC_1.h ****     #define RTC_1_1000_YEAR_OFFSET  (12u)
 360:Generated_Source\PSoC4/RTC_1.h ****     #define RTC_1_100_YEAR_OFFSET   (8u)
 361:Generated_Source\PSoC4/RTC_1.h ****     #define RTC_1_10_YEAR_OFFSET    (4u)
 362:Generated_Source\PSoC4/RTC_1.h ****     #define RTC_1_YEAR_OFFSET       (0u)
 363:Generated_Source\PSoC4/RTC_1.h **** #else
 364:Generated_Source\PSoC4/RTC_1.h ****     #define RTC_1_10_MONTH_OFFSET   (12u)
 365:Generated_Source\PSoC4/RTC_1.h ****     #define RTC_1_MONTH_OFFSET      (8u)
 366:Generated_Source\PSoC4/RTC_1.h ****     #define RTC_1_10_DAY_OFFSET     (4u)
 367:Generated_Source\PSoC4/RTC_1.h ****     #define RTC_1_DAY_OFFSET        (0u)
 368:Generated_Source\PSoC4/RTC_1.h ****     #define RTC_1_1000_YEAR_OFFSET  (28u)
 369:Generated_Source\PSoC4/RTC_1.h ****     #define RTC_1_100_YEAR_OFFSET   (24u)
 370:Generated_Source\PSoC4/RTC_1.h ****     #define RTC_1_10_YEAR_OFFSET    (20u)
 371:Generated_Source\PSoC4/RTC_1.h ****     #define RTC_1_YEAR_OFFSET       (16u)
 372:Generated_Source\PSoC4/RTC_1.h **** #endif /* (RTC_1_INITIAL_DATA_FORMAT == RTC_1__MM_DD_YYYY) */
 373:Generated_Source\PSoC4/RTC_1.h **** 
 374:Generated_Source\PSoC4/RTC_1.h **** #define RTC_1_10_MONTH_MASK          (0x00000001uL << RTC_1_10_MONTH_OFFSET)
 375:Generated_Source\PSoC4/RTC_1.h **** #define RTC_1_MONTH_MASK             (0x0000000FuL << RTC_1_MONTH_OFFSET)
 376:Generated_Source\PSoC4/RTC_1.h **** #define RTC_1_10_DAY_MASK            (0x00000003uL << RTC_1_10_DAY_OFFSET)
 377:Generated_Source\PSoC4/RTC_1.h **** #define RTC_1_DAY_MASK               (0x0000000FuL << RTC_1_DAY_OFFSET)
 378:Generated_Source\PSoC4/RTC_1.h **** #define RTC_1_1000_YEAR_MASK         (0x00000003uL << RTC_1_1000_YEAR_OFFSET)
 379:Generated_Source\PSoC4/RTC_1.h **** #define RTC_1_100_YEAR_MASK          (0x0000000FuL << RTC_1_100_YEAR_OFFSET)
 380:Generated_Source\PSoC4/RTC_1.h **** #define RTC_1_10_YEAR_MASK           (0x0000000FuL << RTC_1_10_YEAR_OFFSET)
 381:Generated_Source\PSoC4/RTC_1.h **** #define RTC_1_YEAR_MASK              (0x0000000FuL << RTC_1_YEAR_OFFSET)
 382:Generated_Source\PSoC4/RTC_1.h **** 
 383:Generated_Source\PSoC4/RTC_1.h **** #define  RTC_1_MONTH_FULL_MASK       (RTC_1_10_MONTH_MASK  | RTC_1_MONTH_MASK)
 384:Generated_Source\PSoC4/RTC_1.h **** #define  RTC_1_DAY_FULL_MASK         (RTC_1_10_DAY_MASK    | RTC_1_DAY_MASK)
ARM GAS  C:\Users\austc\AppData\Local\Temp\ccaNEfOM.s 			page 35


 385:Generated_Source\PSoC4/RTC_1.h **** #define  RTC_1_YEAR_FULL_MASK        (RTC_1_1000_YEAR_MASK | RTC_1_100_YEAR_MASK |\
 386:Generated_Source\PSoC4/RTC_1.h ****                                                  RTC_1_10_YEAR_MASK   | RTC_1_YEAR_MASK)
 387:Generated_Source\PSoC4/RTC_1.h **** 
 388:Generated_Source\PSoC4/RTC_1.h **** /* Definition of time register fields */
 389:Generated_Source\PSoC4/RTC_1.h **** #define RTC_1_TIME_FORMAT_OFFSET     (23u)
 390:Generated_Source\PSoC4/RTC_1.h **** #define RTC_1_PERIOD_OF_DAY_OFFSET   (22u)
 391:Generated_Source\PSoC4/RTC_1.h **** #define RTC_1_10_HOURS_OFFSET        (20u)
 392:Generated_Source\PSoC4/RTC_1.h **** #define RTC_1_HOURS_OFFSET           (16u)
 393:Generated_Source\PSoC4/RTC_1.h **** #define RTC_1_10_MINUTES_OFFSET      (12u)
 394:Generated_Source\PSoC4/RTC_1.h **** #define RTC_1_MINUTES_OFFSET         (8u)
 395:Generated_Source\PSoC4/RTC_1.h **** #define RTC_1_10_SECONDS_OFFSET      (4u)
 396:Generated_Source\PSoC4/RTC_1.h **** #define RTC_1_SECONDS_OFFSET         (0u)
 397:Generated_Source\PSoC4/RTC_1.h **** 
 398:Generated_Source\PSoC4/RTC_1.h **** #define RTC_1_TIME_FORMAT_MASK       (0x00000001uL << RTC_1_TIME_FORMAT_OFFSET)
 399:Generated_Source\PSoC4/RTC_1.h **** #define RTC_1_PERIOD_OF_DAY_MASK     (0x00000001uL << RTC_1_PERIOD_OF_DAY_OFFSET)
 400:Generated_Source\PSoC4/RTC_1.h **** #define RTC_1_10_HOURS_MASK          (0x00000003uL << RTC_1_10_HOURS_OFFSET)
 401:Generated_Source\PSoC4/RTC_1.h **** #define RTC_1_HOURS_MASK             (0x0000000FuL << RTC_1_HOURS_OFFSET)
 402:Generated_Source\PSoC4/RTC_1.h **** #define RTC_1_10_MINUTES_MASK        (0x00000007uL << RTC_1_10_MINUTES_OFFSET)
 403:Generated_Source\PSoC4/RTC_1.h **** #define RTC_1_MINUTES_MASK           (0x0000000FuL << RTC_1_MINUTES_OFFSET)
 404:Generated_Source\PSoC4/RTC_1.h **** #define RTC_1_10_SECONDS_MASK        (0x00000007uL << RTC_1_10_SECONDS_OFFSET)
 405:Generated_Source\PSoC4/RTC_1.h **** #define RTC_1_SECONDS_MASK           (0x0000000FuL << RTC_1_SECONDS_OFFSET)
 406:Generated_Source\PSoC4/RTC_1.h **** 
 407:Generated_Source\PSoC4/RTC_1.h **** #define RTC_1_HOURS_FULL_MASK        (RTC_1_10_HOURS_MASK   | RTC_1_HOURS_MASK)
 408:Generated_Source\PSoC4/RTC_1.h **** #define RTC_1_MINUTES_FULL_MASK      (RTC_1_10_MINUTES_MASK | RTC_1_MINUTES_MASK)
 409:Generated_Source\PSoC4/RTC_1.h **** #define RTC_1_SECONDS_FULL_MASK      (RTC_1_10_SECONDS_MASK | RTC_1_SECONDS_MASK)
 410:Generated_Source\PSoC4/RTC_1.h **** 
 411:Generated_Source\PSoC4/RTC_1.h **** #define RTC_1_STATUS_DST_OFFSET      (1u)
 412:Generated_Source\PSoC4/RTC_1.h **** #define RTC_1_STATUS_ALARM_OFFSET    (2u)
 413:Generated_Source\PSoC4/RTC_1.h **** #define RTC_1_STATUS_LY_OFFSET       (3u)
 414:Generated_Source\PSoC4/RTC_1.h **** #define RTC_1_STATUS_AM_PM_OFFSET    (4u)
 415:Generated_Source\PSoC4/RTC_1.h **** 
 416:Generated_Source\PSoC4/RTC_1.h **** /* Number of bits per one BCD digit */
 417:Generated_Source\PSoC4/RTC_1.h **** #define RTC_1_BCD_NUMBER_SIZE        (4u)
 418:Generated_Source\PSoC4/RTC_1.h **** #define RTC_1_BCD_ONE_DIGIT_MASK     (0x0000000FuL)
 419:Generated_Source\PSoC4/RTC_1.h **** 
 420:Generated_Source\PSoC4/RTC_1.h **** 
 421:Generated_Source\PSoC4/RTC_1.h **** /*******************************************************************************
 422:Generated_Source\PSoC4/RTC_1.h **** *    External Variables
 423:Generated_Source\PSoC4/RTC_1.h **** *******************************************************************************/
 424:Generated_Source\PSoC4/RTC_1.h **** /**
 425:Generated_Source\PSoC4/RTC_1.h **** * \addtogroup group_globals
 426:Generated_Source\PSoC4/RTC_1.h **** * \{
 427:Generated_Source\PSoC4/RTC_1.h **** */
 428:Generated_Source\PSoC4/RTC_1.h **** 
 429:Generated_Source\PSoC4/RTC_1.h **** /**
 430:Generated_Source\PSoC4/RTC_1.h **** * Indicates whether the RTC has been initialized; The variable is initialized to
 431:Generated_Source\PSoC4/RTC_1.h **** * 0 and set to 1 the first time RTC_Start() is called. This allows the component
 432:Generated_Source\PSoC4/RTC_1.h **** * to restart without reinitialization after the first call to the RTC_Start() 
 433:Generated_Source\PSoC4/RTC_1.h **** * routine.
 434:Generated_Source\PSoC4/RTC_1.h **** */
 435:Generated_Source\PSoC4/RTC_1.h **** extern uint8  RTC_1_initVar;
 436:Generated_Source\PSoC4/RTC_1.h **** 
 437:Generated_Source\PSoC4/RTC_1.h **** /** The DST start/stop status */
 438:Generated_Source\PSoC4/RTC_1.h **** extern uint8  RTC_1_dstStatus;
 439:Generated_Source\PSoC4/RTC_1.h **** 
 440:Generated_Source\PSoC4/RTC_1.h **** /**
 441:Generated_Source\PSoC4/RTC_1.h **** * The uint64 variable represents the standard Unix time (number of seconds 
ARM GAS  C:\Users\austc\AppData\Local\Temp\ccaNEfOM.s 			page 36


 442:Generated_Source\PSoC4/RTC_1.h **** * elapsed from January 1, 1970 00:00 hours UTC) in 64-bit 
 443:Generated_Source\PSoC4/RTC_1.h **** */
 444:Generated_Source\PSoC4/RTC_1.h **** extern volatile uint64 RTC_1_unixTime;
 445:Generated_Source\PSoC4/RTC_1.h **** 
 446:Generated_Source\PSoC4/RTC_1.h **** /** The values for the time and date of the DST start */
 447:Generated_Source\PSoC4/RTC_1.h **** extern RTC_1_DST_TIME RTC_1_dstStartTime;
 448:Generated_Source\PSoC4/RTC_1.h **** 
 449:Generated_Source\PSoC4/RTC_1.h **** /** The values for the time and date of the DST stop */
 450:Generated_Source\PSoC4/RTC_1.h **** extern RTC_1_DST_TIME RTC_1_dstStopTime;
 451:Generated_Source\PSoC4/RTC_1.h **** 
 452:Generated_Source\PSoC4/RTC_1.h **** /**
 453:Generated_Source\PSoC4/RTC_1.h **** * The last updated time and date values are stored in this structure (update 
 454:Generated_Source\PSoC4/RTC_1.h **** * happens in Get time/date APIs)
 455:Generated_Source\PSoC4/RTC_1.h **** */
 456:Generated_Source\PSoC4/RTC_1.h **** extern RTC_1_DATE_TIME RTC_1_currentTimeDate;
 457:Generated_Source\PSoC4/RTC_1.h **** 
 458:Generated_Source\PSoC4/RTC_1.h **** /** The alarm time and date values are stored in this variable */
 459:Generated_Source\PSoC4/RTC_1.h **** extern RTC_1_DATE_TIME RTC_1_alarmCfgTimeDate;
 460:Generated_Source\PSoC4/RTC_1.h **** 
 461:Generated_Source\PSoC4/RTC_1.h **** /**
 462:Generated_Source\PSoC4/RTC_1.h **** * This variable is used to mask alarm events; mask seconds alarm, mask minutes 
 463:Generated_Source\PSoC4/RTC_1.h **** * alarm, and so on. It will have bit masks for each time item masking that item 
 464:Generated_Source\PSoC4/RTC_1.h **** * for alarm generation
 465:Generated_Source\PSoC4/RTC_1.h **** */
 466:Generated_Source\PSoC4/RTC_1.h **** extern uint32  RTC_1_alarmCfgMask;
 467:Generated_Source\PSoC4/RTC_1.h **** 
 468:Generated_Source\PSoC4/RTC_1.h **** /**
 469:Generated_Source\PSoC4/RTC_1.h **** * This variable is used to indicate current active alarm status per time item 
 470:Generated_Source\PSoC4/RTC_1.h **** * used in the alarm; whether seconds alarm is active, minute's alarm is active, 
 471:Generated_Source\PSoC4/RTC_1.h **** * and so on. It will have bit masks for each time item (seconds, minutes, hours,
 472:Generated_Source\PSoC4/RTC_1.h **** * day, and so on) showing the status
 473:Generated_Source\PSoC4/RTC_1.h **** */
 474:Generated_Source\PSoC4/RTC_1.h **** extern uint32 RTC_1_alarmCurStatus;
 475:Generated_Source\PSoC4/RTC_1.h **** 
 476:Generated_Source\PSoC4/RTC_1.h **** /** \} group_globals */
 477:Generated_Source\PSoC4/RTC_1.h **** 
 478:Generated_Source\PSoC4/RTC_1.h **** extern void (*RTC_1_alarmCallbackPtr)(void);
 479:Generated_Source\PSoC4/RTC_1.h **** 
 480:Generated_Source\PSoC4/RTC_1.h **** extern const uint16 RTC_1_daysBeforeMonthTbl[RTC_1_MONTHS_PER_YEAR];
 481:Generated_Source\PSoC4/RTC_1.h **** extern const uint8  RTC_1_daysInMonthTbl[RTC_1_MONTHS_PER_YEAR];
 482:Generated_Source\PSoC4/RTC_1.h **** 
 483:Generated_Source\PSoC4/RTC_1.h **** 
 484:Generated_Source\PSoC4/RTC_1.h **** /*******************************************************************************
 485:Generated_Source\PSoC4/RTC_1.h **** *    Function Prototypes
 486:Generated_Source\PSoC4/RTC_1.h **** *******************************************************************************/
 487:Generated_Source\PSoC4/RTC_1.h **** /**
 488:Generated_Source\PSoC4/RTC_1.h **** * \addtogroup group_general
 489:Generated_Source\PSoC4/RTC_1.h **** * \{
 490:Generated_Source\PSoC4/RTC_1.h **** */
 491:Generated_Source\PSoC4/RTC_1.h **** void   RTC_1_Start(void);
 492:Generated_Source\PSoC4/RTC_1.h **** void   RTC_1_Stop(void);
 493:Generated_Source\PSoC4/RTC_1.h **** void   RTC_1_Init(void);
 494:Generated_Source\PSoC4/RTC_1.h **** void   RTC_1_SetUnixTime(uint64 unixTime);
 495:Generated_Source\PSoC4/RTC_1.h **** uint64 RTC_1_GetUnixTime(void);
 496:Generated_Source\PSoC4/RTC_1.h **** void   RTC_1_SetPeriod(uint32 ticks, uint32 refOneSecTicks);
 497:Generated_Source\PSoC4/RTC_1.h **** uint32 RTC_1_GetPeriod(void);
 498:Generated_Source\PSoC4/RTC_1.h **** uint32 RTC_1_GetRefOneSec(void);
ARM GAS  C:\Users\austc\AppData\Local\Temp\ccaNEfOM.s 			page 37


 499:Generated_Source\PSoC4/RTC_1.h **** void   RTC_1_SetDateAndTime(uint32 inputTime, uint32 inputDate);
 500:Generated_Source\PSoC4/RTC_1.h **** void   RTC_1_GetDateAndTime(RTC_1_DATE_TIME* dateTime);
 501:Generated_Source\PSoC4/RTC_1.h **** uint32 RTC_1_GetTime(void);
 502:Generated_Source\PSoC4/RTC_1.h **** uint32 RTC_1_GetDate(void);
 503:Generated_Source\PSoC4/RTC_1.h **** void   RTC_1_SetAlarmDateAndTime(const RTC_1_DATE_TIME* alarmTime);
 504:Generated_Source\PSoC4/RTC_1.h **** void   RTC_1_GetAlarmDateAndTime(RTC_1_DATE_TIME* alarmTimeDate);
 505:Generated_Source\PSoC4/RTC_1.h **** void   RTC_1_SetAlarmMask(uint32 mask);
 506:Generated_Source\PSoC4/RTC_1.h **** uint32 RTC_1_GetAlarmMask(void);
 507:Generated_Source\PSoC4/RTC_1.h **** uint32 RTC_1_ReadStatus(void);
 508:Generated_Source\PSoC4/RTC_1.h **** uint32 RTC_1_GetAlarmStatus(void);
 509:Generated_Source\PSoC4/RTC_1.h **** void   RTC_1_ClearAlarmStatus(void);
 510:Generated_Source\PSoC4/RTC_1.h **** void   RTC_1_SetDSTStartTime(const RTC_1_DST_TIME* dstStartTime,
 511:Generated_Source\PSoC4/RTC_1.h ****                                               RTC_1_DST_DATETYPE_ENUM type);
 512:Generated_Source\PSoC4/RTC_1.h **** void   RTC_1_SetDSTStopTime(const RTC_1_DST_TIME* dstStopTime,
 513:Generated_Source\PSoC4/RTC_1.h ****                                              RTC_1_DST_DATETYPE_ENUM type);
 514:Generated_Source\PSoC4/RTC_1.h **** uint32 RTC_1_ConvertBCDToDec(uint32 bcdNum);
 515:Generated_Source\PSoC4/RTC_1.h **** uint32 RTC_1_ConvertDecToBCD(uint32 decNum);
 516:Generated_Source\PSoC4/RTC_1.h **** void   RTC_1_Update(void);
 517:Generated_Source\PSoC4/RTC_1.h **** void*  RTC_1_SetAlarmHandler(void (*CallbackFunction)(void));
 518:Generated_Source\PSoC4/RTC_1.h **** 
 519:Generated_Source\PSoC4/RTC_1.h **** static uint32 RTC_1_ConstructDate(uint32 month, uint32 day, uint32 year);
 520:Generated_Source\PSoC4/RTC_1.h **** static uint32 RTC_1_ConstructTime(uint32 timeFormat, uint32 stateAmPm, uint32 hour, uint32 min, uin
 521:Generated_Source\PSoC4/RTC_1.h **** /** \} group_general */
 522:Generated_Source\PSoC4/RTC_1.h **** 
 523:Generated_Source\PSoC4/RTC_1.h **** static uint32 RTC_1_GetTimeFormat(uint32 inputTime);
 524:Generated_Source\PSoC4/RTC_1.h **** static uint32 RTC_1_SetTimeFormat(uint32 inputTime, uint32 timeFormat);
 525:Generated_Source\PSoC4/RTC_1.h **** 
 526:Generated_Source\PSoC4/RTC_1.h **** /**
 527:Generated_Source\PSoC4/RTC_1.h **** * \addtogroup group_general
 528:Generated_Source\PSoC4/RTC_1.h **** * \{
 529:Generated_Source\PSoC4/RTC_1.h **** */
 530:Generated_Source\PSoC4/RTC_1.h **** static uint32 RTC_1_LeapYear(uint32 year);
 531:Generated_Source\PSoC4/RTC_1.h **** static uint32 RTC_1_IsBitSet(uint32 var, uint32 mask);
 532:Generated_Source\PSoC4/RTC_1.h **** static uint32 RTC_1_GetSecond(uint32 inputTime);
 533:Generated_Source\PSoC4/RTC_1.h **** static uint32 RTC_1_GetMinutes(uint32 inputTime);
 534:Generated_Source\PSoC4/RTC_1.h **** static uint32 RTC_1_GetHours(uint32 inputTime);
 535:Generated_Source\PSoC4/RTC_1.h **** static uint32 RTC_1_GetAmPm(uint32 inputTime);
 536:Generated_Source\PSoC4/RTC_1.h **** static uint32 RTC_1_GetDay(uint32 date);
 537:Generated_Source\PSoC4/RTC_1.h **** static uint32 RTC_1_GetMonth(uint32 date);
 538:Generated_Source\PSoC4/RTC_1.h **** static uint32 RTC_1_GetYear(uint32 date);
 539:Generated_Source\PSoC4/RTC_1.h **** /** \} group_general */
 540:Generated_Source\PSoC4/RTC_1.h **** 
 541:Generated_Source\PSoC4/RTC_1.h **** static uint32 RTC_1_SetSecond(uint32 inputTime, uint32 inputSecond);
 542:Generated_Source\PSoC4/RTC_1.h **** static uint32 RTC_1_SetMinutes(uint32 inputTime, uint32 inputMinute);
 543:Generated_Source\PSoC4/RTC_1.h **** static uint32 RTC_1_SetHours(uint32 inputTime, uint32 inputHours);
 544:Generated_Source\PSoC4/RTC_1.h **** static uint32 RTC_1_SetAmPm(uint32 inputTime, uint32 periodOfDay);
 545:Generated_Source\PSoC4/RTC_1.h **** static uint32 RTC_1_SetDay(uint32 inputDate, uint32 inputDay);
 546:Generated_Source\PSoC4/RTC_1.h **** static uint32 RTC_1_SetMonth(uint32 inputDate, uint32 inputMonth);
 547:Generated_Source\PSoC4/RTC_1.h **** static uint32 RTC_1_SetYear(uint32 inputDate, uint32 inputYear);
 548:Generated_Source\PSoC4/RTC_1.h **** 
 549:Generated_Source\PSoC4/RTC_1.h **** uint64 RTC_1_ConstructUnixAlarmTime(const RTC_1_DATE_TIME* alarmTime, uint8 alarmCfgMask);
 550:Generated_Source\PSoC4/RTC_1.h **** uint64 RTC_1_GetDstUnixTime(const RTC_1_DST_TIME* dstTime);
 551:Generated_Source\PSoC4/RTC_1.h **** uint64 RTC_1_GetNexAlarmTime(uint64 curUnixTime, uint8 alarmCfgMask);
 552:Generated_Source\PSoC4/RTC_1.h **** 
 553:Generated_Source\PSoC4/RTC_1.h **** static uint32 RTC_1_GetNextMinSec(uint32 curVal);
 554:Generated_Source\PSoC4/RTC_1.h **** static uint32 RTC_1_GetNextHour(uint32 curVal);
 555:Generated_Source\PSoC4/RTC_1.h **** static uint32 RTC_1_GetNextDay(uint32 curYear, uint32 curMonth, uint32 curDay, uint32 alarmCfgMask)
ARM GAS  C:\Users\austc\AppData\Local\Temp\ccaNEfOM.s 			page 38


 556:Generated_Source\PSoC4/RTC_1.h **** static uint32 RTC_1_GetNextMonth(uint32 curMonth);
 557:Generated_Source\PSoC4/RTC_1.h **** static uint32 RTC_1_GetNextYear(uint32 curYear);
 558:Generated_Source\PSoC4/RTC_1.h **** static uint32 RTC_1_GetDayOfWeek(uint32 day, uint32 month, uint32 year);
 559:Generated_Source\PSoC4/RTC_1.h **** static uint32 RTC_1_DaysBeforeMonth(uint32 month, uint32 year);
 560:Generated_Source\PSoC4/RTC_1.h **** 
 561:Generated_Source\PSoC4/RTC_1.h **** uint32 RTC_1_DaysInMonth(uint32 month, uint32 year);
 562:Generated_Source\PSoC4/RTC_1.h **** 
 563:Generated_Source\PSoC4/RTC_1.h **** /**
 564:Generated_Source\PSoC4/RTC_1.h **** * \addtogroup group_general
 565:Generated_Source\PSoC4/RTC_1.h **** * \{
 566:Generated_Source\PSoC4/RTC_1.h **** */
 567:Generated_Source\PSoC4/RTC_1.h **** void   RTC_1_UnixToDateTime(RTC_1_DATE_TIME* dateTime, uint64 unixTime, uint32 timeFormat);
 568:Generated_Source\PSoC4/RTC_1.h **** uint64 RTC_1_DateTimeToUnix(uint32 inputDate, uint32 inputTime);
 569:Generated_Source\PSoC4/RTC_1.h **** 
 570:Generated_Source\PSoC4/RTC_1.h **** #if defined(CYDEV_RTC_SOURCE_WDT)
 571:Generated_Source\PSoC4/RTC_1.h ****     #if((0u != CYDEV_WDT_GENERATE_ISR) && (0u == RTC_1_INITIAL_UPDATE_MODE))
 572:Generated_Source\PSoC4/RTC_1.h ****         static void RTC_1_CySysRtcSetCallback(uint32 wdtNumber);
 573:Generated_Source\PSoC4/RTC_1.h ****         static void RTC_1_CySysRtcResetCallback(uint32 wdtNumber);
 574:Generated_Source\PSoC4/RTC_1.h ****     #endif /* ((0u != CYDEV_WDT_GENERATE_ISR) && (0u == RTC_1_INITIAL_UPDATE_MODE)) */
 575:Generated_Source\PSoC4/RTC_1.h **** #endif /* (CYDEV_RTC_SOURCE_WDT) */
 576:Generated_Source\PSoC4/RTC_1.h **** 
 577:Generated_Source\PSoC4/RTC_1.h **** /** \} group_general */
 578:Generated_Source\PSoC4/RTC_1.h **** 
 579:Generated_Source\PSoC4/RTC_1.h **** uint32 RTC_1_RelativeToFixed(uint32 dayOfWeek, uint32 weekOfMonth, uint32 month, uint32 year);
 580:Generated_Source\PSoC4/RTC_1.h **** 
 581:Generated_Source\PSoC4/RTC_1.h **** 
 582:Generated_Source\PSoC4/RTC_1.h **** 
 583:Generated_Source\PSoC4/RTC_1.h **** /*******************************************************************************
 584:Generated_Source\PSoC4/RTC_1.h **** * Function Name: RTC_1_IsBitSet
 585:Generated_Source\PSoC4/RTC_1.h **** ****************************************************************************//**
 586:Generated_Source\PSoC4/RTC_1.h **** *
 587:Generated_Source\PSoC4/RTC_1.h **** * Checks the state of a bit passed through parameter.
 588:Generated_Source\PSoC4/RTC_1.h **** *
 589:Generated_Source\PSoC4/RTC_1.h **** * \param var
 590:Generated_Source\PSoC4/RTC_1.h **** * The variable to be checked.
 591:Generated_Source\PSoC4/RTC_1.h **** *
 592:Generated_Source\PSoC4/RTC_1.h **** * \param mask
 593:Generated_Source\PSoC4/RTC_1.h **** * The mask for a bit to be checked.
 594:Generated_Source\PSoC4/RTC_1.h **** *
 595:Generated_Source\PSoC4/RTC_1.h **** * \return
 596:Generated_Source\PSoC4/RTC_1.h **** *  0u - Bit is not set. <br> 1u - Bit is set.
 597:Generated_Source\PSoC4/RTC_1.h **** *
 598:Generated_Source\PSoC4/RTC_1.h **** *******************************************************************************/
 599:Generated_Source\PSoC4/RTC_1.h **** static CY_INLINE uint32 RTC_1_IsBitSet(uint32 var, uint32 mask)
 600:Generated_Source\PSoC4/RTC_1.h **** {
 601:Generated_Source\PSoC4/RTC_1.h ****     return ((mask == (var & mask)) ? 1Lu : 0Lu);
 602:Generated_Source\PSoC4/RTC_1.h **** }
 603:Generated_Source\PSoC4/RTC_1.h **** 
 604:Generated_Source\PSoC4/RTC_1.h **** 
 605:Generated_Source\PSoC4/RTC_1.h **** /*******************************************************************************
 606:Generated_Source\PSoC4/RTC_1.h **** * Function Name: RTC_1_LeapYear
 607:Generated_Source\PSoC4/RTC_1.h **** ****************************************************************************//**
 608:Generated_Source\PSoC4/RTC_1.h **** *
 609:Generated_Source\PSoC4/RTC_1.h **** * Checks whether the year passed through the parameter is leap or no.
 610:Generated_Source\PSoC4/RTC_1.h **** *
 611:Generated_Source\PSoC4/RTC_1.h **** * \param year
 612:Generated_Source\PSoC4/RTC_1.h **** * The year to be checked.
ARM GAS  C:\Users\austc\AppData\Local\Temp\ccaNEfOM.s 			page 39


 613:Generated_Source\PSoC4/RTC_1.h **** *
 614:Generated_Source\PSoC4/RTC_1.h **** * \return
 615:Generated_Source\PSoC4/RTC_1.h **** * 0u - The year is not leap <br> 1u - The year is leap.
 616:Generated_Source\PSoC4/RTC_1.h **** *
 617:Generated_Source\PSoC4/RTC_1.h **** *******************************************************************************/
 618:Generated_Source\PSoC4/RTC_1.h **** static CY_INLINE uint32 RTC_1_LeapYear(uint32 year)
 619:Generated_Source\PSoC4/RTC_1.h **** {
 620:Generated_Source\PSoC4/RTC_1.h ****     uint32 retVal;
 621:Generated_Source\PSoC4/RTC_1.h **** 
 622:Generated_Source\PSoC4/RTC_1.h ****     if(((0u == (year % 4Lu)) && (0u != (year % 100Lu))) || (0u == (year % 400Lu)))
 623:Generated_Source\PSoC4/RTC_1.h ****     {
 624:Generated_Source\PSoC4/RTC_1.h ****         retVal = 1uL;
 625:Generated_Source\PSoC4/RTC_1.h ****     }
 626:Generated_Source\PSoC4/RTC_1.h ****     else
 627:Generated_Source\PSoC4/RTC_1.h ****     {
 628:Generated_Source\PSoC4/RTC_1.h ****         retVal = 0uL;
 629:Generated_Source\PSoC4/RTC_1.h ****     }
 630:Generated_Source\PSoC4/RTC_1.h **** 
 631:Generated_Source\PSoC4/RTC_1.h ****     return(retVal);
 632:Generated_Source\PSoC4/RTC_1.h **** }
 633:Generated_Source\PSoC4/RTC_1.h **** 
 634:Generated_Source\PSoC4/RTC_1.h **** 
 635:Generated_Source\PSoC4/RTC_1.h **** /*******************************************************************************
 636:Generated_Source\PSoC4/RTC_1.h **** * Function Name: RTC_1_GetSecond
 637:Generated_Source\PSoC4/RTC_1.h **** ****************************************************************************//**
 638:Generated_Source\PSoC4/RTC_1.h **** *
 639:Generated_Source\PSoC4/RTC_1.h **** * Returns the seconds value from the time value that is passed as a/the 
 640:Generated_Source\PSoC4/RTC_1.h **** * parameter.
 641:Generated_Source\PSoC4/RTC_1.h **** *
 642:Generated_Source\PSoC4/RTC_1.h **** * \param inputTime
 643:Generated_Source\PSoC4/RTC_1.h **** * The time value.
 644:Generated_Source\PSoC4/RTC_1.h **** *
 645:Generated_Source\PSoC4/RTC_1.h **** * \return
 646:Generated_Source\PSoC4/RTC_1.h **** * The seconds value.
 647:Generated_Source\PSoC4/RTC_1.h **** *
 648:Generated_Source\PSoC4/RTC_1.h **** *******************************************************************************/
 649:Generated_Source\PSoC4/RTC_1.h **** static CY_INLINE uint32 RTC_1_GetSecond(uint32 inputTime)
 650:Generated_Source\PSoC4/RTC_1.h **** {
 651:Generated_Source\PSoC4/RTC_1.h ****     uint32 retVal;
 652:Generated_Source\PSoC4/RTC_1.h **** 
 653:Generated_Source\PSoC4/RTC_1.h ****     retVal  = ((inputTime & RTC_1_10_SECONDS_MASK) >> RTC_1_10_SECONDS_OFFSET) * 10u;
 654:Generated_Source\PSoC4/RTC_1.h ****     retVal += (inputTime & RTC_1_SECONDS_MASK) >> RTC_1_SECONDS_OFFSET;
 655:Generated_Source\PSoC4/RTC_1.h **** 
 656:Generated_Source\PSoC4/RTC_1.h ****     return (retVal);
 657:Generated_Source\PSoC4/RTC_1.h **** }
 658:Generated_Source\PSoC4/RTC_1.h **** 
 659:Generated_Source\PSoC4/RTC_1.h **** 
 660:Generated_Source\PSoC4/RTC_1.h **** /*******************************************************************************
 661:Generated_Source\PSoC4/RTC_1.h **** * Function Name: RTC_1_GetMinutes
 662:Generated_Source\PSoC4/RTC_1.h **** ****************************************************************************//**
 663:Generated_Source\PSoC4/RTC_1.h **** *
 664:Generated_Source\PSoC4/RTC_1.h **** * Returns the minutes value from the time value that is passed as a/the 
 665:Generated_Source\PSoC4/RTC_1.h **** * parameter.
 666:Generated_Source\PSoC4/RTC_1.h **** *
 667:Generated_Source\PSoC4/RTC_1.h **** * \param inputTime
 668:Generated_Source\PSoC4/RTC_1.h **** * The time value.
 669:Generated_Source\PSoC4/RTC_1.h **** *
ARM GAS  C:\Users\austc\AppData\Local\Temp\ccaNEfOM.s 			page 40


 670:Generated_Source\PSoC4/RTC_1.h **** * \return
 671:Generated_Source\PSoC4/RTC_1.h **** * The minutes value.
 672:Generated_Source\PSoC4/RTC_1.h **** *
 673:Generated_Source\PSoC4/RTC_1.h **** *******************************************************************************/
 674:Generated_Source\PSoC4/RTC_1.h **** static CY_INLINE uint32 RTC_1_GetMinutes(uint32 inputTime)
 675:Generated_Source\PSoC4/RTC_1.h **** {
 676:Generated_Source\PSoC4/RTC_1.h ****     uint32 retVal;
 677:Generated_Source\PSoC4/RTC_1.h **** 
 678:Generated_Source\PSoC4/RTC_1.h ****     retVal  = ((inputTime & RTC_1_10_MINUTES_MASK) >> RTC_1_10_MINUTES_OFFSET) * 10u;
 679:Generated_Source\PSoC4/RTC_1.h ****     retVal += (inputTime & RTC_1_MINUTES_MASK) >> RTC_1_MINUTES_OFFSET;
 680:Generated_Source\PSoC4/RTC_1.h **** 
 681:Generated_Source\PSoC4/RTC_1.h ****     return (retVal);
 682:Generated_Source\PSoC4/RTC_1.h **** }
 683:Generated_Source\PSoC4/RTC_1.h **** 
 684:Generated_Source\PSoC4/RTC_1.h **** 
 685:Generated_Source\PSoC4/RTC_1.h **** /*******************************************************************************
 686:Generated_Source\PSoC4/RTC_1.h **** * Function Name: RTC_1_GetHours
 687:Generated_Source\PSoC4/RTC_1.h **** ****************************************************************************//**
 688:Generated_Source\PSoC4/RTC_1.h **** *
 689:Generated_Source\PSoC4/RTC_1.h **** * Returns the hours value from the time value that is passed as a/the parameter.
 690:Generated_Source\PSoC4/RTC_1.h **** *
 691:Generated_Source\PSoC4/RTC_1.h **** * \param inputTime
 692:Generated_Source\PSoC4/RTC_1.h **** * The time value.
 693:Generated_Source\PSoC4/RTC_1.h **** *
 694:Generated_Source\PSoC4/RTC_1.h **** * \return
 695:Generated_Source\PSoC4/RTC_1.h **** * The hours value.
 696:Generated_Source\PSoC4/RTC_1.h **** *
 697:Generated_Source\PSoC4/RTC_1.h **** *******************************************************************************/
 698:Generated_Source\PSoC4/RTC_1.h **** static CY_INLINE uint32 RTC_1_GetHours(uint32 inputTime)
 699:Generated_Source\PSoC4/RTC_1.h **** {
 700:Generated_Source\PSoC4/RTC_1.h ****     uint32 retVal;
 701:Generated_Source\PSoC4/RTC_1.h **** 
 702:Generated_Source\PSoC4/RTC_1.h ****     retVal  = ((inputTime & RTC_1_10_HOURS_MASK) >> RTC_1_10_HOURS_OFFSET) * 10u;
 703:Generated_Source\PSoC4/RTC_1.h ****     retVal += (inputTime & RTC_1_HOURS_MASK) >> RTC_1_HOURS_OFFSET;
 704:Generated_Source\PSoC4/RTC_1.h **** 
 705:Generated_Source\PSoC4/RTC_1.h ****     return (retVal);
 706:Generated_Source\PSoC4/RTC_1.h **** }
 707:Generated_Source\PSoC4/RTC_1.h **** 
 708:Generated_Source\PSoC4/RTC_1.h **** 
 709:Generated_Source\PSoC4/RTC_1.h **** /*******************************************************************************
 710:Generated_Source\PSoC4/RTC_1.h **** * Function Name: RTC_1_GetAmPm
 711:Generated_Source\PSoC4/RTC_1.h **** ****************************************************************************//**
 712:Generated_Source\PSoC4/RTC_1.h **** *
 713:Generated_Source\PSoC4/RTC_1.h **** * Returns the AM/PM status from the time value that is passed as parameter.
 714:Generated_Source\PSoC4/RTC_1.h **** *
 715:Generated_Source\PSoC4/RTC_1.h **** * \param inputTime
 716:Generated_Source\PSoC4/RTC_1.h **** * The time value.
 717:Generated_Source\PSoC4/RTC_1.h **** *
 718:Generated_Source\PSoC4/RTC_1.h **** * \return
 719:Generated_Source\PSoC4/RTC_1.h **** * The am/pm period of day, see \ref group_rtc_am_pm.
 720:Generated_Source\PSoC4/RTC_1.h **** *
 721:Generated_Source\PSoC4/RTC_1.h **** *******************************************************************************/
 722:Generated_Source\PSoC4/RTC_1.h **** static CY_INLINE uint32 RTC_1_GetAmPm(uint32 inputTime)
 723:Generated_Source\PSoC4/RTC_1.h **** {
 724:Generated_Source\PSoC4/RTC_1.h ****     return (RTC_1_IsBitSet(inputTime, RTC_1_PERIOD_OF_DAY_MASK));
 725:Generated_Source\PSoC4/RTC_1.h **** }
 726:Generated_Source\PSoC4/RTC_1.h **** 
ARM GAS  C:\Users\austc\AppData\Local\Temp\ccaNEfOM.s 			page 41


 727:Generated_Source\PSoC4/RTC_1.h **** 
 728:Generated_Source\PSoC4/RTC_1.h **** /*******************************************************************************
 729:Generated_Source\PSoC4/RTC_1.h **** * Function Name: RTC_1_GetDay
 730:Generated_Source\PSoC4/RTC_1.h **** ****************************************************************************//**
 731:Generated_Source\PSoC4/RTC_1.h **** *
 732:Generated_Source\PSoC4/RTC_1.h **** * Returns the day value from the date value that is passed as parameter.
 733:Generated_Source\PSoC4/RTC_1.h **** *
 734:Generated_Source\PSoC4/RTC_1.h **** * \param date
 735:Generated_Source\PSoC4/RTC_1.h **** * The date value.
 736:Generated_Source\PSoC4/RTC_1.h **** *
 737:Generated_Source\PSoC4/RTC_1.h **** * \return
 738:Generated_Source\PSoC4/RTC_1.h **** * The day value.
 739:Generated_Source\PSoC4/RTC_1.h **** *
 740:Generated_Source\PSoC4/RTC_1.h **** *******************************************************************************/
 741:Generated_Source\PSoC4/RTC_1.h **** static CY_INLINE uint32 RTC_1_GetDay(uint32 date)
 742:Generated_Source\PSoC4/RTC_1.h **** {
 743:Generated_Source\PSoC4/RTC_1.h ****     uint32 retVal;
 744:Generated_Source\PSoC4/RTC_1.h **** 
 745:Generated_Source\PSoC4/RTC_1.h ****     retVal  = ((date & RTC_1_10_DAY_MASK) >> RTC_1_10_DAY_OFFSET) * 10u;
 746:Generated_Source\PSoC4/RTC_1.h ****     retVal += (date & RTC_1_DAY_MASK) >> RTC_1_DAY_OFFSET;
 747:Generated_Source\PSoC4/RTC_1.h **** 
 748:Generated_Source\PSoC4/RTC_1.h ****     return (retVal);
 749:Generated_Source\PSoC4/RTC_1.h **** }
 750:Generated_Source\PSoC4/RTC_1.h **** 
 751:Generated_Source\PSoC4/RTC_1.h **** 
 752:Generated_Source\PSoC4/RTC_1.h **** /*******************************************************************************
 753:Generated_Source\PSoC4/RTC_1.h **** * Function Name: RTC_1_GetMonth
 754:Generated_Source\PSoC4/RTC_1.h **** ****************************************************************************//**
 755:Generated_Source\PSoC4/RTC_1.h **** *
 756:Generated_Source\PSoC4/RTC_1.h **** * Returns the month value from the date value that is passed as parameter.
 757:Generated_Source\PSoC4/RTC_1.h **** *
 758:Generated_Source\PSoC4/RTC_1.h **** * \param date
 759:Generated_Source\PSoC4/RTC_1.h **** * The date value.
 760:Generated_Source\PSoC4/RTC_1.h **** *
 761:Generated_Source\PSoC4/RTC_1.h **** * \return
 762:Generated_Source\PSoC4/RTC_1.h **** * The month value.
 763:Generated_Source\PSoC4/RTC_1.h **** *
 764:Generated_Source\PSoC4/RTC_1.h **** *******************************************************************************/
 765:Generated_Source\PSoC4/RTC_1.h **** static CY_INLINE uint32 RTC_1_GetMonth(uint32 date)
 766:Generated_Source\PSoC4/RTC_1.h **** {
 767:Generated_Source\PSoC4/RTC_1.h ****     uint32 retVal;
 768:Generated_Source\PSoC4/RTC_1.h **** 
 769:Generated_Source\PSoC4/RTC_1.h ****     retVal  = ((date & RTC_1_10_MONTH_MASK) >> RTC_1_10_MONTH_OFFSET) * 10u;
 770:Generated_Source\PSoC4/RTC_1.h ****     retVal += (date & RTC_1_MONTH_MASK) >> RTC_1_MONTH_OFFSET;
 771:Generated_Source\PSoC4/RTC_1.h **** 
 772:Generated_Source\PSoC4/RTC_1.h ****     return (retVal);
 773:Generated_Source\PSoC4/RTC_1.h **** }
 774:Generated_Source\PSoC4/RTC_1.h **** 
 775:Generated_Source\PSoC4/RTC_1.h **** 
 776:Generated_Source\PSoC4/RTC_1.h **** /*******************************************************************************
 777:Generated_Source\PSoC4/RTC_1.h **** * Function Name: RTC_1_GetYear
 778:Generated_Source\PSoC4/RTC_1.h **** ****************************************************************************//**
 779:Generated_Source\PSoC4/RTC_1.h **** *
 780:Generated_Source\PSoC4/RTC_1.h **** * Returns the year value from the date value that is passed as parameter.
 781:Generated_Source\PSoC4/RTC_1.h **** *
 782:Generated_Source\PSoC4/RTC_1.h **** * \param date
 783:Generated_Source\PSoC4/RTC_1.h **** * The date value.
ARM GAS  C:\Users\austc\AppData\Local\Temp\ccaNEfOM.s 			page 42


 784:Generated_Source\PSoC4/RTC_1.h **** *
 785:Generated_Source\PSoC4/RTC_1.h **** * \return
 786:Generated_Source\PSoC4/RTC_1.h **** * The year value.
 787:Generated_Source\PSoC4/RTC_1.h **** *
 788:Generated_Source\PSoC4/RTC_1.h **** *******************************************************************************/
 789:Generated_Source\PSoC4/RTC_1.h **** static CY_INLINE uint32 RTC_1_GetYear(uint32 date)
 790:Generated_Source\PSoC4/RTC_1.h **** {
 791:Generated_Source\PSoC4/RTC_1.h ****     uint32 retVal;
 792:Generated_Source\PSoC4/RTC_1.h **** 
 793:Generated_Source\PSoC4/RTC_1.h ****     retVal  = ((date & RTC_1_1000_YEAR_MASK) >> RTC_1_1000_YEAR_OFFSET) * 1000u;
 360              		.loc 2 793 0
 361 000e 030B     		lsrs	r3, r0, #12
 362 0010 0322     		movs	r2, #3
 363 0012 1A40     		ands	r2, r3
 364 0014 FA20     		movs	r0, #250
 365              	.LVL25:
 366 0016 8000     		lsls	r0, r0, #2
 367 0018 0100     		movs	r1, r0
 368              	.LVL26:
 369 001a 5143     		muls	r1, r2
 370              	.LVL27:
 794:Generated_Source\PSoC4/RTC_1.h ****     retVal += ((date & RTC_1_100_YEAR_MASK) >> RTC_1_100_YEAR_OFFSET) * 100u;
 371              		.loc 2 794 0
 372 001c 4346     		mov	r3, r8
 373 001e 1B0A     		lsrs	r3, r3, #8
 374 0020 0F20     		movs	r0, #15
 375 0022 0340     		ands	r3, r0
 376 0024 6424     		movs	r4, #100
 377 0026 6343     		muls	r3, r4
 378 0028 5A18     		adds	r2, r3, r1
 379              	.LVL28:
 795:Generated_Source\PSoC4/RTC_1.h ****     retVal += ((date & RTC_1_10_YEAR_MASK) >> RTC_1_10_YEAR_OFFSET) * 10u;
 380              		.loc 2 795 0
 381 002a 4346     		mov	r3, r8
 382 002c 1B09     		lsrs	r3, r3, #4
 383 002e 0340     		ands	r3, r0
 384 0030 9900     		lsls	r1, r3, #2
 385 0032 CB18     		adds	r3, r1, r3
 386 0034 5B00     		lsls	r3, r3, #1
 387 0036 9B18     		adds	r3, r3, r2
 388              	.LVL29:
 796:Generated_Source\PSoC4/RTC_1.h ****     retVal += (date & RTC_1_YEAR_MASK) >> RTC_1_YEAR_OFFSET;
 389              		.loc 2 796 0
 390 0038 4246     		mov	r2, r8
 391 003a 0240     		ands	r2, r0
 392 003c 9946     		mov	r9, r3
 393 003e 9144     		add	r9, r9, r2
 394              	.LVL30:
 395              	.LBE62:
 396              	.LBE61:
1191:Generated_Source\PSoC4/RTC_1.c ****     uint32 i;
1192:Generated_Source\PSoC4/RTC_1.c ****     uint32 tmpYear;
1193:Generated_Source\PSoC4/RTC_1.c ****     uint32 tmpMonth;
1194:Generated_Source\PSoC4/RTC_1.c ****     uint32 tmpVal;
1195:Generated_Source\PSoC4/RTC_1.c ****     uint64 unixTime;
1196:Generated_Source\PSoC4/RTC_1.c **** 
1197:Generated_Source\PSoC4/RTC_1.c ****     unixTime = 0u;
ARM GAS  C:\Users\austc\AppData\Local\Temp\ccaNEfOM.s 			page 43


 397              		.loc 1 1197 0
 398 0040 0024     		movs	r4, #0
 399 0042 0025     		movs	r5, #0
1198:Generated_Source\PSoC4/RTC_1.c ****     tmpYear = RTC_1_GetYear(inputDate);
1199:Generated_Source\PSoC4/RTC_1.c **** 
1200:Generated_Source\PSoC4/RTC_1.c ****     /* Calculate seconds from epoch start up to (but not including) current year */
1201:Generated_Source\PSoC4/RTC_1.c ****     for(i = RTC_1_YEAR_0; i < tmpYear; i++)
 400              		.loc 1 1201 0
 401 0044 5F4F     		ldr	r7, .L43
 402 0046 1FE0     		b	.L24
 403              	.LVL31:
 404              	.L29:
 405              	.LBB63:
 406              	.LBB64:
 622:Generated_Source\PSoC4/RTC_1.h ****     {
 407              		.loc 2 622 0
 408 0048 BB07     		lsls	r3, r7, #30
 409 004a 05D1     		bne	.L25
 410 004c 6421     		movs	r1, #100
 411 004e 3800     		movs	r0, r7
 412 0050 FFF7FEFF 		bl	__aeabi_uidivmod
 413              	.LVL32:
 414 0054 0029     		cmp	r1, #0
 415 0056 08D1     		bne	.L37
 416              	.L25:
 417 0058 C821     		movs	r1, #200
 418 005a 4900     		lsls	r1, r1, #1
 419 005c 3800     		movs	r0, r7
 420 005e FFF7FEFF 		bl	__aeabi_uidivmod
 421              	.LVL33:
 422 0062 0029     		cmp	r1, #0
 423 0064 03D1     		bne	.L38
 624:Generated_Source\PSoC4/RTC_1.h ****     }
 424              		.loc 2 624 0
 425 0066 0123     		movs	r3, #1
 426 0068 02E0     		b	.L26
 427              	.L37:
 428 006a 0123     		movs	r3, #1
 429 006c 00E0     		b	.L26
 430              	.L38:
 628:Generated_Source\PSoC4/RTC_1.h ****     }
 431              		.loc 2 628 0
 432 006e 0023     		movs	r3, #0
 433              	.L26:
 434              	.LVL34:
 435              	.LBE64:
 436              	.LBE63:
1202:Generated_Source\PSoC4/RTC_1.c ****     {
1203:Generated_Source\PSoC4/RTC_1.c ****         if(0u != RTC_1_LeapYear(i))
 437              		.loc 1 1203 0
 438 0070 002B     		cmp	r3, #0
 439 0072 04D0     		beq	.L27
1204:Generated_Source\PSoC4/RTC_1.c ****         {
1205:Generated_Source\PSoC4/RTC_1.c ****             unixTime += RTC_1_SECONDS_PER_LEAP_YEAR;
 440              		.loc 1 1205 0
 441 0074 544A     		ldr	r2, .L43+4
 442 0076 0023     		movs	r3, #0
ARM GAS  C:\Users\austc\AppData\Local\Temp\ccaNEfOM.s 			page 44


 443 0078 A418     		adds	r4, r4, r2
 444 007a 5D41     		adcs	r5, r5, r3
 445              	.LVL35:
 446 007c 03E0     		b	.L28
 447              	.L27:
1206:Generated_Source\PSoC4/RTC_1.c ****         }
1207:Generated_Source\PSoC4/RTC_1.c ****         else
1208:Generated_Source\PSoC4/RTC_1.c ****         {
1209:Generated_Source\PSoC4/RTC_1.c ****             unixTime += RTC_1_SECONDS_PER_NONLEAP_YEAR;
 448              		.loc 1 1209 0
 449 007e 534A     		ldr	r2, .L43+8
 450 0080 0023     		movs	r3, #0
 451 0082 A418     		adds	r4, r4, r2
 452 0084 5D41     		adcs	r5, r5, r3
 453              	.LVL36:
 454              	.L28:
1201:Generated_Source\PSoC4/RTC_1.c ****     {
 455              		.loc 1 1201 0 discriminator 2
 456 0086 0137     		adds	r7, r7, #1
 457              	.LVL37:
 458              	.L24:
1201:Generated_Source\PSoC4/RTC_1.c ****     {
 459              		.loc 1 1201 0 is_stmt 0 discriminator 1
 460 0088 4F45     		cmp	r7, r9
 461 008a DDD3     		bcc	.L29
 462              	.LVL38:
 463              	.LBB65:
 464              	.LBB66:
 769:Generated_Source\PSoC4/RTC_1.h ****     retVal += (date & RTC_1_MONTH_MASK) >> RTC_1_MONTH_OFFSET;
 465              		.loc 2 769 0 is_stmt 1
 466 008c 4346     		mov	r3, r8
 467 008e 1B0F     		lsrs	r3, r3, #28
 468 0090 0122     		movs	r2, #1
 469 0092 1340     		ands	r3, r2
 470 0094 9A00     		lsls	r2, r3, #2
 471 0096 D318     		adds	r3, r2, r3
 472 0098 5B00     		lsls	r3, r3, #1
 473              	.LVL39:
 770:Generated_Source\PSoC4/RTC_1.h **** 
 474              		.loc 2 770 0
 475 009a 4246     		mov	r2, r8
 476 009c 120E     		lsrs	r2, r2, #24
 477 009e 0F27     		movs	r7, #15
 478              	.LVL40:
 479 00a0 1740     		ands	r7, r2
 480 00a2 DF19     		adds	r7, r3, r7
 481              	.LVL41:
 482              	.LBE66:
 483              	.LBE65:
 484              	.LBB67:
 485              	.LBB68:
 797:Generated_Source\PSoC4/RTC_1.h **** 
 798:Generated_Source\PSoC4/RTC_1.h ****     return (retVal);
 799:Generated_Source\PSoC4/RTC_1.h **** }
 800:Generated_Source\PSoC4/RTC_1.h **** 
 801:Generated_Source\PSoC4/RTC_1.h **** 
 802:Generated_Source\PSoC4/RTC_1.h **** /*******************************************************************************
ARM GAS  C:\Users\austc\AppData\Local\Temp\ccaNEfOM.s 			page 45


 803:Generated_Source\PSoC4/RTC_1.h **** * Function Name: RTC_1_SetSecond
 804:Generated_Source\PSoC4/RTC_1.h **** ****************************************************************************//**
 805:Generated_Source\PSoC4/RTC_1.h **** * \internal
 806:Generated_Source\PSoC4/RTC_1.h **** * Updates the time with the new second value.
 807:Generated_Source\PSoC4/RTC_1.h **** *
 808:Generated_Source\PSoC4/RTC_1.h **** * \param inputTime
 809:Generated_Source\PSoC4/RTC_1.h **** * The current date.
 810:Generated_Source\PSoC4/RTC_1.h **** *
 811:Generated_Source\PSoC4/RTC_1.h **** * \param inputSecond
 812:Generated_Source\PSoC4/RTC_1.h **** * The seconds value to be set to the time variable.
 813:Generated_Source\PSoC4/RTC_1.h **** *
 814:Generated_Source\PSoC4/RTC_1.h **** * \return
 815:Generated_Source\PSoC4/RTC_1.h **** * The updated time variable.
 816:Generated_Source\PSoC4/RTC_1.h **** * \endinternal
 817:Generated_Source\PSoC4/RTC_1.h **** *******************************************************************************/
 818:Generated_Source\PSoC4/RTC_1.h **** static CY_INLINE uint32 RTC_1_SetSecond(uint32 inputTime, uint32 inputSecond)
 819:Generated_Source\PSoC4/RTC_1.h **** {
 820:Generated_Source\PSoC4/RTC_1.h ****     inputTime &= ~(RTC_1_SECONDS_FULL_MASK);
 821:Generated_Source\PSoC4/RTC_1.h **** 
 822:Generated_Source\PSoC4/RTC_1.h ****     inputTime |= (inputSecond / 10u) << RTC_1_10_SECONDS_OFFSET;
 823:Generated_Source\PSoC4/RTC_1.h ****     inputTime |= (inputSecond % 10u) << RTC_1_SECONDS_OFFSET;
 824:Generated_Source\PSoC4/RTC_1.h **** 
 825:Generated_Source\PSoC4/RTC_1.h ****     return(inputTime);
 826:Generated_Source\PSoC4/RTC_1.h **** }
 827:Generated_Source\PSoC4/RTC_1.h **** 
 828:Generated_Source\PSoC4/RTC_1.h **** 
 829:Generated_Source\PSoC4/RTC_1.h **** /*******************************************************************************
 830:Generated_Source\PSoC4/RTC_1.h **** * Function Name: RTC_1_SetMinutes
 831:Generated_Source\PSoC4/RTC_1.h **** ****************************************************************************//**
 832:Generated_Source\PSoC4/RTC_1.h **** * \internal
 833:Generated_Source\PSoC4/RTC_1.h **** *  Updates the time with the new minute value.
 834:Generated_Source\PSoC4/RTC_1.h **** *
 835:Generated_Source\PSoC4/RTC_1.h **** * \param inputTime
 836:Generated_Source\PSoC4/RTC_1.h **** * The current date.
 837:Generated_Source\PSoC4/RTC_1.h **** *
 838:Generated_Source\PSoC4/RTC_1.h **** * \param inputMinute
 839:Generated_Source\PSoC4/RTC_1.h **** * The minutes value to be set to the time variable.
 840:Generated_Source\PSoC4/RTC_1.h **** *
 841:Generated_Source\PSoC4/RTC_1.h **** * \return
 842:Generated_Source\PSoC4/RTC_1.h **** * The updated time variable.
 843:Generated_Source\PSoC4/RTC_1.h **** * \endinternal
 844:Generated_Source\PSoC4/RTC_1.h **** *******************************************************************************/
 845:Generated_Source\PSoC4/RTC_1.h **** static CY_INLINE uint32 RTC_1_SetMinutes(uint32 inputTime, uint32 inputMinute)
 846:Generated_Source\PSoC4/RTC_1.h **** {
 847:Generated_Source\PSoC4/RTC_1.h ****     inputTime &= ~(RTC_1_MINUTES_FULL_MASK);
 848:Generated_Source\PSoC4/RTC_1.h **** 
 849:Generated_Source\PSoC4/RTC_1.h ****     inputTime |= (inputMinute / 10u) << RTC_1_10_MINUTES_OFFSET;
 850:Generated_Source\PSoC4/RTC_1.h ****     inputTime |= (inputMinute % 10u) << RTC_1_MINUTES_OFFSET;
 851:Generated_Source\PSoC4/RTC_1.h **** 
 852:Generated_Source\PSoC4/RTC_1.h ****     return(inputTime);
 853:Generated_Source\PSoC4/RTC_1.h **** }
 854:Generated_Source\PSoC4/RTC_1.h **** 
 855:Generated_Source\PSoC4/RTC_1.h **** 
 856:Generated_Source\PSoC4/RTC_1.h **** /*******************************************************************************
 857:Generated_Source\PSoC4/RTC_1.h **** * Function Name: RTC_1_SetHours
 858:Generated_Source\PSoC4/RTC_1.h **** ****************************************************************************//**
 859:Generated_Source\PSoC4/RTC_1.h **** * \internal
ARM GAS  C:\Users\austc\AppData\Local\Temp\ccaNEfOM.s 			page 46


 860:Generated_Source\PSoC4/RTC_1.h **** *  Updates the time with the new hour value.
 861:Generated_Source\PSoC4/RTC_1.h **** *
 862:Generated_Source\PSoC4/RTC_1.h **** * \param inputTime
 863:Generated_Source\PSoC4/RTC_1.h **** * The current date.
 864:Generated_Source\PSoC4/RTC_1.h **** *
 865:Generated_Source\PSoC4/RTC_1.h **** * \param inputHours
 866:Generated_Source\PSoC4/RTC_1.h **** * The hours value to be set to the time variable.
 867:Generated_Source\PSoC4/RTC_1.h **** *
 868:Generated_Source\PSoC4/RTC_1.h **** * \return
 869:Generated_Source\PSoC4/RTC_1.h **** * The updated time variable.
 870:Generated_Source\PSoC4/RTC_1.h **** * \endinternal
 871:Generated_Source\PSoC4/RTC_1.h **** *******************************************************************************/
 872:Generated_Source\PSoC4/RTC_1.h **** static CY_INLINE uint32 RTC_1_SetHours(uint32 inputTime, uint32 inputHours)
 873:Generated_Source\PSoC4/RTC_1.h **** {
 874:Generated_Source\PSoC4/RTC_1.h ****     inputTime &= ~(RTC_1_HOURS_FULL_MASK);
 875:Generated_Source\PSoC4/RTC_1.h **** 
 876:Generated_Source\PSoC4/RTC_1.h ****     inputTime |= (inputHours / 10u) << RTC_1_10_HOURS_OFFSET;
 877:Generated_Source\PSoC4/RTC_1.h ****     inputTime |= (inputHours % 10u) << RTC_1_HOURS_OFFSET;
 878:Generated_Source\PSoC4/RTC_1.h **** 
 879:Generated_Source\PSoC4/RTC_1.h ****     return(inputTime);
 880:Generated_Source\PSoC4/RTC_1.h **** }
 881:Generated_Source\PSoC4/RTC_1.h **** 
 882:Generated_Source\PSoC4/RTC_1.h **** 
 883:Generated_Source\PSoC4/RTC_1.h **** /*******************************************************************************
 884:Generated_Source\PSoC4/RTC_1.h **** * Function Name: RTC_1_SetAmPm
 885:Generated_Source\PSoC4/RTC_1.h **** ****************************************************************************//**
 886:Generated_Source\PSoC4/RTC_1.h **** * \internal
 887:Generated_Source\PSoC4/RTC_1.h **** * Updates the time variable with the AmPm status.
 888:Generated_Source\PSoC4/RTC_1.h **** *
 889:Generated_Source\PSoC4/RTC_1.h **** * \param inputTime
 890:Generated_Source\PSoC4/RTC_1.h **** * The current date.
 891:Generated_Source\PSoC4/RTC_1.h **** *
 892:Generated_Source\PSoC4/RTC_1.h **** * \param periodOfDay
 893:Generated_Source\PSoC4/RTC_1.h **** * The AmPm status to be set to the time variable.
 894:Generated_Source\PSoC4/RTC_1.h **** *
 895:Generated_Source\PSoC4/RTC_1.h **** * \return
 896:Generated_Source\PSoC4/RTC_1.h **** * The updated time variable.
 897:Generated_Source\PSoC4/RTC_1.h **** * \endinternal
 898:Generated_Source\PSoC4/RTC_1.h **** *******************************************************************************/
 899:Generated_Source\PSoC4/RTC_1.h **** static CY_INLINE uint32 RTC_1_SetAmPm(uint32 inputTime, uint32 periodOfDay)
 900:Generated_Source\PSoC4/RTC_1.h **** {
 901:Generated_Source\PSoC4/RTC_1.h ****     if(0u != periodOfDay)
 902:Generated_Source\PSoC4/RTC_1.h ****     {
 903:Generated_Source\PSoC4/RTC_1.h ****         inputTime &= ~(RTC_1_PERIOD_OF_DAY_MASK);
 904:Generated_Source\PSoC4/RTC_1.h ****     }
 905:Generated_Source\PSoC4/RTC_1.h ****     else
 906:Generated_Source\PSoC4/RTC_1.h ****     {
 907:Generated_Source\PSoC4/RTC_1.h ****         inputTime |= RTC_1_PERIOD_OF_DAY_MASK;
 908:Generated_Source\PSoC4/RTC_1.h ****     }
 909:Generated_Source\PSoC4/RTC_1.h **** 
 910:Generated_Source\PSoC4/RTC_1.h ****     return(inputTime);
 911:Generated_Source\PSoC4/RTC_1.h **** }
 912:Generated_Source\PSoC4/RTC_1.h **** 
 913:Generated_Source\PSoC4/RTC_1.h **** 
 914:Generated_Source\PSoC4/RTC_1.h **** /*******************************************************************************
 915:Generated_Source\PSoC4/RTC_1.h **** * Function Name: RTC_1_SetDay
 916:Generated_Source\PSoC4/RTC_1.h **** ****************************************************************************//**
ARM GAS  C:\Users\austc\AppData\Local\Temp\ccaNEfOM.s 			page 47


 917:Generated_Source\PSoC4/RTC_1.h **** * \internal
 918:Generated_Source\PSoC4/RTC_1.h **** * Updates the date variable with the new day value.
 919:Generated_Source\PSoC4/RTC_1.h **** *
 920:Generated_Source\PSoC4/RTC_1.h **** * \param inputDate
 921:Generated_Source\PSoC4/RTC_1.h **** * The current date.
 922:Generated_Source\PSoC4/RTC_1.h **** *
 923:Generated_Source\PSoC4/RTC_1.h **** * \param inputDay
 924:Generated_Source\PSoC4/RTC_1.h **** * day The month to be set to the date variable.
 925:Generated_Source\PSoC4/RTC_1.h **** *
 926:Generated_Source\PSoC4/RTC_1.h **** * \return
 927:Generated_Source\PSoC4/RTC_1.h **** * The updated date variable.
 928:Generated_Source\PSoC4/RTC_1.h **** * \endinternal
 929:Generated_Source\PSoC4/RTC_1.h **** *******************************************************************************/
 930:Generated_Source\PSoC4/RTC_1.h **** static CY_INLINE uint32 RTC_1_SetDay(uint32 inputDate, uint32 inputDay)
 931:Generated_Source\PSoC4/RTC_1.h **** {
 932:Generated_Source\PSoC4/RTC_1.h ****     inputDate &= ~(RTC_1_DAY_FULL_MASK);
 933:Generated_Source\PSoC4/RTC_1.h **** 
 934:Generated_Source\PSoC4/RTC_1.h ****     inputDate |= (inputDay / 10u) << RTC_1_10_DAY_OFFSET;
 935:Generated_Source\PSoC4/RTC_1.h ****     inputDate |= (inputDay % 10u) << RTC_1_DAY_OFFSET;
 936:Generated_Source\PSoC4/RTC_1.h **** 
 937:Generated_Source\PSoC4/RTC_1.h ****     return(inputDate);
 938:Generated_Source\PSoC4/RTC_1.h **** }
 939:Generated_Source\PSoC4/RTC_1.h **** 
 940:Generated_Source\PSoC4/RTC_1.h **** 
 941:Generated_Source\PSoC4/RTC_1.h **** /*******************************************************************************
 942:Generated_Source\PSoC4/RTC_1.h **** * Function Name: RTC_1_SetMonth
 943:Generated_Source\PSoC4/RTC_1.h **** ****************************************************************************//**
 944:Generated_Source\PSoC4/RTC_1.h **** * \internal
 945:Generated_Source\PSoC4/RTC_1.h **** * Updates the date variable with the new month value.
 946:Generated_Source\PSoC4/RTC_1.h **** *
 947:Generated_Source\PSoC4/RTC_1.h **** * \param inputDate
 948:Generated_Source\PSoC4/RTC_1.h **** * The current date.
 949:Generated_Source\PSoC4/RTC_1.h **** *
 950:Generated_Source\PSoC4/RTC_1.h **** * \param inputMonth
 951:Generated_Source\PSoC4/RTC_1.h **** * The month that to be set to the date variable.
 952:Generated_Source\PSoC4/RTC_1.h **** *
 953:Generated_Source\PSoC4/RTC_1.h **** * \return
 954:Generated_Source\PSoC4/RTC_1.h **** * The updated date variable.
 955:Generated_Source\PSoC4/RTC_1.h **** * \endinternal
 956:Generated_Source\PSoC4/RTC_1.h **** *******************************************************************************/
 957:Generated_Source\PSoC4/RTC_1.h **** static CY_INLINE uint32 RTC_1_SetMonth(uint32 inputDate, uint32 inputMonth)
 958:Generated_Source\PSoC4/RTC_1.h **** {
 959:Generated_Source\PSoC4/RTC_1.h ****     inputDate &= ~(RTC_1_MONTH_FULL_MASK);
 960:Generated_Source\PSoC4/RTC_1.h **** 
 961:Generated_Source\PSoC4/RTC_1.h ****     inputDate |= (inputMonth / 10u) << RTC_1_10_MONTH_OFFSET;
 962:Generated_Source\PSoC4/RTC_1.h ****     inputDate |= (inputMonth % 10u) << RTC_1_MONTH_OFFSET;
 963:Generated_Source\PSoC4/RTC_1.h **** 
 964:Generated_Source\PSoC4/RTC_1.h ****     return(inputDate);
 965:Generated_Source\PSoC4/RTC_1.h **** }
 966:Generated_Source\PSoC4/RTC_1.h **** 
 967:Generated_Source\PSoC4/RTC_1.h **** 
 968:Generated_Source\PSoC4/RTC_1.h **** /*******************************************************************************
 969:Generated_Source\PSoC4/RTC_1.h **** * Function Name: RTC_1_SetYear
 970:Generated_Source\PSoC4/RTC_1.h **** ****************************************************************************//**
 971:Generated_Source\PSoC4/RTC_1.h **** *\internal
 972:Generated_Source\PSoC4/RTC_1.h **** * Updates the date variable with the new year value.
 973:Generated_Source\PSoC4/RTC_1.h **** *
ARM GAS  C:\Users\austc\AppData\Local\Temp\ccaNEfOM.s 			page 48


 974:Generated_Source\PSoC4/RTC_1.h **** * \param inputDate
 975:Generated_Source\PSoC4/RTC_1.h **** * The current date.
 976:Generated_Source\PSoC4/RTC_1.h **** *
 977:Generated_Source\PSoC4/RTC_1.h **** * \param inputYear
 978:Generated_Source\PSoC4/RTC_1.h **** * The year to be set to the date variable.
 979:Generated_Source\PSoC4/RTC_1.h **** *
 980:Generated_Source\PSoC4/RTC_1.h **** * \return
 981:Generated_Source\PSoC4/RTC_1.h **** * The updated date variable.
 982:Generated_Source\PSoC4/RTC_1.h **** * \endinternal
 983:Generated_Source\PSoC4/RTC_1.h **** *******************************************************************************/
 984:Generated_Source\PSoC4/RTC_1.h **** static CY_INLINE uint32 RTC_1_SetYear(uint32 inputDate, uint32 inputYear)
 985:Generated_Source\PSoC4/RTC_1.h **** {
 986:Generated_Source\PSoC4/RTC_1.h ****     inputDate  &= ~(RTC_1_YEAR_FULL_MASK);
 987:Generated_Source\PSoC4/RTC_1.h **** 
 988:Generated_Source\PSoC4/RTC_1.h ****     inputDate |= (inputYear / 1000u) << RTC_1_1000_YEAR_OFFSET;
 989:Generated_Source\PSoC4/RTC_1.h ****     inputYear %= 1000u;
 990:Generated_Source\PSoC4/RTC_1.h **** 
 991:Generated_Source\PSoC4/RTC_1.h ****     inputDate |= (inputYear / 100u) << RTC_1_100_YEAR_OFFSET;
 992:Generated_Source\PSoC4/RTC_1.h ****     inputYear %= 100u;
 993:Generated_Source\PSoC4/RTC_1.h **** 
 994:Generated_Source\PSoC4/RTC_1.h ****     inputDate |= (inputYear / 10u) << RTC_1_10_YEAR_OFFSET;
 995:Generated_Source\PSoC4/RTC_1.h ****     inputDate |= (inputYear % 10u) << RTC_1_YEAR_OFFSET;
 996:Generated_Source\PSoC4/RTC_1.h **** 
 997:Generated_Source\PSoC4/RTC_1.h ****     return(inputDate);
 998:Generated_Source\PSoC4/RTC_1.h **** }
 999:Generated_Source\PSoC4/RTC_1.h **** 
1000:Generated_Source\PSoC4/RTC_1.h **** 
1001:Generated_Source\PSoC4/RTC_1.h **** /*******************************************************************************
1002:Generated_Source\PSoC4/RTC_1.h **** * Function Name: RTC_1_GetNextMinSec
1003:Generated_Source\PSoC4/RTC_1.h **** ****************************************************************************//**
1004:Generated_Source\PSoC4/RTC_1.h **** *\internal
1005:Generated_Source\PSoC4/RTC_1.h **** * This is an internal function that calculates the value of the next Second/Minute
1006:Generated_Source\PSoC4/RTC_1.h **** * that follows after the current Minute/Second.
1007:Generated_Source\PSoC4/RTC_1.h **** *
1008:Generated_Source\PSoC4/RTC_1.h **** * \param curVal
1009:Generated_Source\PSoC4/RTC_1.h **** * The current Second/Minute value.
1010:Generated_Source\PSoC4/RTC_1.h **** *
1011:Generated_Source\PSoC4/RTC_1.h **** * \return
1012:Generated_Source\PSoC4/RTC_1.h **** * Returns the Second/Minute which follows after the current Second/Minute.
1013:Generated_Source\PSoC4/RTC_1.h **** * \endinternal
1014:Generated_Source\PSoC4/RTC_1.h **** *******************************************************************************/
1015:Generated_Source\PSoC4/RTC_1.h **** static CY_INLINE uint32 RTC_1_GetNextMinSec(uint32 curVal)
1016:Generated_Source\PSoC4/RTC_1.h **** {
1017:Generated_Source\PSoC4/RTC_1.h ****     return((curVal < 59u) ? (curVal + 1u) : 0u);
1018:Generated_Source\PSoC4/RTC_1.h **** }
1019:Generated_Source\PSoC4/RTC_1.h **** 
1020:Generated_Source\PSoC4/RTC_1.h **** 
1021:Generated_Source\PSoC4/RTC_1.h **** /*******************************************************************************
1022:Generated_Source\PSoC4/RTC_1.h **** * Function Name: RTC_1_GetNextHour
1023:Generated_Source\PSoC4/RTC_1.h **** ****************************************************************************//**
1024:Generated_Source\PSoC4/RTC_1.h **** * \internal
1025:Generated_Source\PSoC4/RTC_1.h **** *  This is an internal function that calculates the value of the next Hour
1026:Generated_Source\PSoC4/RTC_1.h **** *  that follows after the current Hour.
1027:Generated_Source\PSoC4/RTC_1.h **** *
1028:Generated_Source\PSoC4/RTC_1.h **** * \param curVal
1029:Generated_Source\PSoC4/RTC_1.h **** * The current Hour value.
1030:Generated_Source\PSoC4/RTC_1.h **** *
ARM GAS  C:\Users\austc\AppData\Local\Temp\ccaNEfOM.s 			page 49


1031:Generated_Source\PSoC4/RTC_1.h **** * \return
1032:Generated_Source\PSoC4/RTC_1.h **** * Returns the Hour which follows after the current Hour.
1033:Generated_Source\PSoC4/RTC_1.h **** * \endinternal
1034:Generated_Source\PSoC4/RTC_1.h **** *******************************************************************************/
1035:Generated_Source\PSoC4/RTC_1.h **** static CY_INLINE uint32 RTC_1_GetNextHour(uint32 curVal)
1036:Generated_Source\PSoC4/RTC_1.h **** {
1037:Generated_Source\PSoC4/RTC_1.h ****     return((curVal < 23u) ? (curVal + 1u) : 0u);
1038:Generated_Source\PSoC4/RTC_1.h **** }
1039:Generated_Source\PSoC4/RTC_1.h **** 
1040:Generated_Source\PSoC4/RTC_1.h **** 
1041:Generated_Source\PSoC4/RTC_1.h **** /*******************************************************************************
1042:Generated_Source\PSoC4/RTC_1.h **** * Function Name: RTC_1_GetNextDay
1043:Generated_Source\PSoC4/RTC_1.h **** ****************************************************************************//**
1044:Generated_Source\PSoC4/RTC_1.h **** * \internal
1045:Generated_Source\PSoC4/RTC_1.h **** *  This is an internal function that calculates the value of the next Day
1046:Generated_Source\PSoC4/RTC_1.h **** *  that follows after the current Day.
1047:Generated_Source\PSoC4/RTC_1.h **** *
1048:Generated_Source\PSoC4/RTC_1.h **** * \param curYear
1049:Generated_Source\PSoC4/RTC_1.h **** * The current year.
1050:Generated_Source\PSoC4/RTC_1.h **** *
1051:Generated_Source\PSoC4/RTC_1.h **** * \param curMonth
1052:Generated_Source\PSoC4/RTC_1.h **** * The current month.
1053:Generated_Source\PSoC4/RTC_1.h **** *
1054:Generated_Source\PSoC4/RTC_1.h **** * \param curDay
1055:Generated_Source\PSoC4/RTC_1.h **** * The current day.
1056:Generated_Source\PSoC4/RTC_1.h **** *
1057:Generated_Source\PSoC4/RTC_1.h **** * \param alarmCfgMask
1058:Generated_Source\PSoC4/RTC_1.h **** * Alarm Config Mask.
1059:Generated_Source\PSoC4/RTC_1.h **** *
1060:Generated_Source\PSoC4/RTC_1.h **** * \return
1061:Generated_Source\PSoC4/RTC_1.h **** * Returns the day which follows after the current Day.
1062:Generated_Source\PSoC4/RTC_1.h **** * \endinternal
1063:Generated_Source\PSoC4/RTC_1.h **** *******************************************************************************/
1064:Generated_Source\PSoC4/RTC_1.h **** static CY_INLINE uint32 RTC_1_GetNextDay(uint32 curYear, uint32 curMonth,
1065:Generated_Source\PSoC4/RTC_1.h ****                                                     uint32 curDay, uint32 alarmCfgMask)
1066:Generated_Source\PSoC4/RTC_1.h **** {
1067:Generated_Source\PSoC4/RTC_1.h ****     uint32 daysInMonth;
1068:Generated_Source\PSoC4/RTC_1.h ****     uint32 tmpVal;
1069:Generated_Source\PSoC4/RTC_1.h **** 
1070:Generated_Source\PSoC4/RTC_1.h ****     daysInMonth = RTC_1_DaysInMonth(curMonth, curYear);
1071:Generated_Source\PSoC4/RTC_1.h **** 
1072:Generated_Source\PSoC4/RTC_1.h ****     if(0u != (alarmCfgMask & RTC_1_ALARM_DAYOFWEEK_MASK))
1073:Generated_Source\PSoC4/RTC_1.h ****     {
1074:Generated_Source\PSoC4/RTC_1.h ****         tmpVal = curDay + RTC_1_DAYS_PER_WEEK;
1075:Generated_Source\PSoC4/RTC_1.h ****         tmpVal = (tmpVal > daysInMonth) ? (tmpVal - daysInMonth) : tmpVal;
1076:Generated_Source\PSoC4/RTC_1.h ****     }
1077:Generated_Source\PSoC4/RTC_1.h ****     else
1078:Generated_Source\PSoC4/RTC_1.h ****     {
1079:Generated_Source\PSoC4/RTC_1.h ****         tmpVal = (curDay < daysInMonth) ? (curDay + 1u) : 1u;
1080:Generated_Source\PSoC4/RTC_1.h ****     }
1081:Generated_Source\PSoC4/RTC_1.h **** 
1082:Generated_Source\PSoC4/RTC_1.h ****     return(tmpVal);
1083:Generated_Source\PSoC4/RTC_1.h **** }
1084:Generated_Source\PSoC4/RTC_1.h **** 
1085:Generated_Source\PSoC4/RTC_1.h **** 
1086:Generated_Source\PSoC4/RTC_1.h **** /*******************************************************************************
1087:Generated_Source\PSoC4/RTC_1.h **** * Function Name: RTC_1_GetNextMonth
ARM GAS  C:\Users\austc\AppData\Local\Temp\ccaNEfOM.s 			page 50


1088:Generated_Source\PSoC4/RTC_1.h **** ****************************************************************************//**
1089:Generated_Source\PSoC4/RTC_1.h **** * \internal
1090:Generated_Source\PSoC4/RTC_1.h **** * This is an internal function that calculates the value of the next month
1091:Generated_Source\PSoC4/RTC_1.h **** * that follows after the current month.
1092:Generated_Source\PSoC4/RTC_1.h **** *
1093:Generated_Source\PSoC4/RTC_1.h **** * \param curMonth
1094:Generated_Source\PSoC4/RTC_1.h **** * The current month.
1095:Generated_Source\PSoC4/RTC_1.h **** *
1096:Generated_Source\PSoC4/RTC_1.h **** * \return
1097:Generated_Source\PSoC4/RTC_1.h **** * Returns the month which follows after the current month.
1098:Generated_Source\PSoC4/RTC_1.h **** * \endinternal
1099:Generated_Source\PSoC4/RTC_1.h **** *******************************************************************************/
1100:Generated_Source\PSoC4/RTC_1.h **** static CY_INLINE uint32 RTC_1_GetNextMonth(uint32 curMonth)
1101:Generated_Source\PSoC4/RTC_1.h **** {
1102:Generated_Source\PSoC4/RTC_1.h ****     return((curMonth < 12u) ? (curMonth + 1u) : 1u);
1103:Generated_Source\PSoC4/RTC_1.h **** }
1104:Generated_Source\PSoC4/RTC_1.h **** 
1105:Generated_Source\PSoC4/RTC_1.h **** 
1106:Generated_Source\PSoC4/RTC_1.h **** /*******************************************************************************
1107:Generated_Source\PSoC4/RTC_1.h **** * Function Name: RTC_1_GetNextYear
1108:Generated_Source\PSoC4/RTC_1.h **** ****************************************************************************//**
1109:Generated_Source\PSoC4/RTC_1.h **** * \internal
1110:Generated_Source\PSoC4/RTC_1.h **** * This is an internal function that calculates the value of the next year
1111:Generated_Source\PSoC4/RTC_1.h **** * that follows after the current year.
1112:Generated_Source\PSoC4/RTC_1.h **** *
1113:Generated_Source\PSoC4/RTC_1.h **** * \param curYear
1114:Generated_Source\PSoC4/RTC_1.h **** * The current year.
1115:Generated_Source\PSoC4/RTC_1.h **** *
1116:Generated_Source\PSoC4/RTC_1.h **** * \return
1117:Generated_Source\PSoC4/RTC_1.h **** * Returns the year which follows after the current year.
1118:Generated_Source\PSoC4/RTC_1.h **** * \endinternal
1119:Generated_Source\PSoC4/RTC_1.h **** *******************************************************************************/
1120:Generated_Source\PSoC4/RTC_1.h **** static CY_INLINE uint32 RTC_1_GetNextYear(uint32 curYear)
1121:Generated_Source\PSoC4/RTC_1.h **** {
1122:Generated_Source\PSoC4/RTC_1.h ****     return(curYear + 1u);
1123:Generated_Source\PSoC4/RTC_1.h **** }
1124:Generated_Source\PSoC4/RTC_1.h **** 
1125:Generated_Source\PSoC4/RTC_1.h **** 
1126:Generated_Source\PSoC4/RTC_1.h **** /*******************************************************************************
1127:Generated_Source\PSoC4/RTC_1.h **** * Function Name: RTC_1_SetTimeFormat
1128:Generated_Source\PSoC4/RTC_1.h **** ****************************************************************************//**
1129:Generated_Source\PSoC4/RTC_1.h **** * \internal
1130:Generated_Source\PSoC4/RTC_1.h **** * Updates the "Time Format" value in the variable that contains time in the
1131:Generated_Source\PSoC4/RTC_1.h **** * "HH:MM:SS" format.
1132:Generated_Source\PSoC4/RTC_1.h **** *
1133:Generated_Source\PSoC4/RTC_1.h **** * \param inputTime
1134:Generated_Source\PSoC4/RTC_1.h **** * The current value of the time in the "HH:MM:SS" format.
1135:Generated_Source\PSoC4/RTC_1.h **** *
1136:Generated_Source\PSoC4/RTC_1.h **** * \param timeFormat
1137:Generated_Source\PSoC4/RTC_1.h **** * Required time format
1138:Generated_Source\PSoC4/RTC_1.h **** *
1139:Generated_Source\PSoC4/RTC_1.h **** * \return
1140:Generated_Source\PSoC4/RTC_1.h **** * Returns the updated value of the time in the "HH:MM:SS" format.
1141:Generated_Source\PSoC4/RTC_1.h **** * \endinternal
1142:Generated_Source\PSoC4/RTC_1.h **** *******************************************************************************/
1143:Generated_Source\PSoC4/RTC_1.h **** static CY_INLINE uint32 RTC_1_SetTimeFormat(uint32 inputTime, uint32 timeFormat)
1144:Generated_Source\PSoC4/RTC_1.h **** {
ARM GAS  C:\Users\austc\AppData\Local\Temp\ccaNEfOM.s 			page 51


1145:Generated_Source\PSoC4/RTC_1.h ****     inputTime &= ~(RTC_1_TIME_FORMAT_MASK);
1146:Generated_Source\PSoC4/RTC_1.h **** 
1147:Generated_Source\PSoC4/RTC_1.h ****     if((uint32)RTC_1_12_HOURS_FORMAT != timeFormat)
1148:Generated_Source\PSoC4/RTC_1.h ****     {
1149:Generated_Source\PSoC4/RTC_1.h ****         inputTime |= RTC_1_TIME_FORMAT_MASK;
1150:Generated_Source\PSoC4/RTC_1.h ****     }
1151:Generated_Source\PSoC4/RTC_1.h **** 
1152:Generated_Source\PSoC4/RTC_1.h ****     return(inputTime);
1153:Generated_Source\PSoC4/RTC_1.h **** }
1154:Generated_Source\PSoC4/RTC_1.h **** 
1155:Generated_Source\PSoC4/RTC_1.h **** 
1156:Generated_Source\PSoC4/RTC_1.h **** /*******************************************************************************
1157:Generated_Source\PSoC4/RTC_1.h **** * Function Name: RTC_1_GetTimeFormat
1158:Generated_Source\PSoC4/RTC_1.h **** ****************************************************************************//**
1159:Generated_Source\PSoC4/RTC_1.h **** * \internal
1160:Generated_Source\PSoC4/RTC_1.h **** * Reads the time format from the variable that contains time in the
1161:Generated_Source\PSoC4/RTC_1.h **** * "HH:MM:SS" format.
1162:Generated_Source\PSoC4/RTC_1.h **** *
1163:Generated_Source\PSoC4/RTC_1.h **** * \param inputTime
1164:Generated_Source\PSoC4/RTC_1.h **** * The current value of the time in the "HH:MM:SS" format.
1165:Generated_Source\PSoC4/RTC_1.h **** *
1166:Generated_Source\PSoC4/RTC_1.h **** * \return
1167:Generated_Source\PSoC4/RTC_1.h **** * Returns the time format that is stored in the variable that contains time
1168:Generated_Source\PSoC4/RTC_1.h **** * in the "HH:MM:SS" format.
1169:Generated_Source\PSoC4/RTC_1.h **** * \endinternal
1170:Generated_Source\PSoC4/RTC_1.h **** *******************************************************************************/
1171:Generated_Source\PSoC4/RTC_1.h **** static CY_INLINE uint32 RTC_1_GetTimeFormat(uint32 inputTime)
1172:Generated_Source\PSoC4/RTC_1.h **** {
1173:Generated_Source\PSoC4/RTC_1.h ****     return ((0uL != (inputTime & (1uL << RTC_1_TIME_FORMAT_OFFSET))) ?
1174:Generated_Source\PSoC4/RTC_1.h ****                                        (uint32)RTC_1_12_HOURS_FORMAT :
1175:Generated_Source\PSoC4/RTC_1.h ****                                        (uint32)RTC_1_24_HOURS_FORMAT);
1176:Generated_Source\PSoC4/RTC_1.h **** }
1177:Generated_Source\PSoC4/RTC_1.h **** 
1178:Generated_Source\PSoC4/RTC_1.h **** 
1179:Generated_Source\PSoC4/RTC_1.h **** /*******************************************************************************
1180:Generated_Source\PSoC4/RTC_1.h **** * Function Name: RTC_1_ConstructTime
1181:Generated_Source\PSoC4/RTC_1.h **** ****************************************************************************//**
1182:Generated_Source\PSoC4/RTC_1.h **** *
1183:Generated_Source\PSoC4/RTC_1.h **** * Returns the time in the format used in APIs from individual elements
1184:Generated_Source\PSoC4/RTC_1.h **** * passed (hour, min, sec etc)
1185:Generated_Source\PSoC4/RTC_1.h **** *
1186:Generated_Source\PSoC4/RTC_1.h **** * \param timeFormat
1187:Generated_Source\PSoC4/RTC_1.h **** * The 12/24 hours time format, see \ref group_rtc_hour_format
1188:Generated_Source\PSoC4/RTC_1.h **** *
1189:Generated_Source\PSoC4/RTC_1.h **** * \param stateAmPm 
1190:Generated_Source\PSoC4/RTC_1.h **** * The AM/PM status, see \ref group_rtc_am_pm.
1191:Generated_Source\PSoC4/RTC_1.h **** *
1192:Generated_Source\PSoC4/RTC_1.h **** * \param hour
1193:Generated_Source\PSoC4/RTC_1.h **** * The hour.
1194:Generated_Source\PSoC4/RTC_1.h **** *
1195:Generated_Source\PSoC4/RTC_1.h **** * \param min
1196:Generated_Source\PSoC4/RTC_1.h **** * The minute.
1197:Generated_Source\PSoC4/RTC_1.h **** *
1198:Generated_Source\PSoC4/RTC_1.h **** * \param sec
1199:Generated_Source\PSoC4/RTC_1.h **** * The second.
1200:Generated_Source\PSoC4/RTC_1.h **** *
1201:Generated_Source\PSoC4/RTC_1.h **** * \return
ARM GAS  C:\Users\austc\AppData\Local\Temp\ccaNEfOM.s 			page 52


1202:Generated_Source\PSoC4/RTC_1.h **** * Time in the format used in API.
1203:Generated_Source\PSoC4/RTC_1.h **** *
1204:Generated_Source\PSoC4/RTC_1.h **** *******************************************************************************/
1205:Generated_Source\PSoC4/RTC_1.h **** static CY_INLINE uint32 RTC_1_ConstructTime(uint32 timeFormat, uint32 stateAmPm, 
1206:Generated_Source\PSoC4/RTC_1.h ****                                                        uint32 hour, uint32 min, uint32 sec)
1207:Generated_Source\PSoC4/RTC_1.h **** {
1208:Generated_Source\PSoC4/RTC_1.h ****     uint32 retVal;
1209:Generated_Source\PSoC4/RTC_1.h **** 
1210:Generated_Source\PSoC4/RTC_1.h ****     retVal  = timeFormat << RTC_1_TIME_FORMAT_OFFSET;
1211:Generated_Source\PSoC4/RTC_1.h ****     retVal |= stateAmPm << RTC_1_PERIOD_OF_DAY_OFFSET;
1212:Generated_Source\PSoC4/RTC_1.h **** 
1213:Generated_Source\PSoC4/RTC_1.h ****     retVal |= (hour / 10u) << RTC_1_10_HOURS_OFFSET;
1214:Generated_Source\PSoC4/RTC_1.h ****     retVal |= (hour % 10u) << RTC_1_HOURS_OFFSET;
1215:Generated_Source\PSoC4/RTC_1.h **** 
1216:Generated_Source\PSoC4/RTC_1.h ****     retVal |= (min / 10u) << RTC_1_10_MINUTES_OFFSET;
1217:Generated_Source\PSoC4/RTC_1.h ****     retVal |= (min % 10u) << RTC_1_MINUTES_OFFSET;
1218:Generated_Source\PSoC4/RTC_1.h **** 
1219:Generated_Source\PSoC4/RTC_1.h ****     retVal |= (sec / 10u) << RTC_1_10_SECONDS_OFFSET;
1220:Generated_Source\PSoC4/RTC_1.h ****     retVal |= (sec % 10u) << RTC_1_SECONDS_OFFSET;
1221:Generated_Source\PSoC4/RTC_1.h **** 
1222:Generated_Source\PSoC4/RTC_1.h ****     return (retVal);
1223:Generated_Source\PSoC4/RTC_1.h **** }
1224:Generated_Source\PSoC4/RTC_1.h **** 
1225:Generated_Source\PSoC4/RTC_1.h **** 
1226:Generated_Source\PSoC4/RTC_1.h **** /*******************************************************************************
1227:Generated_Source\PSoC4/RTC_1.h **** * Function Name: RTC_1_ConstructDate
1228:Generated_Source\PSoC4/RTC_1.h **** ****************************************************************************//**
1229:Generated_Source\PSoC4/RTC_1.h **** *
1230:Generated_Source\PSoC4/RTC_1.h **** *  Returns the date in the format used in APIs from individual elements
1231:Generated_Source\PSoC4/RTC_1.h **** *  passed (day. Month and year)
1232:Generated_Source\PSoC4/RTC_1.h **** *
1233:Generated_Source\PSoC4/RTC_1.h **** * \param month
1234:Generated_Source\PSoC4/RTC_1.h **** * The month.
1235:Generated_Source\PSoC4/RTC_1.h **** *
1236:Generated_Source\PSoC4/RTC_1.h **** * \param day
1237:Generated_Source\PSoC4/RTC_1.h **** * The day.
1238:Generated_Source\PSoC4/RTC_1.h **** *
1239:Generated_Source\PSoC4/RTC_1.h **** * \param year
1240:Generated_Source\PSoC4/RTC_1.h **** * The year.
1241:Generated_Source\PSoC4/RTC_1.h **** *
1242:Generated_Source\PSoC4/RTC_1.h **** * \return
1243:Generated_Source\PSoC4/RTC_1.h **** * The date in the format used in API.
1244:Generated_Source\PSoC4/RTC_1.h **** *
1245:Generated_Source\PSoC4/RTC_1.h **** *******************************************************************************/
1246:Generated_Source\PSoC4/RTC_1.h **** static CY_INLINE uint32 RTC_1_ConstructDate(uint32 month, uint32 day, uint32 year)
1247:Generated_Source\PSoC4/RTC_1.h **** {
1248:Generated_Source\PSoC4/RTC_1.h ****     uint32 retVal;
1249:Generated_Source\PSoC4/RTC_1.h ****     uint32 tmpVal = year;
1250:Generated_Source\PSoC4/RTC_1.h **** 
1251:Generated_Source\PSoC4/RTC_1.h ****     retVal  = (month / 10u) << RTC_1_10_MONTH_OFFSET;
1252:Generated_Source\PSoC4/RTC_1.h ****     retVal |= (month % 10u) << RTC_1_MONTH_OFFSET;
1253:Generated_Source\PSoC4/RTC_1.h **** 
1254:Generated_Source\PSoC4/RTC_1.h ****     retVal |= (day / 10u) << RTC_1_10_DAY_OFFSET;
1255:Generated_Source\PSoC4/RTC_1.h ****     retVal |= (day % 10u) << RTC_1_DAY_OFFSET;
1256:Generated_Source\PSoC4/RTC_1.h **** 
1257:Generated_Source\PSoC4/RTC_1.h ****     retVal |= (year / 1000u) << RTC_1_1000_YEAR_OFFSET;
1258:Generated_Source\PSoC4/RTC_1.h ****     tmpVal %= 1000u;
ARM GAS  C:\Users\austc\AppData\Local\Temp\ccaNEfOM.s 			page 53


1259:Generated_Source\PSoC4/RTC_1.h **** 
1260:Generated_Source\PSoC4/RTC_1.h ****     retVal |= (tmpVal / 100u) << RTC_1_100_YEAR_OFFSET;
1261:Generated_Source\PSoC4/RTC_1.h ****     tmpVal %= 100u;
1262:Generated_Source\PSoC4/RTC_1.h **** 
1263:Generated_Source\PSoC4/RTC_1.h ****     retVal |= (tmpVal / 10u) << RTC_1_10_YEAR_OFFSET;
1264:Generated_Source\PSoC4/RTC_1.h ****     retVal |= (tmpVal % 10u) << RTC_1_YEAR_OFFSET;
1265:Generated_Source\PSoC4/RTC_1.h **** 
1266:Generated_Source\PSoC4/RTC_1.h ****     return (retVal);
1267:Generated_Source\PSoC4/RTC_1.h **** }
1268:Generated_Source\PSoC4/RTC_1.h **** 
1269:Generated_Source\PSoC4/RTC_1.h **** 
1270:Generated_Source\PSoC4/RTC_1.h **** /*******************************************************************************
1271:Generated_Source\PSoC4/RTC_1.h **** * Function Name: RTC_1_GetDayOfWeek
1272:Generated_Source\PSoC4/RTC_1.h **** ****************************************************************************//**
1273:Generated_Source\PSoC4/RTC_1.h **** * \internal
1274:Generated_Source\PSoC4/RTC_1.h **** *
1275:Generated_Source\PSoC4/RTC_1.h **** *  Returns a day of the week for a year, month, and day of month that are passed
1276:Generated_Source\PSoC4/RTC_1.h **** *  through parameters. Zeller's congruence is used to calculate the day of
1277:Generated_Source\PSoC4/RTC_1.h **** *  the week.
1278:Generated_Source\PSoC4/RTC_1.h **** *
1279:Generated_Source\PSoC4/RTC_1.h **** *  For the Georgian calendar, Zeller's congruence is:
1280:Generated_Source\PSoC4/RTC_1.h **** *  h = (q + [13 * (m + 1)] + K + [K/4] + [J/4] - 2J) mod 7;
1281:Generated_Source\PSoC4/RTC_1.h **** *
1282:Generated_Source\PSoC4/RTC_1.h **** *  h - The day of the week (0 = Saturday, 1 = Sunday, 2 = Monday, ..., 
1283:Generated_Source\PSoC4/RTC_1.h **** *  6 = Friday).
1284:Generated_Source\PSoC4/RTC_1.h **** *  q - The day of the month.
1285:Generated_Source\PSoC4/RTC_1.h **** *  m - The month (3 = March, 4 = April, 5 = May, ..., 14 = February).
1286:Generated_Source\PSoC4/RTC_1.h **** *  K - The year of the century (year \mod 100).
1287:Generated_Source\PSoC4/RTC_1.h **** *  J - The zero-based century (actually [year/100]) For example, the zero-based
1288:Generated_Source\PSoC4/RTC_1.h **** *  centuries for 1995 and 2000 are 19 and 20 respectively (not to be
1289:Generated_Source\PSoC4/RTC_1.h **** *  confused with the common ordinal century enumeration which indicates
1290:Generated_Source\PSoC4/RTC_1.h **** *  20th for both cases).
1291:Generated_Source\PSoC4/RTC_1.h **** *
1292:Generated_Source\PSoC4/RTC_1.h **** * \note
1293:Generated_Source\PSoC4/RTC_1.h **** * In this algorithm January and February are counted as months 13 and 14
1294:Generated_Source\PSoC4/RTC_1.h **** * of the previous year.
1295:Generated_Source\PSoC4/RTC_1.h **** *
1296:Generated_Source\PSoC4/RTC_1.h **** * \param day
1297:Generated_Source\PSoC4/RTC_1.h **** * The day of the month(1..31)
1298:Generated_Source\PSoC4/RTC_1.h **** *
1299:Generated_Source\PSoC4/RTC_1.h **** * \param month
1300:Generated_Source\PSoC4/RTC_1.h **** * The month of the year, see \ref group_rtc_month
1301:Generated_Source\PSoC4/RTC_1.h **** *
1302:Generated_Source\PSoC4/RTC_1.h **** * \param year
1303:Generated_Source\PSoC4/RTC_1.h **** * The year value.
1304:Generated_Source\PSoC4/RTC_1.h **** *
1305:Generated_Source\PSoC4/RTC_1.h **** * \return
1306:Generated_Source\PSoC4/RTC_1.h **** * Returns a day of the week, see \ref group_rtc_day_of_the_week.
1307:Generated_Source\PSoC4/RTC_1.h **** *
1308:Generated_Source\PSoC4/RTC_1.h **** * \endinternal
1309:Generated_Source\PSoC4/RTC_1.h **** *******************************************************************************/
1310:Generated_Source\PSoC4/RTC_1.h **** static CY_INLINE uint32 RTC_1_GetDayOfWeek(uint32 day, uint32 month, uint32 year)
1311:Generated_Source\PSoC4/RTC_1.h **** {
1312:Generated_Source\PSoC4/RTC_1.h ****     uint32 retVal;
1313:Generated_Source\PSoC4/RTC_1.h **** 
1314:Generated_Source\PSoC4/RTC_1.h ****     /* Converts month number from regular convention
1315:Generated_Source\PSoC4/RTC_1.h ****      * (1=January,..., 12=December) to convention required for this
ARM GAS  C:\Users\austc\AppData\Local\Temp\ccaNEfOM.s 			page 54


1316:Generated_Source\PSoC4/RTC_1.h ****      * algorithm(January and February are counted as months 13 and 14 of
1317:Generated_Source\PSoC4/RTC_1.h ****      * previous year).
1318:Generated_Source\PSoC4/RTC_1.h ****     */
1319:Generated_Source\PSoC4/RTC_1.h ****     if(month < (uint32)RTC_1_MARCH)
1320:Generated_Source\PSoC4/RTC_1.h ****     {
1321:Generated_Source\PSoC4/RTC_1.h ****         month = 12u + month;
1322:Generated_Source\PSoC4/RTC_1.h ****         year--;
1323:Generated_Source\PSoC4/RTC_1.h ****     }
1324:Generated_Source\PSoC4/RTC_1.h **** 
1325:Generated_Source\PSoC4/RTC_1.h ****     /* Calculates Day of Week using Zeller's congruence algorithms */
1326:Generated_Source\PSoC4/RTC_1.h ****     retVal = (day + (((month + 1u) * 26u) / 10u) + year + (year / 4u) + (6u * (year / 100u)) + (yea
1327:Generated_Source\PSoC4/RTC_1.h **** 
1328:Generated_Source\PSoC4/RTC_1.h ****     /* Makes correction for Saturday. Saturday number should be 7 instead of 0. */
1329:Generated_Source\PSoC4/RTC_1.h ****     if(0u == retVal)
1330:Generated_Source\PSoC4/RTC_1.h ****     {
1331:Generated_Source\PSoC4/RTC_1.h ****         retVal = (uint32)RTC_1_SATURDAY;
1332:Generated_Source\PSoC4/RTC_1.h ****     }
1333:Generated_Source\PSoC4/RTC_1.h **** 
1334:Generated_Source\PSoC4/RTC_1.h ****     return(retVal);
1335:Generated_Source\PSoC4/RTC_1.h **** }
1336:Generated_Source\PSoC4/RTC_1.h **** 
1337:Generated_Source\PSoC4/RTC_1.h **** 
1338:Generated_Source\PSoC4/RTC_1.h **** /*******************************************************************************
1339:Generated_Source\PSoC4/RTC_1.h **** * Function Name: RTC_1_DaysBeforeMonth
1340:Generated_Source\PSoC4/RTC_1.h **** ****************************************************************************//**
1341:Generated_Source\PSoC4/RTC_1.h **** *
1342:Generated_Source\PSoC4/RTC_1.h **** * Calculates how many days elapsed from the beginning of the year to the
1343:Generated_Source\PSoC4/RTC_1.h **** * beginning of the current month.
1344:Generated_Source\PSoC4/RTC_1.h **** *
1345:Generated_Source\PSoC4/RTC_1.h **** * \param month
1346:Generated_Source\PSoC4/RTC_1.h **** * A month of a year, see \ref group_rtc_month
1347:Generated_Source\PSoC4/RTC_1.h **** *
1348:Generated_Source\PSoC4/RTC_1.h **** * \param year
1349:Generated_Source\PSoC4/RTC_1.h **** * A year value.
1350:Generated_Source\PSoC4/RTC_1.h **** *
1351:Generated_Source\PSoC4/RTC_1.h **** * \return
1352:Generated_Source\PSoC4/RTC_1.h **** * A number of days elapsed from the beginning of the year to the
1353:Generated_Source\PSoC4/RTC_1.h **** * beginning of the current month passed through the parameters.
1354:Generated_Source\PSoC4/RTC_1.h **** *
1355:Generated_Source\PSoC4/RTC_1.h **** *******************************************************************************/
1356:Generated_Source\PSoC4/RTC_1.h **** static CY_INLINE uint32 RTC_1_DaysBeforeMonth(uint32 month, uint32 year)
1357:Generated_Source\PSoC4/RTC_1.h **** {
1358:Generated_Source\PSoC4/RTC_1.h ****     uint32 retVal;
1359:Generated_Source\PSoC4/RTC_1.h **** 
1360:Generated_Source\PSoC4/RTC_1.h ****     retVal = RTC_1_daysBeforeMonthTbl[month - 1u];
 486              		.loc 2 1360 0
 487 00a4 7B1E     		subs	r3, r7, #1
 488 00a6 5B00     		lsls	r3, r3, #1
 489 00a8 494A     		ldr	r2, .L43+12
 490 00aa 9B5A     		ldrh	r3, [r3, r2]
 491 00ac 9A46     		mov	r10, r3
 492              	.LVL42:
 493              	.LBB69:
 494              	.LBB70:
 622:Generated_Source\PSoC4/RTC_1.h ****     {
 495              		.loc 2 622 0
 496 00ae 4B46     		mov	r3, r9
ARM GAS  C:\Users\austc\AppData\Local\Temp\ccaNEfOM.s 			page 55


 497              	.LVL43:
 498 00b0 9B07     		lsls	r3, r3, #30
 499 00b2 05D1     		bne	.L30
 500 00b4 6421     		movs	r1, #100
 501 00b6 4846     		mov	r0, r9
 502 00b8 FFF7FEFF 		bl	__aeabi_uidivmod
 503              	.LVL44:
 504 00bc 0029     		cmp	r1, #0
 505 00be 08D1     		bne	.L39
 506              	.L30:
 507 00c0 C821     		movs	r1, #200
 508 00c2 4900     		lsls	r1, r1, #1
 509 00c4 4846     		mov	r0, r9
 510 00c6 FFF7FEFF 		bl	__aeabi_uidivmod
 511              	.LVL45:
 512 00ca 0029     		cmp	r1, #0
 513 00cc 03D1     		bne	.L40
 624:Generated_Source\PSoC4/RTC_1.h ****     }
 514              		.loc 2 624 0
 515 00ce 0123     		movs	r3, #1
 516 00d0 02E0     		b	.L31
 517              	.L39:
 518 00d2 0123     		movs	r3, #1
 519 00d4 00E0     		b	.L31
 520              	.L40:
 628:Generated_Source\PSoC4/RTC_1.h ****     }
 521              		.loc 2 628 0
 522 00d6 0023     		movs	r3, #0
 523              	.L31:
 524              	.LVL46:
 525              	.LBE70:
 526              	.LBE69:
1361:Generated_Source\PSoC4/RTC_1.h ****     if((0u != RTC_1_LeapYear(year)) && (month > (uint32)RTC_1_FEBRUARY))
 527              		.loc 2 1361 0
 528 00d8 002B     		cmp	r3, #0
 529 00da 04D0     		beq	.L32
 530 00dc 022F     		cmp	r7, #2
 531 00de 02D9     		bls	.L32
1362:Generated_Source\PSoC4/RTC_1.h ****     {
1363:Generated_Source\PSoC4/RTC_1.h ****         retVal++;
 532              		.loc 2 1363 0
 533 00e0 0123     		movs	r3, #1
 534 00e2 9C46     		mov	ip, r3
 535 00e4 E244     		add	r10, r10, ip
 536              	.LVL47:
 537              	.L32:
 538              	.LBE68:
 539              	.LBE67:
1210:Generated_Source\PSoC4/RTC_1.c ****         }
1211:Generated_Source\PSoC4/RTC_1.c ****     }
1212:Generated_Source\PSoC4/RTC_1.c **** 
1213:Generated_Source\PSoC4/RTC_1.c ****     /* Calculates how many seconds had elapsed in this year prior to the current month */
1214:Generated_Source\PSoC4/RTC_1.c ****     tmpMonth = RTC_1_GetMonth(inputDate);
1215:Generated_Source\PSoC4/RTC_1.c ****     tmpVal = RTC_1_DaysBeforeMonth(tmpMonth, tmpYear);
1216:Generated_Source\PSoC4/RTC_1.c **** 
1217:Generated_Source\PSoC4/RTC_1.c ****     /* Calculates how many seconds are in current month days prior to today */
1218:Generated_Source\PSoC4/RTC_1.c ****     unixTime += (uint64) tmpVal * RTC_1_SECONDS_PER_DAY;
ARM GAS  C:\Users\austc\AppData\Local\Temp\ccaNEfOM.s 			page 56


 540              		.loc 1 1218 0
 541 00e6 3B4A     		ldr	r2, .L43+16
 542 00e8 0023     		movs	r3, #0
 543 00ea 5046     		mov	r0, r10
 544 00ec 0021     		movs	r1, #0
 545 00ee FFF7FEFF 		bl	__aeabi_lmul
 546              	.LVL48:
 547 00f2 2418     		adds	r4, r4, r0
 548 00f4 4D41     		adcs	r5, r5, r1
 549              	.LVL49:
 550              	.LBB71:
 551              	.LBB72:
 745:Generated_Source\PSoC4/RTC_1.h ****     retVal += (date & RTC_1_DAY_MASK) >> RTC_1_DAY_OFFSET;
 552              		.loc 2 745 0
 553 00f6 4346     		mov	r3, r8
 554 00f8 1B0D     		lsrs	r3, r3, #20
 555 00fa 0327     		movs	r7, #3
 556 00fc 3B40     		ands	r3, r7
 557 00fe 9800     		lsls	r0, r3, #2
 558 0100 C318     		adds	r3, r0, r3
 559 0102 5B00     		lsls	r3, r3, #1
 560              	.LVL50:
 746:Generated_Source\PSoC4/RTC_1.h **** 
 561              		.loc 2 746 0
 562 0104 4246     		mov	r2, r8
 563 0106 100C     		lsrs	r0, r2, #16
 564 0108 0F22     		movs	r2, #15
 565 010a 9046     		mov	r8, r2
 566              	.LVL51:
 567 010c 1040     		ands	r0, r2
 568 010e 1818     		adds	r0, r3, r0
 569              	.LVL52:
 570              	.LBE72:
 571              	.LBE71:
1219:Generated_Source\PSoC4/RTC_1.c ****     unixTime += ((uint64) RTC_1_GetDay(inputDate) - 1u) * RTC_1_SECONDS_PER_DAY;
 572              		.loc 1 1219 0
 573 0110 304A     		ldr	r2, .L43+16
 574 0112 0023     		movs	r3, #0
 575 0114 0021     		movs	r1, #0
 576 0116 FFF7FEFF 		bl	__aeabi_lmul
 577              	.LVL53:
 578 011a 2F4A     		ldr	r2, .L43+20
 579 011c 0123     		movs	r3, #1
 580 011e 5B42     		rsbs	r3, r3, #0
 581 0120 8018     		adds	r0, r0, r2
 582 0122 5941     		adcs	r1, r1, r3
 583 0124 2418     		adds	r4, r4, r0
 584 0126 4D41     		adcs	r5, r5, r1
 585              	.LVL54:
 586              	.LBB73:
 587              	.LBB74:
 702:Generated_Source\PSoC4/RTC_1.h ****     retVal += (inputTime & RTC_1_HOURS_MASK) >> RTC_1_HOURS_OFFSET;
 588              		.loc 2 702 0
 589 0128 300D     		lsrs	r0, r6, #20
 590 012a 0740     		ands	r7, r0
 591 012c B800     		lsls	r0, r7, #2
 592 012e C719     		adds	r7, r0, r7
ARM GAS  C:\Users\austc\AppData\Local\Temp\ccaNEfOM.s 			page 57


 593 0130 7F00     		lsls	r7, r7, #1
 594              	.LVL55:
 703:Generated_Source\PSoC4/RTC_1.h **** 
 595              		.loc 2 703 0
 596 0132 300C     		lsrs	r0, r6, #16
 597 0134 4346     		mov	r3, r8
 598 0136 1840     		ands	r0, r3
 599 0138 3818     		adds	r0, r7, r0
 600              	.LVL56:
 601              	.LBE74:
 602              	.LBE73:
 603              	.LBB75:
 604              	.LBB76:
1173:Generated_Source\PSoC4/RTC_1.h ****                                        (uint32)RTC_1_12_HOURS_FORMAT :
 605              		.loc 2 1173 0
 606 013a 8023     		movs	r3, #128
 607 013c 1B04     		lsls	r3, r3, #16
 608 013e 3340     		ands	r3, r6
1174:Generated_Source\PSoC4/RTC_1.h ****                                        (uint32)RTC_1_24_HOURS_FORMAT);
 609              		.loc 2 1174 0
 610 0140 00D0     		beq	.L33
 611 0142 0123     		movs	r3, #1
 612              	.L33:
 613              	.LVL57:
 614              	.LBE76:
 615              	.LBE75:
1220:Generated_Source\PSoC4/RTC_1.c **** 
1221:Generated_Source\PSoC4/RTC_1.c ****     /* Calculates how many seconds have elapsed today up to the current hour */
1222:Generated_Source\PSoC4/RTC_1.c ****     tmpVal = RTC_1_GetHours(inputTime);
1223:Generated_Source\PSoC4/RTC_1.c ****     if ((uint32)RTC_1_24_HOURS_FORMAT != RTC_1_GetTimeFormat(inputTime))
 616              		.loc 1 1223 0
 617 0144 002B     		cmp	r3, #0
 618 0146 13D0     		beq	.L34
 619              	.LVL58:
 620              	.LBB77:
 621              	.LBB78:
 622              	.LBB79:
 623              	.LBB80:
 601:Generated_Source\PSoC4/RTC_1.h **** }
 624              		.loc 2 601 0
 625 0148 8023     		movs	r3, #128
 626 014a DB03     		lsls	r3, r3, #15
 627 014c 3200     		movs	r2, r6
 628 014e 1A40     		ands	r2, r3
 629 0150 9A42     		cmp	r2, r3
 630 0152 01D1     		bne	.L41
 631 0154 0123     		movs	r3, #1
 632 0156 00E0     		b	.L35
 633              	.L41:
 634 0158 0023     		movs	r3, #0
 635              	.L35:
 636              	.LVL59:
 637              	.LBE80:
 638              	.LBE79:
 639              	.LBE78:
1224:Generated_Source\PSoC4/RTC_1.c ****     {
1225:Generated_Source\PSoC4/RTC_1.c ****         uint32 curAmpm;
ARM GAS  C:\Users\austc\AppData\Local\Temp\ccaNEfOM.s 			page 58


1226:Generated_Source\PSoC4/RTC_1.c **** 
1227:Generated_Source\PSoC4/RTC_1.c ****         curAmpm = RTC_1_GetAmPm(inputTime);
1228:Generated_Source\PSoC4/RTC_1.c **** 
1229:Generated_Source\PSoC4/RTC_1.c ****         /* Add 12 hours as it is past midday period */
1230:Generated_Source\PSoC4/RTC_1.c ****         if (((uint32)RTC_1_AM != curAmpm) && (tmpVal < 12u))
 640              		.loc 1 1230 0
 641 015a 002B     		cmp	r3, #0
 642 015c 03D0     		beq	.L36
 643              		.loc 1 1230 0 is_stmt 0 discriminator 1
 644 015e 0B28     		cmp	r0, #11
 645 0160 01D8     		bhi	.L36
1231:Generated_Source\PSoC4/RTC_1.c ****         {
1232:Generated_Source\PSoC4/RTC_1.c ****             tmpVal += RTC_1_HOURS_PER_HALF_DAY;
 646              		.loc 1 1232 0 is_stmt 1
 647 0162 0C30     		adds	r0, r0, #12
 648              	.LVL60:
 649 0164 04E0     		b	.L34
 650              	.LVL61:
 651              	.L36:
1233:Generated_Source\PSoC4/RTC_1.c ****         }
1234:Generated_Source\PSoC4/RTC_1.c ****         /* Set hours to zero as it is a midnight */
1235:Generated_Source\PSoC4/RTC_1.c ****         else if (((uint32)RTC_1_AM == curAmpm) && (tmpVal == 12u))
 652              		.loc 1 1235 0
 653 0166 002B     		cmp	r3, #0
 654 0168 02D1     		bne	.L34
 655              		.loc 1 1235 0 is_stmt 0 discriminator 1
 656 016a 0C28     		cmp	r0, #12
 657 016c 00D1     		bne	.L34
1236:Generated_Source\PSoC4/RTC_1.c ****         {
1237:Generated_Source\PSoC4/RTC_1.c ****             tmpVal = 0U;
 658              		.loc 1 1237 0 is_stmt 1
 659 016e 0020     		movs	r0, #0
 660              	.L34:
 661              	.LVL62:
 662              	.LBE77:
1238:Generated_Source\PSoC4/RTC_1.c ****         }
1239:Generated_Source\PSoC4/RTC_1.c ****         else
1240:Generated_Source\PSoC4/RTC_1.c ****         {
1241:Generated_Source\PSoC4/RTC_1.c ****             /* Do nothing */
1242:Generated_Source\PSoC4/RTC_1.c ****         }
1243:Generated_Source\PSoC4/RTC_1.c ****     }
1244:Generated_Source\PSoC4/RTC_1.c ****     unixTime += (uint64)tmpVal * RTC_1_SECONDS_PER_HOUR;
 663              		.loc 1 1244 0
 664 0170 E122     		movs	r2, #225
 665 0172 1201     		lsls	r2, r2, #4
 666 0174 0023     		movs	r3, #0
 667 0176 0021     		movs	r1, #0
 668 0178 FFF7FEFF 		bl	__aeabi_lmul
 669              	.LVL63:
 670 017c 2418     		adds	r4, r4, r0
 671 017e 4D41     		adcs	r5, r5, r1
 672              	.LVL64:
 673              	.LBB81:
 674              	.LBB82:
 678:Generated_Source\PSoC4/RTC_1.h ****     retVal += (inputTime & RTC_1_MINUTES_MASK) >> RTC_1_MINUTES_OFFSET;
 675              		.loc 2 678 0
 676 0180 330B     		lsrs	r3, r6, #12
ARM GAS  C:\Users\austc\AppData\Local\Temp\ccaNEfOM.s 			page 59


 677 0182 0722     		movs	r2, #7
 678 0184 9046     		mov	r8, r2
 679 0186 1340     		ands	r3, r2
 680 0188 9800     		lsls	r0, r3, #2
 681 018a C318     		adds	r3, r0, r3
 682 018c 5B00     		lsls	r3, r3, #1
 683              	.LVL65:
 679:Generated_Source\PSoC4/RTC_1.h **** 
 684              		.loc 2 679 0
 685 018e 300A     		lsrs	r0, r6, #8
 686 0190 0F27     		movs	r7, #15
 687 0192 3840     		ands	r0, r7
 688 0194 1818     		adds	r0, r3, r0
 689              	.LVL66:
 690              	.LBE82:
 691              	.LBE81:
1245:Generated_Source\PSoC4/RTC_1.c **** 
1246:Generated_Source\PSoC4/RTC_1.c ****     /* Calculates how many seconds have elapsed today up to the current minute */
1247:Generated_Source\PSoC4/RTC_1.c ****     unixTime += ((uint64) RTC_1_GetMinutes(inputTime)) * RTC_1_SECONDS_PER_MINUTE;
 692              		.loc 1 1247 0
 693 0196 3C22     		movs	r2, #60
 694 0198 0023     		movs	r3, #0
 695 019a 0021     		movs	r1, #0
 696 019c FFF7FEFF 		bl	__aeabi_lmul
 697              	.LVL67:
 698 01a0 0019     		adds	r0, r0, r4
 699 01a2 6941     		adcs	r1, r1, r5
 700              	.LVL68:
 701              	.LBB83:
 702              	.LBB84:
 653:Generated_Source\PSoC4/RTC_1.h ****     retVal += (inputTime & RTC_1_SECONDS_MASK) >> RTC_1_SECONDS_OFFSET;
 703              		.loc 2 653 0
 704 01a4 3309     		lsrs	r3, r6, #4
 705 01a6 4246     		mov	r2, r8
 706 01a8 1340     		ands	r3, r2
 707 01aa 9A00     		lsls	r2, r3, #2
 708 01ac D318     		adds	r3, r2, r3
 709 01ae 5B00     		lsls	r3, r3, #1
 710              	.LVL69:
 654:Generated_Source\PSoC4/RTC_1.h **** 
 711              		.loc 2 654 0
 712 01b0 3E40     		ands	r6, r7
 713              	.LVL70:
 714              	.LBE84:
 715              	.LBE83:
1248:Generated_Source\PSoC4/RTC_1.c **** 
1249:Generated_Source\PSoC4/RTC_1.c ****     /* Add remaining seconds of current minute */
1250:Generated_Source\PSoC4/RTC_1.c ****     unixTime += RTC_1_GetSecond(inputTime);
 716              		.loc 1 1250 0
 717 01b2 9C19     		adds	r4, r3, r6
 718 01b4 0025     		movs	r5, #0
 719 01b6 0019     		adds	r0, r0, r4
 720 01b8 6941     		adcs	r1, r1, r5
 721              	.LVL71:
1251:Generated_Source\PSoC4/RTC_1.c **** 
1252:Generated_Source\PSoC4/RTC_1.c ****     return(unixTime);
1253:Generated_Source\PSoC4/RTC_1.c **** }
ARM GAS  C:\Users\austc\AppData\Local\Temp\ccaNEfOM.s 			page 60


 722              		.loc 1 1253 0
 723              		@ sp needed
 724 01ba 1CBC     		pop	{r2, r3, r4}
 725 01bc 9046     		mov	r8, r2
 726 01be 9946     		mov	r9, r3
 727 01c0 A246     		mov	r10, r4
 728 01c2 F0BD     		pop	{r4, r5, r6, r7, pc}
 729              	.L44:
 730              		.align	2
 731              	.L43:
 732 01c4 B2070000 		.word	1970
 733 01c8 0085E201 		.word	31622400
 734 01cc 8033E101 		.word	31536000
 735 01d0 00000000 		.word	.LANCHOR1
 736 01d4 80510100 		.word	86400
 737 01d8 80AEFEFF 		.word	-86400
 738              		.cfi_endproc
 739              	.LFE44:
 740              		.size	RTC_1_DateTimeToUnix, .-RTC_1_DateTimeToUnix
 741              		.section	.text.RTC_1_SetDateAndTime,"ax",%progbits
 742              		.align	2
 743              		.global	RTC_1_SetDateAndTime
 744              		.code	16
 745              		.thumb_func
 746              		.type	RTC_1_SetDateAndTime, %function
 747              	RTC_1_SetDateAndTime:
 748              	.LFB31:
 228:Generated_Source\PSoC4/RTC_1.c ****     uint32 tmpDay;
 749              		.loc 1 228 0
 750              		.cfi_startproc
 751              		@ args = 0, pretend = 0, frame = 8
 752              		@ frame_needed = 0, uses_anonymous_args = 0
 753              	.LVL72:
 754 0000 F0B5     		push	{r4, r5, r6, r7, lr}
 755              		.cfi_def_cfa_offset 20
 756              		.cfi_offset 4, -20
 757              		.cfi_offset 5, -16
 758              		.cfi_offset 6, -12
 759              		.cfi_offset 7, -8
 760              		.cfi_offset 14, -4
 761 0002 83B0     		sub	sp, sp, #12
 762              		.cfi_def_cfa_offset 32
 763 0004 0190     		str	r0, [sp, #4]
 764 0006 0E00     		movs	r6, r1
 765              	.LVL73:
 766              	.LBB85:
 767              	.LBB86:
 745:Generated_Source\PSoC4/RTC_1.h ****     retVal += (date & RTC_1_DAY_MASK) >> RTC_1_DAY_OFFSET;
 768              		.loc 2 745 0
 769 0008 0B0D     		lsrs	r3, r1, #20
 770 000a 0324     		movs	r4, #3
 771 000c 2340     		ands	r3, r4
 772 000e 9A00     		lsls	r2, r3, #2
 773 0010 D318     		adds	r3, r2, r3
 774 0012 5800     		lsls	r0, r3, #1
 775              	.LVL74:
 746:Generated_Source\PSoC4/RTC_1.h **** 
ARM GAS  C:\Users\austc\AppData\Local\Temp\ccaNEfOM.s 			page 61


 776              		.loc 2 746 0
 777 0014 0F0C     		lsrs	r7, r1, #16
 778 0016 0F23     		movs	r3, #15
 779 0018 1F40     		ands	r7, r3
 780 001a C719     		adds	r7, r0, r7
 781              	.LVL75:
 782              	.LBE86:
 783              	.LBE85:
 784              	.LBB87:
 785              	.LBB88:
 769:Generated_Source\PSoC4/RTC_1.h ****     retVal += (date & RTC_1_MONTH_MASK) >> RTC_1_MONTH_OFFSET;
 786              		.loc 2 769 0
 787 001c 0A0F     		lsrs	r2, r1, #28
 788 001e 0121     		movs	r1, #1
 789              	.LVL76:
 790 0020 0A40     		ands	r2, r1
 791 0022 9100     		lsls	r1, r2, #2
 792 0024 8A18     		adds	r2, r1, r2
 793 0026 5100     		lsls	r1, r2, #1
 794              	.LVL77:
 770:Generated_Source\PSoC4/RTC_1.h **** 
 795              		.loc 2 770 0
 796 0028 300E     		lsrs	r0, r6, #24
 797 002a 1840     		ands	r0, r3
 798 002c 0D18     		adds	r5, r1, r0
 799              	.LVL78:
 800              	.LBE88:
 801              	.LBE87:
 802              	.LBB89:
 803              	.LBB90:
 793:Generated_Source\PSoC4/RTC_1.h ****     retVal += ((date & RTC_1_100_YEAR_MASK) >> RTC_1_100_YEAR_OFFSET) * 100u;
 804              		.loc 2 793 0
 805 002e 320B     		lsrs	r2, r6, #12
 806 0030 1440     		ands	r4, r2
 807 0032 FA22     		movs	r2, #250
 808 0034 9200     		lsls	r2, r2, #2
 809 0036 6243     		muls	r2, r4
 810 0038 1000     		movs	r0, r2
 811              	.LVL79:
 794:Generated_Source\PSoC4/RTC_1.h ****     retVal += ((date & RTC_1_10_YEAR_MASK) >> RTC_1_10_YEAR_OFFSET) * 10u;
 812              		.loc 2 794 0
 813 003a 340A     		lsrs	r4, r6, #8
 814 003c 1C40     		ands	r4, r3
 815 003e 6421     		movs	r1, #100
 816 0040 0A00     		movs	r2, r1
 817 0042 6243     		muls	r2, r4
 818 0044 8418     		adds	r4, r0, r2
 819              	.LVL80:
 795:Generated_Source\PSoC4/RTC_1.h ****     retVal += (date & RTC_1_YEAR_MASK) >> RTC_1_YEAR_OFFSET;
 820              		.loc 2 795 0
 821 0046 3209     		lsrs	r2, r6, #4
 822 0048 1A40     		ands	r2, r3
 823 004a 9100     		lsls	r1, r2, #2
 824 004c 8A18     		adds	r2, r1, r2
 825 004e 5100     		lsls	r1, r2, #1
 826 0050 6418     		adds	r4, r4, r1
 827              	.LVL81:
ARM GAS  C:\Users\austc\AppData\Local\Temp\ccaNEfOM.s 			page 62


 796:Generated_Source\PSoC4/RTC_1.h **** 
 828              		.loc 2 796 0
 829 0052 3340     		ands	r3, r6
 830 0054 E418     		adds	r4, r4, r3
 831              	.LVL82:
 832              	.LBE90:
 833              	.LBE89:
 237:Generated_Source\PSoC4/RTC_1.c ****     RTC_1_currentTimeDate.date = inputDate;
 834              		.loc 1 237 0
 835 0056 0199     		ldr	r1, [sp, #4]
 836 0058 3000     		movs	r0, r6
 837 005a FFF7FEFF 		bl	RTC_1_DateTimeToUnix
 838              	.LVL83:
 839 005e 164B     		ldr	r3, .L49
 840 0060 1860     		str	r0, [r3]
 841 0062 5960     		str	r1, [r3, #4]
 238:Generated_Source\PSoC4/RTC_1.c ****     RTC_1_currentTimeDate.time = inputTime;
 842              		.loc 1 238 0
 843 0064 154B     		ldr	r3, .L49+4
 844 0066 5E60     		str	r6, [r3, #4]
 239:Generated_Source\PSoC4/RTC_1.c ****     RTC_1_currentTimeDate.dayOfWeek = RTC_1_GetDayOfWeek(tmpDay, tmpMonth, tmpYear);
 845              		.loc 1 239 0
 846 0068 019A     		ldr	r2, [sp, #4]
 847 006a 1A60     		str	r2, [r3]
 848              	.LBB91:
 849              	.LBB92:
1319:Generated_Source\PSoC4/RTC_1.h ****     {
 850              		.loc 2 1319 0
 851 006c 022D     		cmp	r5, #2
 852 006e 01D8     		bhi	.L46
1321:Generated_Source\PSoC4/RTC_1.h ****         year--;
 853              		.loc 2 1321 0
 854 0070 0C35     		adds	r5, r5, #12
 855              	.LVL84:
1322:Generated_Source\PSoC4/RTC_1.h ****     }
 856              		.loc 2 1322 0
 857 0072 013C     		subs	r4, r4, #1
 858              	.LVL85:
 859              	.L46:
1326:Generated_Source\PSoC4/RTC_1.h **** 
 860              		.loc 2 1326 0
 861 0074 681C     		adds	r0, r5, #1
 862 0076 1A23     		movs	r3, #26
 863 0078 5843     		muls	r0, r3
 864 007a 0A21     		movs	r1, #10
 865 007c FFF7FEFF 		bl	__aeabi_uidiv
 866              	.LVL86:
 867 0080 C719     		adds	r7, r0, r7
 868 0082 3F19     		adds	r7, r7, r4
 869 0084 A308     		lsrs	r3, r4, #2
 870 0086 FF18     		adds	r7, r7, r3
 871 0088 6421     		movs	r1, #100
 872 008a 2000     		movs	r0, r4
 873 008c FFF7FEFF 		bl	__aeabi_uidiv
 874              	.LVL87:
 875 0090 4300     		lsls	r3, r0, #1
 876 0092 1818     		adds	r0, r3, r0
ARM GAS  C:\Users\austc\AppData\Local\Temp\ccaNEfOM.s 			page 63


 877 0094 4300     		lsls	r3, r0, #1
 878 0096 FF18     		adds	r7, r7, r3
 879 0098 C821     		movs	r1, #200
 880 009a 4900     		lsls	r1, r1, #1
 881 009c 2000     		movs	r0, r4
 882 009e FFF7FEFF 		bl	__aeabi_uidiv
 883              	.LVL88:
 884 00a2 3818     		adds	r0, r7, r0
 885 00a4 0721     		movs	r1, #7
 886 00a6 FFF7FEFF 		bl	__aeabi_uidivmod
 887              	.LVL89:
1329:Generated_Source\PSoC4/RTC_1.h ****     {
 888              		.loc 2 1329 0
 889 00aa 0029     		cmp	r1, #0
 890 00ac 00D1     		bne	.L47
1331:Generated_Source\PSoC4/RTC_1.h ****     }
 891              		.loc 2 1331 0
 892 00ae 0731     		adds	r1, r1, #7
 893              	.LVL90:
 894              	.L47:
 895              	.LBE92:
 896              	.LBE91:
 240:Generated_Source\PSoC4/RTC_1.c **** 
 897              		.loc 1 240 0
 898 00b0 024B     		ldr	r3, .L49+4
 899 00b2 9960     		str	r1, [r3, #8]
 264:Generated_Source\PSoC4/RTC_1.c **** 
 900              		.loc 1 264 0
 901 00b4 03B0     		add	sp, sp, #12
 902              		@ sp needed
 903              	.LVL91:
 904 00b6 F0BD     		pop	{r4, r5, r6, r7, pc}
 905              	.L50:
 906              		.align	2
 907              	.L49:
 908 00b8 00000000 		.word	RTC_1_unixTime
 909 00bc 00000000 		.word	RTC_1_currentTimeDate
 910              		.cfi_endproc
 911              	.LFE31:
 912              		.size	RTC_1_SetDateAndTime, .-RTC_1_SetDateAndTime
 913              		.section	.text.RTC_1_Init,"ax",%progbits
 914              		.align	2
 915              		.global	RTC_1_Init
 916              		.code	16
 917              		.thumb_func
 918              		.type	RTC_1_Init, %function
 919              	RTC_1_Init:
 920              	.LFB30:
 136:Generated_Source\PSoC4/RTC_1.c ****     uint32 tmpDate;
 921              		.loc 1 136 0
 922              		.cfi_startproc
 923              		@ args = 0, pretend = 0, frame = 0
 924              		@ frame_needed = 0, uses_anonymous_args = 0
 925 0000 10B5     		push	{r4, lr}
 926              		.cfi_def_cfa_offset 8
 927              		.cfi_offset 4, -8
 928              		.cfi_offset 14, -4
ARM GAS  C:\Users\austc\AppData\Local\Temp\ccaNEfOM.s 			page 64


 144:Generated_Source\PSoC4/RTC_1.c ****     RTC_1_dstTimeOffset = 0uL;
 929              		.loc 1 144 0
 930 0002 0122     		movs	r2, #1
 931 0004 084B     		ldr	r3, .L52
 932 0006 1A70     		strb	r2, [r3]
 145:Generated_Source\PSoC4/RTC_1.c ****     RTC_1_currentTimeDate.status = 0uL;
 933              		.loc 1 145 0
 934 0008 0023     		movs	r3, #0
 935 000a 084A     		ldr	r2, .L52+4
 936 000c D360     		str	r3, [r2, #12]
 146:Generated_Source\PSoC4/RTC_1.c **** 
 937              		.loc 1 146 0
 938 000e 084A     		ldr	r2, .L52+8
 939 0010 D360     		str	r3, [r2, #12]
 148:Generated_Source\PSoC4/RTC_1.c ****     RTC_1_alarmCurStatus = RTC_1_INITIAL_ALARM_STATUS;
 940              		.loc 1 148 0
 941 0012 084A     		ldr	r2, .L52+12
 942 0014 1370     		strb	r3, [r2]
 149:Generated_Source\PSoC4/RTC_1.c **** 
 943              		.loc 1 149 0
 944 0016 084A     		ldr	r2, .L52+16
 945 0018 1360     		str	r3, [r2]
 194:Generated_Source\PSoC4/RTC_1.c **** }
 946              		.loc 1 194 0
 947 001a 0849     		ldr	r1, .L52+20
 948 001c 8020     		movs	r0, #128
 949 001e 0004     		lsls	r0, r0, #16
 950 0020 FFF7FEFF 		bl	RTC_1_SetDateAndTime
 951              	.LVL92:
 195:Generated_Source\PSoC4/RTC_1.c **** 
 952              		.loc 1 195 0
 953              		@ sp needed
 954 0024 10BD     		pop	{r4, pc}
 955              	.L53:
 956 0026 C046     		.align	2
 957              	.L52:
 958 0028 00000000 		.word	RTC_1_initVar
 959 002c 00000000 		.word	.LANCHOR0
 960 0030 00000000 		.word	RTC_1_currentTimeDate
 961 0034 00000000 		.word	RTC_1_dstStatus
 962 0038 00000000 		.word	RTC_1_alarmCurStatus
 963 003c 70190101 		.word	16849264
 964              		.cfi_endproc
 965              	.LFE30:
 966              		.size	RTC_1_Init, .-RTC_1_Init
 967              		.section	.text.RTC_1_Start,"ax",%progbits
 968              		.align	2
 969              		.global	RTC_1_Start
 970              		.code	16
 971              		.thumb_func
 972              		.type	RTC_1_Start, %function
 973              	RTC_1_Start:
 974              	.LFB28:
  89:Generated_Source\PSoC4/RTC_1.c ****     if(0u == RTC_1_initVar)
 975              		.loc 1 89 0
 976              		.cfi_startproc
 977              		@ args = 0, pretend = 0, frame = 0
ARM GAS  C:\Users\austc\AppData\Local\Temp\ccaNEfOM.s 			page 65


 978              		@ frame_needed = 0, uses_anonymous_args = 0
 979 0000 10B5     		push	{r4, lr}
 980              		.cfi_def_cfa_offset 8
 981              		.cfi_offset 4, -8
 982              		.cfi_offset 14, -4
  90:Generated_Source\PSoC4/RTC_1.c ****     {
 983              		.loc 1 90 0
 984 0002 034B     		ldr	r3, .L56
 985 0004 1B78     		ldrb	r3, [r3]
 986 0006 002B     		cmp	r3, #0
 987 0008 01D1     		bne	.L54
  92:Generated_Source\PSoC4/RTC_1.c ****     }
 988              		.loc 1 92 0
 989 000a FFF7FEFF 		bl	RTC_1_Init
 990              	.LVL93:
 991              	.L54:
 100:Generated_Source\PSoC4/RTC_1.c **** 
 992              		.loc 1 100 0
 993              		@ sp needed
 994 000e 10BD     		pop	{r4, pc}
 995              	.L57:
 996              		.align	2
 997              	.L56:
 998 0010 00000000 		.word	RTC_1_initVar
 999              		.cfi_endproc
 1000              	.LFE28:
 1001              		.size	RTC_1_Start, .-RTC_1_Start
 1002              		.section	.text.RTC_1_DaysInMonth,"ax",%progbits
 1003              		.align	2
 1004              		.global	RTC_1_DaysInMonth
 1005              		.code	16
 1006              		.thumb_func
 1007              		.type	RTC_1_DaysInMonth, %function
 1008              	RTC_1_DaysInMonth:
 1009              	.LFB47:
1254:Generated_Source\PSoC4/RTC_1.c **** 
1255:Generated_Source\PSoC4/RTC_1.c **** 
1256:Generated_Source\PSoC4/RTC_1.c **** /*******************************************************************************
1257:Generated_Source\PSoC4/RTC_1.c **** * Function Name: RTC_1_UnixToDateTime
1258:Generated_Source\PSoC4/RTC_1.c **** ****************************************************************************//**
1259:Generated_Source\PSoC4/RTC_1.c **** *
1260:Generated_Source\PSoC4/RTC_1.c **** * This is an internal function to convert the date and time from the UNIX time 
1261:Generated_Source\PSoC4/RTC_1.c **** * format into the regular time format
1262:Generated_Source\PSoC4/RTC_1.c **** *
1263:Generated_Source\PSoC4/RTC_1.c **** * \param RTC_1_DATE_TIME* dateTime
1264:Generated_Source\PSoC4/RTC_1.c **** * The time and date structure which will be updated time from unixTime value
1265:Generated_Source\PSoC4/RTC_1.c **** *
1266:Generated_Source\PSoC4/RTC_1.c **** * \param unixTime
1267:Generated_Source\PSoC4/RTC_1.c **** * The time in unix format
1268:Generated_Source\PSoC4/RTC_1.c **** *
1269:Generated_Source\PSoC4/RTC_1.c **** * \param timeFormat
1270:Generated_Source\PSoC4/RTC_1.c **** * dst format of time, see \ref RTC_1_DST_DATETYPE_ENUM
1271:Generated_Source\PSoC4/RTC_1.c **** *
1272:Generated_Source\PSoC4/RTC_1.c **** *******************************************************************************/
1273:Generated_Source\PSoC4/RTC_1.c **** void RTC_1_UnixToDateTime(RTC_1_DATE_TIME* dateTime, uint64 unixTime, uint32 timeFormat)
1274:Generated_Source\PSoC4/RTC_1.c **** {
1275:Generated_Source\PSoC4/RTC_1.c ****     uint32 tmpMinute;
ARM GAS  C:\Users\austc\AppData\Local\Temp\ccaNEfOM.s 			page 66


1276:Generated_Source\PSoC4/RTC_1.c ****     uint32 tmpHour;
1277:Generated_Source\PSoC4/RTC_1.c ****     uint32 tmpAmPmState;
1278:Generated_Source\PSoC4/RTC_1.c **** 
1279:Generated_Source\PSoC4/RTC_1.c ****     uint32 tmpDay;
1280:Generated_Source\PSoC4/RTC_1.c ****     uint32 tmpMonth;
1281:Generated_Source\PSoC4/RTC_1.c ****     uint32 tmpYear;
1282:Generated_Source\PSoC4/RTC_1.c **** 
1283:Generated_Source\PSoC4/RTC_1.c ****     uint32 tmpVar;
1284:Generated_Source\PSoC4/RTC_1.c **** 
1285:Generated_Source\PSoC4/RTC_1.c ****     tmpAmPmState = 0u;
1286:Generated_Source\PSoC4/RTC_1.c ****     tmpYear = RTC_1_YEAR_0;
1287:Generated_Source\PSoC4/RTC_1.c ****     tmpVar = RTC_1_SECONDS_PER_NONLEAP_YEAR;
1288:Generated_Source\PSoC4/RTC_1.c **** 
1289:Generated_Source\PSoC4/RTC_1.c ****     /* Calculates current year value. Variable tmpYear
1290:Generated_Source\PSoC4/RTC_1.c ****     *  increments while it contains value greater than number
1291:Generated_Source\PSoC4/RTC_1.c ****     *  of seconds in current year.
1292:Generated_Source\PSoC4/RTC_1.c ****     */
1293:Generated_Source\PSoC4/RTC_1.c ****     while(unixTime >= tmpVar)
1294:Generated_Source\PSoC4/RTC_1.c ****     {
1295:Generated_Source\PSoC4/RTC_1.c ****         unixTime -= tmpVar;
1296:Generated_Source\PSoC4/RTC_1.c ****         tmpYear++;
1297:Generated_Source\PSoC4/RTC_1.c **** 
1298:Generated_Source\PSoC4/RTC_1.c ****         if(0u != RTC_1_LeapYear(tmpYear))
1299:Generated_Source\PSoC4/RTC_1.c ****         {
1300:Generated_Source\PSoC4/RTC_1.c ****             tmpVar = RTC_1_SECONDS_PER_LEAP_YEAR;
1301:Generated_Source\PSoC4/RTC_1.c ****         }
1302:Generated_Source\PSoC4/RTC_1.c ****         else
1303:Generated_Source\PSoC4/RTC_1.c ****         {
1304:Generated_Source\PSoC4/RTC_1.c ****             tmpVar = RTC_1_SECONDS_PER_NONLEAP_YEAR;
1305:Generated_Source\PSoC4/RTC_1.c ****         }
1306:Generated_Source\PSoC4/RTC_1.c ****     }
1307:Generated_Source\PSoC4/RTC_1.c **** 
1308:Generated_Source\PSoC4/RTC_1.c ****     /* Calculates current month value. The tmpMonth variable increments while 
1309:Generated_Source\PSoC4/RTC_1.c ****     *  unixTime variable value is greater than time interval from beginning 
1310:Generated_Source\PSoC4/RTC_1.c ****     *  of current year to beginning of current month
1311:Generated_Source\PSoC4/RTC_1.c ****     */
1312:Generated_Source\PSoC4/RTC_1.c ****     tmpMonth = (uint32)RTC_1_JANUARY;
1313:Generated_Source\PSoC4/RTC_1.c ****     tmpVar = RTC_1_DaysInMonth(tmpMonth, tmpYear) * RTC_1_SECONDS_PER_DAY;
1314:Generated_Source\PSoC4/RTC_1.c **** 
1315:Generated_Source\PSoC4/RTC_1.c ****     while(unixTime >= tmpVar)
1316:Generated_Source\PSoC4/RTC_1.c ****     {
1317:Generated_Source\PSoC4/RTC_1.c ****         unixTime -= tmpVar;
1318:Generated_Source\PSoC4/RTC_1.c ****         tmpMonth++;
1319:Generated_Source\PSoC4/RTC_1.c ****         tmpVar = RTC_1_DaysInMonth(tmpMonth, tmpYear) * RTC_1_SECONDS_PER_DAY;
1320:Generated_Source\PSoC4/RTC_1.c ****     }
1321:Generated_Source\PSoC4/RTC_1.c **** 
1322:Generated_Source\PSoC4/RTC_1.c ****     /* Calculates current day value */
1323:Generated_Source\PSoC4/RTC_1.c ****     tmpDay = (uint32) (unixTime / RTC_1_SECONDS_PER_DAY);
1324:Generated_Source\PSoC4/RTC_1.c ****     tmpVar = tmpDay * RTC_1_SECONDS_PER_DAY;
1325:Generated_Source\PSoC4/RTC_1.c ****     unixTime -= (unixTime >= tmpVar) ? tmpVar : 0u;
1326:Generated_Source\PSoC4/RTC_1.c ****     tmpDay += 1u;
1327:Generated_Source\PSoC4/RTC_1.c **** 
1328:Generated_Source\PSoC4/RTC_1.c ****     /* Calculates current hour value. If function works in 12-Hour mode,
1329:Generated_Source\PSoC4/RTC_1.c ****      * it converts time to 12-Hours mode and calculates AmPm status */
1330:Generated_Source\PSoC4/RTC_1.c ****     tmpHour = (uint32) (unixTime / RTC_1_SECONDS_PER_HOUR);
