ARM GAS  C:\Users\austc\AppData\Local\Temp\cceVqUDJ.s 			page 1


   1              		.syntax unified
   2              		.cpu cortex-m0
   3              		.fpu softvfp
   4              		.eabi_attribute 20, 1
   5              		.eabi_attribute 21, 1
   6              		.eabi_attribute 23, 3
   7              		.eabi_attribute 24, 1
   8              		.eabi_attribute 25, 1
   9              		.eabi_attribute 26, 1
  10              		.eabi_attribute 30, 1
  11              		.eabi_attribute 34, 0
  12              		.eabi_attribute 18, 4
  13              		.thumb
  14              		.syntax unified
  15              		.file	"Status_Reg_Switches.c"
  16              		.text
  17              	.Ltext0:
  18              		.cfi_sections	.debug_frame
  19              		.section	.text.Status_Reg_Switches_Read,"ax",%progbits
  20              		.align	2
  21              		.global	Status_Reg_Switches_Read
  22              		.code	16
  23              		.thumb_func
  24              		.type	Status_Reg_Switches_Read, %function
  25              	Status_Reg_Switches_Read:
  26              	.LFB1:
  27              		.file 1 "Generated_Source\\PSoC4\\Status_Reg_Switches.c"
   1:Generated_Source\PSoC4/Status_Reg_Switches.c **** /*******************************************************************************
   2:Generated_Source\PSoC4/Status_Reg_Switches.c **** * File Name: Status_Reg_Switches.c  
   3:Generated_Source\PSoC4/Status_Reg_Switches.c **** * Version 1.90
   4:Generated_Source\PSoC4/Status_Reg_Switches.c **** *
   5:Generated_Source\PSoC4/Status_Reg_Switches.c **** * Description:
   6:Generated_Source\PSoC4/Status_Reg_Switches.c **** *  This file contains API to enable firmware to read the value of a Status 
   7:Generated_Source\PSoC4/Status_Reg_Switches.c **** *  Register.
   8:Generated_Source\PSoC4/Status_Reg_Switches.c **** *
   9:Generated_Source\PSoC4/Status_Reg_Switches.c **** * Note:
  10:Generated_Source\PSoC4/Status_Reg_Switches.c **** *
  11:Generated_Source\PSoC4/Status_Reg_Switches.c **** ********************************************************************************
  12:Generated_Source\PSoC4/Status_Reg_Switches.c **** * Copyright 2008-2015, Cypress Semiconductor Corporation.  All rights reserved.
  13:Generated_Source\PSoC4/Status_Reg_Switches.c **** * You may use this file only in accordance with the license, terms, conditions, 
  14:Generated_Source\PSoC4/Status_Reg_Switches.c **** * disclaimers, and limitations in the end user license agreement accompanying 
  15:Generated_Source\PSoC4/Status_Reg_Switches.c **** * the software package with which this file was provided.
  16:Generated_Source\PSoC4/Status_Reg_Switches.c **** *******************************************************************************/
  17:Generated_Source\PSoC4/Status_Reg_Switches.c **** 
  18:Generated_Source\PSoC4/Status_Reg_Switches.c **** #include "Status_Reg_Switches.h"
  19:Generated_Source\PSoC4/Status_Reg_Switches.c **** 
  20:Generated_Source\PSoC4/Status_Reg_Switches.c **** #if !defined(Status_Reg_Switches_sts_intr_sts_reg__REMOVED) /* Check for removal by optimization */
  21:Generated_Source\PSoC4/Status_Reg_Switches.c **** 
  22:Generated_Source\PSoC4/Status_Reg_Switches.c **** 
  23:Generated_Source\PSoC4/Status_Reg_Switches.c **** /*******************************************************************************
  24:Generated_Source\PSoC4/Status_Reg_Switches.c **** * Function Name: Status_Reg_Switches_Read
  25:Generated_Source\PSoC4/Status_Reg_Switches.c **** ********************************************************************************
  26:Generated_Source\PSoC4/Status_Reg_Switches.c **** *
  27:Generated_Source\PSoC4/Status_Reg_Switches.c **** * Summary:
  28:Generated_Source\PSoC4/Status_Reg_Switches.c **** *  Reads the current value assigned to the Status Register.
  29:Generated_Source\PSoC4/Status_Reg_Switches.c **** *
  30:Generated_Source\PSoC4/Status_Reg_Switches.c **** * Parameters:
ARM GAS  C:\Users\austc\AppData\Local\Temp\cceVqUDJ.s 			page 2


  31:Generated_Source\PSoC4/Status_Reg_Switches.c **** *  None.
  32:Generated_Source\PSoC4/Status_Reg_Switches.c **** *
  33:Generated_Source\PSoC4/Status_Reg_Switches.c **** * Return:
  34:Generated_Source\PSoC4/Status_Reg_Switches.c **** *  The current value in the Status Register.
  35:Generated_Source\PSoC4/Status_Reg_Switches.c **** *
  36:Generated_Source\PSoC4/Status_Reg_Switches.c **** *******************************************************************************/
  37:Generated_Source\PSoC4/Status_Reg_Switches.c **** uint8 Status_Reg_Switches_Read(void) 
  38:Generated_Source\PSoC4/Status_Reg_Switches.c **** { 
  28              		.loc 1 38 0
  29              		.cfi_startproc
  30              		@ args = 0, pretend = 0, frame = 0
  31              		@ frame_needed = 0, uses_anonymous_args = 0
  32              		@ link register save eliminated.
  39:Generated_Source\PSoC4/Status_Reg_Switches.c ****     return Status_Reg_Switches_Status;
  33              		.loc 1 39 0
  34 0000 014B     		ldr	r3, .L2
  35 0002 1878     		ldrb	r0, [r3]
  36 0004 C0B2     		uxtb	r0, r0
  40:Generated_Source\PSoC4/Status_Reg_Switches.c **** }
  37              		.loc 1 40 0
  38              		@ sp needed
  39 0006 7047     		bx	lr
  40              	.L3:
  41              		.align	2
  42              	.L2:
  43 0008 67000F40 		.word	1074724967
  44              		.cfi_endproc
  45              	.LFE1:
  46              		.size	Status_Reg_Switches_Read, .-Status_Reg_Switches_Read
  47              		.section	.text.Status_Reg_Switches_InterruptEnable,"ax",%progbits
  48              		.align	2
  49              		.global	Status_Reg_Switches_InterruptEnable
  50              		.code	16
  51              		.thumb_func
  52              		.type	Status_Reg_Switches_InterruptEnable, %function
  53              	Status_Reg_Switches_InterruptEnable:
  54              	.LFB2:
  41:Generated_Source\PSoC4/Status_Reg_Switches.c **** 
  42:Generated_Source\PSoC4/Status_Reg_Switches.c **** 
  43:Generated_Source\PSoC4/Status_Reg_Switches.c **** /*******************************************************************************
  44:Generated_Source\PSoC4/Status_Reg_Switches.c **** * Function Name: Status_Reg_Switches_InterruptEnable
  45:Generated_Source\PSoC4/Status_Reg_Switches.c **** ********************************************************************************
  46:Generated_Source\PSoC4/Status_Reg_Switches.c **** *
  47:Generated_Source\PSoC4/Status_Reg_Switches.c **** * Summary:
  48:Generated_Source\PSoC4/Status_Reg_Switches.c **** *  Enables the Status Register interrupt.
  49:Generated_Source\PSoC4/Status_Reg_Switches.c **** *
  50:Generated_Source\PSoC4/Status_Reg_Switches.c **** * Parameters:
  51:Generated_Source\PSoC4/Status_Reg_Switches.c **** *  None.
  52:Generated_Source\PSoC4/Status_Reg_Switches.c **** *
  53:Generated_Source\PSoC4/Status_Reg_Switches.c **** * Return:
  54:Generated_Source\PSoC4/Status_Reg_Switches.c **** *  None.
  55:Generated_Source\PSoC4/Status_Reg_Switches.c **** *
  56:Generated_Source\PSoC4/Status_Reg_Switches.c **** *******************************************************************************/
  57:Generated_Source\PSoC4/Status_Reg_Switches.c **** void Status_Reg_Switches_InterruptEnable(void) 
  58:Generated_Source\PSoC4/Status_Reg_Switches.c **** {
  55              		.loc 1 58 0
  56              		.cfi_startproc
ARM GAS  C:\Users\austc\AppData\Local\Temp\cceVqUDJ.s 			page 3


  57              		@ args = 0, pretend = 0, frame = 0
  58              		@ frame_needed = 0, uses_anonymous_args = 0
  59 0000 10B5     		push	{r4, lr}
  60              		.cfi_def_cfa_offset 8
  61              		.cfi_offset 4, -8
  62              		.cfi_offset 14, -4
  59:Generated_Source\PSoC4/Status_Reg_Switches.c ****     uint8 interruptState;
  60:Generated_Source\PSoC4/Status_Reg_Switches.c ****     interruptState = CyEnterCriticalSection();
  63              		.loc 1 60 0
  64 0002 FFF7FEFF 		bl	CyEnterCriticalSection
  65              	.LVL0:
  61:Generated_Source\PSoC4/Status_Reg_Switches.c ****     Status_Reg_Switches_Status_Aux_Ctrl |= Status_Reg_Switches_STATUS_INTR_ENBL;
  66              		.loc 1 61 0
  67 0006 044A     		ldr	r2, .L5
  68 0008 1178     		ldrb	r1, [r2]
  69 000a 1023     		movs	r3, #16
  70 000c 0B43     		orrs	r3, r1
  71 000e DBB2     		uxtb	r3, r3
  72 0010 1370     		strb	r3, [r2]
  62:Generated_Source\PSoC4/Status_Reg_Switches.c ****     CyExitCriticalSection(interruptState);
  73              		.loc 1 62 0
  74 0012 FFF7FEFF 		bl	CyExitCriticalSection
  75              	.LVL1:
  63:Generated_Source\PSoC4/Status_Reg_Switches.c **** }
  76              		.loc 1 63 0
  77              		@ sp needed
  78 0016 10BD     		pop	{r4, pc}
  79              	.L6:
  80              		.align	2
  81              	.L5:
  82 0018 97000F40 		.word	1074725015
  83              		.cfi_endproc
  84              	.LFE2:
  85              		.size	Status_Reg_Switches_InterruptEnable, .-Status_Reg_Switches_InterruptEnable
  86              		.section	.text.Status_Reg_Switches_InterruptDisable,"ax",%progbits
  87              		.align	2
  88              		.global	Status_Reg_Switches_InterruptDisable
  89              		.code	16
  90              		.thumb_func
  91              		.type	Status_Reg_Switches_InterruptDisable, %function
  92              	Status_Reg_Switches_InterruptDisable:
  93              	.LFB3:
  64:Generated_Source\PSoC4/Status_Reg_Switches.c **** 
  65:Generated_Source\PSoC4/Status_Reg_Switches.c **** 
  66:Generated_Source\PSoC4/Status_Reg_Switches.c **** /*******************************************************************************
  67:Generated_Source\PSoC4/Status_Reg_Switches.c **** * Function Name: Status_Reg_Switches_InterruptDisable
  68:Generated_Source\PSoC4/Status_Reg_Switches.c **** ********************************************************************************
  69:Generated_Source\PSoC4/Status_Reg_Switches.c **** *
  70:Generated_Source\PSoC4/Status_Reg_Switches.c **** * Summary:
  71:Generated_Source\PSoC4/Status_Reg_Switches.c **** *  Disables the Status Register interrupt.
  72:Generated_Source\PSoC4/Status_Reg_Switches.c **** *
  73:Generated_Source\PSoC4/Status_Reg_Switches.c **** * Parameters:
  74:Generated_Source\PSoC4/Status_Reg_Switches.c **** *  None.
  75:Generated_Source\PSoC4/Status_Reg_Switches.c **** *
  76:Generated_Source\PSoC4/Status_Reg_Switches.c **** * Return:
  77:Generated_Source\PSoC4/Status_Reg_Switches.c **** *  None.
  78:Generated_Source\PSoC4/Status_Reg_Switches.c **** *
ARM GAS  C:\Users\austc\AppData\Local\Temp\cceVqUDJ.s 			page 4


  79:Generated_Source\PSoC4/Status_Reg_Switches.c **** *******************************************************************************/
  80:Generated_Source\PSoC4/Status_Reg_Switches.c **** void Status_Reg_Switches_InterruptDisable(void) 
  81:Generated_Source\PSoC4/Status_Reg_Switches.c **** {
  94              		.loc 1 81 0
  95              		.cfi_startproc
  96              		@ args = 0, pretend = 0, frame = 0
  97              		@ frame_needed = 0, uses_anonymous_args = 0
  98 0000 10B5     		push	{r4, lr}
  99              		.cfi_def_cfa_offset 8
 100              		.cfi_offset 4, -8
 101              		.cfi_offset 14, -4
  82:Generated_Source\PSoC4/Status_Reg_Switches.c ****     uint8 interruptState;
  83:Generated_Source\PSoC4/Status_Reg_Switches.c ****     interruptState = CyEnterCriticalSection();
 102              		.loc 1 83 0
 103 0002 FFF7FEFF 		bl	CyEnterCriticalSection
 104              	.LVL2:
  84:Generated_Source\PSoC4/Status_Reg_Switches.c ****     Status_Reg_Switches_Status_Aux_Ctrl &= (uint8)(~Status_Reg_Switches_STATUS_INTR_ENBL);
 105              		.loc 1 84 0
 106 0006 044A     		ldr	r2, .L8
 107 0008 1378     		ldrb	r3, [r2]
 108 000a 1021     		movs	r1, #16
 109 000c 8B43     		bics	r3, r1
 110 000e 1370     		strb	r3, [r2]
  85:Generated_Source\PSoC4/Status_Reg_Switches.c ****     CyExitCriticalSection(interruptState);
 111              		.loc 1 85 0
 112 0010 FFF7FEFF 		bl	CyExitCriticalSection
 113              	.LVL3:
  86:Generated_Source\PSoC4/Status_Reg_Switches.c **** }
 114              		.loc 1 86 0
 115              		@ sp needed
 116 0014 10BD     		pop	{r4, pc}
 117              	.L9:
 118 0016 C046     		.align	2
 119              	.L8:
 120 0018 97000F40 		.word	1074725015
 121              		.cfi_endproc
 122              	.LFE3:
 123              		.size	Status_Reg_Switches_InterruptDisable, .-Status_Reg_Switches_InterruptDisable
 124              		.section	.text.Status_Reg_Switches_WriteMask,"ax",%progbits
 125              		.align	2
 126              		.global	Status_Reg_Switches_WriteMask
 127              		.code	16
 128              		.thumb_func
 129              		.type	Status_Reg_Switches_WriteMask, %function
 130              	Status_Reg_Switches_WriteMask:
 131              	.LFB4:
  87:Generated_Source\PSoC4/Status_Reg_Switches.c **** 
  88:Generated_Source\PSoC4/Status_Reg_Switches.c **** 
  89:Generated_Source\PSoC4/Status_Reg_Switches.c **** /*******************************************************************************
  90:Generated_Source\PSoC4/Status_Reg_Switches.c **** * Function Name: Status_Reg_Switches_WriteMask
  91:Generated_Source\PSoC4/Status_Reg_Switches.c **** ********************************************************************************
  92:Generated_Source\PSoC4/Status_Reg_Switches.c **** *
  93:Generated_Source\PSoC4/Status_Reg_Switches.c **** * Summary:
  94:Generated_Source\PSoC4/Status_Reg_Switches.c **** *  Writes the current mask value assigned to the Status Register.
  95:Generated_Source\PSoC4/Status_Reg_Switches.c **** *
  96:Generated_Source\PSoC4/Status_Reg_Switches.c **** * Parameters:
  97:Generated_Source\PSoC4/Status_Reg_Switches.c **** *  mask:  Value to write into the mask register.
ARM GAS  C:\Users\austc\AppData\Local\Temp\cceVqUDJ.s 			page 5


  98:Generated_Source\PSoC4/Status_Reg_Switches.c **** *
  99:Generated_Source\PSoC4/Status_Reg_Switches.c **** * Return:
 100:Generated_Source\PSoC4/Status_Reg_Switches.c **** *  None.
 101:Generated_Source\PSoC4/Status_Reg_Switches.c **** *
 102:Generated_Source\PSoC4/Status_Reg_Switches.c **** *******************************************************************************/
 103:Generated_Source\PSoC4/Status_Reg_Switches.c **** void Status_Reg_Switches_WriteMask(uint8 mask) 
 104:Generated_Source\PSoC4/Status_Reg_Switches.c **** {
 132              		.loc 1 104 0
 133              		.cfi_startproc
 134              		@ args = 0, pretend = 0, frame = 0
 135              		@ frame_needed = 0, uses_anonymous_args = 0
 136              		@ link register save eliminated.
 137              	.LVL4:
 105:Generated_Source\PSoC4/Status_Reg_Switches.c ****     #if(Status_Reg_Switches_INPUTS < 8u)
 106:Generated_Source\PSoC4/Status_Reg_Switches.c ****     	mask &= ((uint8)(1u << Status_Reg_Switches_INPUTS) - 1u);
 138              		.loc 1 106 0
 139 0000 0323     		movs	r3, #3
 140 0002 1840     		ands	r0, r3
 141              	.LVL5:
 107:Generated_Source\PSoC4/Status_Reg_Switches.c **** 	#endif /* End Status_Reg_Switches_INPUTS < 8u */
 108:Generated_Source\PSoC4/Status_Reg_Switches.c ****     Status_Reg_Switches_Status_Mask = mask;
 142              		.loc 1 108 0
 143 0004 014B     		ldr	r3, .L11
 144 0006 1870     		strb	r0, [r3]
 109:Generated_Source\PSoC4/Status_Reg_Switches.c **** }
 145              		.loc 1 109 0
 146              		@ sp needed
 147 0008 7047     		bx	lr
 148              	.L12:
 149 000a C046     		.align	2
 150              	.L11:
 151 000c 87000F40 		.word	1074724999
 152              		.cfi_endproc
 153              	.LFE4:
 154              		.size	Status_Reg_Switches_WriteMask, .-Status_Reg_Switches_WriteMask
 155              		.section	.text.Status_Reg_Switches_ReadMask,"ax",%progbits
 156              		.align	2
 157              		.global	Status_Reg_Switches_ReadMask
 158              		.code	16
 159              		.thumb_func
 160              		.type	Status_Reg_Switches_ReadMask, %function
 161              	Status_Reg_Switches_ReadMask:
 162              	.LFB5:
 110:Generated_Source\PSoC4/Status_Reg_Switches.c **** 
 111:Generated_Source\PSoC4/Status_Reg_Switches.c **** 
 112:Generated_Source\PSoC4/Status_Reg_Switches.c **** /*******************************************************************************
 113:Generated_Source\PSoC4/Status_Reg_Switches.c **** * Function Name: Status_Reg_Switches_ReadMask
 114:Generated_Source\PSoC4/Status_Reg_Switches.c **** ********************************************************************************
 115:Generated_Source\PSoC4/Status_Reg_Switches.c **** *
 116:Generated_Source\PSoC4/Status_Reg_Switches.c **** * Summary:
 117:Generated_Source\PSoC4/Status_Reg_Switches.c **** *  Reads the current interrupt mask assigned to the Status Register.
 118:Generated_Source\PSoC4/Status_Reg_Switches.c **** *
 119:Generated_Source\PSoC4/Status_Reg_Switches.c **** * Parameters:
 120:Generated_Source\PSoC4/Status_Reg_Switches.c **** *  None.
 121:Generated_Source\PSoC4/Status_Reg_Switches.c **** *
 122:Generated_Source\PSoC4/Status_Reg_Switches.c **** * Return:
 123:Generated_Source\PSoC4/Status_Reg_Switches.c **** *  The value of the interrupt mask of the Status Register.
ARM GAS  C:\Users\austc\AppData\Local\Temp\cceVqUDJ.s 			page 6


 124:Generated_Source\PSoC4/Status_Reg_Switches.c **** *
 125:Generated_Source\PSoC4/Status_Reg_Switches.c **** *******************************************************************************/
 126:Generated_Source\PSoC4/Status_Reg_Switches.c **** uint8 Status_Reg_Switches_ReadMask(void) 
 127:Generated_Source\PSoC4/Status_Reg_Switches.c **** {
 163              		.loc 1 127 0
 164              		.cfi_startproc
 165              		@ args = 0, pretend = 0, frame = 0
 166              		@ frame_needed = 0, uses_anonymous_args = 0
 167              		@ link register save eliminated.
 128:Generated_Source\PSoC4/Status_Reg_Switches.c ****     return Status_Reg_Switches_Status_Mask;
 168              		.loc 1 128 0
 169 0000 014B     		ldr	r3, .L14
 170 0002 1878     		ldrb	r0, [r3]
 171 0004 C0B2     		uxtb	r0, r0
 129:Generated_Source\PSoC4/Status_Reg_Switches.c **** }
 172              		.loc 1 129 0
 173              		@ sp needed
 174 0006 7047     		bx	lr
 175              	.L15:
 176              		.align	2
 177              	.L14:
 178 0008 87000F40 		.word	1074724999
 179              		.cfi_endproc
 180              	.LFE5:
 181              		.size	Status_Reg_Switches_ReadMask, .-Status_Reg_Switches_ReadMask
 182              		.text
 183              	.Letext0:
 184              		.file 2 "Generated_Source\\PSoC4\\cytypes.h"
 185              		.file 3 "Generated_Source\\PSoC4\\CyLib.h"