ARM GAS  C:\Users\austc\AppData\Local\Temp\ccJkRHQo.s 			page 1


   1              		.syntax unified
   2              		.cpu cortex-m0
   3              		.fpu softvfp
   4              		.eabi_attribute 20, 1
   5              		.eabi_attribute 21, 1
   6              		.eabi_attribute 23, 3
   7              		.eabi_attribute 24, 1
   8              		.eabi_attribute 25, 1
   9              		.eabi_attribute 26, 1
  10              		.eabi_attribute 30, 1
  11              		.eabi_attribute 34, 0
  12              		.eabi_attribute 18, 4
  13              		.thumb
  14              		.syntax unified
  15              		.file	"main.c"
  16              		.text
  17              	.Ltext0:
  18              		.cfi_sections	.debug_frame
  19              		.section	.text.Rainbow,"ax",%progbits
  20              		.align	2
  21              		.global	Rainbow
  22              		.code	16
  23              		.thumb_func
  24              		.type	Rainbow, %function
  25              	Rainbow:
  26              	.LFB35:
  27              		.file 1 "main.c"
   1:main.c        **** /* ========================================
   2:main.c        ****  *
   3:main.c        ****  * Copyright YOUR COMPANY, THE YEAR
   4:main.c        ****  * All Rights Reserved
   5:main.c        ****  * UNPUBLISHED, LICENSED SOFTWARE.
   6:main.c        ****  *
   7:main.c        ****  * CONFIDENTIAL AND PROPRIETARY INFORMATION
   8:main.c        ****  * WHICH IS THE PROPERTY OF your company.
   9:main.c        ****  *
  10:main.c        ****  * ========================================
  11:main.c        **** */
  12:main.c        **** #include "project.h"
  13:main.c        **** 
  14:main.c        **** int led_count = 0;
  15:main.c        **** void Rainbow(uint32 delay);
  16:main.c        **** void set_PWM(int compare);
  17:main.c        **** int status = 0;
  18:main.c        **** int disable_limit = 1;
  19:main.c        **** 
  20:main.c        **** uint32 startColor = 0;  // Index color in colorwheel
  21:main.c        **** uint32 ledPosition = 0; // LED position when setting color         
  22:main.c        **** uint32 color = 0;       // Temp color to set LED
  23:main.c        **** 
  24:main.c        **** extern const uint32 StripLights_CLUT[ ];
  25:main.c        **** int main(void)
  26:main.c        **** {
  27:main.c        ****     // Initialize StripLights
  28:main.c        ****     StripLights_Start();  
  29:main.c        **** 	
  30:main.c        **** 	// Set dim level 0 = full power, 4 = lowest power
ARM GAS  C:\Users\austc\AppData\Local\Temp\ccJkRHQo.s 			page 2


  31:main.c        ****     StripLights_Dim(4); 
  32:main.c        **** 	
  33:main.c        **** 	// Clear all memory to black
  34:main.c        **** 	StripLights_MemClear(StripLights_BLUE);
  35:main.c        ****     StripLights_Trigger(1); 
  36:main.c        ****     CyGlobalIntEnable; /* Enable global interrupts. */
  37:main.c        ****     
  38:main.c        ****     //led_timer_StartEx(Period_Reset_Handler);
  39:main.c        ****    // Timer_1_Start();
  40:main.c        ****     /* Place your initialization/startup code here (e.g. MyInst_Start()) */
  41:main.c        ****     uint32_t color = 0;
  42:main.c        ****     int test = 0;
  43:main.c        ****     int up;
  44:main.c        **** 
  45:main.c        ****     //StripLights_Trigger(1);
  46:main.c        ****     PWM_Motor_Start();  
  47:main.c        ****     
  48:main.c        ****     for(;;)
  49:main.c        ****     {
  50:main.c        **** 
  51:main.c        ****         
  52:main.c        ****         ERROR_LED_Write((Status_Reg_1_Read()>>0) & 0b1 );
  53:main.c        ****         Debug_1_Write((Status_Reg_1_Read()>>2) & 0b1);
  54:main.c        ****         Debug_2_Write((Status_Reg_1_Read() >> 1) & 0b1);
  55:main.c        ****         CAN_LED_Write((Status_Reg_1_Read()>>3) & 0b1);
  56:main.c        ****         
  57:main.c        ****         Rainbow(100);
  58:main.c        ****         if(up){
  59:main.c        ****             test += 10;
  60:main.c        ****         } else {
  61:main.c        ****             test -= 10;   
  62:main.c        ****         }
  63:main.c        ****         if(test > 255) {
  64:main.c        ****             up = 0;   
  65:main.c        ****         } else if (test < -255) {
  66:main.c        ****             up = 1;
  67:main.c        ****         }
  68:main.c        ****         set_PWM(test);
  69:main.c        ****     }
  70:main.c        **** }
  71:main.c        **** 
  72:main.c        **** /************************************************
  73:main.c        ****  *                    Rainbow()
  74:main.c        ****  *
  75:main.c        ****  *  Use the colorwheel section of the color lookup
  76:main.c        ****  *  table to create a rotating rainbow.
  77:main.c        ****  *
  78:main.c        ****  ************************************************/
  79:main.c        **** void Rainbow(uint32 delay)
  80:main.c        **** {
  28              		.loc 1 80 0
  29              		.cfi_startproc
  30              		@ args = 0, pretend = 0, frame = 0
  31              		@ frame_needed = 0, uses_anonymous_args = 0
  32              	.LVL0:
  33 0000 70B5     		push	{r4, r5, r6, lr}
  34              		.cfi_def_cfa_offset 16
ARM GAS  C:\Users\austc\AppData\Local\Temp\ccJkRHQo.s 			page 3


  35              		.cfi_offset 4, -16
  36              		.cfi_offset 5, -12
  37              		.cfi_offset 6, -8
  38              		.cfi_offset 14, -4
  39 0002 0500     		movs	r5, r0
  40              	.LVL1:
  41              	.L2:
  81:main.c        **** 	
  82:main.c        **** 		// Wait for last update to complete
  83:main.c        ****         while( StripLights_Ready() == 0);  
  42              		.loc 1 83 0 discriminator 1
  43 0004 FFF7FEFF 		bl	StripLights_Ready
  44              	.LVL2:
  45 0008 0028     		cmp	r0, #0
  46 000a FBD0     		beq	.L2
  84:main.c        **** 		
  85:main.c        **** 		// Set new start color
  86:main.c        ****         color = startColor;    
  47              		.loc 1 86 0
  48 000c 164B     		ldr	r3, .L7
  49 000e 5A68     		ldr	r2, [r3, #4]
  50 0010 1A60     		str	r2, [r3]
  87:main.c        **** 		
  88:main.c        **** 		// Loop through all LEDs giving each one a different color from the color wheel
  89:main.c        ****         for(ledPosition = 0; ledPosition <= StripLights_TOTAL_LEDS; ledPosition++)
  51              		.loc 1 89 0
  52 0012 0022     		movs	r2, #0
  53 0014 9A60     		str	r2, [r3, #8]
  54 0016 13E0     		b	.L3
  55              	.L5:
  90:main.c        ****         {
  91:main.c        ****             StripLights_Pixel(ledPosition, 0, StripLights_getColor( color ));
  56              		.loc 1 91 0
  57 0018 134C     		ldr	r4, .L7
  58 001a 2368     		ldr	r3, [r4]
  59 001c 9B00     		lsls	r3, r3, #2
  60 001e 134A     		ldr	r2, .L7+4
  61 0020 9A58     		ldr	r2, [r3, r2]
  62 0022 0021     		movs	r1, #0
  63 0024 FFF7FEFF 		bl	StripLights_Pixel
  64              	.LVL3:
  92:main.c        ****             color++;
  65              		.loc 1 92 0
  66 0028 2368     		ldr	r3, [r4]
  67 002a 0133     		adds	r3, r3, #1
  68 002c 2360     		str	r3, [r4]
  93:main.c        ****             if(color >= StripLights_COLOR_WHEEL_SIZE) color = 0;
  69              		.loc 1 93 0
  70 002e 172B     		cmp	r3, #23
  71 0030 02D9     		bls	.L4
  72              		.loc 1 93 0 is_stmt 0 discriminator 1
  73 0032 0022     		movs	r2, #0
  74 0034 0C4B     		ldr	r3, .L7
  75 0036 1A60     		str	r2, [r3]
  76              	.L4:
  89:main.c        ****         {
  77              		.loc 1 89 0 is_stmt 1 discriminator 2
ARM GAS  C:\Users\austc\AppData\Local\Temp\ccJkRHQo.s 			page 4


  78 0038 0B4A     		ldr	r2, .L7
  79 003a 9368     		ldr	r3, [r2, #8]
  80 003c 0133     		adds	r3, r3, #1
  81 003e 9360     		str	r3, [r2, #8]
  82              	.L3:
  89:main.c        ****         {
  83              		.loc 1 89 0 is_stmt 0 discriminator 1
  84 0040 094B     		ldr	r3, .L7
  85 0042 9868     		ldr	r0, [r3, #8]
  86 0044 0328     		cmp	r0, #3
  87 0046 E7D9     		bls	.L5
  94:main.c        ****         }
  95:main.c        **** 		
  96:main.c        **** 		// Update the LEDs all at once
  97:main.c        **** 		StripLights_Trigger(1); 
  88              		.loc 1 97 0 is_stmt 1
  89 0048 0120     		movs	r0, #1
  90 004a FFF7FEFF 		bl	StripLights_Trigger
  91              	.LVL4:
  98:main.c        **** 		
  99:main.c        ****         // Each time through the main loop start with different color
 100:main.c        **** 		// Wrap around at end of color wheel
 101:main.c        **** 		startColor++;  
  92              		.loc 1 101 0
  93 004e 064A     		ldr	r2, .L7
  94 0050 5368     		ldr	r3, [r2, #4]
  95 0052 0133     		adds	r3, r3, #1
  96 0054 5360     		str	r3, [r2, #4]
 102:main.c        ****         if(startColor >= StripLights_COLOR_WHEEL_SIZE) startColor = 0;
  97              		.loc 1 102 0
  98 0056 172B     		cmp	r3, #23
  99 0058 02D9     		bls	.L6
 100              		.loc 1 102 0 is_stmt 0 discriminator 1
 101 005a 0022     		movs	r2, #0
 102 005c 024B     		ldr	r3, .L7
 103 005e 5A60     		str	r2, [r3, #4]
 104              	.L6:
 103:main.c        ****     
 104:main.c        ****         CyDelay(delay);   // Loop delay
 105              		.loc 1 104 0 is_stmt 1
 106 0060 2800     		movs	r0, r5
 107 0062 FFF7FEFF 		bl	CyDelay
 108              	.LVL5:
 105:main.c        **** 
 106:main.c        **** 	   // if(SW1_Read() == 0) break;  // If SW1 pressed leave
 107:main.c        **** 
 108:main.c        **** }
 109              		.loc 1 108 0
 110              		@ sp needed
 111              	.LVL6:
 112 0066 70BD     		pop	{r4, r5, r6, pc}
 113              	.L8:
 114              		.align	2
 115              	.L7:
 116 0068 00000000 		.word	.LANCHOR0
 117 006c 00000000 		.word	StripLights_CLUT
 118              		.cfi_endproc
ARM GAS  C:\Users\austc\AppData\Local\Temp\ccJkRHQo.s 			page 5


 119              	.LFE35:
 120              		.size	Rainbow, .-Rainbow
 121              		.section	.text.set_PWM,"ax",%progbits
 122              		.align	2
 123              		.global	set_PWM
 124              		.code	16
 125              		.thumb_func
 126              		.type	set_PWM, %function
 127              	set_PWM:
 128              	.LFB36:
 109:main.c        **** 
 110:main.c        **** void set_PWM(int compare) {
 129              		.loc 1 110 0
 130              		.cfi_startproc
 131              		@ args = 0, pretend = 0, frame = 0
 132              		@ frame_needed = 0, uses_anonymous_args = 0
 133              	.LVL7:
 134 0000 10B5     		push	{r4, lr}
 135              		.cfi_def_cfa_offset 8
 136              		.cfi_offset 4, -8
 137              		.cfi_offset 14, -4
 138 0002 0400     		movs	r4, r0
 111:main.c        ****    /* pwm_compare = compare;
 112:main.c        ****     #ifdef REV2
 113:main.c        ****     compare = -compare;
 114:main.c        ****     #endif
 115:main.c        ****      if(uart_debug) {
 116:main.c        ****         sprintf(txData, "PWM:%d disable_limit: %d\r\n",compare,disable_limit);
 117:main.c        ****         UART_UartPutString(txData); 
 118:main.c        ****     }
 119:main.c        ****     invalidate = 0;*/
 120:main.c        ****     if (compare < -255 || compare > 255) { return; }
 139              		.loc 1 120 0
 140 0004 0200     		movs	r2, r0
 141 0006 FF32     		adds	r2, r2, #255
 142 0008 FF23     		movs	r3, #255
 143 000a 5B00     		lsls	r3, r3, #1
 144 000c 9A42     		cmp	r2, r3
 145 000e 24D8     		bhi	.L9
 121:main.c        ****     //uint8 status = Status_Reg_Switches_Read();
 122:main.c        ****     if (compare < 0 && (!(status & 0b01) || disable_limit) ) {
 146              		.loc 1 122 0
 147 0010 0028     		cmp	r0, #0
 148 0012 0EDA     		bge	.L11
 149              		.loc 1 122 0 is_stmt 0 discriminator 1
 150 0014 114B     		ldr	r3, .L15
 151 0016 DB68     		ldr	r3, [r3, #12]
 152 0018 DB07     		lsls	r3, r3, #31
 153 001a 03D5     		bpl	.L12
 154              		.loc 1 122 0 discriminator 2
 155 001c 104B     		ldr	r3, .L15+4
 156 001e 1B68     		ldr	r3, [r3]
 157 0020 002B     		cmp	r3, #0
 158 0022 06D0     		beq	.L11
 159              	.L12:
 123:main.c        ****         Pin_Direction_Write(0);
 160              		.loc 1 123 0 is_stmt 1
ARM GAS  C:\Users\austc\AppData\Local\Temp\ccJkRHQo.s 			page 6


 161 0024 0020     		movs	r0, #0
 162              	.LVL8:
 163 0026 FFF7FEFF 		bl	Pin_Direction_Write
 164              	.LVL9:
 124:main.c        ****         PWM_Motor_WriteCompare(-compare);
 165              		.loc 1 124 0
 166 002a 6042     		rsbs	r0, r4, #0
 167 002c FFF7FEFF 		bl	PWM_Motor_WriteCompare
 168              	.LVL10:
 169 0030 13E0     		b	.L9
 170              	.LVL11:
 171              	.L11:
 125:main.c        ****     } else if (compare > 0 && (!(status & 0b10) || disable_limit) ){
 172              		.loc 1 125 0
 173 0032 002C     		cmp	r4, #0
 174 0034 0EDD     		ble	.L13
 175              		.loc 1 125 0 is_stmt 0 discriminator 1
 176 0036 094B     		ldr	r3, .L15
 177 0038 DB68     		ldr	r3, [r3, #12]
 178 003a 9B07     		lsls	r3, r3, #30
 179 003c 03D5     		bpl	.L14
 180              		.loc 1 125 0 discriminator 2
 181 003e 084B     		ldr	r3, .L15+4
 182 0040 1B68     		ldr	r3, [r3]
 183 0042 002B     		cmp	r3, #0
 184 0044 06D0     		beq	.L13
 185              	.L14:
 126:main.c        ****         Pin_Direction_Write(1);
 186              		.loc 1 126 0 is_stmt 1
 187 0046 0120     		movs	r0, #1
 188              	.LVL12:
 189 0048 FFF7FEFF 		bl	Pin_Direction_Write
 190              	.LVL13:
 127:main.c        ****         PWM_Motor_WriteCompare(compare);
 191              		.loc 1 127 0
 192 004c 2000     		movs	r0, r4
 193 004e FFF7FEFF 		bl	PWM_Motor_WriteCompare
 194              	.LVL14:
 195 0052 02E0     		b	.L9
 196              	.LVL15:
 197              	.L13:
 128:main.c        ****     } else {
 129:main.c        ****         PWM_Motor_WriteCompare(0);
 198              		.loc 1 129 0
 199 0054 0020     		movs	r0, #0
 200              	.LVL16:
 201 0056 FFF7FEFF 		bl	PWM_Motor_WriteCompare
 202              	.LVL17:
 203              	.L9:
 130:main.c        ****         
 131:main.c        ****     }
 132:main.c        **** }
 204              		.loc 1 132 0
 205              		@ sp needed
 206              	.LVL18:
 207 005a 10BD     		pop	{r4, pc}
 208              	.L16:
ARM GAS  C:\Users\austc\AppData\Local\Temp\ccJkRHQo.s 			page 7


 209              		.align	2
 210              	.L15:
 211 005c 00000000 		.word	.LANCHOR0
 212 0060 00000000 		.word	.LANCHOR1
 213              		.cfi_endproc
 214              	.LFE36:
 215              		.size	set_PWM, .-set_PWM
 216              		.section	.text.main,"ax",%progbits
 217              		.align	2
 218              		.global	main
 219              		.code	16
 220              		.thumb_func
 221              		.type	main, %function
 222              	main:
 223              	.LFB34:
  26:main.c        ****     // Initialize StripLights
 224              		.loc 1 26 0
 225              		.cfi_startproc
 226              		@ args = 0, pretend = 0, frame = 0
 227              		@ frame_needed = 0, uses_anonymous_args = 0
 228 0000 70B5     		push	{r4, r5, r6, lr}
 229              		.cfi_def_cfa_offset 16
 230              		.cfi_offset 4, -16
 231              		.cfi_offset 5, -12
 232              		.cfi_offset 6, -8
 233              		.cfi_offset 14, -4
  28:main.c        **** 	
 234              		.loc 1 28 0
 235 0002 FFF7FEFF 		bl	StripLights_Start
 236              	.LVL19:
  31:main.c        **** 	
 237              		.loc 1 31 0
 238 0006 0420     		movs	r0, #4
 239 0008 FFF7FEFF 		bl	StripLights_Dim
 240              	.LVL20:
  34:main.c        ****     StripLights_Trigger(1); 
 241              		.loc 1 34 0
 242 000c 1B4B     		ldr	r3, .L24
 243 000e D86E     		ldr	r0, [r3, #108]
 244 0010 FFF7FEFF 		bl	StripLights_MemClear
 245              	.LVL21:
  35:main.c        ****     CyGlobalIntEnable; /* Enable global interrupts. */
 246              		.loc 1 35 0
 247 0014 0120     		movs	r0, #1
 248 0016 FFF7FEFF 		bl	StripLights_Trigger
 249              	.LVL22:
  36:main.c        ****     
 250              		.loc 1 36 0
 251              		.syntax divided
 252              	@ 36 "main.c" 1
 253 001a 62B6     		CPSIE   i
 254              	@ 0 "" 2
 255              	.LVL23:
  46:main.c        ****     
 256              		.loc 1 46 0
 257              		.thumb
 258              		.syntax unified
ARM GAS  C:\Users\austc\AppData\Local\Temp\ccJkRHQo.s 			page 8


 259 001c FFF7FEFF 		bl	PWM_Motor_Start
 260              	.LVL24:
  42:main.c        ****     int up;
 261              		.loc 1 42 0
 262 0020 0024     		movs	r4, #0
 263              	.LVL25:
 264              	.L21:
  52:main.c        ****         Debug_1_Write((Status_Reg_1_Read()>>2) & 0b1);
 265              		.loc 1 52 0
 266 0022 FFF7FEFF 		bl	Status_Reg_1_Read
 267              	.LVL26:
 268 0026 0126     		movs	r6, #1
 269 0028 3040     		ands	r0, r6
 270 002a FFF7FEFF 		bl	ERROR_LED_Write
 271              	.LVL27:
  53:main.c        ****         Debug_2_Write((Status_Reg_1_Read() >> 1) & 0b1);
 272              		.loc 1 53 0
 273 002e FFF7FEFF 		bl	Status_Reg_1_Read
 274              	.LVL28:
 275 0032 8008     		lsrs	r0, r0, #2
 276 0034 3040     		ands	r0, r6
 277 0036 FFF7FEFF 		bl	Debug_1_Write
 278              	.LVL29:
  54:main.c        ****         CAN_LED_Write((Status_Reg_1_Read()>>3) & 0b1);
 279              		.loc 1 54 0
 280 003a FFF7FEFF 		bl	Status_Reg_1_Read
 281              	.LVL30:
 282 003e 4008     		lsrs	r0, r0, #1
 283 0040 3040     		ands	r0, r6
 284 0042 FFF7FEFF 		bl	Debug_2_Write
 285              	.LVL31:
  55:main.c        ****         
 286              		.loc 1 55 0
 287 0046 FFF7FEFF 		bl	Status_Reg_1_Read
 288              	.LVL32:
 289 004a C008     		lsrs	r0, r0, #3
 290 004c 3040     		ands	r0, r6
 291 004e FFF7FEFF 		bl	CAN_LED_Write
 292              	.LVL33:
  57:main.c        ****         if(up){
 293              		.loc 1 57 0
 294 0052 6420     		movs	r0, #100
 295 0054 FFF7FEFF 		bl	Rainbow
 296              	.LVL34:
  58:main.c        ****             test += 10;
 297              		.loc 1 58 0
 298 0058 002D     		cmp	r5, #0
 299 005a 01D0     		beq	.L18
  59:main.c        ****         } else {
 300              		.loc 1 59 0
 301 005c 0A34     		adds	r4, r4, #10
 302              	.LVL35:
 303 005e 00E0     		b	.L19
 304              	.L18:
  61:main.c        ****         }
 305              		.loc 1 61 0
 306 0060 0A3C     		subs	r4, r4, #10
ARM GAS  C:\Users\austc\AppData\Local\Temp\ccJkRHQo.s 			page 9


 307              	.LVL36:
 308              	.L19:
  63:main.c        ****             up = 0;   
 309              		.loc 1 63 0
 310 0062 FF2C     		cmp	r4, #255
 311 0064 03DC     		bgt	.L22
  65:main.c        ****             up = 1;
 312              		.loc 1 65 0
 313 0066 2300     		movs	r3, r4
 314 0068 FF33     		adds	r3, r3, #255
 315 006a 02DB     		blt	.L23
 316 006c 02E0     		b	.L20
 317              	.L22:
  64:main.c        ****         } else if (test < -255) {
 318              		.loc 1 64 0
 319 006e 0025     		movs	r5, #0
 320              	.LVL37:
 321 0070 00E0     		b	.L20
 322              	.LVL38:
 323              	.L23:
  66:main.c        ****         }
 324              		.loc 1 66 0
 325 0072 0125     		movs	r5, #1
 326              	.LVL39:
 327              	.L20:
  68:main.c        ****     }
 328              		.loc 1 68 0
 329 0074 2000     		movs	r0, r4
 330 0076 FFF7FEFF 		bl	set_PWM
 331              	.LVL40:
  69:main.c        **** }
 332              		.loc 1 69 0
 333 007a D2E7     		b	.L21
 334              	.L25:
 335              		.align	2
 336              	.L24:
 337 007c 00000000 		.word	StripLights_CLUT
 338              		.cfi_endproc
 339              	.LFE34:
 340              		.size	main, .-main
 341              		.global	color
 342              		.global	ledPosition
 343              		.global	startColor
 344              		.global	disable_limit
 345              		.global	status
 346              		.global	led_count
 347              		.data
 348              		.align	2
 349              		.set	.LANCHOR1,. + 0
 350              		.type	disable_limit, %object
 351              		.size	disable_limit, 4
 352              	disable_limit:
 353 0000 01000000 		.word	1
 354              		.bss
 355              		.align	2
 356              		.set	.LANCHOR0,. + 0
 357              		.type	color, %object
ARM GAS  C:\Users\austc\AppData\Local\Temp\ccJkRHQo.s 			page 10


 358              		.size	color, 4
 359              	color:
 360 0000 00000000 		.space	4
 361              		.type	startColor, %object
 362              		.size	startColor, 4
 363              	startColor:
 364 0004 00000000 		.space	4
 365              		.type	ledPosition, %object
 366              		.size	ledPosition, 4
 367              	ledPosition:
 368 0008 00000000 		.space	4
 369              		.type	status, %object
 370              		.size	status, 4
 371              	status:
 372 000c 00000000 		.space	4
 373              		.type	led_count, %object
 374              		.size	led_count, 4
 375              	led_count:
 376 0010 00000000 		.space	4
 377              		.text
 378              	.Letext0:
 379              		.file 2 "c:\\program files (x86)\\cypress\\psoc creator\\4.2\\psoc creator\\import\\gnu\\arm\\5.4.
 380              		.file 3 "c:\\program files (x86)\\cypress\\psoc creator\\4.2\\psoc creator\\import\\gnu\\arm\\5.4.
 381              		.file 4 "Generated_Source\\PSoC4/cytypes.h"
 382              		.file 5 "Generated_Source\\PSoC4/StripLights.h"
 383              		.file 6 "Generated_Source\\PSoC4/CyLib.h"
 384              		.file 7 "Generated_Source\\PSoC4/Pin_Direction.h"
 385              		.file 8 "Generated_Source\\PSoC4/PWM_Motor.h"
 386              		.file 9 "Generated_Source\\PSoC4/Status_Reg_1.h"
 387              		.file 10 "Generated_Source\\PSoC4/ERROR_LED.h"
 388              		.file 11 "Generated_Source\\PSoC4/Debug_1.h"
 389              		.file 12 "Generated_Source\\PSoC4/Debug_2.h"
 390              		.file 13 "Generated_Source\\PSoC4/CAN_LED.h"