ARM GAS  C:\Users\Austcha\AppData\Local\Temp\ccAwSRUb.s 			page 1


   1              		.syntax unified
   2              		.cpu cortex-m0
   3              		.fpu softvfp
   4              		.eabi_attribute 20, 1
   5              		.eabi_attribute 21, 1
   6              		.eabi_attribute 23, 3
   7              		.eabi_attribute 24, 1
   8              		.eabi_attribute 25, 1
   9              		.eabi_attribute 26, 1
  10              		.eabi_attribute 30, 1
  11              		.eabi_attribute 34, 0
  12              		.eabi_attribute 18, 4
  13              		.thumb
  14              		.syntax unified
  15              		.file	"main.c"
  16              		.text
  17              	.Ltext0:
  18              		.cfi_sections	.debug_frame
  19              		.global	__aeabi_uidiv
  20              		.section	.text.Period_Reset_Handler,"ax",%progbits
  21              		.align	2
  22              		.global	Period_Reset_Handler
  23              		.code	16
  24              		.thumb_func
  25              		.type	Period_Reset_Handler, %function
  26              	Period_Reset_Handler:
  27              	.LFB35:
  28              		.file 1 "main.c"
   1:main.c        **** /* ========================================
   2:main.c        ****  *
   3:main.c        ****  * Copyright YOUR COMPANY, THE YEAR
   4:main.c        ****  * All Rights Reserved
   5:main.c        ****  * UNPUBLISHED, LICENSED SOFTWARE.
   6:main.c        ****  *
   7:main.c        ****  * CONFIDENTIAL AND PROPRIETARY INFORMATION
   8:main.c        ****  * WHICH IS THE PROPERTY OF your company.
   9:main.c        ****  *
  10:main.c        ****  * ========================================
  11:main.c        **** */
  12:main.c        **** #include <project.h>
  13:main.c        **** #include "cyapicallbacks.h"
  14:main.c        **** #include <stdio.h>
  15:main.c        **** #include <stdint.h>
  16:main.c        **** //#include "../CANLib/CANLibrary.h"
  17:main.c        **** #include "MotorDrive.h"
  18:main.c        **** #include "LED_Array.h"
  19:main.c        **** 
  20:main.c        **** //LED
  21:main.c        **** uint8 time_LED = 0;
  22:main.c        **** extern const uint32 StripLights_CLUT[ ];
  23:main.c        **** uint8_t send_animation = 0;
  24:main.c        **** 
  25:main.c        **** //Uart variables
  26:main.c        **** char8 txData[TX_DATA_SIZE];
  27:main.c        **** 
  28:main.c        **** //drive varaible
  29:main.c        **** uint8 invalidate = 0;
ARM GAS  C:\Users\Austcha\AppData\Local\Temp\ccAwSRUb.s 			page 2


  30:main.c        **** 
  31:main.c        **** /*drive mode
  32:main.c        **** 0xFF = un-init
  33:main.c        **** 0x0 = pwm
  34:main.c        **** 0x1 = PID*/
  35:main.c        **** volatile uint8 mode = 0xFF;
  36:main.c        **** volatile uint8 address = 0;
  37:main.c        **** 
  38:main.c        **** //Status and Data Structs
  39:main.c        **** volatile uint8 drive = 0;
  40:main.c        **** 
  41:main.c        **** int test;
  42:main.c        **** CAN_RX_CFG rxMailbox;
  43:main.c        **** //CY_ISR_PROTO(ISR_CAN);
  44:main.c        **** 
  45:main.c        **** 
  46:main.c        **** CY_ISR(Period_Reset_Handler) {
  29              		.loc 1 46 0
  30              		.cfi_startproc
  31              		@ args = 0, pretend = 0, frame = 8
  32              		@ frame_needed = 0, uses_anonymous_args = 0
  33 0000 30B5     		push	{r4, r5, lr}
  34              		.cfi_def_cfa_offset 12
  35              		.cfi_offset 4, -12
  36              		.cfi_offset 5, -8
  37              		.cfi_offset 14, -4
  38 0002 83B0     		sub	sp, sp, #12
  39              		.cfi_def_cfa_offset 24
  47:main.c        ****     volatile int timer = Timer_1_ReadStatusRegister();
  40              		.loc 1 47 0
  41 0004 FFF7FEFF 		bl	Timer_1_ReadStatusRegister
  42              	.LVL0:
  43 0008 0190     		str	r0, [sp, #4]
  48:main.c        ****    /* if(uart_debug) {
  49:main.c        ****         sprintf(txData,"Period interupt triggerd %x\r\n", timer);
  50:main.c        ****         //UART_UartPutString(txData);
  51:main.c        ****     }*/
  52:main.c        ****     invalidate++;
  44              		.loc 1 52 0
  45 000a 184B     		ldr	r3, .L4
  46 000c 1A78     		ldrb	r2, [r3]
  47 000e 0132     		adds	r2, r2, #1
  48 0010 1A70     		strb	r2, [r3]
  53:main.c        ****     time_LED++;
  49              		.loc 1 53 0
  50 0012 5A78     		ldrb	r2, [r3, #1]
  51 0014 0132     		adds	r2, r2, #1
  52 0016 5A70     		strb	r2, [r3, #1]
  54:main.c        ****     send_animation = send_animation >= 12 ? 0 : send_animation;
  53              		.loc 1 54 0
  54 0018 9B78     		ldrb	r3, [r3, #2]
  55 001a 0B2B     		cmp	r3, #11
  56 001c 00D9     		bls	.L2
  57 001e 0023     		movs	r3, #0
  58              	.L2:
  59              		.loc 1 54 0 is_stmt 0 discriminator 4
  60 0020 124C     		ldr	r4, .L4
ARM GAS  C:\Users\Austcha\AppData\Local\Temp\ccAwSRUb.s 			page 3


  61 0022 A370     		strb	r3, [r4, #2]
  55:main.c        ****     StripLights_MemClear(StripLights_BLACK);
  62              		.loc 1 55 0 is_stmt 1 discriminator 4
  63 0024 124B     		ldr	r3, .L4+4
  64 0026 186E     		ldr	r0, [r3, #96]
  65 0028 FFF7FEFF 		bl	StripLights_MemClear
  66              	.LVL1:
  56:main.c        ****     StripLights_Pixel(send_animation/3, 0, get_color_packet(0,0,255));
  67              		.loc 1 56 0 discriminator 4
  68 002c A078     		ldrb	r0, [r4, #2]
  69 002e 0321     		movs	r1, #3
  70 0030 FFF7FEFF 		bl	__aeabi_uidiv
  71              	.LVL2:
  72 0034 C5B2     		uxtb	r5, r0
  73 0036 FF22     		movs	r2, #255
  74 0038 0021     		movs	r1, #0
  75 003a 0020     		movs	r0, #0
  76 003c FFF7FEFF 		bl	get_color_packet
  77              	.LVL3:
  78 0040 0200     		movs	r2, r0
  79 0042 0021     		movs	r1, #0
  80 0044 2800     		movs	r0, r5
  81 0046 FFF7FEFF 		bl	StripLights_Pixel
  82              	.LVL4:
  57:main.c        ****     StripLights_Trigger(1);
  83              		.loc 1 57 0 discriminator 4
  84 004a 0120     		movs	r0, #1
  85 004c FFF7FEFF 		bl	StripLights_Trigger
  86              	.LVL5:
  58:main.c        ****     send_animation++;
  87              		.loc 1 58 0 discriminator 4
  88 0050 A378     		ldrb	r3, [r4, #2]
  89 0052 0133     		adds	r3, r3, #1
  90 0054 A370     		strb	r3, [r4, #2]
  59:main.c        ****     if(invalidate >= 20){
  91              		.loc 1 59 0 discriminator 4
  92 0056 2378     		ldrb	r3, [r4]
  93 0058 132B     		cmp	r3, #19
  94 005a 04D9     		bls	.L1
  60:main.c        ****         set_PWM(0, 0, 0);   
  95              		.loc 1 60 0
  96 005c 0022     		movs	r2, #0
  97 005e 0021     		movs	r1, #0
  98 0060 0020     		movs	r0, #0
  99 0062 FFF7FEFF 		bl	set_PWM
 100              	.LVL6:
 101              	.L1:
  61:main.c        ****         //Can_rx_pwm.done = 1;
  62:main.c        ****     }
  63:main.c        **** }
 102              		.loc 1 63 0
 103 0066 03B0     		add	sp, sp, #12
 104              		@ sp needed
 105 0068 30BD     		pop	{r4, r5, pc}
 106              	.L5:
 107 006a C046     		.align	2
 108              	.L4:
ARM GAS  C:\Users\Austcha\AppData\Local\Temp\ccAwSRUb.s 			page 4


 109 006c 00000000 		.word	.LANCHOR0
 110 0070 00000000 		.word	StripLights_CLUT
 111              		.cfi_endproc
 112              	.LFE35:
 113              		.size	Period_Reset_Handler, .-Period_Reset_Handler
 114              		.section	.text.Pin_Limit_Handler,"ax",%progbits
 115              		.align	2
 116              		.global	Pin_Limit_Handler
 117              		.code	16
 118              		.thumb_func
 119              		.type	Pin_Limit_Handler, %function
 120              	Pin_Limit_Handler:
 121              	.LFB36:
  64:main.c        ****   
  65:main.c        **** CY_ISR(Pin_Limit_Handler){
 122              		.loc 1 65 0
 123              		.cfi_startproc
 124              		@ args = 0, pretend = 0, frame = 0
 125              		@ frame_needed = 0, uses_anonymous_args = 0
 126 0000 10B5     		push	{r4, lr}
 127              		.cfi_def_cfa_offset 8
 128              		.cfi_offset 4, -8
 129              		.cfi_offset 14, -4
  66:main.c        ****    /* if(uart_debug) {
  67:main.c        ****         sprintf(txData,"Limit interupt triggerd\r\n");
  68:main.c        ****         UART_UartPutString(txData);
  69:main.c        ****     }*/
  70:main.c        ****     set_PWM(0, 0, 0);
 130              		.loc 1 70 0
 131 0002 0022     		movs	r2, #0
 132 0004 0021     		movs	r1, #0
 133 0006 0020     		movs	r0, #0
 134 0008 FFF7FEFF 		bl	set_PWM
 135              	.LVL7:
  71:main.c        ****     QuadDec_SetCounter(0);
 136              		.loc 1 71 0
 137 000c 0020     		movs	r0, #0
 138 000e FFF7FEFF 		bl	QuadDec_SetCounter
 139              	.LVL8:
  72:main.c        **** }
 140              		.loc 1 72 0
 141              		@ sp needed
 142 0012 10BD     		pop	{r4, pc}
 143              		.cfi_endproc
 144              	.LFE36:
 145              		.size	Pin_Limit_Handler, .-Pin_Limit_Handler
 146              		.section	.text.Initialize,"ax",%progbits
 147              		.align	2
 148              		.global	Initialize
 149              		.code	16
 150              		.thumb_func
 151              		.type	Initialize, %function
 152              	Initialize:
 153              	.LFB38:
  73:main.c        **** 
  74:main.c        **** int main(void)
  75:main.c        **** { 
ARM GAS  C:\Users\Austcha\AppData\Local\Temp\ccAwSRUb.s 			page 5


  76:main.c        ****     Initialize();
  77:main.c        ****     set_all_LED_Colors(get_color_packet(0,0,255));
  78:main.c        ****    // CyDelay(2000);
  79:main.c        ****     CANPacket can_recieve;
  80:main.c        ****     CANPacket can_send;
  81:main.c        ****     volatile int error = 0;
  82:main.c        ****     can_send.id = 0x4 << 6 | 0xf;
  83:main.c        ****     can_send.dlc = 0x8;
  84:main.c        ****     uint8_t test = 0;
  85:main.c        **** 
  86:main.c        ****     for(int i = 0; i < 8; i++) {
  87:main.c        ****         can_send.data[i] = i;
  88:main.c        ****     }
  89:main.c        ****     for(;;)
  90:main.c        ****     {
  91:main.c        ****     switch(address) {
  92:main.c        ****         case(0)://spam
  93:main.c        ****             can_send.data[0] = test;
  94:main.c        ****             if(test == 0 && can_send.data[1] == 1) {
  95:main.c        ****                 can_send.data[1] = 0;
  96:main.c        ****             } else if (test == 0) {
  97:main.c        ****                 can_send.data[1] = 1;
  98:main.c        ****             }
  99:main.c        ****             test++;
 100:main.c        ****             SendCANPacket(&can_send);
 101:main.c        ****             CyDelay(10);//send rate of bottom board
 102:main.c        ****         break;
 103:main.c        ****         case(1):
 104:main.c        ****             can_send.data[0] = 0;
 105:main.c        ****             can_send.data[1] = MOTOR_UNIT_MODE_PWM;
 106:main.c        ****             SendCANPacket(&can_send);
 107:main.c        ****             CyDelay(1000);
 108:main.c        ****             can_send.data[0] = 0;
 109:main.c        ****             can_send.data[1] = MOTOR_UNIT_MODE_PID;
 110:main.c        ****             SendCANPacket(&can_send);
 111:main.c        ****             CyDelay(1000);
 112:main.c        ****         break;
 113:main.c        ****         case(2):
 114:main.c        ****             for(int i = 0; i < 8; i++) {
 115:main.c        ****                 can_send.data[i] = 0;
 116:main.c        ****              }
 117:main.c        ****             can_send.data[0] = 0;
 118:main.c        ****             can_send.data[1] = MOTOR_UNIT_MODE_PWM;
 119:main.c        ****             SendCANPacket(&can_send);
 120:main.c        ****             CyDelay(1000);
 121:main.c        ****             can_send.data[0] = 3;
 122:main.c        ****             for(int i = 0; i < 65535; i+= 1000) {
 123:main.c        ****             PackIntIntoDataMSBFirst(can_send.data,i,1);
 124:main.c        ****             SendCANPacket(&can_send);
 125:main.c        ****             CyDelay(100);
 126:main.c        ****             PackIntIntoDataMSBFirst(can_send.data,-i,1);
 127:main.c        ****             SendCANPacket(&can_send);
 128:main.c        ****             CyDelay(100);
 129:main.c        ****             
 130:main.c        ****             }
 131:main.c        ****             
 132:main.c        ****             break;
ARM GAS  C:\Users\Austcha\AppData\Local\Temp\ccAwSRUb.s 			page 6


 133:main.c        ****     }
 134:main.c        ****         
 135:main.c        ****     }
 136:main.c        **** }
 137:main.c        ****  
 138:main.c        **** 
 139:main.c        **** 
 140:main.c        **** void Initialize(void) {
 154              		.loc 1 140 0
 155              		.cfi_startproc
 156              		@ args = 0, pretend = 0, frame = 0
 157              		@ frame_needed = 0, uses_anonymous_args = 0
 158 0000 70B5     		push	{r4, r5, r6, lr}
 159              		.cfi_def_cfa_offset 16
 160              		.cfi_offset 4, -16
 161              		.cfi_offset 5, -12
 162              		.cfi_offset 6, -8
 163              		.cfi_offset 14, -4
 141:main.c        ****     CyGlobalIntEnable; /* Enable global interrupts. LED arrays need this first */
 164              		.loc 1 141 0
 165              		.syntax divided
 166              	@ 141 "main.c" 1
 167 0002 62B6     		CPSIE   i
 168              	@ 0 "" 2
 142:main.c        ****     initalize_LEDs(LOW_LED_POWER);
 169              		.loc 1 142 0
 170              		.thumb
 171              		.syntax unified
 172 0004 0420     		movs	r0, #4
 173 0006 FFF7FEFF 		bl	initalize_LEDs
 174              	.LVL9:
 143:main.c        ****     
 144:main.c        ****     //display Dip Status
 145:main.c        ****     address = Can_addr_Read();
 175              		.loc 1 145 0
 176 000a FFF7FEFF 		bl	Can_addr_Read
 177              	.LVL10:
 178 000e 1C4C     		ldr	r4, .L8
 179 0010 E070     		strb	r0, [r4, #3]
 146:main.c        ****     UART_Start();
 180              		.loc 1 146 0
 181 0012 FFF7FEFF 		bl	UART_Start
 182              	.LVL11:
 147:main.c        ****     sprintf(txData, "Dip Addr: %x \r\n", address);
 183              		.loc 1 147 0
 184 0016 E278     		ldrb	r2, [r4, #3]
 185 0018 D2B2     		uxtb	r2, r2
 186 001a 1A4D     		ldr	r5, .L8+4
 187 001c 1A49     		ldr	r1, .L8+8
 188 001e 2800     		movs	r0, r5
 189 0020 FFF7FEFF 		bl	sprintf
 190              	.LVL12:
 148:main.c        ****     UART_UartPutString(txData);
 191              		.loc 1 148 0
 192 0024 2800     		movs	r0, r5
 193 0026 FFF7FEFF 		bl	UART_UartPutString
 194              	.LVL13:
ARM GAS  C:\Users\Austcha\AppData\Local\Temp\ccAwSRUb.s 			page 7


 149:main.c        ****     ERROR_LED_Write(~(address >> 3 & 1));
 195              		.loc 1 149 0
 196 002a E378     		ldrb	r3, [r4, #3]
 197 002c DB08     		lsrs	r3, r3, #3
 198 002e 0125     		movs	r5, #1
 199 0030 0126     		movs	r6, #1
 200 0032 3340     		ands	r3, r6
 201 0034 DB43     		mvns	r3, r3
 202 0036 D8B2     		uxtb	r0, r3
 203 0038 FFF7FEFF 		bl	ERROR_LED_Write
 204              	.LVL14:
 150:main.c        ****     Debug_2_Write(~(address >> 2) & 1);
 205              		.loc 1 150 0
 206 003c E078     		ldrb	r0, [r4, #3]
 207 003e 8008     		lsrs	r0, r0, #2
 208 0040 6840     		eors	r0, r5
 209 0042 3040     		ands	r0, r6
 210 0044 FFF7FEFF 		bl	Debug_2_Write
 211              	.LVL15:
 151:main.c        ****     Debug_1_Write(~(address >> 1) & 1);
 212              		.loc 1 151 0
 213 0048 E078     		ldrb	r0, [r4, #3]
 214 004a 4008     		lsrs	r0, r0, #1
 215 004c 6840     		eors	r0, r5
 216 004e 3040     		ands	r0, r6
 217 0050 FFF7FEFF 		bl	Debug_1_Write
 218              	.LVL16:
 152:main.c        ****     CAN_LED_Write(~address & 1);
 219              		.loc 1 152 0
 220 0054 E078     		ldrb	r0, [r4, #3]
 221 0056 6840     		eors	r0, r5
 222 0058 3040     		ands	r0, r6
 223 005a FFF7FEFF 		bl	CAN_LED_Write
 224              	.LVL17:
 153:main.c        ****     
 154:main.c        ****     
 155:main.c        ****     InitCAN(0x4, (int)address);
 225              		.loc 1 155 0
 226 005e E178     		ldrb	r1, [r4, #3]
 227 0060 C9B2     		uxtb	r1, r1
 228 0062 0420     		movs	r0, #4
 229 0064 FFF7FEFF 		bl	InitCAN
 230              	.LVL18:
 156:main.c        ****     Timer_1_Start();
 231              		.loc 1 156 0
 232 0068 FFF7FEFF 		bl	Timer_1_Start
 233              	.LVL19:
 157:main.c        ****     QuadDec_Start();
 234              		.loc 1 157 0
 235 006c FFF7FEFF 		bl	QuadDec_Start
 236              	.LVL20:
 158:main.c        **** 
 159:main.c        ****     isr_Limit_1_StartEx(Pin_Limit_Handler);
 237              		.loc 1 159 0
 238 0070 0648     		ldr	r0, .L8+12
 239 0072 FFF7FEFF 		bl	isr_Limit_1_StartEx
 240              	.LVL21:
ARM GAS  C:\Users\Austcha\AppData\Local\Temp\ccAwSRUb.s 			page 8


 160:main.c        ****     isr_period_StartEx(Period_Reset_Handler);
 241              		.loc 1 160 0
 242 0076 0648     		ldr	r0, .L8+16
 243 0078 FFF7FEFF 		bl	isr_period_StartEx
 244              	.LVL22:
 161:main.c        **** }
 245              		.loc 1 161 0
 246              		@ sp needed
 247 007c 70BD     		pop	{r4, r5, r6, pc}
 248              	.L9:
 249 007e C046     		.align	2
 250              	.L8:
 251 0080 00000000 		.word	.LANCHOR0
 252 0084 00000000 		.word	txData
 253 0088 00000000 		.word	.LC3
 254 008c 00000000 		.word	Pin_Limit_Handler
 255 0090 00000000 		.word	Period_Reset_Handler
 256              		.cfi_endproc
 257              	.LFE38:
 258              		.size	Initialize, .-Initialize
 259              		.section	.text.main,"ax",%progbits
 260              		.align	2
 261              		.global	main
 262              		.code	16
 263              		.thumb_func
 264              		.type	main, %function
 265              	main:
 266              	.LFB37:
  75:main.c        ****     Initialize();
 267              		.loc 1 75 0
 268              		.cfi_startproc
 269              		@ args = 0, pretend = 0, frame = 16
 270              		@ frame_needed = 0, uses_anonymous_args = 0
 271 0000 F0B5     		push	{r4, r5, r6, r7, lr}
 272              		.cfi_def_cfa_offset 20
 273              		.cfi_offset 4, -20
 274              		.cfi_offset 5, -16
 275              		.cfi_offset 6, -12
 276              		.cfi_offset 7, -8
 277              		.cfi_offset 14, -4
 278 0002 85B0     		sub	sp, sp, #20
 279              		.cfi_def_cfa_offset 40
  76:main.c        ****     set_all_LED_Colors(get_color_packet(0,0,255));
 280              		.loc 1 76 0
 281 0004 FFF7FEFF 		bl	Initialize
 282              	.LVL23:
  77:main.c        ****    // CyDelay(2000);
 283              		.loc 1 77 0
 284 0008 FF22     		movs	r2, #255
 285 000a 0021     		movs	r1, #0
 286 000c 0020     		movs	r0, #0
 287 000e FFF7FEFF 		bl	get_color_packet
 288              	.LVL24:
 289 0012 FFF7FEFF 		bl	set_all_LED_Colors
 290              	.LVL25:
  81:main.c        ****     can_send.id = 0x4 << 6 | 0xf;
 291              		.loc 1 81 0
ARM GAS  C:\Users\Austcha\AppData\Local\Temp\ccAwSRUb.s 			page 9


 292 0016 0023     		movs	r3, #0
 293 0018 0093     		str	r3, [sp]
  82:main.c        ****     can_send.dlc = 0x8;
 294              		.loc 1 82 0
 295 001a 01AB     		add	r3, sp, #4
 296 001c 1022     		movs	r2, #16
 297 001e FF32     		adds	r2, r2, #255
 298 0020 1A80     		strh	r2, [r3]
  83:main.c        ****     uint8_t test = 0;
 299              		.loc 1 83 0
 300 0022 083A     		subs	r2, r2, #8
 301 0024 FF3A     		subs	r2, r2, #255
 302 0026 9A70     		strb	r2, [r3, #2]
 303              	.LVL26:
 304              	.LBB2:
  86:main.c        ****         can_send.data[i] = i;
 305              		.loc 1 86 0
 306 0028 0023     		movs	r3, #0
 307 002a 03E0     		b	.L11
 308              	.LVL27:
 309              	.L12:
  87:main.c        ****     }
 310              		.loc 1 87 0 discriminator 3
 311 002c 01AA     		add	r2, sp, #4
 312 002e D218     		adds	r2, r2, r3
 313 0030 D370     		strb	r3, [r2, #3]
  86:main.c        ****         can_send.data[i] = i;
 314              		.loc 1 86 0 discriminator 3
 315 0032 0133     		adds	r3, r3, #1
 316              	.LVL28:
 317              	.L11:
  86:main.c        ****         can_send.data[i] = i;
 318              		.loc 1 86 0 is_stmt 0 discriminator 1
 319 0034 072B     		cmp	r3, #7
 320 0036 F9DD     		ble	.L12
 321 0038 0025     		movs	r5, #0
 322              	.LVL29:
 323              	.L14:
 324              	.LBE2:
  91:main.c        ****         case(0)://spam
 325              		.loc 1 91 0 is_stmt 1
 326 003a 384B     		ldr	r3, .L25
 327 003c DB78     		ldrb	r3, [r3, #3]
 328 003e DBB2     		uxtb	r3, r3
 329 0040 012B     		cmp	r3, #1
 330 0042 1DD0     		beq	.L15
 331 0044 002B     		cmp	r3, #0
 332 0046 02D0     		beq	.L16
 333 0048 022B     		cmp	r3, #2
 334 004a 35D0     		beq	.L24
 335 004c F5E7     		b	.L14
 336              	.L16:
  93:main.c        ****             if(test == 0 && can_send.data[1] == 1) {
 337              		.loc 1 93 0
 338 004e 01AB     		add	r3, sp, #4
 339 0050 DD70     		strb	r5, [r3, #3]
  94:main.c        ****                 can_send.data[1] = 0;
ARM GAS  C:\Users\Austcha\AppData\Local\Temp\ccAwSRUb.s 			page 10


 340              		.loc 1 94 0
 341 0052 002D     		cmp	r5, #0
 342 0054 06D1     		bne	.L18
  94:main.c        ****                 can_send.data[1] = 0;
 343              		.loc 1 94 0 is_stmt 0 discriminator 1
 344 0056 1B79     		ldrb	r3, [r3, #4]
 345 0058 012B     		cmp	r3, #1
 346 005a 03D1     		bne	.L18
  95:main.c        ****             } else if (test == 0) {
 347              		.loc 1 95 0 is_stmt 1
 348 005c 0022     		movs	r2, #0
 349 005e 01AB     		add	r3, sp, #4
 350 0060 1A71     		strb	r2, [r3, #4]
 351 0062 04E0     		b	.L19
 352              	.L18:
  96:main.c        ****                 can_send.data[1] = 1;
 353              		.loc 1 96 0
 354 0064 002D     		cmp	r5, #0
 355 0066 02D1     		bne	.L19
  97:main.c        ****             }
 356              		.loc 1 97 0
 357 0068 0122     		movs	r2, #1
 358 006a 01AB     		add	r3, sp, #4
 359 006c 1A71     		strb	r2, [r3, #4]
 360              	.L19:
  99:main.c        ****             SendCANPacket(&can_send);
 361              		.loc 1 99 0
 362 006e 0135     		adds	r5, r5, #1
 363              	.LVL30:
 364 0070 EDB2     		uxtb	r5, r5
 365              	.LVL31:
 100:main.c        ****             CyDelay(10);//send rate of bottom board
 366              		.loc 1 100 0
 367 0072 01A8     		add	r0, sp, #4
 368 0074 FFF7FEFF 		bl	SendCANPacket
 369              	.LVL32:
 101:main.c        ****         break;
 370              		.loc 1 101 0
 371 0078 0A20     		movs	r0, #10
 372 007a FFF7FEFF 		bl	CyDelay
 373              	.LVL33:
 102:main.c        ****         case(1):
 374              		.loc 1 102 0
 375 007e DCE7     		b	.L14
 376              	.L15:
 104:main.c        ****             can_send.data[1] = MOTOR_UNIT_MODE_PWM;
 377              		.loc 1 104 0
 378 0080 01AC     		add	r4, sp, #4
 379 0082 0026     		movs	r6, #0
 380 0084 E670     		strb	r6, [r4, #3]
 105:main.c        ****             SendCANPacket(&can_send);
 381              		.loc 1 105 0
 382 0086 2671     		strb	r6, [r4, #4]
 106:main.c        ****             CyDelay(1000);
 383              		.loc 1 106 0
 384 0088 2000     		movs	r0, r4
 385 008a FFF7FEFF 		bl	SendCANPacket
ARM GAS  C:\Users\Austcha\AppData\Local\Temp\ccAwSRUb.s 			page 11


 386              	.LVL34:
 107:main.c        ****             can_send.data[0] = 0;
 387              		.loc 1 107 0
 388 008e FA27     		movs	r7, #250
 389 0090 BF00     		lsls	r7, r7, #2
 390 0092 3800     		movs	r0, r7
 391 0094 FFF7FEFF 		bl	CyDelay
 392              	.LVL35:
 108:main.c        ****             can_send.data[1] = MOTOR_UNIT_MODE_PID;
 393              		.loc 1 108 0
 394 0098 E670     		strb	r6, [r4, #3]
 109:main.c        ****             SendCANPacket(&can_send);
 395              		.loc 1 109 0
 396 009a 0123     		movs	r3, #1
 397 009c 2371     		strb	r3, [r4, #4]
 110:main.c        ****             CyDelay(1000);
 398              		.loc 1 110 0
 399 009e 2000     		movs	r0, r4
 400 00a0 FFF7FEFF 		bl	SendCANPacket
 401              	.LVL36:
 111:main.c        ****         break;
 402              		.loc 1 111 0
 403 00a4 3800     		movs	r0, r7
 404 00a6 FFF7FEFF 		bl	CyDelay
 405              	.LVL37:
 112:main.c        ****         case(2):
 406              		.loc 1 112 0
 407 00aa C6E7     		b	.L14
 408              	.LVL38:
 409              	.L21:
 410              	.LBB3:
 115:main.c        ****              }
 411              		.loc 1 115 0 discriminator 3
 412 00ac 01AA     		add	r2, sp, #4
 413 00ae D218     		adds	r2, r2, r3
 414 00b0 0021     		movs	r1, #0
 415 00b2 D170     		strb	r1, [r2, #3]
 114:main.c        ****                 can_send.data[i] = 0;
 416              		.loc 1 114 0 discriminator 3
 417 00b4 0133     		adds	r3, r3, #1
 418              	.LVL39:
 419 00b6 00E0     		b	.L17
 420              	.LVL40:
 421              	.L24:
 422              	.LBE3:
  91:main.c        ****         case(0)://spam
 423              		.loc 1 91 0
 424 00b8 0023     		movs	r3, #0
 425              	.L17:
 426              	.LVL41:
 427              	.LBB4:
 114:main.c        ****                 can_send.data[i] = 0;
 428              		.loc 1 114 0 discriminator 1
 429 00ba 072B     		cmp	r3, #7
 430 00bc F6DD     		ble	.L21
 431              	.LBE4:
 117:main.c        ****             can_send.data[1] = MOTOR_UNIT_MODE_PWM;
ARM GAS  C:\Users\Austcha\AppData\Local\Temp\ccAwSRUb.s 			page 12


 432              		.loc 1 117 0
 433 00be 01AC     		add	r4, sp, #4
 434 00c0 0023     		movs	r3, #0
 435              	.LVL42:
 436 00c2 E370     		strb	r3, [r4, #3]
 118:main.c        ****             SendCANPacket(&can_send);
 437              		.loc 1 118 0
 438 00c4 2371     		strb	r3, [r4, #4]
 119:main.c        ****             CyDelay(1000);
 439              		.loc 1 119 0
 440 00c6 2000     		movs	r0, r4
 441 00c8 FFF7FEFF 		bl	SendCANPacket
 442              	.LVL43:
 120:main.c        ****             can_send.data[0] = 3;
 443              		.loc 1 120 0
 444 00cc FA20     		movs	r0, #250
 445 00ce 8000     		lsls	r0, r0, #2
 446 00d0 FFF7FEFF 		bl	CyDelay
 447              	.LVL44:
 121:main.c        ****             for(int i = 0; i < 65535; i+= 1000) {
 448              		.loc 1 121 0
 449 00d4 0323     		movs	r3, #3
 450 00d6 E370     		strb	r3, [r4, #3]
 451              	.LVL45:
 452              	.LBB5:
 122:main.c        ****             PackIntIntoDataMSBFirst(can_send.data,i,1);
 453              		.loc 1 122 0
 454 00d8 0024     		movs	r4, #0
 455 00da 1BE0     		b	.L22
 456              	.LVL46:
 457              	.L23:
 123:main.c        ****             SendCANPacket(&can_send);
 458              		.loc 1 123 0 discriminator 3
 459 00dc 0122     		movs	r2, #1
 460 00de 2100     		movs	r1, r4
 461 00e0 6B46     		mov	r3, sp
 462 00e2 D81D     		adds	r0, r3, #7
 463 00e4 FFF7FEFF 		bl	PackIntIntoDataMSBFirst
 464              	.LVL47:
 124:main.c        ****             CyDelay(100);
 465              		.loc 1 124 0 discriminator 3
 466 00e8 01A8     		add	r0, sp, #4
 467 00ea FFF7FEFF 		bl	SendCANPacket
 468              	.LVL48:
 125:main.c        ****             PackIntIntoDataMSBFirst(can_send.data,-i,1);
 469              		.loc 1 125 0 discriminator 3
 470 00ee 6420     		movs	r0, #100
 471 00f0 FFF7FEFF 		bl	CyDelay
 472              	.LVL49:
 126:main.c        ****             SendCANPacket(&can_send);
 473              		.loc 1 126 0 discriminator 3
 474 00f4 6142     		rsbs	r1, r4, #0
 475 00f6 0122     		movs	r2, #1
 476 00f8 6B46     		mov	r3, sp
 477 00fa D81D     		adds	r0, r3, #7
 478 00fc FFF7FEFF 		bl	PackIntIntoDataMSBFirst
 479              	.LVL50:
ARM GAS  C:\Users\Austcha\AppData\Local\Temp\ccAwSRUb.s 			page 13


 127:main.c        ****             CyDelay(100);
 480              		.loc 1 127 0 discriminator 3
 481 0100 01A8     		add	r0, sp, #4
 482 0102 FFF7FEFF 		bl	SendCANPacket
 483              	.LVL51:
 128:main.c        ****             
 484              		.loc 1 128 0 discriminator 3
 485 0106 6420     		movs	r0, #100
 486 0108 FFF7FEFF 		bl	CyDelay
 487              	.LVL52:
 122:main.c        ****             PackIntIntoDataMSBFirst(can_send.data,i,1);
 488              		.loc 1 122 0 discriminator 3
 489 010c FA23     		movs	r3, #250
 490 010e 9B00     		lsls	r3, r3, #2
 491 0110 9C46     		mov	ip, r3
 492 0112 6444     		add	r4, r4, ip
 493              	.LVL53:
 494              	.L22:
 122:main.c        ****             PackIntIntoDataMSBFirst(can_send.data,i,1);
 495              		.loc 1 122 0 is_stmt 0 discriminator 1
 496 0114 024B     		ldr	r3, .L25+4
 497 0116 9C42     		cmp	r4, r3
 498 0118 E0DD     		ble	.L23
 499 011a 8EE7     		b	.L14
 500              	.L26:
 501              		.align	2
 502              	.L25:
 503 011c 00000000 		.word	.LANCHOR0
 504 0120 FEFF0000 		.word	65534
 505              	.LBE5:
 506              		.cfi_endproc
 507              	.LFE37:
 508              		.size	main, .-main
 509              		.section	.text.PrintCanPacket,"ax",%progbits
 510              		.align	2
 511              		.global	PrintCanPacket
 512              		.code	16
 513              		.thumb_func
 514              		.type	PrintCanPacket, %function
 515              	PrintCanPacket:
 516              	.LFB39:
 162:main.c        **** 
 163:main.c        **** void PrintCanPacket(CANPacket receivedPacket){
 517              		.loc 1 163 0 is_stmt 1
 518              		.cfi_startproc
 519              		@ args = 0, pretend = 0, frame = 16
 520              		@ frame_needed = 0, uses_anonymous_args = 0
 521 0000 30B5     		push	{r4, r5, lr}
 522              		.cfi_def_cfa_offset 12
 523              		.cfi_offset 4, -12
 524              		.cfi_offset 5, -8
 525              		.cfi_offset 14, -4
 526 0002 85B0     		sub	sp, sp, #20
 527              		.cfi_def_cfa_offset 32
 528 0004 0190     		str	r0, [sp, #4]
 529 0006 0291     		str	r1, [sp, #8]
 530 0008 0392     		str	r2, [sp, #12]
ARM GAS  C:\Users\Austcha\AppData\Local\Temp\ccAwSRUb.s 			page 14


 531              	.LVL54:
 532              	.LBB6:
 164:main.c        ****     for(int i = 0; i < 8; i++ ) {
 533              		.loc 1 164 0
 534 000a 0023     		movs	r3, #0
 535 000c 0EE0     		b	.L28
 536              	.LVL55:
 537              	.L29:
 165:main.c        ****         sprintf(txData,"Byte%d %x   ", i+1, receivedPacket.data[i]);
 538              		.loc 1 165 0 discriminator 3
 539 000e 5C1C     		adds	r4, r3, #1
 540 0010 01AA     		add	r2, sp, #4
 541 0012 9446     		mov	ip, r2
 542 0014 6344     		add	r3, r3, ip
 543              	.LVL56:
 544 0016 DB78     		ldrb	r3, [r3, #3]
 545 0018 0B4D     		ldr	r5, .L30
 546 001a 2200     		movs	r2, r4
 547 001c 0B49     		ldr	r1, .L30+4
 548 001e 2800     		movs	r0, r5
 549 0020 FFF7FEFF 		bl	sprintf
 550              	.LVL57:
 166:main.c        ****         UART_UartPutString(txData);
 551              		.loc 1 166 0 discriminator 3
 552 0024 2800     		movs	r0, r5
 553 0026 FFF7FEFF 		bl	UART_UartPutString
 554              	.LVL58:
 164:main.c        ****     for(int i = 0; i < 8; i++ ) {
 555              		.loc 1 164 0 discriminator 3
 556 002a 2300     		movs	r3, r4
 557              	.LVL59:
 558              	.L28:
 164:main.c        ****     for(int i = 0; i < 8; i++ ) {
 559              		.loc 1 164 0 is_stmt 0 discriminator 1
 560 002c 072B     		cmp	r3, #7
 561 002e EEDD     		ble	.L29
 562              	.LBE6:
 167:main.c        ****     }
 168:main.c        **** 
 169:main.c        ****     sprintf(txData,"\r\n");
 563              		.loc 1 169 0 is_stmt 1
 564 0030 054C     		ldr	r4, .L30
 565 0032 0322     		movs	r2, #3
 566 0034 0649     		ldr	r1, .L30+8
 567 0036 2000     		movs	r0, r4
 568 0038 FFF7FEFF 		bl	memcpy
 569              	.LVL60:
 170:main.c        ****     UART_UartPutString(txData);
 570              		.loc 1 170 0
 571 003c 2000     		movs	r0, r4
 572 003e FFF7FEFF 		bl	UART_UartPutString
 573              	.LVL61:
 171:main.c        **** }
 574              		.loc 1 171 0
 575 0042 05B0     		add	sp, sp, #20
 576              		@ sp needed
 577 0044 30BD     		pop	{r4, r5, pc}
ARM GAS  C:\Users\Austcha\AppData\Local\Temp\ccAwSRUb.s 			page 15


 578              	.L31:
 579 0046 C046     		.align	2
 580              	.L30:
 581 0048 00000000 		.word	txData
 582 004c 10000000 		.word	.LC9
 583 0050 20000000 		.word	.LC12
 584              		.cfi_endproc
 585              	.LFE39:
 586              		.size	PrintCanPacket, .-PrintCanPacket
 587              		.comm	rxMailbox,16,4
 588              		.comm	test,4,4
 589              		.global	drive
 590              		.global	address
 591              		.global	mode
 592              		.global	invalidate
 593              		.comm	txData,100,4
 594              		.global	send_animation
 595              		.global	time_LED
 596              		.data
 597              		.type	mode, %object
 598              		.size	mode, 1
 599              	mode:
 600 0000 FF       		.byte	-1
 601              		.section	.rodata.str1.4,"aMS",%progbits,1
 602              		.align	2
 603              	.LC3:
 604 0000 44697020 		.ascii	"Dip Addr: %x \015\012\000"
 604      41646472 
 604      3A202578 
 604      200D0A00 
 605              	.LC9:
 606 0010 42797465 		.ascii	"Byte%d %x   \000"
 606      25642025 
 606      78202020 
 606      00
 607 001d 000000   		.space	3
 608              	.LC12:
 609 0020 0D0A00   		.ascii	"\015\012\000"
 610              		.bss
 611              		.set	.LANCHOR0,. + 0
 612              		.type	invalidate, %object
 613              		.size	invalidate, 1
 614              	invalidate:
 615 0000 00       		.space	1
 616              		.type	time_LED, %object
 617              		.size	time_LED, 1
 618              	time_LED:
 619 0001 00       		.space	1
 620              		.type	send_animation, %object
 621              		.size	send_animation, 1
 622              	send_animation:
 623 0002 00       		.space	1
 624              		.type	address, %object
 625              		.size	address, 1
 626              	address:
 627 0003 00       		.space	1
 628              		.type	drive, %object
ARM GAS  C:\Users\Austcha\AppData\Local\Temp\ccAwSRUb.s 			page 16


 629              		.size	drive, 1
 630              	drive:
 631 0004 00       		.space	1
 632              		.text
 633              	.Letext0:
 634              		.file 2 "c:\\program files (x86)\\cypress\\psoc creator\\4.3\\psoc creator\\import\\gnu\\arm\\5.4.
 635              		.file 3 "c:\\program files (x86)\\cypress\\psoc creator\\4.3\\psoc creator\\import\\gnu\\arm\\5.4.
 636              		.file 4 "Generated_Source\\PSoC4/cytypes.h"
 637              		.file 5 "./../CANLib/CANPacket.h"
 638              		.file 6 "Generated_Source\\PSoC4/CAN.h"
 639              		.file 7 "Generated_Source\\PSoC4/Timer_1.h"
 640              		.file 8 "Generated_Source\\PSoC4/StripLights.h"
 641              		.file 9 "LED_Array.h"
 642              		.file 10 "MotorDrive.h"
 643              		.file 11 "Generated_Source\\PSoC4/QuadDec.h"
 644              		.file 12 "Generated_Source\\PSoC4/Can_addr.h"
 645              		.file 13 "Generated_Source\\PSoC4/UART.h"
 646              		.file 14 "c:\\program files (x86)\\cypress\\psoc creator\\4.3\\psoc creator\\import\\gnu\\arm\\5.4
 647              		.file 15 "Generated_Source\\PSoC4/UART_SPI_UART.h"
 648              		.file 16 "Generated_Source\\PSoC4/ERROR_LED.h"
 649              		.file 17 "Generated_Source\\PSoC4/Debug_2.h"
 650              		.file 18 "Generated_Source\\PSoC4/Debug_1.h"
 651              		.file 19 "Generated_Source\\PSoC4/CAN_LED.h"
 652              		.file 20 "./../CANLib/Port.h"
 653              		.file 21 "Generated_Source\\PSoC4/isr_Limit_1.h"
 654              		.file 22 "Generated_Source\\PSoC4/isr_period.h"
 655              		.file 23 "Generated_Source\\PSoC4/CyLib.h"