ARM GAS  C:\Users\Austcha\AppData\Local\Temp\ccHcN3ZT.s 			page 1


   1              		.syntax unified
   2              		.cpu cortex-m0
   3              		.fpu softvfp
   4              		.eabi_attribute 20, 1
   5              		.eabi_attribute 21, 1
   6              		.eabi_attribute 23, 3
   7              		.eabi_attribute 24, 1
   8              		.eabi_attribute 25, 1
   9              		.eabi_attribute 26, 1
  10              		.eabi_attribute 30, 1
  11              		.eabi_attribute 34, 0
  12              		.eabi_attribute 18, 4
  13              		.thumb
  14              		.syntax unified
  15              		.file	"PortPSOC_CY8C4248AZI_L485.c"
  16              		.text
  17              	.Ltext0:
  18              		.cfi_sections	.debug_frame
  19              		.section	.text.InitCAN,"ax",%progbits
  20              		.align	2
  21              		.global	InitCAN
  22              		.code	16
  23              		.thumb_func
  24              		.type	InitCAN, %function
  25              	InitCAN:
  26              	.LFB34:
  27              		.file 1 "..\\CANLib\\PortFiles\\PortPSOC_CY8C4248AZI_L485.c"
   1:..\CANLib\PortFiles/PortPSOC_CY8C4248AZI_L485.c **** /*
   2:..\CANLib\PortFiles/PortPSOC_CY8C4248AZI_L485.c ****  * Documentation: https://huskyroboticsteam.slite.com/app/channels/iU0BryG7M9/collections/aXvWTcIR6
   3:..\CANLib\PortFiles/PortPSOC_CY8C4248AZI_L485.c ****  * 
   4:..\CANLib\PortFiles/PortPSOC_CY8C4248AZI_L485.c ****  * Port specific notes:
   5:..\CANLib\PortFiles/PortPSOC_CY8C4248AZI_L485.c ****  * Design must include a CAN block called CAN (not CAN0 or variation)
   6:..\CANLib\PortFiles/PortPSOC_CY8C4248AZI_L485.c ****  * Must auto generate code within PSoC IDE to use APIs
   7:..\CANLib\PortFiles/PortPSOC_CY8C4248AZI_L485.c ****  */
   8:..\CANLib\PortFiles/PortPSOC_CY8C4248AZI_L485.c **** #if CHIP_TYPE == CHIP_TYPE_PSOC_CY8C4248AZI_L485//Replace this with the chip you are porting
   9:..\CANLib\PortFiles/PortPSOC_CY8C4248AZI_L485.c **** 
  10:..\CANLib\PortFiles/PortPSOC_CY8C4248AZI_L485.c **** #include "../Port.h"
  11:..\CANLib\PortFiles/PortPSOC_CY8C4248AZI_L485.c **** //#include "/home/dylan-wsl/Documents/HRT/Motor-Unit-Firmware-A-2019-2020/Generated_Source/PSoC4/CA
  12:..\CANLib\PortFiles/PortPSOC_CY8C4248AZI_L485.c **** //Use include below for code, above is just for development
  13:..\CANLib\PortFiles/PortPSOC_CY8C4248AZI_L485.c **** #include "../../Generated_Source/PSoC4/CAN.h"
  14:..\CANLib\PortFiles/PortPSOC_CY8C4248AZI_L485.c **** 
  15:..\CANLib\PortFiles/PortPSOC_CY8C4248AZI_L485.c **** //Flag internal to this port, 0xFF if no message waiting, doubles as mailbox number
  16:..\CANLib\PortFiles/PortPSOC_CY8C4248AZI_L485.c **** volatile uint8_t messagePresentFlag = 0xFF;
  17:..\CANLib\PortFiles/PortPSOC_CY8C4248AZI_L485.c **** volatile uint8_t messageReadFlag = 0x0;
  18:..\CANLib\PortFiles/PortPSOC_CY8C4248AZI_L485.c **** uint8_t FIFOSize(void);
  19:..\CANLib\PortFiles/PortPSOC_CY8C4248AZI_L485.c **** void countAddFIFO(void);
  20:..\CANLib\PortFiles/PortPSOC_CY8C4248AZI_L485.c **** void countRemoveFIFO(void);
  21:..\CANLib\PortFiles/PortPSOC_CY8C4248AZI_L485.c **** 
  22:..\CANLib\PortFiles/PortPSOC_CY8C4248AZI_L485.c **** #define FIFO_SIZE   16
  23:..\CANLib\PortFiles/PortPSOC_CY8C4248AZI_L485.c **** volatile CANPacket latestMessage[FIFO_SIZE];//internal to this port acts like a FIFO with 10 packet
  24:..\CANLib\PortFiles/PortPSOC_CY8C4248AZI_L485.c **** volatile uint8_t latestMessageHead = 0; //which index to read
  25:..\CANLib\PortFiles/PortPSOC_CY8C4248AZI_L485.c **** volatile uint8_t latestMessageTail = 0; //which index to write to next
  26:..\CANLib\PortFiles/PortPSOC_CY8C4248AZI_L485.c **** volatile uint8_t latestMessageFull = 0; //FIFO is full
  27:..\CANLib\PortFiles/PortPSOC_CY8C4248AZI_L485.c **** 
  28:..\CANLib\PortFiles/PortPSOC_CY8C4248AZI_L485.c **** #define STATUS_MAILBOX0 0x1
  29:..\CANLib\PortFiles/PortPSOC_CY8C4248AZI_L485.c **** #define STATUS_MAILBOX1 0x2
  30:..\CANLib\PortFiles/PortPSOC_CY8C4248AZI_L485.c **** #define STATUS_MAILBOX2 0x4
ARM GAS  C:\Users\Austcha\AppData\Local\Temp\ccHcN3ZT.s 			page 2


  31:..\CANLib\PortFiles/PortPSOC_CY8C4248AZI_L485.c **** #define STATUS_MAILBOX3 0x8
  32:..\CANLib\PortFiles/PortPSOC_CY8C4248AZI_L485.c **** #define STATUS_MAILBOX4 0x10
  33:..\CANLib\PortFiles/PortPSOC_CY8C4248AZI_L485.c **** #define STATUS_MAILBOX5 0x20
  34:..\CANLib\PortFiles/PortPSOC_CY8C4248AZI_L485.c **** 
  35:..\CANLib\PortFiles/PortPSOC_CY8C4248AZI_L485.c **** 
  36:..\CANLib\PortFiles/PortPSOC_CY8C4248AZI_L485.c **** CY_ISR_PROTO(CAN_FLAG_ISR);
  37:..\CANLib\PortFiles/PortPSOC_CY8C4248AZI_L485.c **** 
  38:..\CANLib\PortFiles/PortPSOC_CY8C4248AZI_L485.c **** int deviceAddress;
  39:..\CANLib\PortFiles/PortPSOC_CY8C4248AZI_L485.c **** int deviceGroup;
  40:..\CANLib\PortFiles/PortPSOC_CY8C4248AZI_L485.c **** CAN_RX_CFG rxMailbox;
  41:..\CANLib\PortFiles/PortPSOC_CY8C4248AZI_L485.c **** void InitCAN(int deviceGroupInput, int deviceAddressInput)
  42:..\CANLib\PortFiles/PortPSOC_CY8C4248AZI_L485.c **** {
  28              		.loc 1 42 0
  29              		.cfi_startproc
  30              		@ args = 0, pretend = 0, frame = 0
  31              		@ frame_needed = 0, uses_anonymous_args = 0
  32              	.LVL0:
  33 0000 F8B5     		push	{r3, r4, r5, r6, r7, lr}
  34              		.cfi_def_cfa_offset 24
  35              		.cfi_offset 3, -24
  36              		.cfi_offset 4, -20
  37              		.cfi_offset 5, -16
  38              		.cfi_offset 6, -12
  39              		.cfi_offset 7, -8
  40              		.cfi_offset 14, -4
  41 0002 0400     		movs	r4, r0
  42 0004 0D00     		movs	r5, r1
  43:..\CANLib\PortFiles/PortPSOC_CY8C4248AZI_L485.c ****     CAN_Start();//must name CAN Top Design block as "CAN"
  43              		.loc 1 43 0
  44 0006 FFF7FEFF 		bl	CAN_Start
  45              	.LVL1:
  44:..\CANLib\PortFiles/PortPSOC_CY8C4248AZI_L485.c ****     
  45:..\CANLib\PortFiles/PortPSOC_CY8C4248AZI_L485.c ****     //TODO: I'm sure there's a better way of doing this part
  46:..\CANLib\PortFiles/PortPSOC_CY8C4248AZI_L485.c ****     deviceGroup = deviceGroupInput & 0xF; // 4bits of ID
  46              		.loc 1 46 0
  47 000a 0F20     		movs	r0, #15
  48 000c 2040     		ands	r0, r4
  49 000e 194E     		ldr	r6, .L2
  50 0010 3060     		str	r0, [r6]
  47:..\CANLib\PortFiles/PortPSOC_CY8C4248AZI_L485.c ****     deviceAddress = deviceAddressInput & (0x3f);//6bits of ID
  51              		.loc 1 47 0
  52 0012 3F21     		movs	r1, #63
  53 0014 2940     		ands	r1, r5
  54 0016 184B     		ldr	r3, .L2+4
  55 0018 1960     		str	r1, [r3]
  48:..\CANLib\PortFiles/PortPSOC_CY8C4248AZI_L485.c ****     
  49:..\CANLib\PortFiles/PortPSOC_CY8C4248AZI_L485.c ****     //sets up inidvidual recieve mailbox (3rd priority mailbox)
  50:..\CANLib\PortFiles/PortPSOC_CY8C4248AZI_L485.c ****     rxMailbox.rxmailbox = 0;
  56              		.loc 1 50 0
  57 001a 184C     		ldr	r4, .L2+8
  58              	.LVL2:
  59 001c 0025     		movs	r5, #0
  60              	.LVL3:
  61 001e 2570     		strb	r5, [r4]
  51:..\CANLib\PortFiles/PortPSOC_CY8C4248AZI_L485.c ****     rxMailbox.rxacr = ((deviceGroup << 6)|(deviceAddress)) << 21;  // first 11 bits are the CAN ID 
  62              		.loc 1 51 0
  63 0020 8001     		lsls	r0, r0, #6
ARM GAS  C:\Users\Austcha\AppData\Local\Temp\ccHcN3ZT.s 			page 3


  64 0022 0843     		orrs	r0, r1
  65 0024 4005     		lsls	r0, r0, #21
  66 0026 E060     		str	r0, [r4, #12]
  52:..\CANLib\PortFiles/PortPSOC_CY8C4248AZI_L485.c ****     rxMailbox.rxamr = 0x801FFFFF; // what bits to ignore
  67              		.loc 1 52 0
  68 0028 154F     		ldr	r7, .L2+12
  69 002a A760     		str	r7, [r4, #8]
  53:..\CANLib\PortFiles/PortPSOC_CY8C4248AZI_L485.c ****     rxMailbox.rxcmd = CAN_RX_CMD_REG(CAN_RX_MAILBOX_0);//need to know what this is
  70              		.loc 1 53 0
  71 002c 154B     		ldr	r3, .L2+16
  72 002e 1B68     		ldr	r3, [r3]
  73 0030 6360     		str	r3, [r4, #4]
  54:..\CANLib\PortFiles/PortPSOC_CY8C4248AZI_L485.c ****     CAN_RxBufConfig(&rxMailbox);
  74              		.loc 1 54 0
  75 0032 2000     		movs	r0, r4
  76 0034 FFF7FEFF 		bl	CAN_RxBufConfig
  77              	.LVL4:
  55:..\CANLib\PortFiles/PortPSOC_CY8C4248AZI_L485.c ****     
  56:..\CANLib\PortFiles/PortPSOC_CY8C4248AZI_L485.c ****     //setup broadcast recieve mailbox (1st priority mailbox)
  57:..\CANLib\PortFiles/PortPSOC_CY8C4248AZI_L485.c ****     rxMailbox.rxmailbox = 1;
  78              		.loc 1 57 0
  79 0038 0123     		movs	r3, #1
  80 003a 2370     		strb	r3, [r4]
  58:..\CANLib\PortFiles/PortPSOC_CY8C4248AZI_L485.c ****     rxMailbox.rxacr = ((0x0 << 6)|(0x0)) << 21; //0x20F<<21; // first 11 bits are the CAN ID that i
  81              		.loc 1 58 0
  82 003c E560     		str	r5, [r4, #12]
  59:..\CANLib\PortFiles/PortPSOC_CY8C4248AZI_L485.c ****     rxMailbox.rxamr = 0x801FFFFF; // what bits to ignore
  83              		.loc 1 59 0
  84 003e A760     		str	r7, [r4, #8]
  60:..\CANLib\PortFiles/PortPSOC_CY8C4248AZI_L485.c ****     rxMailbox.rxcmd = CAN_RX_CMD_REG(CAN_RX_MAILBOX_1);//need to know what this is
  85              		.loc 1 60 0
  86 0040 114B     		ldr	r3, .L2+20
  87 0042 1B68     		ldr	r3, [r3]
  88 0044 6360     		str	r3, [r4, #4]
  61:..\CANLib\PortFiles/PortPSOC_CY8C4248AZI_L485.c ****     CAN_RxBufConfig(&rxMailbox);
  89              		.loc 1 61 0
  90 0046 2000     		movs	r0, r4
  91 0048 FFF7FEFF 		bl	CAN_RxBufConfig
  92              	.LVL5:
  62:..\CANLib\PortFiles/PortPSOC_CY8C4248AZI_L485.c ****     
  63:..\CANLib\PortFiles/PortPSOC_CY8C4248AZI_L485.c ****     //setup group broadcast recieve mailbox (2nd priority mailbox)
  64:..\CANLib\PortFiles/PortPSOC_CY8C4248AZI_L485.c ****     rxMailbox.rxmailbox = 2;
  93              		.loc 1 64 0
  94 004c 0223     		movs	r3, #2
  95 004e 2370     		strb	r3, [r4]
  65:..\CANLib\PortFiles/PortPSOC_CY8C4248AZI_L485.c ****     rxMailbox.rxacr = ((deviceGroup << 6)|(0x0)) << 21; //0x20F<<21; // first 11 bits are the CAN I
  96              		.loc 1 65 0
  97 0050 3368     		ldr	r3, [r6]
  98 0052 DB06     		lsls	r3, r3, #27
  99 0054 E360     		str	r3, [r4, #12]
  66:..\CANLib\PortFiles/PortPSOC_CY8C4248AZI_L485.c ****     rxMailbox.rxamr = 0x801FFFFF; // what bits to ignore
 100              		.loc 1 66 0
 101 0056 A760     		str	r7, [r4, #8]
  67:..\CANLib\PortFiles/PortPSOC_CY8C4248AZI_L485.c ****     rxMailbox.rxcmd = CAN_RX_CMD_REG(CAN_RX_MAILBOX_2);//need to know what this is
 102              		.loc 1 67 0
 103 0058 0C4B     		ldr	r3, .L2+24
 104 005a 1B68     		ldr	r3, [r3]
ARM GAS  C:\Users\Austcha\AppData\Local\Temp\ccHcN3ZT.s 			page 4


 105 005c 6360     		str	r3, [r4, #4]
  68:..\CANLib\PortFiles/PortPSOC_CY8C4248AZI_L485.c ****     CAN_RxBufConfig(&rxMailbox);
 106              		.loc 1 68 0
 107 005e 2000     		movs	r0, r4
 108 0060 FFF7FEFF 		bl	CAN_RxBufConfig
 109              	.LVL6:
  69:..\CANLib\PortFiles/PortPSOC_CY8C4248AZI_L485.c ****     
  70:..\CANLib\PortFiles/PortPSOC_CY8C4248AZI_L485.c ****     CAN_GlobalIntEnable();
 110              		.loc 1 70 0
 111 0064 FFF7FEFF 		bl	CAN_GlobalIntEnable
 112              	.LVL7:
  71:..\CANLib\PortFiles/PortPSOC_CY8C4248AZI_L485.c ****     CyIntSetVector(CAN_ISR_NUMBER, CAN_FLAG_ISR);
 113              		.loc 1 71 0
 114 0068 0949     		ldr	r1, .L2+28
 115 006a 1D20     		movs	r0, #29
 116 006c FFF7FEFF 		bl	CyIntSetVector
 117              	.LVL8:
  72:..\CANLib\PortFiles/PortPSOC_CY8C4248AZI_L485.c ****     //CY_ISR_PROTO(CAN_FLAG_ISR);
  73:..\CANLib\PortFiles/PortPSOC_CY8C4248AZI_L485.c ****     
  74:..\CANLib\PortFiles/PortPSOC_CY8C4248AZI_L485.c **** }
 118              		.loc 1 74 0
 119              		@ sp needed
 120 0070 F8BD     		pop	{r3, r4, r5, r6, r7, pc}
 121              	.L3:
 122 0072 C046     		.align	2
 123              	.L2:
 124 0074 00000000 		.word	deviceGroup
 125 0078 00000000 		.word	deviceAddress
 126 007c 00000000 		.word	rxMailbox
 127 0080 FFFF1F80 		.word	-2145386497
 128 0084 A0002F40 		.word	1076822176
 129 0088 C0002F40 		.word	1076822208
 130 008c E0002F40 		.word	1076822240
 131 0090 00000000 		.word	CAN_FLAG_ISR
 132              		.cfi_endproc
 133              	.LFE34:
 134              		.size	InitCAN, .-InitCAN
 135              		.section	.text.SendCANPacket,"ax",%progbits
 136              		.align	2
 137              		.global	SendCANPacket
 138              		.code	16
 139              		.thumb_func
 140              		.type	SendCANPacket, %function
 141              	SendCANPacket:
 142              	.LFB35:
  75:..\CANLib\PortFiles/PortPSOC_CY8C4248AZI_L485.c **** int SendCANPacket(CANPacket *packetToSend)
  76:..\CANLib\PortFiles/PortPSOC_CY8C4248AZI_L485.c **** {
 143              		.loc 1 76 0
 144              		.cfi_startproc
 145              		@ args = 0, pretend = 0, frame = 24
 146              		@ frame_needed = 0, uses_anonymous_args = 0
 147              	.LVL9:
 148 0000 10B5     		push	{r4, lr}
 149              		.cfi_def_cfa_offset 8
 150              		.cfi_offset 4, -8
 151              		.cfi_offset 14, -4
 152 0002 86B0     		sub	sp, sp, #24
ARM GAS  C:\Users\Austcha\AppData\Local\Temp\ccHcN3ZT.s 			page 5


 153              		.cfi_def_cfa_offset 32
  77:..\CANLib\PortFiles/PortPSOC_CY8C4248AZI_L485.c ****     if(!packetToSend) {return ERROR_NULL_POINTER;}
 154              		.loc 1 77 0
 155 0004 0028     		cmp	r0, #0
 156 0006 15D0     		beq	.L6
  78:..\CANLib\PortFiles/PortPSOC_CY8C4248AZI_L485.c ****     CAN_TX_MSG PSoCMessage;//CAN structure
  79:..\CANLib\PortFiles/PortPSOC_CY8C4248AZI_L485.c ****     CAN_DATA_BYTES_MSG PSoCData;//CAN data
  80:..\CANLib\PortFiles/PortPSOC_CY8C4248AZI_L485.c ****     PSoCMessage.id = packetToSend->id;
 157              		.loc 1 80 0
 158 0008 0388     		ldrh	r3, [r0]
 159 000a 02AC     		add	r4, sp, #8
 160 000c 0293     		str	r3, [sp, #8]
  81:..\CANLib\PortFiles/PortPSOC_CY8C4248AZI_L485.c ****     PSoCMessage.rtr = 0x0;
 161              		.loc 1 81 0
 162 000e 0023     		movs	r3, #0
 163 0010 2371     		strb	r3, [r4, #4]
  82:..\CANLib\PortFiles/PortPSOC_CY8C4248AZI_L485.c ****     PSoCMessage.ide = 0x0;//Not extended
 164              		.loc 1 82 0
 165 0012 6371     		strb	r3, [r4, #5]
  83:..\CANLib\PortFiles/PortPSOC_CY8C4248AZI_L485.c ****     PSoCMessage.dlc = packetToSend->dlc;
 166              		.loc 1 83 0
 167 0014 8278     		ldrb	r2, [r0, #2]
 168 0016 A271     		strb	r2, [r4, #6]
  84:..\CANLib\PortFiles/PortPSOC_CY8C4248AZI_L485.c ****     PSoCMessage.irq = 0x0;
 169              		.loc 1 84 0
 170 0018 E371     		strb	r3, [r4, #7]
  85:..\CANLib\PortFiles/PortPSOC_CY8C4248AZI_L485.c ****     PSoCMessage.msg = &PSoCData;
 171              		.loc 1 85 0
 172 001a 6B46     		mov	r3, sp
 173 001c 0593     		str	r3, [sp, #20]
  86:..\CANLib\PortFiles/PortPSOC_CY8C4248AZI_L485.c ****     
  87:..\CANLib\PortFiles/PortPSOC_CY8C4248AZI_L485.c ****     memcpy(PSoCData.byte, packetToSend->data, 8);
 174              		.loc 1 87 0
 175 001e C11C     		adds	r1, r0, #3
 176 0020 0822     		movs	r2, #8
 177 0022 6846     		mov	r0, sp
 178              	.LVL10:
 179 0024 FFF7FEFF 		bl	memcpy
 180              	.LVL11:
  88:..\CANLib\PortFiles/PortPSOC_CY8C4248AZI_L485.c **** 
  89:..\CANLib\PortFiles/PortPSOC_CY8C4248AZI_L485.c ****     if(CAN_SendMsg(&PSoCMessage) == CYRET_SUCCESS) {
 181              		.loc 1 89 0
 182 0028 2000     		movs	r0, r4
 183 002a FFF7FEFF 		bl	CAN_SendMsg
 184              	.LVL12:
 185 002e 0028     		cmp	r0, #0
 186 0030 02D1     		bne	.L7
 187 0032 02E0     		b	.L5
 188              	.LVL13:
 189              	.L6:
  77:..\CANLib\PortFiles/PortPSOC_CY8C4248AZI_L485.c ****     CAN_TX_MSG PSoCMessage;//CAN structure
 190              		.loc 1 77 0
 191 0034 0220     		movs	r0, #2
 192              	.LVL14:
 193 0036 00E0     		b	.L5
 194              	.L7:
  90:..\CANLib\PortFiles/PortPSOC_CY8C4248AZI_L485.c ****         return ERROR_NONE;
ARM GAS  C:\Users\Austcha\AppData\Local\Temp\ccHcN3ZT.s 			page 6


  91:..\CANLib\PortFiles/PortPSOC_CY8C4248AZI_L485.c ****     } else
  92:..\CANLib\PortFiles/PortPSOC_CY8C4248AZI_L485.c ****     {
  93:..\CANLib\PortFiles/PortPSOC_CY8C4248AZI_L485.c ****         return ERROR_GENERIC_ERROR;
 195              		.loc 1 93 0
 196 0038 0120     		movs	r0, #1
 197              	.L5:
  94:..\CANLib\PortFiles/PortPSOC_CY8C4248AZI_L485.c ****     }
  95:..\CANLib\PortFiles/PortPSOC_CY8C4248AZI_L485.c **** }
 198              		.loc 1 95 0
 199 003a 06B0     		add	sp, sp, #24
 200              		@ sp needed
 201 003c 10BD     		pop	{r4, pc}
 202              		.cfi_endproc
 203              	.LFE35:
 204              		.size	SendCANPacket, .-SendCANPacket
 205 003e C046     		.section	.text.getLocalDeviceSerial,"ax",%progbits
 206              		.align	2
 207              		.global	getLocalDeviceSerial
 208              		.code	16
 209              		.thumb_func
 210              		.type	getLocalDeviceSerial, %function
 211              	getLocalDeviceSerial:
 212              	.LFB37:
  96:..\CANLib\PortFiles/PortPSOC_CY8C4248AZI_L485.c **** //
  97:..\CANLib\PortFiles/PortPSOC_CY8C4248AZI_L485.c **** int PollAndReceiveCANPacket(CANPacket *receivedPacket)
  98:..\CANLib\PortFiles/PortPSOC_CY8C4248AZI_L485.c **** {
  99:..\CANLib\PortFiles/PortPSOC_CY8C4248AZI_L485.c ****     if(!receivedPacket) {
 100:..\CANLib\PortFiles/PortPSOC_CY8C4248AZI_L485.c ****         return ERROR_NULL_POINTER;
 101:..\CANLib\PortFiles/PortPSOC_CY8C4248AZI_L485.c ****     }
 102:..\CANLib\PortFiles/PortPSOC_CY8C4248AZI_L485.c ****     if(FIFOSize())
 103:..\CANLib\PortFiles/PortPSOC_CY8C4248AZI_L485.c ****     {
 104:..\CANLib\PortFiles/PortPSOC_CY8C4248AZI_L485.c ****         *(receivedPacket) = latestMessage[latestMessageHead];
 105:..\CANLib\PortFiles/PortPSOC_CY8C4248AZI_L485.c ****         countRemoveFIFO();
 106:..\CANLib\PortFiles/PortPSOC_CY8C4248AZI_L485.c ****         return ERROR_NONE;
 107:..\CANLib\PortFiles/PortPSOC_CY8C4248AZI_L485.c ****     }
 108:..\CANLib\PortFiles/PortPSOC_CY8C4248AZI_L485.c ****     return 0x02; //No message received error
 109:..\CANLib\PortFiles/PortPSOC_CY8C4248AZI_L485.c **** }
 110:..\CANLib\PortFiles/PortPSOC_CY8C4248AZI_L485.c **** 
 111:..\CANLib\PortFiles/PortPSOC_CY8C4248AZI_L485.c **** uint8_t getLocalDeviceSerial()
 112:..\CANLib\PortFiles/PortPSOC_CY8C4248AZI_L485.c **** {
 213              		.loc 1 112 0
 214              		.cfi_startproc
 215              		@ args = 0, pretend = 0, frame = 0
 216              		@ frame_needed = 0, uses_anonymous_args = 0
 217              		@ link register save eliminated.
 113:..\CANLib\PortFiles/PortPSOC_CY8C4248AZI_L485.c ****     //Reading DIP switches? Hard coded?
 114:..\CANLib\PortFiles/PortPSOC_CY8C4248AZI_L485.c ****     //This might be board specific, rather than chip specific.
 115:..\CANLib\PortFiles/PortPSOC_CY8C4248AZI_L485.c ****     return deviceAddress; // example value (also used for testing)
 218              		.loc 1 115 0
 219 0000 014B     		ldr	r3, .L9
 220 0002 1878     		ldrb	r0, [r3]
 116:..\CANLib\PortFiles/PortPSOC_CY8C4248AZI_L485.c **** }
 221              		.loc 1 116 0
 222              		@ sp needed
 223 0004 7047     		bx	lr
 224              	.L10:
 225 0006 C046     		.align	2
ARM GAS  C:\Users\Austcha\AppData\Local\Temp\ccHcN3ZT.s 			page 7


 226              	.L9:
 227 0008 00000000 		.word	deviceAddress
 228              		.cfi_endproc
 229              	.LFE37:
 230              		.size	getLocalDeviceSerial, .-getLocalDeviceSerial
 231              		.section	.text.getLocalDeviceGroup,"ax",%progbits
 232              		.align	2
 233              		.global	getLocalDeviceGroup
 234              		.code	16
 235              		.thumb_func
 236              		.type	getLocalDeviceGroup, %function
 237              	getLocalDeviceGroup:
 238              	.LFB38:
 117:..\CANLib\PortFiles/PortPSOC_CY8C4248AZI_L485.c **** uint8_t getLocalDeviceGroup()
 118:..\CANLib\PortFiles/PortPSOC_CY8C4248AZI_L485.c **** {
 239              		.loc 1 118 0
 240              		.cfi_startproc
 241              		@ args = 0, pretend = 0, frame = 0
 242              		@ frame_needed = 0, uses_anonymous_args = 0
 243              		@ link register save eliminated.
 119:..\CANLib\PortFiles/PortPSOC_CY8C4248AZI_L485.c ****     //Definitely board specific.
 120:..\CANLib\PortFiles/PortPSOC_CY8C4248AZI_L485.c ****     return deviceGroup; // example value (also used for testing)
 244              		.loc 1 120 0
 245 0000 014B     		ldr	r3, .L12
 246 0002 1878     		ldrb	r0, [r3]
 121:..\CANLib\PortFiles/PortPSOC_CY8C4248AZI_L485.c **** }
 247              		.loc 1 121 0
 248              		@ sp needed
 249 0004 7047     		bx	lr
 250              	.L13:
 251 0006 C046     		.align	2
 252              	.L12:
 253 0008 00000000 		.word	deviceGroup
 254              		.cfi_endproc
 255              	.LFE38:
 256              		.size	getLocalDeviceGroup, .-getLocalDeviceGroup
 257              		.section	.text.getChipType,"ax",%progbits
 258              		.align	2
 259              		.global	getChipType
 260              		.code	16
 261              		.thumb_func
 262              		.type	getChipType, %function
 263              	getChipType:
 264              	.LFB39:
 122:..\CANLib\PortFiles/PortPSOC_CY8C4248AZI_L485.c **** 
 123:..\CANLib\PortFiles/PortPSOC_CY8C4248AZI_L485.c **** uint8_t getChipType()
 124:..\CANLib\PortFiles/PortPSOC_CY8C4248AZI_L485.c **** {
 265              		.loc 1 124 0
 266              		.cfi_startproc
 267              		@ args = 0, pretend = 0, frame = 0
 268              		@ frame_needed = 0, uses_anonymous_args = 0
 269              		@ link register save eliminated.
 125:..\CANLib\PortFiles/PortPSOC_CY8C4248AZI_L485.c ****     return CHIP_TYPE; 
 126:..\CANLib\PortFiles/PortPSOC_CY8C4248AZI_L485.c ****     //Should be same for all ports, just not sure where to put it.
 127:..\CANLib\PortFiles/PortPSOC_CY8C4248AZI_L485.c **** }
 270              		.loc 1 127 0
 271 0000 0220     		movs	r0, #2
ARM GAS  C:\Users\Austcha\AppData\Local\Temp\ccHcN3ZT.s 			page 8


 272              		@ sp needed
 273 0002 7047     		bx	lr
 274              		.cfi_endproc
 275              	.LFE39:
 276              		.size	getChipType, .-getChipType
 277              		.section	.text.FIFOSize,"ax",%progbits
 278              		.align	2
 279              		.global	FIFOSize
 280              		.code	16
 281              		.thumb_func
 282              		.type	FIFOSize, %function
 283              	FIFOSize:
 284              	.LFB40:
 128:..\CANLib\PortFiles/PortPSOC_CY8C4248AZI_L485.c **** 
 129:..\CANLib\PortFiles/PortPSOC_CY8C4248AZI_L485.c **** //helper function calculate size of Fifo
 130:..\CANLib\PortFiles/PortPSOC_CY8C4248AZI_L485.c **** uint8_t FIFOSize(){
 285              		.loc 1 130 0
 286              		.cfi_startproc
 287              		@ args = 0, pretend = 0, frame = 0
 288              		@ frame_needed = 0, uses_anonymous_args = 0
 289              		@ link register save eliminated.
 131:..\CANLib\PortFiles/PortPSOC_CY8C4248AZI_L485.c ****     if(latestMessageFull) {
 290              		.loc 1 131 0
 291 0000 104B     		ldr	r3, .L19
 292 0002 1878     		ldrb	r0, [r3]
 293 0004 C0B2     		uxtb	r0, r0
 294 0006 0028     		cmp	r0, #0
 295 0008 19D1     		bne	.L18
 132:..\CANLib\PortFiles/PortPSOC_CY8C4248AZI_L485.c ****         return FIFO_SIZE;
 133:..\CANLib\PortFiles/PortPSOC_CY8C4248AZI_L485.c ****     }
 134:..\CANLib\PortFiles/PortPSOC_CY8C4248AZI_L485.c ****     else if(latestMessageHead < latestMessageTail) {
 296              		.loc 1 134 0
 297 000a 5A78     		ldrb	r2, [r3, #1]
 298 000c D2B2     		uxtb	r2, r2
 299 000e 9B78     		ldrb	r3, [r3, #2]
 300 0010 DBB2     		uxtb	r3, r3
 301 0012 9A42     		cmp	r2, r3
 302 0014 05D2     		bcs	.L17
 135:..\CANLib\PortFiles/PortPSOC_CY8C4248AZI_L485.c ****         return latestMessageHead - latestMessageTail;
 303              		.loc 1 135 0
 304 0016 0B4A     		ldr	r2, .L19
 305 0018 5378     		ldrb	r3, [r2, #1]
 306 001a 9078     		ldrb	r0, [r2, #2]
 307 001c 181A     		subs	r0, r3, r0
 308 001e C0B2     		uxtb	r0, r0
 309 0020 0EE0     		b	.L16
 310              	.L17:
 136:..\CANLib\PortFiles/PortPSOC_CY8C4248AZI_L485.c ****     }
 137:..\CANLib\PortFiles/PortPSOC_CY8C4248AZI_L485.c ****     else if(latestMessageHead > latestMessageTail) {
 311              		.loc 1 137 0
 312 0022 084B     		ldr	r3, .L19
 313 0024 5A78     		ldrb	r2, [r3, #1]
 314 0026 D2B2     		uxtb	r2, r2
 315 0028 9B78     		ldrb	r3, [r3, #2]
 316 002a DBB2     		uxtb	r3, r3
 317 002c 9A42     		cmp	r2, r3
 318 002e 07D9     		bls	.L16
ARM GAS  C:\Users\Austcha\AppData\Local\Temp\ccHcN3ZT.s 			page 9


 138:..\CANLib\PortFiles/PortPSOC_CY8C4248AZI_L485.c ****         return (FIFO_SIZE - latestMessageHead) + latestMessageTail;
 319              		.loc 1 138 0
 320 0030 044A     		ldr	r2, .L19
 321 0032 9378     		ldrb	r3, [r2, #2]
 322 0034 5078     		ldrb	r0, [r2, #1]
 323 0036 181A     		subs	r0, r3, r0
 324 0038 1030     		adds	r0, r0, #16
 325 003a C0B2     		uxtb	r0, r0
 326 003c 00E0     		b	.L16
 327              	.L18:
 132:..\CANLib\PortFiles/PortPSOC_CY8C4248AZI_L485.c ****     }
 328              		.loc 1 132 0
 329 003e 1020     		movs	r0, #16
 330              	.L16:
 139:..\CANLib\PortFiles/PortPSOC_CY8C4248AZI_L485.c ****     }
 140:..\CANLib\PortFiles/PortPSOC_CY8C4248AZI_L485.c ****     else { // latestMessageHead == latestMessageTail && !latestMessageFull
 141:..\CANLib\PortFiles/PortPSOC_CY8C4248AZI_L485.c ****         return 0;
 142:..\CANLib\PortFiles/PortPSOC_CY8C4248AZI_L485.c ****     }
 143:..\CANLib\PortFiles/PortPSOC_CY8C4248AZI_L485.c **** }
 331              		.loc 1 143 0
 332              		@ sp needed
 333 0040 7047     		bx	lr
 334              	.L20:
 335 0042 C046     		.align	2
 336              	.L19:
 337 0044 00000000 		.word	.LANCHOR0
 338              		.cfi_endproc
 339              	.LFE40:
 340              		.size	FIFOSize, .-FIFOSize
 341              		.section	.text.countAddFIFO,"ax",%progbits
 342              		.align	2
 343              		.global	countAddFIFO
 344              		.code	16
 345              		.thumb_func
 346              		.type	countAddFIFO, %function
 347              	countAddFIFO:
 348              	.LFB41:
 144:..\CANLib\PortFiles/PortPSOC_CY8C4248AZI_L485.c **** 
 145:..\CANLib\PortFiles/PortPSOC_CY8C4248AZI_L485.c **** void countAddFIFO(){ 
 349              		.loc 1 145 0
 350              		.cfi_startproc
 351              		@ args = 0, pretend = 0, frame = 0
 352              		@ frame_needed = 0, uses_anonymous_args = 0
 353              		@ link register save eliminated.
 146:..\CANLib\PortFiles/PortPSOC_CY8C4248AZI_L485.c ****     latestMessageTail++;
 354              		.loc 1 146 0
 355 0000 124A     		ldr	r2, .L24
 356 0002 9378     		ldrb	r3, [r2, #2]
 357 0004 0133     		adds	r3, r3, #1
 358 0006 DBB2     		uxtb	r3, r3
 359 0008 9370     		strb	r3, [r2, #2]
 147:..\CANLib\PortFiles/PortPSOC_CY8C4248AZI_L485.c ****     if(latestMessageTail >= FIFO_SIZE){
 360              		.loc 1 147 0
 361 000a 9378     		ldrb	r3, [r2, #2]
 362 000c DBB2     		uxtb	r3, r3
 363 000e 0F2B     		cmp	r3, #15
 364 0010 02D9     		bls	.L22
ARM GAS  C:\Users\Austcha\AppData\Local\Temp\ccHcN3ZT.s 			page 10


 148:..\CANLib\PortFiles/PortPSOC_CY8C4248AZI_L485.c ****         latestMessageTail = 0;
 365              		.loc 1 148 0
 366 0012 0022     		movs	r2, #0
 367 0014 0D4B     		ldr	r3, .L24
 368 0016 9A70     		strb	r2, [r3, #2]
 369              	.L22:
 149:..\CANLib\PortFiles/PortPSOC_CY8C4248AZI_L485.c ****     }
 150:..\CANLib\PortFiles/PortPSOC_CY8C4248AZI_L485.c ****     if(latestMessageFull) {
 370              		.loc 1 150 0
 371 0018 0C4B     		ldr	r3, .L24
 372 001a 1B78     		ldrb	r3, [r3]
 373 001c 002B     		cmp	r3, #0
 374 001e 0BD0     		beq	.L23
 151:..\CANLib\PortFiles/PortPSOC_CY8C4248AZI_L485.c ****         latestMessageHead++;
 375              		.loc 1 151 0
 376 0020 0A4A     		ldr	r2, .L24
 377 0022 5378     		ldrb	r3, [r2, #1]
 378 0024 0133     		adds	r3, r3, #1
 379 0026 DBB2     		uxtb	r3, r3
 380 0028 5370     		strb	r3, [r2, #1]
 152:..\CANLib\PortFiles/PortPSOC_CY8C4248AZI_L485.c ****         if(latestMessageHead >= FIFO_SIZE) {
 381              		.loc 1 152 0
 382 002a 5378     		ldrb	r3, [r2, #1]
 383 002c DBB2     		uxtb	r3, r3
 384 002e 0F2B     		cmp	r3, #15
 385 0030 02D9     		bls	.L23
 153:..\CANLib\PortFiles/PortPSOC_CY8C4248AZI_L485.c ****             latestMessageHead = 0;
 386              		.loc 1 153 0
 387 0032 0022     		movs	r2, #0
 388 0034 054B     		ldr	r3, .L24
 389 0036 5A70     		strb	r2, [r3, #1]
 390              	.L23:
 154:..\CANLib\PortFiles/PortPSOC_CY8C4248AZI_L485.c ****         }
 155:..\CANLib\PortFiles/PortPSOC_CY8C4248AZI_L485.c ****     }
 156:..\CANLib\PortFiles/PortPSOC_CY8C4248AZI_L485.c ****     latestMessageFull = (latestMessageHead == latestMessageTail);
 391              		.loc 1 156 0
 392 0038 044A     		ldr	r2, .L24
 393 003a 5378     		ldrb	r3, [r2, #1]
 394 003c 9178     		ldrb	r1, [r2, #2]
 395 003e 5B1A     		subs	r3, r3, r1
 396 0040 5942     		rsbs	r1, r3, #0
 397 0042 4B41     		adcs	r3, r3, r1
 398 0044 DBB2     		uxtb	r3, r3
 399 0046 1370     		strb	r3, [r2]
 157:..\CANLib\PortFiles/PortPSOC_CY8C4248AZI_L485.c **** }
 400              		.loc 1 157 0
 401              		@ sp needed
 402 0048 7047     		bx	lr
 403              	.L25:
 404 004a C046     		.align	2
 405              	.L24:
 406 004c 00000000 		.word	.LANCHOR0
 407              		.cfi_endproc
 408              	.LFE41:
 409              		.size	countAddFIFO, .-countAddFIFO
 410              		.section	.text.CAN_FLAG_ISR,"ax",%progbits
 411              		.align	2
ARM GAS  C:\Users\Austcha\AppData\Local\Temp\ccHcN3ZT.s 			page 11


 412              		.global	CAN_FLAG_ISR
 413              		.code	16
 414              		.thumb_func
 415              		.type	CAN_FLAG_ISR, %function
 416              	CAN_FLAG_ISR:
 417              	.LFB43:
 158:..\CANLib\PortFiles/PortPSOC_CY8C4248AZI_L485.c **** 
 159:..\CANLib\PortFiles/PortPSOC_CY8C4248AZI_L485.c **** void countRemoveFIFO(){
 160:..\CANLib\PortFiles/PortPSOC_CY8C4248AZI_L485.c ****     if(FIFOSize() > 0) {
 161:..\CANLib\PortFiles/PortPSOC_CY8C4248AZI_L485.c ****         latestMessageHead++;
 162:..\CANLib\PortFiles/PortPSOC_CY8C4248AZI_L485.c ****         if(latestMessageHead >= FIFO_SIZE) {
 163:..\CANLib\PortFiles/PortPSOC_CY8C4248AZI_L485.c ****             latestMessageHead = 0;
 164:..\CANLib\PortFiles/PortPSOC_CY8C4248AZI_L485.c ****         }
 165:..\CANLib\PortFiles/PortPSOC_CY8C4248AZI_L485.c ****     }
 166:..\CANLib\PortFiles/PortPSOC_CY8C4248AZI_L485.c **** }
 167:..\CANLib\PortFiles/PortPSOC_CY8C4248AZI_L485.c **** 
 168:..\CANLib\PortFiles/PortPSOC_CY8C4248AZI_L485.c **** 
 169:..\CANLib\PortFiles/PortPSOC_CY8C4248AZI_L485.c **** 
 170:..\CANLib\PortFiles/PortPSOC_CY8C4248AZI_L485.c **** CY_ISR(CAN_FLAG_ISR)
 171:..\CANLib\PortFiles/PortPSOC_CY8C4248AZI_L485.c **** {
 418              		.loc 1 171 0
 419              		.cfi_startproc
 420              		@ args = 0, pretend = 0, frame = 0
 421              		@ frame_needed = 0, uses_anonymous_args = 0
 422 0000 70B5     		push	{r4, r5, r6, lr}
 423              		.cfi_def_cfa_offset 16
 424              		.cfi_offset 4, -16
 425              		.cfi_offset 5, -12
 426              		.cfi_offset 6, -8
 427              		.cfi_offset 14, -4
 172:..\CANLib\PortFiles/PortPSOC_CY8C4248AZI_L485.c **** 
 173:..\CANLib\PortFiles/PortPSOC_CY8C4248AZI_L485.c ****     //*(reg32*)0x402F0000 = CAN_RX_MESSAGE_MASK & CAN_SST_FAILURE_MASK & CAN_CRC_ERROR_MASK; //Clea
 174:..\CANLib\PortFiles/PortPSOC_CY8C4248AZI_L485.c ****     CAN_INT_SR_REG = CAN_RX_MESSAGE_MASK;
 428              		.loc 1 174 0
 429 0002 8022     		movs	r2, #128
 430 0004 5201     		lsls	r2, r2, #5
 431 0006 444B     		ldr	r3, .L34
 432 0008 1A60     		str	r2, [r3]
 175:..\CANLib\PortFiles/PortPSOC_CY8C4248AZI_L485.c ****     uint32_t statusReg = (uint32_t) CAN_BUF_SR_REG; //Hardcoded for speed, translation from reg
 433              		.loc 1 175 0
 434 000a 444B     		ldr	r3, .L34+4
 435 000c 1B68     		ldr	r3, [r3]
 436              	.LVL15:
 176:..\CANLib\PortFiles/PortPSOC_CY8C4248AZI_L485.c ****     uint8_t mailbox;
 177:..\CANLib\PortFiles/PortPSOC_CY8C4248AZI_L485.c ****     
 178:..\CANLib\PortFiles/PortPSOC_CY8C4248AZI_L485.c ****     if(statusReg & 0b1) { // mailbox0 is full (individual)
 437              		.loc 1 178 0
 438 000e DA07     		lsls	r2, r3, #31
 439 0010 06D4     		bmi	.L30
 179:..\CANLib\PortFiles/PortPSOC_CY8C4248AZI_L485.c ****         mailbox = CAN_RX_MAILBOX_0;
 180:..\CANLib\PortFiles/PortPSOC_CY8C4248AZI_L485.c ****     }
 181:..\CANLib\PortFiles/PortPSOC_CY8C4248AZI_L485.c ****     else if(statusReg & 0b10) { // mailbox1 is full (broadcast)
 440              		.loc 1 181 0
 441 0012 9A07     		lsls	r2, r3, #30
 442 0014 06D4     		bmi	.L31
 182:..\CANLib\PortFiles/PortPSOC_CY8C4248AZI_L485.c ****         mailbox = CAN_RX_MAILBOX_1;
 183:..\CANLib\PortFiles/PortPSOC_CY8C4248AZI_L485.c ****     }    
ARM GAS  C:\Users\Austcha\AppData\Local\Temp\ccHcN3ZT.s 			page 12


 184:..\CANLib\PortFiles/PortPSOC_CY8C4248AZI_L485.c ****     else if(statusReg & 0b100) { // mailbox2 is full (group broadcast)
 443              		.loc 1 184 0
 444 0016 5A07     		lsls	r2, r3, #29
 445 0018 06D4     		bmi	.L32
 185:..\CANLib\PortFiles/PortPSOC_CY8C4248AZI_L485.c ****         mailbox = CAN_RX_MAILBOX_2;
 186:..\CANLib\PortFiles/PortPSOC_CY8C4248AZI_L485.c ****     } 
 187:..\CANLib\PortFiles/PortPSOC_CY8C4248AZI_L485.c ****     else if(statusReg & 0b1000) { // mailbox3 is full currently recieves anything will remove
 446              		.loc 1 187 0
 447 001a 1B07     		lsls	r3, r3, #28
 448 001c 06D4     		bmi	.L33
 449              	.LVL16:
 450 001e 06E0     		b	.L27
 451              	.LVL17:
 452              	.L30:
 179:..\CANLib\PortFiles/PortPSOC_CY8C4248AZI_L485.c ****     }
 453              		.loc 1 179 0
 454 0020 0024     		movs	r4, #0
 455 0022 04E0     		b	.L27
 456              	.L31:
 182:..\CANLib\PortFiles/PortPSOC_CY8C4248AZI_L485.c ****         mailbox = CAN_RX_MAILBOX_1;
 457              		.loc 1 182 0
 458 0024 0124     		movs	r4, #1
 459 0026 02E0     		b	.L27
 460              	.L32:
 185:..\CANLib\PortFiles/PortPSOC_CY8C4248AZI_L485.c ****         mailbox = CAN_RX_MAILBOX_2;
 461              		.loc 1 185 0
 462 0028 0224     		movs	r4, #2
 463 002a 00E0     		b	.L27
 464              	.LVL18:
 465              	.L33:
 188:..\CANLib\PortFiles/PortPSOC_CY8C4248AZI_L485.c ****         mailbox = CAN_RX_MAILBOX_3;
 466              		.loc 1 188 0
 467 002c 0324     		movs	r4, #3
 468              	.L27:
 469              	.LVL19:
 189:..\CANLib\PortFiles/PortPSOC_CY8C4248AZI_L485.c ****     }
 190:..\CANLib\PortFiles/PortPSOC_CY8C4248AZI_L485.c ****     
 191:..\CANLib\PortFiles/PortPSOC_CY8C4248AZI_L485.c ****     latestMessage[latestMessageTail].id = CAN_GET_RX_ID(mailbox);
 470              		.loc 1 191 0
 471 002e 3C4B     		ldr	r3, .L34+8
 472 0030 9A78     		ldrb	r2, [r3, #2]
 473 0032 D2B2     		uxtb	r2, r2
 474 0034 6401     		lsls	r4, r4, #5
 475              	.LVL20:
 476 0036 3B4B     		ldr	r3, .L34+12
 477 0038 9C46     		mov	ip, r3
 478 003a 6444     		add	r4, r4, ip
 479 003c 2368     		ldr	r3, [r4]
 480 003e DB02     		lsls	r3, r3, #11
 481 0040 02D4     		bmi	.L28
 482              		.loc 1 191 0 is_stmt 0 discriminator 1
 483 0042 6168     		ldr	r1, [r4, #4]
 484 0044 490D     		lsrs	r1, r1, #21
 485 0046 02E0     		b	.L29
 486              	.L28:
 487              		.loc 1 191 0 discriminator 2
 488 0048 6168     		ldr	r1, [r4, #4]
ARM GAS  C:\Users\Austcha\AppData\Local\Temp\ccHcN3ZT.s 			page 13


 489 004a C908     		lsrs	r1, r1, #3
 490 004c 89B2     		uxth	r1, r1
 491              	.L29:
 492              		.loc 1 191 0 discriminator 4
 493 004e 364B     		ldr	r3, .L34+16
 494 0050 5000     		lsls	r0, r2, #1
 495 0052 8218     		adds	r2, r0, r2
 496 0054 9000     		lsls	r0, r2, #2
 497 0056 C152     		strh	r1, [r0, r3]
 192:..\CANLib\PortFiles/PortPSOC_CY8C4248AZI_L485.c ****     latestMessage[latestMessageTail].dlc = CAN_GET_DLC(mailbox);
 498              		.loc 1 192 0 is_stmt 1 discriminator 4
 499 0058 314A     		ldr	r2, .L34+8
 500 005a 9178     		ldrb	r1, [r2, #2]
 501 005c C9B2     		uxtb	r1, r1
 502 005e 2068     		ldr	r0, [r4]
 503 0060 000C     		lsrs	r0, r0, #16
 504 0062 0F25     		movs	r5, #15
 505 0064 2840     		ands	r0, r5
 506 0066 4D00     		lsls	r5, r1, #1
 507 0068 6918     		adds	r1, r5, r1
 508 006a 8D00     		lsls	r5, r1, #2
 509 006c 5D19     		adds	r5, r3, r5
 510 006e A870     		strb	r0, [r5, #2]
 193:..\CANLib\PortFiles/PortPSOC_CY8C4248AZI_L485.c ****     latestMessage[latestMessageTail].data[0] = CAN_RX_DATA_BYTE1(mailbox);
 511              		.loc 1 193 0 discriminator 4
 512 0070 9178     		ldrb	r1, [r2, #2]
 513 0072 C9B2     		uxtb	r1, r1
 514 0074 A568     		ldr	r5, [r4, #8]
 515 0076 2D0E     		lsrs	r5, r5, #24
 516 0078 4800     		lsls	r0, r1, #1
 517 007a 4118     		adds	r1, r0, r1
 518 007c 8800     		lsls	r0, r1, #2
 519 007e 1818     		adds	r0, r3, r0
 520 0080 C570     		strb	r5, [r0, #3]
 194:..\CANLib\PortFiles/PortPSOC_CY8C4248AZI_L485.c ****     latestMessage[latestMessageTail].data[1] = CAN_RX_DATA_BYTE2(mailbox);
 521              		.loc 1 194 0 discriminator 4
 522 0082 9178     		ldrb	r1, [r2, #2]
 523 0084 C9B2     		uxtb	r1, r1
 524 0086 A068     		ldr	r0, [r4, #8]
 525 0088 000C     		lsrs	r0, r0, #16
 526 008a C0B2     		uxtb	r0, r0
 527 008c 4D00     		lsls	r5, r1, #1
 528 008e 6918     		adds	r1, r5, r1
 529 0090 8D00     		lsls	r5, r1, #2
 530 0092 5D19     		adds	r5, r3, r5
 531 0094 2871     		strb	r0, [r5, #4]
 195:..\CANLib\PortFiles/PortPSOC_CY8C4248AZI_L485.c ****     latestMessage[latestMessageTail].data[2] = CAN_RX_DATA_BYTE3(mailbox);
 532              		.loc 1 195 0 discriminator 4
 533 0096 9178     		ldrb	r1, [r2, #2]
 534 0098 C9B2     		uxtb	r1, r1
 535 009a A068     		ldr	r0, [r4, #8]
 536 009c 000A     		lsrs	r0, r0, #8
 537 009e C0B2     		uxtb	r0, r0
 538 00a0 4D00     		lsls	r5, r1, #1
 539 00a2 6918     		adds	r1, r5, r1
 540 00a4 8D00     		lsls	r5, r1, #2
 541 00a6 5D19     		adds	r5, r3, r5
ARM GAS  C:\Users\Austcha\AppData\Local\Temp\ccHcN3ZT.s 			page 14


 542 00a8 6871     		strb	r0, [r5, #5]
 196:..\CANLib\PortFiles/PortPSOC_CY8C4248AZI_L485.c ****     latestMessage[latestMessageTail].data[3] = CAN_RX_DATA_BYTE4(mailbox);
 543              		.loc 1 196 0 discriminator 4
 544 00aa 9178     		ldrb	r1, [r2, #2]
 545 00ac C9B2     		uxtb	r1, r1
 546 00ae A568     		ldr	r5, [r4, #8]
 547 00b0 EDB2     		uxtb	r5, r5
 548 00b2 4800     		lsls	r0, r1, #1
 549 00b4 4118     		adds	r1, r0, r1
 550 00b6 8800     		lsls	r0, r1, #2
 551 00b8 1818     		adds	r0, r3, r0
 552 00ba 8571     		strb	r5, [r0, #6]
 197:..\CANLib\PortFiles/PortPSOC_CY8C4248AZI_L485.c ****     latestMessage[latestMessageTail].data[4] = CAN_RX_DATA_BYTE5(mailbox);
 553              		.loc 1 197 0 discriminator 4
 554 00bc 9178     		ldrb	r1, [r2, #2]
 555 00be C9B2     		uxtb	r1, r1
 556 00c0 E568     		ldr	r5, [r4, #12]
 557 00c2 2D0E     		lsrs	r5, r5, #24
 558 00c4 4800     		lsls	r0, r1, #1
 559 00c6 4118     		adds	r1, r0, r1
 560 00c8 8800     		lsls	r0, r1, #2
 561 00ca 1818     		adds	r0, r3, r0
 562 00cc C571     		strb	r5, [r0, #7]
 198:..\CANLib\PortFiles/PortPSOC_CY8C4248AZI_L485.c ****     latestMessage[latestMessageTail].data[5] = CAN_RX_DATA_BYTE6(mailbox);
 563              		.loc 1 198 0 discriminator 4
 564 00ce 9178     		ldrb	r1, [r2, #2]
 565 00d0 C9B2     		uxtb	r1, r1
 566 00d2 E068     		ldr	r0, [r4, #12]
 567 00d4 000C     		lsrs	r0, r0, #16
 568 00d6 C0B2     		uxtb	r0, r0
 569 00d8 4D00     		lsls	r5, r1, #1
 570 00da 6918     		adds	r1, r5, r1
 571 00dc 8D00     		lsls	r5, r1, #2
 572 00de 5D19     		adds	r5, r3, r5
 573 00e0 2872     		strb	r0, [r5, #8]
 199:..\CANLib\PortFiles/PortPSOC_CY8C4248AZI_L485.c ****     latestMessage[latestMessageTail].data[6] = CAN_RX_DATA_BYTE7(mailbox);
 574              		.loc 1 199 0 discriminator 4
 575 00e2 9178     		ldrb	r1, [r2, #2]
 576 00e4 C9B2     		uxtb	r1, r1
 577 00e6 E068     		ldr	r0, [r4, #12]
 578 00e8 000A     		lsrs	r0, r0, #8
 579 00ea C0B2     		uxtb	r0, r0
 580 00ec 4D00     		lsls	r5, r1, #1
 581 00ee 6918     		adds	r1, r5, r1
 582 00f0 8D00     		lsls	r5, r1, #2
 583 00f2 5D19     		adds	r5, r3, r5
 584 00f4 6872     		strb	r0, [r5, #9]
 200:..\CANLib\PortFiles/PortPSOC_CY8C4248AZI_L485.c ****     latestMessage[latestMessageTail].data[7] = CAN_RX_DATA_BYTE8(mailbox);
 585              		.loc 1 200 0 discriminator 4
 586 00f6 9278     		ldrb	r2, [r2, #2]
 587 00f8 D2B2     		uxtb	r2, r2
 588 00fa E068     		ldr	r0, [r4, #12]
 589 00fc C0B2     		uxtb	r0, r0
 590 00fe 5100     		lsls	r1, r2, #1
 591 0100 8A18     		adds	r2, r1, r2
 592 0102 9100     		lsls	r1, r2, #2
 593 0104 5B18     		adds	r3, r3, r1
ARM GAS  C:\Users\Austcha\AppData\Local\Temp\ccHcN3ZT.s 			page 15


 594 0106 9872     		strb	r0, [r3, #10]
 201:..\CANLib\PortFiles/PortPSOC_CY8C4248AZI_L485.c ****     countAddFIFO();
 595              		.loc 1 201 0 discriminator 4
 596 0108 FFF7FEFF 		bl	countAddFIFO
 597              	.LVL21:
 202:..\CANLib\PortFiles/PortPSOC_CY8C4248AZI_L485.c **** 
 203:..\CANLib\PortFiles/PortPSOC_CY8C4248AZI_L485.c ****     //CAN_ReceiveMsg(messagePresentFlag);
 204:..\CANLib\PortFiles/PortPSOC_CY8C4248AZI_L485.c ****     CAN_RX_ACK_MESSAGE(mailbox);
 598              		.loc 1 204 0 discriminator 4
 599 010c 2268     		ldr	r2, [r4]
 600 010e 0123     		movs	r3, #1
 601 0110 1343     		orrs	r3, r2
 602 0112 2360     		str	r3, [r4]
 205:..\CANLib\PortFiles/PortPSOC_CY8C4248AZI_L485.c **** }
 603              		.loc 1 205 0 discriminator 4
 604              		@ sp needed
 605 0114 70BD     		pop	{r4, r5, r6, pc}
 606              	.L35:
 607 0116 C046     		.align	2
 608              	.L34:
 609 0118 00002F40 		.word	1076822016
 610 011c 08002F40 		.word	1076822024
 611 0120 00000000 		.word	.LANCHOR0
 612 0124 A0002F40 		.word	1076822176
 613 0128 00000000 		.word	latestMessage
 614              		.cfi_endproc
 615              	.LFE43:
 616              		.size	CAN_FLAG_ISR, .-CAN_FLAG_ISR
 617              		.section	.text.countRemoveFIFO,"ax",%progbits
 618              		.align	2
 619              		.global	countRemoveFIFO
 620              		.code	16
 621              		.thumb_func
 622              		.type	countRemoveFIFO, %function
 623              	countRemoveFIFO:
 624              	.LFB42:
 159:..\CANLib\PortFiles/PortPSOC_CY8C4248AZI_L485.c ****     if(FIFOSize() > 0) {
 625              		.loc 1 159 0
 626              		.cfi_startproc
 627              		@ args = 0, pretend = 0, frame = 0
 628              		@ frame_needed = 0, uses_anonymous_args = 0
 629 0000 10B5     		push	{r4, lr}
 630              		.cfi_def_cfa_offset 8
 631              		.cfi_offset 4, -8
 632              		.cfi_offset 14, -4
 160:..\CANLib\PortFiles/PortPSOC_CY8C4248AZI_L485.c ****         latestMessageHead++;
 633              		.loc 1 160 0
 634 0002 FFF7FEFF 		bl	FIFOSize
 635              	.LVL22:
 636 0006 0028     		cmp	r0, #0
 637 0008 0BD0     		beq	.L36
 161:..\CANLib\PortFiles/PortPSOC_CY8C4248AZI_L485.c ****         if(latestMessageHead >= FIFO_SIZE) {
 638              		.loc 1 161 0
 639 000a 064A     		ldr	r2, .L38
 640 000c 5378     		ldrb	r3, [r2, #1]
 641 000e 0133     		adds	r3, r3, #1
 642 0010 DBB2     		uxtb	r3, r3
ARM GAS  C:\Users\Austcha\AppData\Local\Temp\ccHcN3ZT.s 			page 16


 643 0012 5370     		strb	r3, [r2, #1]
 162:..\CANLib\PortFiles/PortPSOC_CY8C4248AZI_L485.c ****             latestMessageHead = 0;
 644              		.loc 1 162 0
 645 0014 5378     		ldrb	r3, [r2, #1]
 646 0016 DBB2     		uxtb	r3, r3
 647 0018 0F2B     		cmp	r3, #15
 648 001a 02D9     		bls	.L36
 163:..\CANLib\PortFiles/PortPSOC_CY8C4248AZI_L485.c ****         }
 649              		.loc 1 163 0
 650 001c 0022     		movs	r2, #0
 651 001e 014B     		ldr	r3, .L38
 652 0020 5A70     		strb	r2, [r3, #1]
 653              	.L36:
 166:..\CANLib\PortFiles/PortPSOC_CY8C4248AZI_L485.c **** 
 654              		.loc 1 166 0
 655              		@ sp needed
 656 0022 10BD     		pop	{r4, pc}
 657              	.L39:
 658              		.align	2
 659              	.L38:
 660 0024 00000000 		.word	.LANCHOR0
 661              		.cfi_endproc
 662              	.LFE42:
 663              		.size	countRemoveFIFO, .-countRemoveFIFO
 664              		.section	.text.PollAndReceiveCANPacket,"ax",%progbits
 665              		.align	2
 666              		.global	PollAndReceiveCANPacket
 667              		.code	16
 668              		.thumb_func
 669              		.type	PollAndReceiveCANPacket, %function
 670              	PollAndReceiveCANPacket:
 671              	.LFB36:
  98:..\CANLib\PortFiles/PortPSOC_CY8C4248AZI_L485.c ****     if(!receivedPacket) {
 672              		.loc 1 98 0
 673              		.cfi_startproc
 674              		@ args = 0, pretend = 0, frame = 0
 675              		@ frame_needed = 0, uses_anonymous_args = 0
 676              	.LVL23:
 677 0000 10B5     		push	{r4, lr}
 678              		.cfi_def_cfa_offset 8
 679              		.cfi_offset 4, -8
 680              		.cfi_offset 14, -4
 681 0002 041E     		subs	r4, r0, #0
  99:..\CANLib\PortFiles/PortPSOC_CY8C4248AZI_L485.c ****         return ERROR_NULL_POINTER;
 682              		.loc 1 99 0
 683 0004 13D0     		beq	.L42
 102:..\CANLib\PortFiles/PortPSOC_CY8C4248AZI_L485.c ****     {
 684              		.loc 1 102 0
 685 0006 FFF7FEFF 		bl	FIFOSize
 686              	.LVL24:
 687 000a 0028     		cmp	r0, #0
 688 000c 11D0     		beq	.L43
 104:..\CANLib\PortFiles/PortPSOC_CY8C4248AZI_L485.c ****         countRemoveFIFO();
 689              		.loc 1 104 0
 690 000e 0A4B     		ldr	r3, .L44
 691 0010 5B78     		ldrb	r3, [r3, #1]
 692 0012 DBB2     		uxtb	r3, r3
ARM GAS  C:\Users\Austcha\AppData\Local\Temp\ccHcN3ZT.s 			page 17


 693 0014 5A00     		lsls	r2, r3, #1
 694 0016 D318     		adds	r3, r2, r3
 695 0018 9900     		lsls	r1, r3, #2
 696 001a 084B     		ldr	r3, .L44+4
 697 001c 5918     		adds	r1, r3, r1
 698 001e 0C22     		movs	r2, #12
 699 0020 2000     		movs	r0, r4
 700 0022 FFF7FEFF 		bl	memcpy
 701              	.LVL25:
 105:..\CANLib\PortFiles/PortPSOC_CY8C4248AZI_L485.c ****         return ERROR_NONE;
 702              		.loc 1 105 0
 703 0026 FFF7FEFF 		bl	countRemoveFIFO
 704              	.LVL26:
 106:..\CANLib\PortFiles/PortPSOC_CY8C4248AZI_L485.c ****     }
 705              		.loc 1 106 0
 706 002a 0020     		movs	r0, #0
 707 002c 02E0     		b	.L41
 708              	.LVL27:
 709              	.L42:
 100:..\CANLib\PortFiles/PortPSOC_CY8C4248AZI_L485.c ****     }
 710              		.loc 1 100 0
 711 002e 0220     		movs	r0, #2
 712              	.LVL28:
 713 0030 00E0     		b	.L41
 714              	.L43:
 108:..\CANLib\PortFiles/PortPSOC_CY8C4248AZI_L485.c **** }
 715              		.loc 1 108 0
 716 0032 0220     		movs	r0, #2
 717              	.L41:
 109:..\CANLib\PortFiles/PortPSOC_CY8C4248AZI_L485.c **** 
 718              		.loc 1 109 0
 719              		@ sp needed
 720              	.LVL29:
 721 0034 10BD     		pop	{r4, pc}
 722              	.L45:
 723 0036 C046     		.align	2
 724              	.L44:
 725 0038 00000000 		.word	.LANCHOR0
 726 003c 00000000 		.word	latestMessage
 727              		.cfi_endproc
 728              	.LFE36:
 729              		.size	PollAndReceiveCANPacket, .-PollAndReceiveCANPacket
 730              		.comm	rxMailbox,16,4
 731              		.comm	deviceGroup,4,4
 732              		.comm	deviceAddress,4,4
 733              		.global	latestMessageFull
 734              		.global	latestMessageTail
 735              		.global	latestMessageHead
 736              		.comm	latestMessage,192,4
 737              		.global	messageReadFlag
 738              		.global	messagePresentFlag
 739              		.data
 740              		.type	messagePresentFlag, %object
 741              		.size	messagePresentFlag, 1
 742              	messagePresentFlag:
 743 0000 FF       		.byte	-1
 744              		.bss
ARM GAS  C:\Users\Austcha\AppData\Local\Temp\ccHcN3ZT.s 			page 18


 745              		.set	.LANCHOR0,. + 0
 746              		.type	latestMessageFull, %object
 747              		.size	latestMessageFull, 1
 748              	latestMessageFull:
 749 0000 00       		.space	1
 750              		.type	latestMessageHead, %object
 751              		.size	latestMessageHead, 1
 752              	latestMessageHead:
 753 0001 00       		.space	1
 754              		.type	latestMessageTail, %object
 755              		.size	latestMessageTail, 1
 756              	latestMessageTail:
 757 0002 00       		.space	1
 758              		.type	messageReadFlag, %object
 759              		.size	messageReadFlag, 1
 760              	messageReadFlag:
 761 0003 00       		.space	1
 762              		.text
 763              	.Letext0:
 764              		.file 2 "c:\\program files (x86)\\cypress\\psoc creator\\4.3\\psoc creator\\import\\gnu\\arm\\5.4.
 765              		.file 3 "c:\\program files (x86)\\cypress\\psoc creator\\4.3\\psoc creator\\import\\gnu\\arm\\5.4.
 766              		.file 4 "..\\CANLib\\PortFiles\\../CANPacket.h"
 767              		.file 5 "Generated_Source\\PSoC4/../../Generated_Source/PSoC4/cytypes.h"
 768              		.file 6 "Generated_Source\\PSoC4/../../Generated_Source/PSoC4/CAN.h"
 769              		.file 7 "Generated_Source\\PSoC4/../../Generated_Source/PSoC4/CyLib.h"