ARM GAS  C:\Users\austc\AppData\Local\Temp\ccgQthMX.s 			page 1


   1              		.syntax unified
   2              		.cpu cortex-m0
   3              		.fpu softvfp
   4              		.eabi_attribute 20, 1
   5              		.eabi_attribute 21, 1
   6              		.eabi_attribute 23, 3
   7              		.eabi_attribute 24, 1
   8              		.eabi_attribute 25, 1
   9              		.eabi_attribute 26, 1
  10              		.eabi_attribute 30, 1
  11              		.eabi_attribute 34, 0
  12              		.eabi_attribute 18, 4
  13              		.thumb
  14              		.syntax unified
  15              		.file	"CAN_TX_RX_func.c"
  16              		.text
  17              	.Ltext0:
  18              		.cfi_sections	.debug_frame
  19              		.section	.text.CAN_SendMsg,"ax",%progbits
  20              		.align	2
  21              		.global	CAN_SendMsg
  22              		.code	16
  23              		.thumb_func
  24              		.type	CAN_SendMsg, %function
  25              	CAN_SendMsg:
  26              	.LFB34:
  27              		.file 1 "Generated_Source\\PSoC4\\CAN_TX_RX_func.c"
   1:Generated_Source\PSoC4/CAN_TX_RX_func.c **** /*******************************************************************************
   2:Generated_Source\PSoC4/CAN_TX_RX_func.c **** * File Name: CAN_TX_RX_func.c
   3:Generated_Source\PSoC4/CAN_TX_RX_func.c **** * Version 3.0
   4:Generated_Source\PSoC4/CAN_TX_RX_func.c **** *
   5:Generated_Source\PSoC4/CAN_TX_RX_func.c **** * Description:
   6:Generated_Source\PSoC4/CAN_TX_RX_func.c **** *  There are functions process "Full" Receive and Transmit mailboxes:
   7:Generated_Source\PSoC4/CAN_TX_RX_func.c **** *     - CAN_SendMsg0-7();
   8:Generated_Source\PSoC4/CAN_TX_RX_func.c **** *     - CAN_ReceiveMsg0-15();
   9:Generated_Source\PSoC4/CAN_TX_RX_func.c **** *  Transmission of message, and receive routine for "Basic" mailboxes:
  10:Generated_Source\PSoC4/CAN_TX_RX_func.c **** *     - CAN_SendMsg();
  11:Generated_Source\PSoC4/CAN_TX_RX_func.c **** *     - CAN_TxCancel();
  12:Generated_Source\PSoC4/CAN_TX_RX_func.c **** *     - CAN_ReceiveMsg();
  13:Generated_Source\PSoC4/CAN_TX_RX_func.c **** *
  14:Generated_Source\PSoC4/CAN_TX_RX_func.c **** *  Note:
  15:Generated_Source\PSoC4/CAN_TX_RX_func.c **** *   None
  16:Generated_Source\PSoC4/CAN_TX_RX_func.c **** *
  17:Generated_Source\PSoC4/CAN_TX_RX_func.c **** ********************************************************************************
  18:Generated_Source\PSoC4/CAN_TX_RX_func.c **** * Copyright 2008-2015, Cypress Semiconductor Corporation.  All rights reserved.
  19:Generated_Source\PSoC4/CAN_TX_RX_func.c **** * You may use this file only in accordance with the license, terms, conditions,
  20:Generated_Source\PSoC4/CAN_TX_RX_func.c **** * disclaimers, and limitations in the end user license agreement accompanying
  21:Generated_Source\PSoC4/CAN_TX_RX_func.c **** * the software package with which this file was provided.
  22:Generated_Source\PSoC4/CAN_TX_RX_func.c **** *******************************************************************************/
  23:Generated_Source\PSoC4/CAN_TX_RX_func.c **** 
  24:Generated_Source\PSoC4/CAN_TX_RX_func.c **** #include "CAN.h"
  25:Generated_Source\PSoC4/CAN_TX_RX_func.c **** #include "cyapicallbacks.h"
  26:Generated_Source\PSoC4/CAN_TX_RX_func.c **** 
  27:Generated_Source\PSoC4/CAN_TX_RX_func.c **** /* `#START TX_RX_FUNCTION` */
  28:Generated_Source\PSoC4/CAN_TX_RX_func.c **** 
  29:Generated_Source\PSoC4/CAN_TX_RX_func.c **** /* `#END` */
  30:Generated_Source\PSoC4/CAN_TX_RX_func.c **** 
ARM GAS  C:\Users\austc\AppData\Local\Temp\ccgQthMX.s 			page 2


  31:Generated_Source\PSoC4/CAN_TX_RX_func.c **** 
  32:Generated_Source\PSoC4/CAN_TX_RX_func.c **** /*******************************************************************************
  33:Generated_Source\PSoC4/CAN_TX_RX_func.c **** * FUNCTION NAME:   CAN_SendMsg
  34:Generated_Source\PSoC4/CAN_TX_RX_func.c **** ********************************************************************************
  35:Generated_Source\PSoC4/CAN_TX_RX_func.c **** *
  36:Generated_Source\PSoC4/CAN_TX_RX_func.c **** * Summary:
  37:Generated_Source\PSoC4/CAN_TX_RX_func.c **** *  This function is Send Message from one of Basic mailboxes. The function loops
  38:Generated_Source\PSoC4/CAN_TX_RX_func.c **** *  through the transmit message buffer designed as Basic CAN mailboxes for the
  39:Generated_Source\PSoC4/CAN_TX_RX_func.c **** *  first free available and sends from it. The number of retries is limited.
  40:Generated_Source\PSoC4/CAN_TX_RX_func.c **** *
  41:Generated_Source\PSoC4/CAN_TX_RX_func.c **** * Parameters:
  42:Generated_Source\PSoC4/CAN_TX_RX_func.c **** *  message: The pointer to a structure that contains all required data to send
  43:Generated_Source\PSoC4/CAN_TX_RX_func.c **** *           messages.
  44:Generated_Source\PSoC4/CAN_TX_RX_func.c **** *
  45:Generated_Source\PSoC4/CAN_TX_RX_func.c **** * Return:
  46:Generated_Source\PSoC4/CAN_TX_RX_func.c **** *  Indication if message has been sent.
  47:Generated_Source\PSoC4/CAN_TX_RX_func.c **** *   Define                             Description
  48:Generated_Source\PSoC4/CAN_TX_RX_func.c **** *    CYRET_SUCCESS                      The function passed successfully
  49:Generated_Source\PSoC4/CAN_TX_RX_func.c **** *    CAN_FAIL              The function failed
  50:Generated_Source\PSoC4/CAN_TX_RX_func.c **** *
  51:Generated_Source\PSoC4/CAN_TX_RX_func.c **** *******************************************************************************/
  52:Generated_Source\PSoC4/CAN_TX_RX_func.c **** uint8 CAN_SendMsg(const CAN_TX_MSG *message) 
  53:Generated_Source\PSoC4/CAN_TX_RX_func.c **** {
  28              		.loc 1 53 0
  29              		.cfi_startproc
  30              		@ args = 0, pretend = 0, frame = 0
  31              		@ frame_needed = 0, uses_anonymous_args = 0
  32              	.LVL0:
  33 0000 F8B5     		push	{r3, r4, r5, r6, r7, lr}
  34              		.cfi_def_cfa_offset 24
  35              		.cfi_offset 3, -24
  36              		.cfi_offset 4, -20
  37              		.cfi_offset 5, -16
  38              		.cfi_offset 6, -12
  39              		.cfi_offset 7, -8
  40              		.cfi_offset 14, -4
  41 0002 4F46     		mov	r7, r9
  42 0004 4646     		mov	r6, r8
  43 0006 C0B4     		push	{r6, r7}
  44              		.cfi_def_cfa_offset 32
  45              		.cfi_offset 8, -32
  46              		.cfi_offset 9, -28
  47 0008 0400     		movs	r4, r0
  48              	.LVL1:
  54:Generated_Source\PSoC4/CAN_TX_RX_func.c ****     uint8 i, j, shift;
  55:Generated_Source\PSoC4/CAN_TX_RX_func.c ****     uint8 retry = 0u;
  56:Generated_Source\PSoC4/CAN_TX_RX_func.c ****     uint8 result = CAN_FAIL;
  49              		.loc 1 56 0
  50 000a 0120     		movs	r0, #1
  51              	.LVL2:
  55:Generated_Source\PSoC4/CAN_TX_RX_func.c ****     uint8 result = CAN_FAIL;
  52              		.loc 1 55 0
  53 000c 0023     		movs	r3, #0
  54 000e 9846     		mov	r8, r3
  57:Generated_Source\PSoC4/CAN_TX_RX_func.c ****     uint32 regTemp;
  58:Generated_Source\PSoC4/CAN_TX_RX_func.c **** 
  59:Generated_Source\PSoC4/CAN_TX_RX_func.c ****     while (retry < CAN_RETRY_NUMBER)
ARM GAS  C:\Users\austc\AppData\Local\Temp\ccgQthMX.s 			page 3


  55              		.loc 1 59 0
  56 0010 91E0     		b	.L2
  57              	.LVL3:
  58              	.L18:
  60:Generated_Source\PSoC4/CAN_TX_RX_func.c ****     {
  61:Generated_Source\PSoC4/CAN_TX_RX_func.c ****         shift = 1u;    /* Start from first mailbox */
  62:Generated_Source\PSoC4/CAN_TX_RX_func.c ****         for (i = 0u; i < CAN_NUMBER_OF_TX_MAILBOXES; i++)
  63:Generated_Source\PSoC4/CAN_TX_RX_func.c ****         {
  64:Generated_Source\PSoC4/CAN_TX_RX_func.c ****             /* Find Basic TX mailboxes */
  65:Generated_Source\PSoC4/CAN_TX_RX_func.c ****             if ((CAN_TX_MAILBOX_TYPE & shift) == 0u)
  66:Generated_Source\PSoC4/CAN_TX_RX_func.c ****             {
  67:Generated_Source\PSoC4/CAN_TX_RX_func.c ****                 /* Find free mailbox */
  68:Generated_Source\PSoC4/CAN_TX_RX_func.c ****                 #if (CY_PSOC3 || CY_PSOC5)
  69:Generated_Source\PSoC4/CAN_TX_RX_func.c ****                     if ((CAN_BUF_SR_REG.byte[2] & shift) == 0u)
  70:Generated_Source\PSoC4/CAN_TX_RX_func.c ****                 #else  /* CY_PSOC4 */
  71:Generated_Source\PSoC4/CAN_TX_RX_func.c ****                     if ((CAN_BUF_SR_REG &
  59              		.loc 1 71 0
  60 0012 4C4B     		ldr	r3, .L23
  61 0014 1B68     		ldr	r3, [r3]
  72:Generated_Source\PSoC4/CAN_TX_RX_func.c ****                         (uint32) ((uint32) shift << CAN_TWO_BYTE_OFFSET)) == 0u)
  62              		.loc 1 72 0
  63 0016 3204     		lsls	r2, r6, #16
  71:Generated_Source\PSoC4/CAN_TX_RX_func.c ****                         (uint32) ((uint32) shift << CAN_TWO_BYTE_OFFSET)) == 0u)
  64              		.loc 1 71 0
  65 0018 1A42     		tst	r2, r3
  66 001a 7AD1     		bne	.L3
  67              	.LVL4:
  73:Generated_Source\PSoC4/CAN_TX_RX_func.c ****                 #endif /* CY_PSOC3 || CY_PSOC5 */
  74:Generated_Source\PSoC4/CAN_TX_RX_func.c ****                     {
  75:Generated_Source\PSoC4/CAN_TX_RX_func.c ****                         regTemp = 0u;
  76:Generated_Source\PSoC4/CAN_TX_RX_func.c **** 
  77:Generated_Source\PSoC4/CAN_TX_RX_func.c ****                         /* Set message parameters */
  78:Generated_Source\PSoC4/CAN_TX_RX_func.c ****                         if (message->rtr != CAN_STANDARD_MESSAGE)
  68              		.loc 1 78 0
  69 001c 2379     		ldrb	r3, [r4, #4]
  70 001e 002B     		cmp	r3, #0
  71 0020 01D1     		bne	.L21
  75:Generated_Source\PSoC4/CAN_TX_RX_func.c **** 
  72              		.loc 1 75 0
  73 0022 0027     		movs	r7, #0
  74 0024 01E0     		b	.L4
  75              	.L21:
  79:Generated_Source\PSoC4/CAN_TX_RX_func.c ****                         {
  80:Generated_Source\PSoC4/CAN_TX_RX_func.c ****                             regTemp = CAN_TX_RTR_MASK;    /* RTR message Enable */
  76              		.loc 1 80 0
  77 0026 8027     		movs	r7, #128
  78 0028 BF03     		lsls	r7, r7, #14
  79              	.L4:
  80              	.LVL5:
  81:Generated_Source\PSoC4/CAN_TX_RX_func.c ****                         }
  82:Generated_Source\PSoC4/CAN_TX_RX_func.c **** 
  83:Generated_Source\PSoC4/CAN_TX_RX_func.c ****                         if (message->ide == CAN_STANDARD_MESSAGE)
  81              		.loc 1 83 0
  82 002a 6379     		ldrb	r3, [r4, #5]
  83 002c 002B     		cmp	r3, #0
  84 002e 07D1     		bne	.L5
  84:Generated_Source\PSoC4/CAN_TX_RX_func.c ****                         {
ARM GAS  C:\Users\austc\AppData\Local\Temp\ccgQthMX.s 			page 4


  85:Generated_Source\PSoC4/CAN_TX_RX_func.c ****                             CAN_SET_TX_ID_STANDARD_MSG(i, message->id);
  85              		.loc 1 85 0
  86 0030 2B01     		lsls	r3, r5, #4
  87 0032 454A     		ldr	r2, .L23+4
  88 0034 9446     		mov	ip, r2
  89 0036 6344     		add	r3, r3, ip
  90 0038 2268     		ldr	r2, [r4]
  91 003a 5205     		lsls	r2, r2, #21
  92 003c 5A60     		str	r2, [r3, #4]
  93 003e 09E0     		b	.L6
  94              	.L5:
  86:Generated_Source\PSoC4/CAN_TX_RX_func.c ****                         }
  87:Generated_Source\PSoC4/CAN_TX_RX_func.c ****                         else
  88:Generated_Source\PSoC4/CAN_TX_RX_func.c ****                         {
  89:Generated_Source\PSoC4/CAN_TX_RX_func.c ****                             regTemp |= CAN_TX_IDE_MASK;
  95              		.loc 1 89 0
  96 0040 8023     		movs	r3, #128
  97 0042 5B03     		lsls	r3, r3, #13
  98 0044 1F43     		orrs	r7, r3
  99              	.LVL6:
  90:Generated_Source\PSoC4/CAN_TX_RX_func.c ****                             CAN_SET_TX_ID_EXTENDED_MSG(i, message->id);
 100              		.loc 1 90 0
 101 0046 2B01     		lsls	r3, r5, #4
 102 0048 3F4A     		ldr	r2, .L23+4
 103 004a 9446     		mov	ip, r2
 104 004c 6344     		add	r3, r3, ip
 105 004e 2268     		ldr	r2, [r4]
 106 0050 D200     		lsls	r2, r2, #3
 107 0052 5A60     		str	r2, [r3, #4]
 108              	.L6:
  91:Generated_Source\PSoC4/CAN_TX_RX_func.c ****                         }
  92:Generated_Source\PSoC4/CAN_TX_RX_func.c **** 
  93:Generated_Source\PSoC4/CAN_TX_RX_func.c ****                         if (message->dlc < CAN_TX_DLC_MAX_VALUE)
 109              		.loc 1 93 0
 110 0054 A379     		ldrb	r3, [r4, #6]
 111 0056 072B     		cmp	r3, #7
 112 0058 03D8     		bhi	.L7
  94:Generated_Source\PSoC4/CAN_TX_RX_func.c ****                         {
  95:Generated_Source\PSoC4/CAN_TX_RX_func.c ****                             regTemp |= ((uint32) message->dlc) << CAN_TWO_BYTE_OFFSET;
 113              		.loc 1 95 0
 114 005a 1B04     		lsls	r3, r3, #16
 115 005c 1F43     		orrs	r7, r3
 116              	.LVL7:
 117 005e B946     		mov	r9, r7
 118              	.LVL8:
 119 0060 03E0     		b	.L8
 120              	.L7:
  96:Generated_Source\PSoC4/CAN_TX_RX_func.c ****                         }
  97:Generated_Source\PSoC4/CAN_TX_RX_func.c ****                         else
  98:Generated_Source\PSoC4/CAN_TX_RX_func.c ****                         {
  99:Generated_Source\PSoC4/CAN_TX_RX_func.c ****                             regTemp |= CAN_TX_DLC_UPPER_VALUE;
 121              		.loc 1 99 0
 122 0062 8023     		movs	r3, #128
 123 0064 1B03     		lsls	r3, r3, #12
 124 0066 1F43     		orrs	r7, r3
 125              	.LVL9:
 126 0068 B946     		mov	r9, r7
ARM GAS  C:\Users\austc\AppData\Local\Temp\ccgQthMX.s 			page 5


 127              	.LVL10:
 128              	.L8:
 100:Generated_Source\PSoC4/CAN_TX_RX_func.c ****                         }
 101:Generated_Source\PSoC4/CAN_TX_RX_func.c **** 
 102:Generated_Source\PSoC4/CAN_TX_RX_func.c ****                         if (message->irq != CAN_TRANSMIT_INT_DISABLE)
 129              		.loc 1 102 0
 130 006a E379     		ldrb	r3, [r4, #7]
 131 006c 002B     		cmp	r3, #0
 132 006e 03D0     		beq	.L9
 103:Generated_Source\PSoC4/CAN_TX_RX_func.c ****                         {
 104:Generated_Source\PSoC4/CAN_TX_RX_func.c ****                             regTemp |= CAN_TX_INT_ENABLE_MASK;    /* Transmit Interrupt Enable */
 133              		.loc 1 104 0
 134 0070 0423     		movs	r3, #4
 135 0072 4A46     		mov	r2, r9
 136 0074 1A43     		orrs	r2, r3
 137 0076 9146     		mov	r9, r2
 138              	.LVL11:
 139              	.L9:
 105:Generated_Source\PSoC4/CAN_TX_RX_func.c ****                         }
 106:Generated_Source\PSoC4/CAN_TX_RX_func.c **** 
 107:Generated_Source\PSoC4/CAN_TX_RX_func.c ****                         for (j = 0u; (j < message->dlc) && (j < CAN_TX_DLC_MAX_VALUE); j++)
 140              		.loc 1 107 0
 141 0078 0023     		movs	r3, #0
 142 007a 2AE0     		b	.L10
 143              	.LVL12:
 144              	.L14:
 108:Generated_Source\PSoC4/CAN_TX_RX_func.c ****                         {
 109:Generated_Source\PSoC4/CAN_TX_RX_func.c ****                             #if (CY_PSOC3 || CY_PSOC5)
 110:Generated_Source\PSoC4/CAN_TX_RX_func.c ****                                 CAN_TX_DATA_BYTE(i, j) = message->msg->byte[j];
 111:Generated_Source\PSoC4/CAN_TX_RX_func.c ****                             #else /* CY_PSOC4 */
 112:Generated_Source\PSoC4/CAN_TX_RX_func.c ****                                 CAN_TX_DATA_BYTE(i, j, message->msg->byte[j]);
 145              		.loc 1 112 0
 146 007c 032B     		cmp	r3, #3
 147 007e 13D9     		bls	.L11
 148              		.loc 1 112 0 is_stmt 0 discriminator 1
 149 0080 2801     		lsls	r0, r5, #4
 150 0082 324A     		ldr	r2, .L23+8
 151 0084 9446     		mov	ip, r2
 152 0086 6044     		add	r0, r0, ip
 153 0088 0268     		ldr	r2, [r0]
 154 008a 9446     		mov	ip, r2
 155 008c 5907     		lsls	r1, r3, #29
 156 008e CA1A     		subs	r2, r1, r3
 157 0090 D100     		lsls	r1, r2, #3
 158 0092 3831     		adds	r1, r1, #56
 159 0094 FF22     		movs	r2, #255
 160 0096 8A40     		lsls	r2, r2, r1
 161 0098 6746     		mov	r7, ip
 162 009a 9743     		bics	r7, r2
 163 009c E268     		ldr	r2, [r4, #12]
 164 009e D25C     		ldrb	r2, [r2, r3]
 165 00a0 8A40     		lsls	r2, r2, r1
 166 00a2 3A43     		orrs	r2, r7
 167 00a4 0260     		str	r2, [r0]
 168 00a6 12E0     		b	.L12
 169              	.L11:
 170              		.loc 1 112 0 discriminator 2
ARM GAS  C:\Users\austc\AppData\Local\Temp\ccgQthMX.s 			page 6


 171 00a8 2801     		lsls	r0, r5, #4
 172 00aa 274A     		ldr	r2, .L23+4
 173 00ac 9446     		mov	ip, r2
 174 00ae 6044     		add	r0, r0, ip
 175 00b0 8268     		ldr	r2, [r0, #8]
 176 00b2 9446     		mov	ip, r2
 177 00b4 5907     		lsls	r1, r3, #29
 178 00b6 CA1A     		subs	r2, r1, r3
 179 00b8 D100     		lsls	r1, r2, #3
 180 00ba 1831     		adds	r1, r1, #24
 181 00bc FF22     		movs	r2, #255
 182 00be 8A40     		lsls	r2, r2, r1
 183 00c0 6746     		mov	r7, ip
 184 00c2 9743     		bics	r7, r2
 185 00c4 E268     		ldr	r2, [r4, #12]
 186 00c6 D25C     		ldrb	r2, [r2, r3]
 187 00c8 8A40     		lsls	r2, r2, r1
 188 00ca 3A43     		orrs	r2, r7
 189 00cc 8260     		str	r2, [r0, #8]
 190              	.L12:
 107:Generated_Source\PSoC4/CAN_TX_RX_func.c ****                         {
 191              		.loc 1 107 0 is_stmt 1 discriminator 2
 192 00ce 0133     		adds	r3, r3, #1
 193              	.LVL13:
 194 00d0 DBB2     		uxtb	r3, r3
 195              	.LVL14:
 196              	.L10:
 107:Generated_Source\PSoC4/CAN_TX_RX_func.c ****                         {
 197              		.loc 1 107 0 is_stmt 0 discriminator 1
 198 00d2 A279     		ldrb	r2, [r4, #6]
 199 00d4 9342     		cmp	r3, r2
 200 00d6 01D2     		bcs	.L13
 107:Generated_Source\PSoC4/CAN_TX_RX_func.c ****                         {
 201              		.loc 1 107 0 discriminator 3
 202 00d8 072B     		cmp	r3, #7
 203 00da CFD9     		bls	.L14
 204              	.L13:
 113:Generated_Source\PSoC4/CAN_TX_RX_func.c ****                             #endif /* CY_PSOC3 || CY_PSOC5 */
 114:Generated_Source\PSoC4/CAN_TX_RX_func.c ****                         }
 115:Generated_Source\PSoC4/CAN_TX_RX_func.c **** 
 116:Generated_Source\PSoC4/CAN_TX_RX_func.c ****                         /* Disable isr */
 117:Generated_Source\PSoC4/CAN_TX_RX_func.c ****     CyIntDisable(CAN_ISR_NUMBER);
 205              		.loc 1 117 0 is_stmt 1
 206 00dc 1D20     		movs	r0, #29
 207 00de FFF7FEFF 		bl	CyIntDisable
 208              	.LVL15:
 118:Generated_Source\PSoC4/CAN_TX_RX_func.c **** 
 119:Generated_Source\PSoC4/CAN_TX_RX_func.c ****                         /* WPN[23] and WPN[3] set to 1 for write to CAN Control reg */
 120:Generated_Source\PSoC4/CAN_TX_RX_func.c ****                         CY_SET_REG32(CAN_TX_CMD_PTR(i), (regTemp | CAN_TX_WPN_SET));
 209              		.loc 1 120 0
 210 00e2 2B01     		lsls	r3, r5, #4
 211 00e4 184A     		ldr	r2, .L23+4
 212 00e6 9446     		mov	ip, r2
 213 00e8 6344     		add	r3, r3, ip
 214 00ea 194A     		ldr	r2, .L23+12
 215 00ec 4F46     		mov	r7, r9
 216 00ee 1743     		orrs	r7, r2
ARM GAS  C:\Users\austc\AppData\Local\Temp\ccgQthMX.s 			page 7


 217 00f0 1F60     		str	r7, [r3]
 121:Generated_Source\PSoC4/CAN_TX_RX_func.c **** 
 122:Generated_Source\PSoC4/CAN_TX_RX_func.c ****                         #if (CY_PSOC3 || CY_PSOC5)
 123:Generated_Source\PSoC4/CAN_TX_RX_func.c ****                             CY_SET_REG32(CAN_TX_CMD_PTR(i), CAN_SEND_MESSAGE);
 124:Generated_Source\PSoC4/CAN_TX_RX_func.c ****                         #else /* CY_PSOC4 */
 125:Generated_Source\PSoC4/CAN_TX_RX_func.c ****                             if (message->sst != CAN_STANDARD_MESSAGE)
 218              		.loc 1 125 0
 219 00f2 227A     		ldrb	r2, [r4, #8]
 220 00f4 002A     		cmp	r2, #0
 221 00f6 04D0     		beq	.L15
 126:Generated_Source\PSoC4/CAN_TX_RX_func.c ****                             {
 127:Generated_Source\PSoC4/CAN_TX_RX_func.c ****                                 /* Single Shot Transmission */
 128:Generated_Source\PSoC4/CAN_TX_RX_func.c ****                                 CAN_TX_CMD_REG(i) |= CAN_SEND_MESSAGE |
 222              		.loc 1 128 0
 223 00f8 1968     		ldr	r1, [r3]
 224 00fa 0322     		movs	r2, #3
 225 00fc 0A43     		orrs	r2, r1
 226 00fe 1A60     		str	r2, [r3]
 227 0100 03E0     		b	.L16
 228              	.L15:
 129:Generated_Source\PSoC4/CAN_TX_RX_func.c ****                                 CAN_TX_ABORT_MASK;
 130:Generated_Source\PSoC4/CAN_TX_RX_func.c ****                             }
 131:Generated_Source\PSoC4/CAN_TX_RX_func.c ****                             else
 132:Generated_Source\PSoC4/CAN_TX_RX_func.c ****                             {
 133:Generated_Source\PSoC4/CAN_TX_RX_func.c ****                                 CAN_TX_CMD_REG(i) |= CAN_SEND_MESSAGE;
 229              		.loc 1 133 0
 230 0102 1968     		ldr	r1, [r3]
 231 0104 0122     		movs	r2, #1
 232 0106 0A43     		orrs	r2, r1
 233 0108 1A60     		str	r2, [r3]
 234              	.L16:
 134:Generated_Source\PSoC4/CAN_TX_RX_func.c ****                             }
 135:Generated_Source\PSoC4/CAN_TX_RX_func.c ****                         #endif /* CY_PSOC3 || CY_PSOC5 */
 136:Generated_Source\PSoC4/CAN_TX_RX_func.c **** 
 137:Generated_Source\PSoC4/CAN_TX_RX_func.c ****                         /* Enable isr */
 138:Generated_Source\PSoC4/CAN_TX_RX_func.c ****     CyIntEnable(CAN_ISR_NUMBER);
 235              		.loc 1 138 0
 236 010a 1D20     		movs	r0, #29
 237 010c FFF7FEFF 		bl	CyIntEnable
 238              	.LVL16:
 139:Generated_Source\PSoC4/CAN_TX_RX_func.c **** 
 140:Generated_Source\PSoC4/CAN_TX_RX_func.c ****                         result = CYRET_SUCCESS;
 239              		.loc 1 140 0
 240 0110 0020     		movs	r0, #0
 241              	.LVL17:
 242              	.L3:
 141:Generated_Source\PSoC4/CAN_TX_RX_func.c ****                     }
 142:Generated_Source\PSoC4/CAN_TX_RX_func.c ****             }
 143:Generated_Source\PSoC4/CAN_TX_RX_func.c ****             shift <<= 1u;
 243              		.loc 1 143 0
 244 0112 7600     		lsls	r6, r6, #1
 245              	.LVL18:
 246 0114 F6B2     		uxtb	r6, r6
 247              	.LVL19:
 144:Generated_Source\PSoC4/CAN_TX_RX_func.c ****             if (result == CYRET_SUCCESS)
 248              		.loc 1 144 0
 249 0116 0028     		cmp	r0, #0
ARM GAS  C:\Users\austc\AppData\Local\Temp\ccgQthMX.s 			page 8


 250 0118 07D0     		beq	.L17
  62:Generated_Source\PSoC4/CAN_TX_RX_func.c ****         {
 251              		.loc 1 62 0 discriminator 2
 252 011a 0135     		adds	r5, r5, #1
 253              	.LVL20:
 254 011c EDB2     		uxtb	r5, r5
 255              	.LVL21:
 256 011e 01E0     		b	.L20
 257              	.LVL22:
 258              	.L22:
 259 0120 0126     		movs	r6, #1
 260 0122 0025     		movs	r5, #0
 261              	.L20:
 262              	.LVL23:
  62:Generated_Source\PSoC4/CAN_TX_RX_func.c ****         {
 263              		.loc 1 62 0 is_stmt 0 discriminator 1
 264 0124 072D     		cmp	r5, #7
 265 0126 00D8     		bhi	.LCB268
 266 0128 73E7     		b	.L18	@long jump
 267              	.LCB268:
 268              	.L17:
 145:Generated_Source\PSoC4/CAN_TX_RX_func.c ****             {
 146:Generated_Source\PSoC4/CAN_TX_RX_func.c ****                 break;
 147:Generated_Source\PSoC4/CAN_TX_RX_func.c ****             }
 148:Generated_Source\PSoC4/CAN_TX_RX_func.c ****         }
 149:Generated_Source\PSoC4/CAN_TX_RX_func.c ****         if (result == CYRET_SUCCESS)
 269              		.loc 1 149 0 is_stmt 1
 270 012a 0028     		cmp	r0, #0
 271 012c 06D0     		beq	.L19
 150:Generated_Source\PSoC4/CAN_TX_RX_func.c ****         {
 151:Generated_Source\PSoC4/CAN_TX_RX_func.c ****             break;
 152:Generated_Source\PSoC4/CAN_TX_RX_func.c ****         }
 153:Generated_Source\PSoC4/CAN_TX_RX_func.c ****         else
 154:Generated_Source\PSoC4/CAN_TX_RX_func.c ****         {
 155:Generated_Source\PSoC4/CAN_TX_RX_func.c ****             retry++;
 272              		.loc 1 155 0
 273 012e 4346     		mov	r3, r8
 274 0130 0133     		adds	r3, r3, #1
 275 0132 DBB2     		uxtb	r3, r3
 276 0134 9846     		mov	r8, r3
 277              	.LVL24:
 278              	.L2:
  59:Generated_Source\PSoC4/CAN_TX_RX_func.c ****     {
 279              		.loc 1 59 0
 280 0136 4346     		mov	r3, r8
 281 0138 022B     		cmp	r3, #2
 282 013a F1D9     		bls	.L22
 283              	.L19:
 156:Generated_Source\PSoC4/CAN_TX_RX_func.c ****         }
 157:Generated_Source\PSoC4/CAN_TX_RX_func.c ****     }
 158:Generated_Source\PSoC4/CAN_TX_RX_func.c **** 
 159:Generated_Source\PSoC4/CAN_TX_RX_func.c ****     return (result);
 160:Generated_Source\PSoC4/CAN_TX_RX_func.c **** }
 284              		.loc 1 160 0
 285              		@ sp needed
 286              	.LVL25:
 287              	.LVL26:
ARM GAS  C:\Users\austc\AppData\Local\Temp\ccgQthMX.s 			page 9


 288 013c 0CBC     		pop	{r2, r3}
 289 013e 9046     		mov	r8, r2
 290 0140 9946     		mov	r9, r3
 291 0142 F8BD     		pop	{r3, r4, r5, r6, r7, pc}
 292              	.L24:
 293              		.align	2
 294              	.L23:
 295 0144 08002F40 		.word	1076822024
 296 0148 20002F40 		.word	1076822048
 297 014c 2C002F40 		.word	1076822060
 298 0150 08008000 		.word	8388616
 299              		.cfi_endproc
 300              	.LFE34:
 301              		.size	CAN_SendMsg, .-CAN_SendMsg
 302              		.section	.text.CAN_TxCancel,"ax",%progbits
 303              		.align	2
 304              		.global	CAN_TxCancel
 305              		.code	16
 306              		.thumb_func
 307              		.type	CAN_TxCancel, %function
 308              	CAN_TxCancel:
 309              	.LFB35:
 161:Generated_Source\PSoC4/CAN_TX_RX_func.c **** 
 162:Generated_Source\PSoC4/CAN_TX_RX_func.c **** 
 163:Generated_Source\PSoC4/CAN_TX_RX_func.c **** /*******************************************************************************
 164:Generated_Source\PSoC4/CAN_TX_RX_func.c **** * FUNCTION NAME:   CAN_TxCancel
 165:Generated_Source\PSoC4/CAN_TX_RX_func.c **** ********************************************************************************
 166:Generated_Source\PSoC4/CAN_TX_RX_func.c **** *
 167:Generated_Source\PSoC4/CAN_TX_RX_func.c **** * Summary:
 168:Generated_Source\PSoC4/CAN_TX_RX_func.c **** *  This function cancels transmission of a message that has been queued to be
 169:Generated_Source\PSoC4/CAN_TX_RX_func.c **** *  transmitted. Values between 0 and 7 are valid.
 170:Generated_Source\PSoC4/CAN_TX_RX_func.c **** *
 171:Generated_Source\PSoC4/CAN_TX_RX_func.c **** * Parameters:
 172:Generated_Source\PSoC4/CAN_TX_RX_func.c **** *  bufferId: The mailbox number.
 173:Generated_Source\PSoC4/CAN_TX_RX_func.c **** *
 174:Generated_Source\PSoC4/CAN_TX_RX_func.c **** * Return:
 175:Generated_Source\PSoC4/CAN_TX_RX_func.c **** *  None.
 176:Generated_Source\PSoC4/CAN_TX_RX_func.c **** *
 177:Generated_Source\PSoC4/CAN_TX_RX_func.c **** *******************************************************************************/
 178:Generated_Source\PSoC4/CAN_TX_RX_func.c **** void CAN_TxCancel(uint8 bufferId) 
 179:Generated_Source\PSoC4/CAN_TX_RX_func.c **** {
 310              		.loc 1 179 0
 311              		.cfi_startproc
 312              		@ args = 0, pretend = 0, frame = 0
 313              		@ frame_needed = 0, uses_anonymous_args = 0
 314              		@ link register save eliminated.
 315              	.LVL27:
 180:Generated_Source\PSoC4/CAN_TX_RX_func.c ****     if (bufferId < CAN_NUMBER_OF_TX_MAILBOXES)
 316              		.loc 1 180 0
 317 0000 0728     		cmp	r0, #7
 318 0002 09D8     		bhi	.L25
 181:Generated_Source\PSoC4/CAN_TX_RX_func.c ****     {
 182:Generated_Source\PSoC4/CAN_TX_RX_func.c ****         CAN_TX_ABORT_MESSAGE(bufferId);
 319              		.loc 1 182 0
 320 0004 0001     		lsls	r0, r0, #4
 321              	.LVL28:
 322 0006 054B     		ldr	r3, .L27
ARM GAS  C:\Users\austc\AppData\Local\Temp\ccgQthMX.s 			page 10


 323 0008 9C46     		mov	ip, r3
 324 000a 6044     		add	r0, r0, ip
 325 000c 0368     		ldr	r3, [r0]
 326 000e 0322     		movs	r2, #3
 327 0010 9343     		bics	r3, r2
 328 0012 013A     		subs	r2, r2, #1
 329 0014 1343     		orrs	r3, r2
 330 0016 0360     		str	r3, [r0]
 331              	.L25:
 183:Generated_Source\PSoC4/CAN_TX_RX_func.c ****     }
 184:Generated_Source\PSoC4/CAN_TX_RX_func.c **** }
 332              		.loc 1 184 0
 333              		@ sp needed
 334 0018 7047     		bx	lr
 335              	.L28:
 336 001a C046     		.align	2
 337              	.L27:
 338 001c 20002F40 		.word	1076822048
 339              		.cfi_endproc
 340              	.LFE35:
 341              		.size	CAN_TxCancel, .-CAN_TxCancel
 342              		.section	.text.CAN_ReceiveMsg,"ax",%progbits
 343              		.align	2
 344              		.global	CAN_ReceiveMsg
 345              		.code	16
 346              		.thumb_func
 347              		.type	CAN_ReceiveMsg, %function
 348              	CAN_ReceiveMsg:
 349              	.LFB36:
 185:Generated_Source\PSoC4/CAN_TX_RX_func.c **** 
 186:Generated_Source\PSoC4/CAN_TX_RX_func.c **** 
 187:Generated_Source\PSoC4/CAN_TX_RX_func.c **** #if (CAN_TX0_FUNC_ENABLE)
 188:Generated_Source\PSoC4/CAN_TX_RX_func.c ****     /*******************************************************************************
 189:Generated_Source\PSoC4/CAN_TX_RX_func.c ****     * FUNCTION NAME:   CAN_SendMsg0
 190:Generated_Source\PSoC4/CAN_TX_RX_func.c ****     ********************************************************************************
 191:Generated_Source\PSoC4/CAN_TX_RX_func.c ****     *
 192:Generated_Source\PSoC4/CAN_TX_RX_func.c ****     * Summary:
 193:Generated_Source\PSoC4/CAN_TX_RX_func.c ****     *  This function is the entry point to Transmit Message 0. The function checks
 194:Generated_Source\PSoC4/CAN_TX_RX_func.c ****     *  if mailbox 0 doesn't already have un-transmitted messages waiting for
 195:Generated_Source\PSoC4/CAN_TX_RX_func.c ****     *  arbitration. If not initiate transmission of the message.
 196:Generated_Source\PSoC4/CAN_TX_RX_func.c ****     *  Generated only for the Transmit mailbox designed as Full.
 197:Generated_Source\PSoC4/CAN_TX_RX_func.c ****     *
 198:Generated_Source\PSoC4/CAN_TX_RX_func.c ****     * Parameters:
 199:Generated_Source\PSoC4/CAN_TX_RX_func.c ****     *  None.
 200:Generated_Source\PSoC4/CAN_TX_RX_func.c ****     *
 201:Generated_Source\PSoC4/CAN_TX_RX_func.c ****     * Return:
 202:Generated_Source\PSoC4/CAN_TX_RX_func.c ****     *  Indication if Message has been sent.
 203:Generated_Source\PSoC4/CAN_TX_RX_func.c ****     *   Define                             Description
 204:Generated_Source\PSoC4/CAN_TX_RX_func.c ****     *    CYRET_SUCCESS                      The function passed successfully
 205:Generated_Source\PSoC4/CAN_TX_RX_func.c ****     *    CAN_FAIL              The function failed
 206:Generated_Source\PSoC4/CAN_TX_RX_func.c ****     *
 207:Generated_Source\PSoC4/CAN_TX_RX_func.c ****     *******************************************************************************/
 208:Generated_Source\PSoC4/CAN_TX_RX_func.c ****     uint8 CAN_SendMsg0(void) 
 209:Generated_Source\PSoC4/CAN_TX_RX_func.c ****     {
 210:Generated_Source\PSoC4/CAN_TX_RX_func.c ****         uint8 result = CYRET_SUCCESS;
 211:Generated_Source\PSoC4/CAN_TX_RX_func.c **** 
 212:Generated_Source\PSoC4/CAN_TX_RX_func.c ****         #if (CY_PSOC3 || CY_PSOC5)
ARM GAS  C:\Users\austc\AppData\Local\Temp\ccgQthMX.s 			page 11


 213:Generated_Source\PSoC4/CAN_TX_RX_func.c ****             if ((CAN_TX[0u].txcmd.byte[0u] & CAN_TX_REQUEST_PENDING) != 0u)
 214:Generated_Source\PSoC4/CAN_TX_RX_func.c ****         #else  /* CY_PSOC4 */
 215:Generated_Source\PSoC4/CAN_TX_RX_func.c ****             if ((CAN_TX_CMD_REG(0u) & CAN_TX_REQUEST_PENDING) != 0u)
 216:Generated_Source\PSoC4/CAN_TX_RX_func.c ****         #endif /* CY_PSOC3 || CY_PSOC5 */
 217:Generated_Source\PSoC4/CAN_TX_RX_func.c ****             {
 218:Generated_Source\PSoC4/CAN_TX_RX_func.c ****                 result = CAN_FAIL;
 219:Generated_Source\PSoC4/CAN_TX_RX_func.c ****             }
 220:Generated_Source\PSoC4/CAN_TX_RX_func.c ****             else
 221:Generated_Source\PSoC4/CAN_TX_RX_func.c ****             {
 222:Generated_Source\PSoC4/CAN_TX_RX_func.c ****                 /* `#START MESSAGE_0_TRASMITTED` */
 223:Generated_Source\PSoC4/CAN_TX_RX_func.c **** 
 224:Generated_Source\PSoC4/CAN_TX_RX_func.c ****                 /* `#END` */
 225:Generated_Source\PSoC4/CAN_TX_RX_func.c **** 
 226:Generated_Source\PSoC4/CAN_TX_RX_func.c ****                 #ifdef CAN_SEND_MSG_0_CALLBACK
 227:Generated_Source\PSoC4/CAN_TX_RX_func.c ****                     CAN_SendMsg_0_Callback();
 228:Generated_Source\PSoC4/CAN_TX_RX_func.c ****                 #endif /* CAN_SEND_MSG_0_CALLBACK */
 229:Generated_Source\PSoC4/CAN_TX_RX_func.c **** 
 230:Generated_Source\PSoC4/CAN_TX_RX_func.c ****                 CY_SET_REG32(CAN_TX_CMD_PTR(0u),
 231:Generated_Source\PSoC4/CAN_TX_RX_func.c ****                 CY_GET_REG32(CAN_TX_CMD_PTR(0u)) | CAN_SEND_MESSAGE);
 232:Generated_Source\PSoC4/CAN_TX_RX_func.c ****             }
 233:Generated_Source\PSoC4/CAN_TX_RX_func.c **** 
 234:Generated_Source\PSoC4/CAN_TX_RX_func.c ****         return (result);
 235:Generated_Source\PSoC4/CAN_TX_RX_func.c ****     }
 236:Generated_Source\PSoC4/CAN_TX_RX_func.c **** #endif /* CAN_TX0_FUNC_ENABLE */
 237:Generated_Source\PSoC4/CAN_TX_RX_func.c **** 
 238:Generated_Source\PSoC4/CAN_TX_RX_func.c **** 
 239:Generated_Source\PSoC4/CAN_TX_RX_func.c **** #if (CAN_TX1_FUNC_ENABLE)
 240:Generated_Source\PSoC4/CAN_TX_RX_func.c ****     /*******************************************************************************
 241:Generated_Source\PSoC4/CAN_TX_RX_func.c ****     * FUNCTION NAME:   CAN_SendMsg1
 242:Generated_Source\PSoC4/CAN_TX_RX_func.c ****     ********************************************************************************
 243:Generated_Source\PSoC4/CAN_TX_RX_func.c ****     *
 244:Generated_Source\PSoC4/CAN_TX_RX_func.c ****     * Summary:
 245:Generated_Source\PSoC4/CAN_TX_RX_func.c ****     *  This function is the entry point to Transmit Message 1. The function checks
 246:Generated_Source\PSoC4/CAN_TX_RX_func.c ****     *  if mailbox 1 doesn't already have un-transmitted messages waiting for
 247:Generated_Source\PSoC4/CAN_TX_RX_func.c ****     *  arbitration. If not initiate transmission of the message.
 248:Generated_Source\PSoC4/CAN_TX_RX_func.c ****     *  Generated only for the Transmit mailbox designed as Full.
 249:Generated_Source\PSoC4/CAN_TX_RX_func.c ****     *
 250:Generated_Source\PSoC4/CAN_TX_RX_func.c ****     * Parameters:
 251:Generated_Source\PSoC4/CAN_TX_RX_func.c ****     *  None.
 252:Generated_Source\PSoC4/CAN_TX_RX_func.c ****     *
 253:Generated_Source\PSoC4/CAN_TX_RX_func.c ****     * Return:
 254:Generated_Source\PSoC4/CAN_TX_RX_func.c ****     *  Indication if Message has been sent.
 255:Generated_Source\PSoC4/CAN_TX_RX_func.c ****     *   Define                             Description
 256:Generated_Source\PSoC4/CAN_TX_RX_func.c ****     *    CYRET_SUCCESS                      The function passed successfully
 257:Generated_Source\PSoC4/CAN_TX_RX_func.c ****     *    CAN_FAIL              The function failed
 258:Generated_Source\PSoC4/CAN_TX_RX_func.c ****     *
 259:Generated_Source\PSoC4/CAN_TX_RX_func.c ****     *******************************************************************************/
 260:Generated_Source\PSoC4/CAN_TX_RX_func.c ****     uint8 CAN_SendMsg1(void) 
 261:Generated_Source\PSoC4/CAN_TX_RX_func.c ****     {
 262:Generated_Source\PSoC4/CAN_TX_RX_func.c ****         uint8 result = CYRET_SUCCESS;
 263:Generated_Source\PSoC4/CAN_TX_RX_func.c **** 
 264:Generated_Source\PSoC4/CAN_TX_RX_func.c ****         #if (CY_PSOC3 || CY_PSOC5)
 265:Generated_Source\PSoC4/CAN_TX_RX_func.c ****             if ((CAN_TX[1u].txcmd.byte[0u] & CAN_TX_REQUEST_PENDING) != 0u)
 266:Generated_Source\PSoC4/CAN_TX_RX_func.c ****         #else  /* CY_PSOC4 */
 267:Generated_Source\PSoC4/CAN_TX_RX_func.c ****             if ((CAN_TX_CMD_REG(1u) & CAN_TX_REQUEST_PENDING) != 0u)
 268:Generated_Source\PSoC4/CAN_TX_RX_func.c ****         #endif /* CY_PSOC3 || CY_PSOC5 */
 269:Generated_Source\PSoC4/CAN_TX_RX_func.c ****             {
ARM GAS  C:\Users\austc\AppData\Local\Temp\ccgQthMX.s 			page 12


 270:Generated_Source\PSoC4/CAN_TX_RX_func.c ****                 result = CAN_FAIL;
 271:Generated_Source\PSoC4/CAN_TX_RX_func.c ****             }
 272:Generated_Source\PSoC4/CAN_TX_RX_func.c ****             else
 273:Generated_Source\PSoC4/CAN_TX_RX_func.c ****             {
 274:Generated_Source\PSoC4/CAN_TX_RX_func.c ****                 /* `#START MESSAGE_1_TRASMITTED` */
 275:Generated_Source\PSoC4/CAN_TX_RX_func.c **** 
 276:Generated_Source\PSoC4/CAN_TX_RX_func.c ****                 /* `#END` */
 277:Generated_Source\PSoC4/CAN_TX_RX_func.c **** 
 278:Generated_Source\PSoC4/CAN_TX_RX_func.c ****                 #ifdef CAN_SEND_MSG_1_CALLBACK
 279:Generated_Source\PSoC4/CAN_TX_RX_func.c ****                     CAN_SendMsg_1_Callback();
 280:Generated_Source\PSoC4/CAN_TX_RX_func.c ****                 #endif /* CAN_SEND_MSG_1_CALLBACK */
 281:Generated_Source\PSoC4/CAN_TX_RX_func.c **** 
 282:Generated_Source\PSoC4/CAN_TX_RX_func.c ****                 CY_SET_REG32(CAN_TX_CMD_PTR(1u),
 283:Generated_Source\PSoC4/CAN_TX_RX_func.c ****                 CY_GET_REG32(CAN_TX_CMD_PTR(1u)) | CAN_SEND_MESSAGE);
 284:Generated_Source\PSoC4/CAN_TX_RX_func.c ****             }
 285:Generated_Source\PSoC4/CAN_TX_RX_func.c **** 
 286:Generated_Source\PSoC4/CAN_TX_RX_func.c ****         return (result);
 287:Generated_Source\PSoC4/CAN_TX_RX_func.c ****     }
 288:Generated_Source\PSoC4/CAN_TX_RX_func.c **** #endif /* CAN_TX1_FUNC_ENABLE */
 289:Generated_Source\PSoC4/CAN_TX_RX_func.c **** 
 290:Generated_Source\PSoC4/CAN_TX_RX_func.c **** 
 291:Generated_Source\PSoC4/CAN_TX_RX_func.c **** #if (CAN_TX2_FUNC_ENABLE)
 292:Generated_Source\PSoC4/CAN_TX_RX_func.c ****     /*******************************************************************************
 293:Generated_Source\PSoC4/CAN_TX_RX_func.c ****     * FUNCTION NAME:   CAN_SendMsg2
 294:Generated_Source\PSoC4/CAN_TX_RX_func.c ****     ********************************************************************************
 295:Generated_Source\PSoC4/CAN_TX_RX_func.c ****     *
 296:Generated_Source\PSoC4/CAN_TX_RX_func.c ****     * Summary:
 297:Generated_Source\PSoC4/CAN_TX_RX_func.c ****     *  This function is the entry point to Transmit Message 2. The function checks
 298:Generated_Source\PSoC4/CAN_TX_RX_func.c ****     *  if mailbox 2 doesn't already have un-transmitted messages waiting for
 299:Generated_Source\PSoC4/CAN_TX_RX_func.c ****     *  arbitration. If not initiate transmission of the message.
 300:Generated_Source\PSoC4/CAN_TX_RX_func.c ****     *  Generated only for the Transmit mailbox designed as Full.
 301:Generated_Source\PSoC4/CAN_TX_RX_func.c ****     *
 302:Generated_Source\PSoC4/CAN_TX_RX_func.c ****     * Parameters:
 303:Generated_Source\PSoC4/CAN_TX_RX_func.c ****     *  None.
 304:Generated_Source\PSoC4/CAN_TX_RX_func.c ****     *
 305:Generated_Source\PSoC4/CAN_TX_RX_func.c ****     * Return:
 306:Generated_Source\PSoC4/CAN_TX_RX_func.c ****     *  Indication if Message has been sent.
 307:Generated_Source\PSoC4/CAN_TX_RX_func.c ****     *   Define                             Description
 308:Generated_Source\PSoC4/CAN_TX_RX_func.c ****     *    CYRET_SUCCESS                      The function passed successfully
 309:Generated_Source\PSoC4/CAN_TX_RX_func.c ****     *    CAN_FAIL              The function failed
 310:Generated_Source\PSoC4/CAN_TX_RX_func.c ****     *
 311:Generated_Source\PSoC4/CAN_TX_RX_func.c ****     *******************************************************************************/
 312:Generated_Source\PSoC4/CAN_TX_RX_func.c ****     uint8 CAN_SendMsg2(void) 
 313:Generated_Source\PSoC4/CAN_TX_RX_func.c ****     {
 314:Generated_Source\PSoC4/CAN_TX_RX_func.c ****         uint8 result = CYRET_SUCCESS;
 315:Generated_Source\PSoC4/CAN_TX_RX_func.c **** 
 316:Generated_Source\PSoC4/CAN_TX_RX_func.c ****         #if (CY_PSOC3 || CY_PSOC5)
 317:Generated_Source\PSoC4/CAN_TX_RX_func.c ****             if ((CAN_TX[2u].txcmd.byte[0u] & CAN_TX_REQUEST_PENDING) != 0u)
 318:Generated_Source\PSoC4/CAN_TX_RX_func.c ****         #else  /* CY_PSOC4 */
 319:Generated_Source\PSoC4/CAN_TX_RX_func.c ****             if ((CAN_TX_CMD_REG(2u) & CAN_TX_REQUEST_PENDING) != 0u)
 320:Generated_Source\PSoC4/CAN_TX_RX_func.c ****         #endif /* CY_PSOC3 || CY_PSOC5 */
 321:Generated_Source\PSoC4/CAN_TX_RX_func.c ****             {
 322:Generated_Source\PSoC4/CAN_TX_RX_func.c ****                 result = CAN_FAIL;
 323:Generated_Source\PSoC4/CAN_TX_RX_func.c ****             }
 324:Generated_Source\PSoC4/CAN_TX_RX_func.c ****             else
 325:Generated_Source\PSoC4/CAN_TX_RX_func.c ****             {
 326:Generated_Source\PSoC4/CAN_TX_RX_func.c ****                 /* `#START MESSAGE_2_TRASMITTED` */
ARM GAS  C:\Users\austc\AppData\Local\Temp\ccgQthMX.s 			page 13


 327:Generated_Source\PSoC4/CAN_TX_RX_func.c **** 
 328:Generated_Source\PSoC4/CAN_TX_RX_func.c ****                 /* `#END` */
 329:Generated_Source\PSoC4/CAN_TX_RX_func.c **** 
 330:Generated_Source\PSoC4/CAN_TX_RX_func.c ****                 #ifdef CAN_SEND_MSG_2_CALLBACK
 331:Generated_Source\PSoC4/CAN_TX_RX_func.c ****                     CAN_SendMsg_2_Callback();
 332:Generated_Source\PSoC4/CAN_TX_RX_func.c ****                 #endif /* CAN_SEND_MSG_2_CALLBACK */
 333:Generated_Source\PSoC4/CAN_TX_RX_func.c **** 
 334:Generated_Source\PSoC4/CAN_TX_RX_func.c ****                 CY_SET_REG32(CAN_TX_CMD_PTR(2u),
 335:Generated_Source\PSoC4/CAN_TX_RX_func.c ****                 CY_GET_REG32(CAN_TX_CMD_PTR(2u)) | CAN_SEND_MESSAGE);
 336:Generated_Source\PSoC4/CAN_TX_RX_func.c ****             }
 337:Generated_Source\PSoC4/CAN_TX_RX_func.c **** 
 338:Generated_Source\PSoC4/CAN_TX_RX_func.c ****         return (result);
 339:Generated_Source\PSoC4/CAN_TX_RX_func.c ****     }
 340:Generated_Source\PSoC4/CAN_TX_RX_func.c **** #endif /* CAN_TX2_FUNC_ENABLE */
 341:Generated_Source\PSoC4/CAN_TX_RX_func.c **** 
 342:Generated_Source\PSoC4/CAN_TX_RX_func.c **** 
 343:Generated_Source\PSoC4/CAN_TX_RX_func.c **** #if (CAN_TX3_FUNC_ENABLE)
 344:Generated_Source\PSoC4/CAN_TX_RX_func.c ****     /*******************************************************************************
 345:Generated_Source\PSoC4/CAN_TX_RX_func.c ****     * FUNCTION NAME:   CAN_SendMsg3
 346:Generated_Source\PSoC4/CAN_TX_RX_func.c ****     ********************************************************************************
 347:Generated_Source\PSoC4/CAN_TX_RX_func.c ****     *
 348:Generated_Source\PSoC4/CAN_TX_RX_func.c ****     * Summary:
 349:Generated_Source\PSoC4/CAN_TX_RX_func.c ****     *  This function is the entry point to Transmit Message 3. The function checks
 350:Generated_Source\PSoC4/CAN_TX_RX_func.c ****     *  if mailbox 3 doesn't already have un-transmitted messages waiting for
 351:Generated_Source\PSoC4/CAN_TX_RX_func.c ****     *  arbitration. If not initiate transmission of the message.
 352:Generated_Source\PSoC4/CAN_TX_RX_func.c ****     *  Generated only for the Transmit mailbox designed as Full.
 353:Generated_Source\PSoC4/CAN_TX_RX_func.c ****     *
 354:Generated_Source\PSoC4/CAN_TX_RX_func.c ****     * Parameters:
 355:Generated_Source\PSoC4/CAN_TX_RX_func.c ****     *  None.
 356:Generated_Source\PSoC4/CAN_TX_RX_func.c ****     *
 357:Generated_Source\PSoC4/CAN_TX_RX_func.c ****     * Return:
 358:Generated_Source\PSoC4/CAN_TX_RX_func.c ****     *  Indication if Message has been sent.
 359:Generated_Source\PSoC4/CAN_TX_RX_func.c ****     *   Define                             Description
 360:Generated_Source\PSoC4/CAN_TX_RX_func.c ****     *    CYRET_SUCCESS                      The function passed successfully
 361:Generated_Source\PSoC4/CAN_TX_RX_func.c ****     *    CAN_FAIL              The function failed
 362:Generated_Source\PSoC4/CAN_TX_RX_func.c ****     *
 363:Generated_Source\PSoC4/CAN_TX_RX_func.c ****     *******************************************************************************/
 364:Generated_Source\PSoC4/CAN_TX_RX_func.c ****     uint8 CAN_SendMsg3(void) 
 365:Generated_Source\PSoC4/CAN_TX_RX_func.c ****     {
 366:Generated_Source\PSoC4/CAN_TX_RX_func.c ****         uint8 result = CYRET_SUCCESS;
 367:Generated_Source\PSoC4/CAN_TX_RX_func.c **** 
 368:Generated_Source\PSoC4/CAN_TX_RX_func.c ****         #if (CY_PSOC3 || CY_PSOC5)
 369:Generated_Source\PSoC4/CAN_TX_RX_func.c ****             if ((CAN_TX[3u].txcmd.byte[0u] & CAN_TX_REQUEST_PENDING) != 0u)
 370:Generated_Source\PSoC4/CAN_TX_RX_func.c ****         #else  /* CY_PSOC4 */
 371:Generated_Source\PSoC4/CAN_TX_RX_func.c ****             if ((CAN_TX_CMD_REG(3u) & CAN_TX_REQUEST_PENDING) != 0u)
 372:Generated_Source\PSoC4/CAN_TX_RX_func.c ****         #endif /* CY_PSOC3 || CY_PSOC5 */
 373:Generated_Source\PSoC4/CAN_TX_RX_func.c ****             {
 374:Generated_Source\PSoC4/CAN_TX_RX_func.c ****                 result = CAN_FAIL;
 375:Generated_Source\PSoC4/CAN_TX_RX_func.c ****             }
 376:Generated_Source\PSoC4/CAN_TX_RX_func.c ****             else
 377:Generated_Source\PSoC4/CAN_TX_RX_func.c ****             {
 378:Generated_Source\PSoC4/CAN_TX_RX_func.c ****                 /* `#START MESSAGE_3_TRASMITTED` */
 379:Generated_Source\PSoC4/CAN_TX_RX_func.c **** 
 380:Generated_Source\PSoC4/CAN_TX_RX_func.c ****                 /* `#END` */
 381:Generated_Source\PSoC4/CAN_TX_RX_func.c **** 
 382:Generated_Source\PSoC4/CAN_TX_RX_func.c ****                 #ifdef CAN_SEND_MSG_3_CALLBACK
 383:Generated_Source\PSoC4/CAN_TX_RX_func.c ****                     CAN_SendMsg_3_Callback();
ARM GAS  C:\Users\austc\AppData\Local\Temp\ccgQthMX.s 			page 14


 384:Generated_Source\PSoC4/CAN_TX_RX_func.c ****                 #endif /* CAN_SEND_MSG_3_CALLBACK */
 385:Generated_Source\PSoC4/CAN_TX_RX_func.c **** 
 386:Generated_Source\PSoC4/CAN_TX_RX_func.c ****                 CY_SET_REG32(CAN_TX_CMD_PTR(3u),
 387:Generated_Source\PSoC4/CAN_TX_RX_func.c ****                 CY_GET_REG32(CAN_TX_CMD_PTR(3u)) | CAN_SEND_MESSAGE);
 388:Generated_Source\PSoC4/CAN_TX_RX_func.c ****             }
 389:Generated_Source\PSoC4/CAN_TX_RX_func.c **** 
 390:Generated_Source\PSoC4/CAN_TX_RX_func.c ****         return (result);
 391:Generated_Source\PSoC4/CAN_TX_RX_func.c ****     }
 392:Generated_Source\PSoC4/CAN_TX_RX_func.c **** #endif /* CAN_TX3_FUNC_ENABLE */
 393:Generated_Source\PSoC4/CAN_TX_RX_func.c **** 
 394:Generated_Source\PSoC4/CAN_TX_RX_func.c **** 
 395:Generated_Source\PSoC4/CAN_TX_RX_func.c **** #if (CAN_TX4_FUNC_ENABLE)
 396:Generated_Source\PSoC4/CAN_TX_RX_func.c ****     /*******************************************************************************
 397:Generated_Source\PSoC4/CAN_TX_RX_func.c ****     * FUNCTION NAME:   CAN_SendMsg4
 398:Generated_Source\PSoC4/CAN_TX_RX_func.c ****     ********************************************************************************
 399:Generated_Source\PSoC4/CAN_TX_RX_func.c ****     *
 400:Generated_Source\PSoC4/CAN_TX_RX_func.c ****     * Summary:
 401:Generated_Source\PSoC4/CAN_TX_RX_func.c ****     *  This function is the entry point to Transmit Message 4. The function checks
 402:Generated_Source\PSoC4/CAN_TX_RX_func.c ****     *  if mailbox 4 doesn't already have un-transmitted messages waiting for
 403:Generated_Source\PSoC4/CAN_TX_RX_func.c ****     *  arbitration. If not initiate transmission of the message.
 404:Generated_Source\PSoC4/CAN_TX_RX_func.c ****     *  Generated only for the Transmit mailbox designed as Full.
 405:Generated_Source\PSoC4/CAN_TX_RX_func.c ****     *
 406:Generated_Source\PSoC4/CAN_TX_RX_func.c ****     * Parameters:
 407:Generated_Source\PSoC4/CAN_TX_RX_func.c ****     *  None.
 408:Generated_Source\PSoC4/CAN_TX_RX_func.c ****     *
 409:Generated_Source\PSoC4/CAN_TX_RX_func.c ****     * Return:
 410:Generated_Source\PSoC4/CAN_TX_RX_func.c ****     *  Indication if Message has been sent.
 411:Generated_Source\PSoC4/CAN_TX_RX_func.c ****     *   Define                             Description
 412:Generated_Source\PSoC4/CAN_TX_RX_func.c ****     *    CYRET_SUCCESS                      The function passed successfully
 413:Generated_Source\PSoC4/CAN_TX_RX_func.c ****     *    CAN_FAIL              The function failed
 414:Generated_Source\PSoC4/CAN_TX_RX_func.c ****     *
 415:Generated_Source\PSoC4/CAN_TX_RX_func.c ****     *******************************************************************************/
 416:Generated_Source\PSoC4/CAN_TX_RX_func.c ****     uint8 CAN_SendMsg4(void) 
 417:Generated_Source\PSoC4/CAN_TX_RX_func.c ****     {
 418:Generated_Source\PSoC4/CAN_TX_RX_func.c ****         uint8 result = CYRET_SUCCESS;
 419:Generated_Source\PSoC4/CAN_TX_RX_func.c **** 
 420:Generated_Source\PSoC4/CAN_TX_RX_func.c ****         #if (CY_PSOC3 || CY_PSOC5)
 421:Generated_Source\PSoC4/CAN_TX_RX_func.c ****             if ((CAN_TX[4u].txcmd.byte[0u] & CAN_TX_REQUEST_PENDING) != 0u)
 422:Generated_Source\PSoC4/CAN_TX_RX_func.c ****         #else  /* CY_PSOC4 */
 423:Generated_Source\PSoC4/CAN_TX_RX_func.c ****             if ((CAN_TX_CMD_REG(4u) & CAN_TX_REQUEST_PENDING) != 0u)
 424:Generated_Source\PSoC4/CAN_TX_RX_func.c ****         #endif /* CY_PSOC3 || CY_PSOC5 */
 425:Generated_Source\PSoC4/CAN_TX_RX_func.c ****             {
 426:Generated_Source\PSoC4/CAN_TX_RX_func.c ****                 result = CAN_FAIL;
 427:Generated_Source\PSoC4/CAN_TX_RX_func.c ****             }
 428:Generated_Source\PSoC4/CAN_TX_RX_func.c ****             else
 429:Generated_Source\PSoC4/CAN_TX_RX_func.c ****             {
 430:Generated_Source\PSoC4/CAN_TX_RX_func.c ****                 /* `#START MESSAGE_4_TRASMITTED` */
 431:Generated_Source\PSoC4/CAN_TX_RX_func.c **** 
 432:Generated_Source\PSoC4/CAN_TX_RX_func.c ****                 /* `#END` */
 433:Generated_Source\PSoC4/CAN_TX_RX_func.c **** 
 434:Generated_Source\PSoC4/CAN_TX_RX_func.c ****                 #ifdef CAN_SEND_MSG_4_CALLBACK
 435:Generated_Source\PSoC4/CAN_TX_RX_func.c ****                     CAN_SendMsg_4_Callback();
 436:Generated_Source\PSoC4/CAN_TX_RX_func.c ****                 #endif /* CAN_SEND_MSG_4_CALLBACK */
 437:Generated_Source\PSoC4/CAN_TX_RX_func.c **** 
 438:Generated_Source\PSoC4/CAN_TX_RX_func.c ****                 CY_SET_REG32(CAN_TX_CMD_PTR(4u),
 439:Generated_Source\PSoC4/CAN_TX_RX_func.c ****                 CY_GET_REG32(CAN_TX_CMD_PTR(4u)) | CAN_SEND_MESSAGE);
 440:Generated_Source\PSoC4/CAN_TX_RX_func.c ****             }
ARM GAS  C:\Users\austc\AppData\Local\Temp\ccgQthMX.s 			page 15


 441:Generated_Source\PSoC4/CAN_TX_RX_func.c **** 
 442:Generated_Source\PSoC4/CAN_TX_RX_func.c ****         return (result);
 443:Generated_Source\PSoC4/CAN_TX_RX_func.c ****     }
 444:Generated_Source\PSoC4/CAN_TX_RX_func.c **** #endif /* CAN_TX4_FUNC_ENABLE */
 445:Generated_Source\PSoC4/CAN_TX_RX_func.c **** 
 446:Generated_Source\PSoC4/CAN_TX_RX_func.c **** 
 447:Generated_Source\PSoC4/CAN_TX_RX_func.c **** #if (CAN_TX5_FUNC_ENABLE)
 448:Generated_Source\PSoC4/CAN_TX_RX_func.c ****     /*******************************************************************************
 449:Generated_Source\PSoC4/CAN_TX_RX_func.c ****     * FUNCTION NAME:   CAN_SendMsg5
 450:Generated_Source\PSoC4/CAN_TX_RX_func.c ****     ********************************************************************************
 451:Generated_Source\PSoC4/CAN_TX_RX_func.c ****     *
 452:Generated_Source\PSoC4/CAN_TX_RX_func.c ****     * Summary:
 453:Generated_Source\PSoC4/CAN_TX_RX_func.c ****     *  This function is the entry point to Transmit Message 5. The function checks
 454:Generated_Source\PSoC4/CAN_TX_RX_func.c ****     *  if mailbox 5 doesn't already have un-transmitted messages waiting for
 455:Generated_Source\PSoC4/CAN_TX_RX_func.c ****     *  arbitration. If not initiate transmission of the message.
 456:Generated_Source\PSoC4/CAN_TX_RX_func.c ****     *  Generated only for the Transmit mailbox designed as Full.
 457:Generated_Source\PSoC4/CAN_TX_RX_func.c ****     *
 458:Generated_Source\PSoC4/CAN_TX_RX_func.c ****     * Parameters:
 459:Generated_Source\PSoC4/CAN_TX_RX_func.c ****     *  None.
 460:Generated_Source\PSoC4/CAN_TX_RX_func.c ****     *
 461:Generated_Source\PSoC4/CAN_TX_RX_func.c ****     * Return:
 462:Generated_Source\PSoC4/CAN_TX_RX_func.c ****     *  Indication if Message has been sent.
 463:Generated_Source\PSoC4/CAN_TX_RX_func.c ****     *   Define                             Description
 464:Generated_Source\PSoC4/CAN_TX_RX_func.c ****     *    CYRET_SUCCESS                      The function passed successfully
 465:Generated_Source\PSoC4/CAN_TX_RX_func.c ****     *    CAN_FAIL              The function failed
 466:Generated_Source\PSoC4/CAN_TX_RX_func.c ****     *
 467:Generated_Source\PSoC4/CAN_TX_RX_func.c ****     *******************************************************************************/
 468:Generated_Source\PSoC4/CAN_TX_RX_func.c ****     uint8 CAN_SendMsg5(void) 
 469:Generated_Source\PSoC4/CAN_TX_RX_func.c ****     {
 470:Generated_Source\PSoC4/CAN_TX_RX_func.c ****         uint8 result = CYRET_SUCCESS;
 471:Generated_Source\PSoC4/CAN_TX_RX_func.c **** 
 472:Generated_Source\PSoC4/CAN_TX_RX_func.c ****         #if (CY_PSOC3 || CY_PSOC5)
 473:Generated_Source\PSoC4/CAN_TX_RX_func.c ****             if ((CAN_TX[5u].txcmd.byte[0u] & CAN_TX_REQUEST_PENDING) != 0u)
 474:Generated_Source\PSoC4/CAN_TX_RX_func.c ****         #else  /* CY_PSOC4 */
 475:Generated_Source\PSoC4/CAN_TX_RX_func.c ****             if ((CAN_TX_CMD_REG(5u) & CAN_TX_REQUEST_PENDING) != 0u)
 476:Generated_Source\PSoC4/CAN_TX_RX_func.c ****         #endif /* CY_PSOC3 || CY_PSOC5 */
 477:Generated_Source\PSoC4/CAN_TX_RX_func.c ****             {
 478:Generated_Source\PSoC4/CAN_TX_RX_func.c ****                 result = CAN_FAIL;
 479:Generated_Source\PSoC4/CAN_TX_RX_func.c ****             }
 480:Generated_Source\PSoC4/CAN_TX_RX_func.c ****             else
 481:Generated_Source\PSoC4/CAN_TX_RX_func.c ****             {
 482:Generated_Source\PSoC4/CAN_TX_RX_func.c ****                 /* `#START MESSAGE_5_TRASMITTED` */
 483:Generated_Source\PSoC4/CAN_TX_RX_func.c **** 
 484:Generated_Source\PSoC4/CAN_TX_RX_func.c ****                 /* `#END` */
 485:Generated_Source\PSoC4/CAN_TX_RX_func.c **** 
 486:Generated_Source\PSoC4/CAN_TX_RX_func.c ****                 #ifdef CAN_SEND_MSG_5_CALLBACK
 487:Generated_Source\PSoC4/CAN_TX_RX_func.c ****                     CAN_SendMsg_5_Callback();
 488:Generated_Source\PSoC4/CAN_TX_RX_func.c ****                 #endif /* CAN_SEND_MSG_5_CALLBACK */
 489:Generated_Source\PSoC4/CAN_TX_RX_func.c **** 
 490:Generated_Source\PSoC4/CAN_TX_RX_func.c ****                 CY_SET_REG32(CAN_TX_CMD_PTR(5u),
 491:Generated_Source\PSoC4/CAN_TX_RX_func.c ****                 CY_GET_REG32(CAN_TX_CMD_PTR(5u)) | CAN_SEND_MESSAGE);
 492:Generated_Source\PSoC4/CAN_TX_RX_func.c ****             }
 493:Generated_Source\PSoC4/CAN_TX_RX_func.c **** 
 494:Generated_Source\PSoC4/CAN_TX_RX_func.c ****         return (result);
 495:Generated_Source\PSoC4/CAN_TX_RX_func.c ****     }
 496:Generated_Source\PSoC4/CAN_TX_RX_func.c **** #endif /* CAN_TX5_FUNC_ENABLE */
 497:Generated_Source\PSoC4/CAN_TX_RX_func.c **** 
ARM GAS  C:\Users\austc\AppData\Local\Temp\ccgQthMX.s 			page 16


 498:Generated_Source\PSoC4/CAN_TX_RX_func.c **** 
 499:Generated_Source\PSoC4/CAN_TX_RX_func.c **** #if (CAN_TX6_FUNC_ENABLE)
 500:Generated_Source\PSoC4/CAN_TX_RX_func.c ****     /*******************************************************************************
 501:Generated_Source\PSoC4/CAN_TX_RX_func.c ****     * FUNCTION NAME:   CAN_SendMsg6
 502:Generated_Source\PSoC4/CAN_TX_RX_func.c ****     ********************************************************************************
 503:Generated_Source\PSoC4/CAN_TX_RX_func.c ****     *
 504:Generated_Source\PSoC4/CAN_TX_RX_func.c ****     * Summary:
 505:Generated_Source\PSoC4/CAN_TX_RX_func.c ****     *  This function is the entry point to Transmit Message 6. The function checks
 506:Generated_Source\PSoC4/CAN_TX_RX_func.c ****     *  if mailbox 6 doesn't already have un-transmitted messages waiting for
 507:Generated_Source\PSoC4/CAN_TX_RX_func.c ****     *  arbitration. If not initiate transmission of the message.
 508:Generated_Source\PSoC4/CAN_TX_RX_func.c ****     *  Generated only for the Transmit mailbox designed as Full.
 509:Generated_Source\PSoC4/CAN_TX_RX_func.c ****     *
 510:Generated_Source\PSoC4/CAN_TX_RX_func.c ****     * Parameters:
 511:Generated_Source\PSoC4/CAN_TX_RX_func.c ****     *  None.
 512:Generated_Source\PSoC4/CAN_TX_RX_func.c ****     *
 513:Generated_Source\PSoC4/CAN_TX_RX_func.c ****     * Return:
 514:Generated_Source\PSoC4/CAN_TX_RX_func.c ****     *  Indication if Message has been sent.
 515:Generated_Source\PSoC4/CAN_TX_RX_func.c ****     *   Define                             Description
 516:Generated_Source\PSoC4/CAN_TX_RX_func.c ****     *    CYRET_SUCCESS                      The function passed successfully
 517:Generated_Source\PSoC4/CAN_TX_RX_func.c ****     *    CAN_FAIL              The function failed
 518:Generated_Source\PSoC4/CAN_TX_RX_func.c ****     *
 519:Generated_Source\PSoC4/CAN_TX_RX_func.c ****     *******************************************************************************/
 520:Generated_Source\PSoC4/CAN_TX_RX_func.c ****     uint8 CAN_SendMsg6(void) 
 521:Generated_Source\PSoC4/CAN_TX_RX_func.c ****     {
 522:Generated_Source\PSoC4/CAN_TX_RX_func.c ****         uint8 result = CYRET_SUCCESS;
 523:Generated_Source\PSoC4/CAN_TX_RX_func.c **** 
 524:Generated_Source\PSoC4/CAN_TX_RX_func.c ****         #if (CY_PSOC3 || CY_PSOC5)
 525:Generated_Source\PSoC4/CAN_TX_RX_func.c ****             if ((CAN_TX[6u].txcmd.byte[0u] & CAN_TX_REQUEST_PENDING) != 0u)
 526:Generated_Source\PSoC4/CAN_TX_RX_func.c ****         #else  /* CY_PSOC4 */
 527:Generated_Source\PSoC4/CAN_TX_RX_func.c ****             if ((CAN_TX_CMD_REG(6u) & CAN_TX_REQUEST_PENDING) != 0u)
 528:Generated_Source\PSoC4/CAN_TX_RX_func.c ****         #endif /* CY_PSOC3 || CY_PSOC5 */
 529:Generated_Source\PSoC4/CAN_TX_RX_func.c ****             {
 530:Generated_Source\PSoC4/CAN_TX_RX_func.c ****                 result = CAN_FAIL;
 531:Generated_Source\PSoC4/CAN_TX_RX_func.c ****             }
 532:Generated_Source\PSoC4/CAN_TX_RX_func.c ****             else
 533:Generated_Source\PSoC4/CAN_TX_RX_func.c ****             {
 534:Generated_Source\PSoC4/CAN_TX_RX_func.c ****                 /* `#START MESSAGE_6_TRASMITTED` */
 535:Generated_Source\PSoC4/CAN_TX_RX_func.c **** 
 536:Generated_Source\PSoC4/CAN_TX_RX_func.c ****                 /* `#END` */
 537:Generated_Source\PSoC4/CAN_TX_RX_func.c **** 
 538:Generated_Source\PSoC4/CAN_TX_RX_func.c ****                 #ifdef CAN_SEND_MSG_6_CALLBACK
 539:Generated_Source\PSoC4/CAN_TX_RX_func.c ****                     CAN_SendMsg_6_Callback();
 540:Generated_Source\PSoC4/CAN_TX_RX_func.c ****                 #endif /* CAN_SEND_MSG_6_CALLBACK */
 541:Generated_Source\PSoC4/CAN_TX_RX_func.c **** 
 542:Generated_Source\PSoC4/CAN_TX_RX_func.c ****                 CY_SET_REG32(CAN_TX_CMD_PTR(6u),
 543:Generated_Source\PSoC4/CAN_TX_RX_func.c ****                 CY_GET_REG32(CAN_TX_CMD_PTR(6u)) | CAN_SEND_MESSAGE);
 544:Generated_Source\PSoC4/CAN_TX_RX_func.c ****             }
 545:Generated_Source\PSoC4/CAN_TX_RX_func.c **** 
 546:Generated_Source\PSoC4/CAN_TX_RX_func.c ****         return (result);
 547:Generated_Source\PSoC4/CAN_TX_RX_func.c ****     }
 548:Generated_Source\PSoC4/CAN_TX_RX_func.c **** #endif /* CAN_TX6_FUNC_ENABLE */
 549:Generated_Source\PSoC4/CAN_TX_RX_func.c **** 
 550:Generated_Source\PSoC4/CAN_TX_RX_func.c **** 
 551:Generated_Source\PSoC4/CAN_TX_RX_func.c **** #if (CAN_TX7_FUNC_ENABLE)
 552:Generated_Source\PSoC4/CAN_TX_RX_func.c ****     /*******************************************************************************
 553:Generated_Source\PSoC4/CAN_TX_RX_func.c ****     * FUNCTION NAME:   CAN_SendMsg7)
 554:Generated_Source\PSoC4/CAN_TX_RX_func.c ****     ********************************************************************************
ARM GAS  C:\Users\austc\AppData\Local\Temp\ccgQthMX.s 			page 17


 555:Generated_Source\PSoC4/CAN_TX_RX_func.c ****     *
 556:Generated_Source\PSoC4/CAN_TX_RX_func.c ****     * Summary:
 557:Generated_Source\PSoC4/CAN_TX_RX_func.c ****     *  This function is the entry point to Transmit Message 7. The function checks
 558:Generated_Source\PSoC4/CAN_TX_RX_func.c ****     *  if mailbox 7 doesn't already have un-transmitted messages waiting for
 559:Generated_Source\PSoC4/CAN_TX_RX_func.c ****     *  arbitration. If not initiate transmission of the message.
 560:Generated_Source\PSoC4/CAN_TX_RX_func.c ****     *  Generated only for the Transmit mailbox designed as Full.
 561:Generated_Source\PSoC4/CAN_TX_RX_func.c ****     *
 562:Generated_Source\PSoC4/CAN_TX_RX_func.c ****     * Parameters:
 563:Generated_Source\PSoC4/CAN_TX_RX_func.c ****     *  None.
 564:Generated_Source\PSoC4/CAN_TX_RX_func.c ****     *
 565:Generated_Source\PSoC4/CAN_TX_RX_func.c ****     * Return:
 566:Generated_Source\PSoC4/CAN_TX_RX_func.c ****     *  Indication if Message has been sent.
 567:Generated_Source\PSoC4/CAN_TX_RX_func.c ****     *   Define                             Description
 568:Generated_Source\PSoC4/CAN_TX_RX_func.c ****     *    CYRET_SUCCESS                      The function passed successfully
 569:Generated_Source\PSoC4/CAN_TX_RX_func.c ****     *    CAN_FAIL              The function failed
 570:Generated_Source\PSoC4/CAN_TX_RX_func.c ****     *
 571:Generated_Source\PSoC4/CAN_TX_RX_func.c ****     *******************************************************************************/
 572:Generated_Source\PSoC4/CAN_TX_RX_func.c ****     uint8 CAN_SendMsg7(void) 
 573:Generated_Source\PSoC4/CAN_TX_RX_func.c ****     {
 574:Generated_Source\PSoC4/CAN_TX_RX_func.c ****         uint8 result = CYRET_SUCCESS;
 575:Generated_Source\PSoC4/CAN_TX_RX_func.c **** 
 576:Generated_Source\PSoC4/CAN_TX_RX_func.c ****         #if (CY_PSOC3 || CY_PSOC5)
 577:Generated_Source\PSoC4/CAN_TX_RX_func.c ****             if ((CAN_TX[7u].txcmd.byte[0u] & CAN_TX_REQUEST_PENDING) != 0u)
 578:Generated_Source\PSoC4/CAN_TX_RX_func.c ****         #else  /* CY_PSOC4 */
 579:Generated_Source\PSoC4/CAN_TX_RX_func.c ****             if ((CAN_TX_CMD_REG(7u) & CAN_TX_REQUEST_PENDING) != 0u)
 580:Generated_Source\PSoC4/CAN_TX_RX_func.c ****         #endif /* CY_PSOC3 || CY_PSOC5 */
 581:Generated_Source\PSoC4/CAN_TX_RX_func.c ****             {
 582:Generated_Source\PSoC4/CAN_TX_RX_func.c ****                 result = CAN_FAIL;
 583:Generated_Source\PSoC4/CAN_TX_RX_func.c ****             }
 584:Generated_Source\PSoC4/CAN_TX_RX_func.c ****             else
 585:Generated_Source\PSoC4/CAN_TX_RX_func.c ****             {
 586:Generated_Source\PSoC4/CAN_TX_RX_func.c ****                 /* `#START MESSAGE_7_TRASMITTED` */
 587:Generated_Source\PSoC4/CAN_TX_RX_func.c **** 
 588:Generated_Source\PSoC4/CAN_TX_RX_func.c ****                 /* `#END` */
 589:Generated_Source\PSoC4/CAN_TX_RX_func.c **** 
 590:Generated_Source\PSoC4/CAN_TX_RX_func.c ****                 #ifdef CAN_SEND_MSG_7_CALLBACK
 591:Generated_Source\PSoC4/CAN_TX_RX_func.c ****                     CAN_SendMsg_7_Callback();
 592:Generated_Source\PSoC4/CAN_TX_RX_func.c ****                 #endif /* CAN_SEND_MSG_7_CALLBACK */
 593:Generated_Source\PSoC4/CAN_TX_RX_func.c **** 
 594:Generated_Source\PSoC4/CAN_TX_RX_func.c ****                 CY_SET_REG32(CAN_TX_CMD_PTR(7u),
 595:Generated_Source\PSoC4/CAN_TX_RX_func.c ****                 CY_GET_REG32(CAN_TX_CMD_PTR(7u)) | CAN_SEND_MESSAGE);
 596:Generated_Source\PSoC4/CAN_TX_RX_func.c ****             }
 597:Generated_Source\PSoC4/CAN_TX_RX_func.c **** 
 598:Generated_Source\PSoC4/CAN_TX_RX_func.c ****         return (result);
 599:Generated_Source\PSoC4/CAN_TX_RX_func.c ****     }
 600:Generated_Source\PSoC4/CAN_TX_RX_func.c **** #endif /* CAN_TX7_FUNC_ENABLE */
 601:Generated_Source\PSoC4/CAN_TX_RX_func.c **** 
 602:Generated_Source\PSoC4/CAN_TX_RX_func.c **** 
 603:Generated_Source\PSoC4/CAN_TX_RX_func.c **** /*******************************************************************************
 604:Generated_Source\PSoC4/CAN_TX_RX_func.c **** * FUNCTION NAME:   CAN_ReceiveMsg
 605:Generated_Source\PSoC4/CAN_TX_RX_func.c **** ********************************************************************************
 606:Generated_Source\PSoC4/CAN_TX_RX_func.c **** *
 607:Generated_Source\PSoC4/CAN_TX_RX_func.c **** * Summary:
 608:Generated_Source\PSoC4/CAN_TX_RX_func.c **** *  This function is the entry point to Receive Message Interrupt for Basic
 609:Generated_Source\PSoC4/CAN_TX_RX_func.c **** *  mailboxes. Clears the Receive particular Message interrupt flag. Generated
 610:Generated_Source\PSoC4/CAN_TX_RX_func.c **** *  only if one of the Receive mailboxes is designed as Basic.
 611:Generated_Source\PSoC4/CAN_TX_RX_func.c **** *
ARM GAS  C:\Users\austc\AppData\Local\Temp\ccgQthMX.s 			page 18


 612:Generated_Source\PSoC4/CAN_TX_RX_func.c **** * Parameters:
 613:Generated_Source\PSoC4/CAN_TX_RX_func.c **** *  rxMailbox: The mailbox number that trig Receive Message Interrupt.
 614:Generated_Source\PSoC4/CAN_TX_RX_func.c **** *
 615:Generated_Source\PSoC4/CAN_TX_RX_func.c **** * Return:
 616:Generated_Source\PSoC4/CAN_TX_RX_func.c **** *  None.
 617:Generated_Source\PSoC4/CAN_TX_RX_func.c **** *
 618:Generated_Source\PSoC4/CAN_TX_RX_func.c **** * Reentrant:
 619:Generated_Source\PSoC4/CAN_TX_RX_func.c **** *  Depends on the Customer code.
 620:Generated_Source\PSoC4/CAN_TX_RX_func.c **** *
 621:Generated_Source\PSoC4/CAN_TX_RX_func.c **** *******************************************************************************/
 622:Generated_Source\PSoC4/CAN_TX_RX_func.c **** void CAN_ReceiveMsg(uint8 rxMailbox) 
 623:Generated_Source\PSoC4/CAN_TX_RX_func.c **** {
 350              		.loc 1 623 0
 351              		.cfi_startproc
 352              		@ args = 0, pretend = 0, frame = 0
 353              		@ frame_needed = 0, uses_anonymous_args = 0
 354              		@ link register save eliminated.
 355              	.LVL29:
 624:Generated_Source\PSoC4/CAN_TX_RX_func.c ****     #if (CY_PSOC3 || CY_PSOC5)
 625:Generated_Source\PSoC4/CAN_TX_RX_func.c ****         if ((CAN_RX[rxMailbox].rxcmd.byte[0u] & CAN_RX_ACK_MSG) != 0u)
 626:Generated_Source\PSoC4/CAN_TX_RX_func.c ****     #else  /* CY_PSOC4 */
 627:Generated_Source\PSoC4/CAN_TX_RX_func.c ****         if ((CAN_RX_CMD_REG(rxMailbox) & CAN_RX_ACK_MSG) != 0u)
 356              		.loc 1 627 0
 357 0000 4001     		lsls	r0, r0, #5
 358              	.LVL30:
 359 0002 054B     		ldr	r3, .L31
 360 0004 9C46     		mov	ip, r3
 361 0006 6044     		add	r0, r0, ip
 362 0008 0368     		ldr	r3, [r0]
 363 000a DB07     		lsls	r3, r3, #31
 364 000c 03D5     		bpl	.L29
 628:Generated_Source\PSoC4/CAN_TX_RX_func.c ****     #endif /* CY_PSOC3 || CY_PSOC5 */
 629:Generated_Source\PSoC4/CAN_TX_RX_func.c ****         {
 630:Generated_Source\PSoC4/CAN_TX_RX_func.c ****             /* `#START MESSAGE_BASIC_RECEIVED` */
 631:Generated_Source\PSoC4/CAN_TX_RX_func.c **** 
 632:Generated_Source\PSoC4/CAN_TX_RX_func.c ****             /* `#END` */
 633:Generated_Source\PSoC4/CAN_TX_RX_func.c **** 
 634:Generated_Source\PSoC4/CAN_TX_RX_func.c ****             #ifdef CAN_RECEIVE_MSG_CALLBACK
 635:Generated_Source\PSoC4/CAN_TX_RX_func.c ****                 CAN_ReceiveMsg_Callback();
 636:Generated_Source\PSoC4/CAN_TX_RX_func.c ****             #endif /* CAN_RECEIVE_MSG_CALLBACK */
 637:Generated_Source\PSoC4/CAN_TX_RX_func.c **** 
 638:Generated_Source\PSoC4/CAN_TX_RX_func.c ****             #if (CY_PSOC3 || CY_PSOC5)
 639:Generated_Source\PSoC4/CAN_TX_RX_func.c ****                 CAN_RX[rxMailbox].rxcmd.byte[0u] |= CAN_RX_ACK_MSG;
 640:Generated_Source\PSoC4/CAN_TX_RX_func.c ****             #else  /* CY_PSOC4 */
 641:Generated_Source\PSoC4/CAN_TX_RX_func.c ****                 CAN_RX_CMD_REG(rxMailbox) |= CAN_RX_ACK_MSG;
 365              		.loc 1 641 0
 366 000e 0268     		ldr	r2, [r0]
 367 0010 0123     		movs	r3, #1
 368 0012 1343     		orrs	r3, r2
 369 0014 0360     		str	r3, [r0]
 370              	.L29:
 642:Generated_Source\PSoC4/CAN_TX_RX_func.c ****             #endif /* CY_PSOC3 || CY_PSOC5 */
 643:Generated_Source\PSoC4/CAN_TX_RX_func.c ****         }
 644:Generated_Source\PSoC4/CAN_TX_RX_func.c **** }
 371              		.loc 1 644 0
 372              		@ sp needed
 373 0016 7047     		bx	lr
ARM GAS  C:\Users\austc\AppData\Local\Temp\ccgQthMX.s 			page 19


 374              	.L32:
 375              		.align	2
 376              	.L31:
 377 0018 A0002F40 		.word	1076822176
 378              		.cfi_endproc
 379              	.LFE36:
 380              		.size	CAN_ReceiveMsg, .-CAN_ReceiveMsg
 381              		.section	.text.CAN_ReceiveMsgToBaseRotation_1,"ax",%progbits
 382              		.align	2
 383              		.global	CAN_ReceiveMsgToBaseRotation_1
 384              		.code	16
 385              		.thumb_func
 386              		.type	CAN_ReceiveMsgToBaseRotation_1, %function
 387              	CAN_ReceiveMsgToBaseRotation_1:
 388              	.LFB37:
 645:Generated_Source\PSoC4/CAN_TX_RX_func.c **** 
 646:Generated_Source\PSoC4/CAN_TX_RX_func.c **** 
 647:Generated_Source\PSoC4/CAN_TX_RX_func.c **** #if (CAN_RX0_FUNC_ENABLE)
 648:Generated_Source\PSoC4/CAN_TX_RX_func.c ****     /*******************************************************************************
 649:Generated_Source\PSoC4/CAN_TX_RX_func.c ****     * FUNCTION NAME:   CAN_ReceiveMsgToBaseRotation_1
 650:Generated_Source\PSoC4/CAN_TX_RX_func.c ****     ********************************************************************************
 651:Generated_Source\PSoC4/CAN_TX_RX_func.c ****     *
 652:Generated_Source\PSoC4/CAN_TX_RX_func.c ****     * Summary:
 653:Generated_Source\PSoC4/CAN_TX_RX_func.c ****     *  This function is the entry point to Receive Message 0 Interrupt. Clears the
 654:Generated_Source\PSoC4/CAN_TX_RX_func.c ****     *  Receive Message 0 interrupt flag. Generated only for the Receive mailbox
 655:Generated_Source\PSoC4/CAN_TX_RX_func.c ****     *  designed as Full.
 656:Generated_Source\PSoC4/CAN_TX_RX_func.c ****     *
 657:Generated_Source\PSoC4/CAN_TX_RX_func.c ****     * Parameters:
 658:Generated_Source\PSoC4/CAN_TX_RX_func.c ****     *  None.
 659:Generated_Source\PSoC4/CAN_TX_RX_func.c ****     *
 660:Generated_Source\PSoC4/CAN_TX_RX_func.c ****     * Return:
 661:Generated_Source\PSoC4/CAN_TX_RX_func.c ****     *  None.
 662:Generated_Source\PSoC4/CAN_TX_RX_func.c ****     *
 663:Generated_Source\PSoC4/CAN_TX_RX_func.c ****     * Reentrant:
 664:Generated_Source\PSoC4/CAN_TX_RX_func.c ****     *  Depends on the Customer code.
 665:Generated_Source\PSoC4/CAN_TX_RX_func.c ****     *
 666:Generated_Source\PSoC4/CAN_TX_RX_func.c ****     *******************************************************************************/
 667:Generated_Source\PSoC4/CAN_TX_RX_func.c ****     void CAN_ReceiveMsgToBaseRotation_1(void) 
 668:Generated_Source\PSoC4/CAN_TX_RX_func.c ****     {
 389              		.loc 1 668 0
 390              		.cfi_startproc
 391              		@ args = 0, pretend = 0, frame = 0
 392              		@ frame_needed = 0, uses_anonymous_args = 0
 393              		@ link register save eliminated.
 669:Generated_Source\PSoC4/CAN_TX_RX_func.c ****         /* `#START MESSAGE_ToBaseRotation_1_RECEIVED` */
 670:Generated_Source\PSoC4/CAN_TX_RX_func.c **** 
 671:Generated_Source\PSoC4/CAN_TX_RX_func.c ****         /* `#END` */
 672:Generated_Source\PSoC4/CAN_TX_RX_func.c **** 
 673:Generated_Source\PSoC4/CAN_TX_RX_func.c ****         #ifdef CAN_RECEIVE_MSG_ToBaseRotation_1_CALLBACK
 674:Generated_Source\PSoC4/CAN_TX_RX_func.c ****             CAN_ReceiveMsg_ToBaseRotation_1_Callback();
 675:Generated_Source\PSoC4/CAN_TX_RX_func.c ****         #endif /* CAN_RECEIVE_MSG_ToBaseRotation_1_CALLBACK */
 676:Generated_Source\PSoC4/CAN_TX_RX_func.c **** 
 677:Generated_Source\PSoC4/CAN_TX_RX_func.c ****         CAN_RX_ACK_MESSAGE(0u);
 394              		.loc 1 677 0
 395 0000 024A     		ldr	r2, .L34
 396 0002 1168     		ldr	r1, [r2]
 397 0004 0123     		movs	r3, #1
ARM GAS  C:\Users\austc\AppData\Local\Temp\ccgQthMX.s 			page 20


 398 0006 0B43     		orrs	r3, r1
 399 0008 1360     		str	r3, [r2]
 678:Generated_Source\PSoC4/CAN_TX_RX_func.c ****     }
 400              		.loc 1 678 0
 401              		@ sp needed
 402 000a 7047     		bx	lr
 403              	.L35:
 404              		.align	2
 405              	.L34:
 406 000c A0002F40 		.word	1076822176
 407              		.cfi_endproc
 408              	.LFE37:
 409              		.size	CAN_ReceiveMsgToBaseRotation_1, .-CAN_ReceiveMsgToBaseRotation_1
 410              		.section	.text.CAN_ReceiveMsgToShoulder_1,"ax",%progbits
 411              		.align	2
 412              		.global	CAN_ReceiveMsgToShoulder_1
 413              		.code	16
 414              		.thumb_func
 415              		.type	CAN_ReceiveMsgToShoulder_1, %function
 416              	CAN_ReceiveMsgToShoulder_1:
 417              	.LFB38:
 679:Generated_Source\PSoC4/CAN_TX_RX_func.c **** #endif /* CAN_RX0_FUNC_ENABLE */
 680:Generated_Source\PSoC4/CAN_TX_RX_func.c **** 
 681:Generated_Source\PSoC4/CAN_TX_RX_func.c **** 
 682:Generated_Source\PSoC4/CAN_TX_RX_func.c **** #if (CAN_RX1_FUNC_ENABLE)
 683:Generated_Source\PSoC4/CAN_TX_RX_func.c ****     /*******************************************************************************
 684:Generated_Source\PSoC4/CAN_TX_RX_func.c ****     * FUNCTION NAME:    CAN_ReceiveMsgToShoulder_1
 685:Generated_Source\PSoC4/CAN_TX_RX_func.c ****     ********************************************************************************
 686:Generated_Source\PSoC4/CAN_TX_RX_func.c ****     *
 687:Generated_Source\PSoC4/CAN_TX_RX_func.c ****     * Summary:
 688:Generated_Source\PSoC4/CAN_TX_RX_func.c ****     *  This function is the entry point to Receive Message 1 Interrupt. Clears the
 689:Generated_Source\PSoC4/CAN_TX_RX_func.c ****     *  Receive Message 1 interrupt flag. Generated only for the Receive mailbox
 690:Generated_Source\PSoC4/CAN_TX_RX_func.c ****     *  designed as Full.
 691:Generated_Source\PSoC4/CAN_TX_RX_func.c ****     *
 692:Generated_Source\PSoC4/CAN_TX_RX_func.c ****     * Parameters:
 693:Generated_Source\PSoC4/CAN_TX_RX_func.c ****     *  None.
 694:Generated_Source\PSoC4/CAN_TX_RX_func.c ****     *
 695:Generated_Source\PSoC4/CAN_TX_RX_func.c ****     * Return:
 696:Generated_Source\PSoC4/CAN_TX_RX_func.c ****     *  None.
 697:Generated_Source\PSoC4/CAN_TX_RX_func.c ****     *
 698:Generated_Source\PSoC4/CAN_TX_RX_func.c ****     * Reentrant:
 699:Generated_Source\PSoC4/CAN_TX_RX_func.c ****     *  Depends on the Customer code.
 700:Generated_Source\PSoC4/CAN_TX_RX_func.c ****     *
 701:Generated_Source\PSoC4/CAN_TX_RX_func.c ****     *******************************************************************************/
 702:Generated_Source\PSoC4/CAN_TX_RX_func.c ****     void CAN_ReceiveMsgToShoulder_1(void) 
 703:Generated_Source\PSoC4/CAN_TX_RX_func.c ****     {
 418              		.loc 1 703 0
 419              		.cfi_startproc
 420              		@ args = 0, pretend = 0, frame = 0
 421              		@ frame_needed = 0, uses_anonymous_args = 0
 422              		@ link register save eliminated.
 704:Generated_Source\PSoC4/CAN_TX_RX_func.c ****         /* `#START MESSAGE_ToShoulder_1_RECEIVED` */
 705:Generated_Source\PSoC4/CAN_TX_RX_func.c **** 
 706:Generated_Source\PSoC4/CAN_TX_RX_func.c ****         /* `#END` */
 707:Generated_Source\PSoC4/CAN_TX_RX_func.c **** 
 708:Generated_Source\PSoC4/CAN_TX_RX_func.c ****         #ifdef CAN_RECEIVE_MSG_ToShoulder_1_CALLBACK
 709:Generated_Source\PSoC4/CAN_TX_RX_func.c ****             CAN_ReceiveMsg_ToShoulder_1_Callback();
ARM GAS  C:\Users\austc\AppData\Local\Temp\ccgQthMX.s 			page 21


 710:Generated_Source\PSoC4/CAN_TX_RX_func.c ****         #endif /* CAN_RECEIVE_MSG_ToShoulder_1_CALLBACK */
 711:Generated_Source\PSoC4/CAN_TX_RX_func.c **** 
 712:Generated_Source\PSoC4/CAN_TX_RX_func.c ****         CAN_RX_ACK_MESSAGE(1u);
 423              		.loc 1 712 0
 424 0000 024A     		ldr	r2, .L37
 425 0002 1168     		ldr	r1, [r2]
 426 0004 0123     		movs	r3, #1
 427 0006 0B43     		orrs	r3, r1
 428 0008 1360     		str	r3, [r2]
 713:Generated_Source\PSoC4/CAN_TX_RX_func.c ****     }
 429              		.loc 1 713 0
 430              		@ sp needed
 431 000a 7047     		bx	lr
 432              	.L38:
 433              		.align	2
 434              	.L37:
 435 000c C0002F40 		.word	1076822208
 436              		.cfi_endproc
 437              	.LFE38:
 438              		.size	CAN_ReceiveMsgToShoulder_1, .-CAN_ReceiveMsgToShoulder_1
 439              		.section	.text.CAN_ReceiveMsgToElbow_1,"ax",%progbits
 440              		.align	2
 441              		.global	CAN_ReceiveMsgToElbow_1
 442              		.code	16
 443              		.thumb_func
 444              		.type	CAN_ReceiveMsgToElbow_1, %function
 445              	CAN_ReceiveMsgToElbow_1:
 446              	.LFB39:
 714:Generated_Source\PSoC4/CAN_TX_RX_func.c **** #endif /* CAN_RX1_FUNC_ENABLE */
 715:Generated_Source\PSoC4/CAN_TX_RX_func.c **** 
 716:Generated_Source\PSoC4/CAN_TX_RX_func.c **** 
 717:Generated_Source\PSoC4/CAN_TX_RX_func.c **** #if (CAN_RX2_FUNC_ENABLE)
 718:Generated_Source\PSoC4/CAN_TX_RX_func.c ****     /*******************************************************************************
 719:Generated_Source\PSoC4/CAN_TX_RX_func.c ****     * FUNCTION NAME:   CAN_ReceiveMsgToElbow_1
 720:Generated_Source\PSoC4/CAN_TX_RX_func.c ****     ********************************************************************************
 721:Generated_Source\PSoC4/CAN_TX_RX_func.c ****     *
 722:Generated_Source\PSoC4/CAN_TX_RX_func.c ****     * Summary:
 723:Generated_Source\PSoC4/CAN_TX_RX_func.c ****     *  This function is the entry point to Receive Message 2 Interrupt. Clears the
 724:Generated_Source\PSoC4/CAN_TX_RX_func.c ****     *  Receive Message 2 interrupt flag. Generated only for the Receive mailbox
 725:Generated_Source\PSoC4/CAN_TX_RX_func.c ****     *  designed as Full.
 726:Generated_Source\PSoC4/CAN_TX_RX_func.c ****     *
 727:Generated_Source\PSoC4/CAN_TX_RX_func.c ****     * Parameters:
 728:Generated_Source\PSoC4/CAN_TX_RX_func.c ****     *  None.
 729:Generated_Source\PSoC4/CAN_TX_RX_func.c ****     *
 730:Generated_Source\PSoC4/CAN_TX_RX_func.c ****     * Return:
 731:Generated_Source\PSoC4/CAN_TX_RX_func.c ****     *  None.
 732:Generated_Source\PSoC4/CAN_TX_RX_func.c ****     *
 733:Generated_Source\PSoC4/CAN_TX_RX_func.c ****     * Reentrant:
 734:Generated_Source\PSoC4/CAN_TX_RX_func.c ****     *  Depends on the Customer code.
 735:Generated_Source\PSoC4/CAN_TX_RX_func.c ****     *
 736:Generated_Source\PSoC4/CAN_TX_RX_func.c ****     *******************************************************************************/
 737:Generated_Source\PSoC4/CAN_TX_RX_func.c ****     void CAN_ReceiveMsgToElbow_1(void) 
 738:Generated_Source\PSoC4/CAN_TX_RX_func.c ****     {
 447              		.loc 1 738 0
 448              		.cfi_startproc
 449              		@ args = 0, pretend = 0, frame = 0
 450              		@ frame_needed = 0, uses_anonymous_args = 0
ARM GAS  C:\Users\austc\AppData\Local\Temp\ccgQthMX.s 			page 22


 451              		@ link register save eliminated.
 739:Generated_Source\PSoC4/CAN_TX_RX_func.c ****         /* `#START MESSAGE_ToElbow_1_RECEIVED` */
 740:Generated_Source\PSoC4/CAN_TX_RX_func.c **** 
 741:Generated_Source\PSoC4/CAN_TX_RX_func.c ****         /* `#END` */
 742:Generated_Source\PSoC4/CAN_TX_RX_func.c **** 
 743:Generated_Source\PSoC4/CAN_TX_RX_func.c ****         #ifdef CAN_RECEIVE_MSG_ToElbow_1_CALLBACK
 744:Generated_Source\PSoC4/CAN_TX_RX_func.c ****             CAN_ReceiveMsg_ToElbow_1_Callback();
 745:Generated_Source\PSoC4/CAN_TX_RX_func.c ****         #endif /* CAN_RECEIVE_MSG_ToElbow_1_CALLBACK */
 746:Generated_Source\PSoC4/CAN_TX_RX_func.c **** 
 747:Generated_Source\PSoC4/CAN_TX_RX_func.c ****         CAN_RX_ACK_MESSAGE(2u);
 452              		.loc 1 747 0
 453 0000 024A     		ldr	r2, .L40
 454 0002 1168     		ldr	r1, [r2]
 455 0004 0123     		movs	r3, #1
 456 0006 0B43     		orrs	r3, r1
 457 0008 1360     		str	r3, [r2]
 748:Generated_Source\PSoC4/CAN_TX_RX_func.c ****     }
 458              		.loc 1 748 0
 459              		@ sp needed
 460 000a 7047     		bx	lr
 461              	.L41:
 462              		.align	2
 463              	.L40:
 464 000c E0002F40 		.word	1076822240
 465              		.cfi_endproc
 466              	.LFE39:
 467              		.size	CAN_ReceiveMsgToElbow_1, .-CAN_ReceiveMsgToElbow_1
 468              		.section	.text.CAN_ReceiveMsgForearmRot_1,"ax",%progbits
 469              		.align	2
 470              		.global	CAN_ReceiveMsgForearmRot_1
 471              		.code	16
 472              		.thumb_func
 473              		.type	CAN_ReceiveMsgForearmRot_1, %function
 474              	CAN_ReceiveMsgForearmRot_1:
 475              	.LFB40:
 749:Generated_Source\PSoC4/CAN_TX_RX_func.c **** #endif /* CAN_RX2_FUNC_ENABLE */
 750:Generated_Source\PSoC4/CAN_TX_RX_func.c **** 
 751:Generated_Source\PSoC4/CAN_TX_RX_func.c **** 
 752:Generated_Source\PSoC4/CAN_TX_RX_func.c **** #if (CAN_RX3_FUNC_ENABLE)
 753:Generated_Source\PSoC4/CAN_TX_RX_func.c ****     /*******************************************************************************
 754:Generated_Source\PSoC4/CAN_TX_RX_func.c ****     * FUNCTION NAME:   CAN_ReceiveMsgForearmRot_1
 755:Generated_Source\PSoC4/CAN_TX_RX_func.c ****     ********************************************************************************
 756:Generated_Source\PSoC4/CAN_TX_RX_func.c ****     *
 757:Generated_Source\PSoC4/CAN_TX_RX_func.c ****     * Summary:
 758:Generated_Source\PSoC4/CAN_TX_RX_func.c ****     *  This function is the entry point to Receive Message 3 Interrupt. Clears the
 759:Generated_Source\PSoC4/CAN_TX_RX_func.c ****     *  Receive Message 3 interrupt flag. Generated only for the Receive mailbox
 760:Generated_Source\PSoC4/CAN_TX_RX_func.c ****     *  designed as Full.
 761:Generated_Source\PSoC4/CAN_TX_RX_func.c ****     *
 762:Generated_Source\PSoC4/CAN_TX_RX_func.c ****     * Parameters:
 763:Generated_Source\PSoC4/CAN_TX_RX_func.c ****     *  None.
 764:Generated_Source\PSoC4/CAN_TX_RX_func.c ****     *
 765:Generated_Source\PSoC4/CAN_TX_RX_func.c ****     * Return:
 766:Generated_Source\PSoC4/CAN_TX_RX_func.c ****     *  None.
 767:Generated_Source\PSoC4/CAN_TX_RX_func.c ****     *
 768:Generated_Source\PSoC4/CAN_TX_RX_func.c ****     * Reentrant:
 769:Generated_Source\PSoC4/CAN_TX_RX_func.c ****     *  Depends on the Customer code.
 770:Generated_Source\PSoC4/CAN_TX_RX_func.c ****     *
ARM GAS  C:\Users\austc\AppData\Local\Temp\ccgQthMX.s 			page 23


 771:Generated_Source\PSoC4/CAN_TX_RX_func.c ****     *******************************************************************************/
 772:Generated_Source\PSoC4/CAN_TX_RX_func.c ****     void CAN_ReceiveMsgForearmRot_1(void) 
 773:Generated_Source\PSoC4/CAN_TX_RX_func.c ****     {
 476              		.loc 1 773 0
 477              		.cfi_startproc
 478              		@ args = 0, pretend = 0, frame = 0
 479              		@ frame_needed = 0, uses_anonymous_args = 0
 480              		@ link register save eliminated.
 774:Generated_Source\PSoC4/CAN_TX_RX_func.c ****         /* `#START MESSAGE_ForearmRot_1_RECEIVED` */
 775:Generated_Source\PSoC4/CAN_TX_RX_func.c **** 
 776:Generated_Source\PSoC4/CAN_TX_RX_func.c ****         /* `#END` */
 777:Generated_Source\PSoC4/CAN_TX_RX_func.c **** 
 778:Generated_Source\PSoC4/CAN_TX_RX_func.c ****         #ifdef CAN_RECEIVE_MSG_ForearmRot_1_CALLBACK
 779:Generated_Source\PSoC4/CAN_TX_RX_func.c ****             CAN_ReceiveMsg_ForearmRot_1_Callback();
 780:Generated_Source\PSoC4/CAN_TX_RX_func.c ****         #endif /* CAN_RECEIVE_MSG_ForearmRot_1_CALLBACK */
 781:Generated_Source\PSoC4/CAN_TX_RX_func.c **** 
 782:Generated_Source\PSoC4/CAN_TX_RX_func.c ****         CAN_RX_ACK_MESSAGE(3u);
 481              		.loc 1 782 0
 482 0000 024A     		ldr	r2, .L43
 483 0002 1168     		ldr	r1, [r2]
 484 0004 0123     		movs	r3, #1
 485 0006 0B43     		orrs	r3, r1
 486 0008 1360     		str	r3, [r2]
 783:Generated_Source\PSoC4/CAN_TX_RX_func.c ****     }
 487              		.loc 1 783 0
 488              		@ sp needed
 489 000a 7047     		bx	lr
 490              	.L44:
 491              		.align	2
 492              	.L43:
 493 000c 00012F40 		.word	1076822272
 494              		.cfi_endproc
 495              	.LFE40:
 496              		.size	CAN_ReceiveMsgForearmRot_1, .-CAN_ReceiveMsgForearmRot_1
 497              		.section	.text.CAN_ReceiveMsgToDiffWrist_1,"ax",%progbits
 498              		.align	2
 499              		.global	CAN_ReceiveMsgToDiffWrist_1
 500              		.code	16
 501              		.thumb_func
 502              		.type	CAN_ReceiveMsgToDiffWrist_1, %function
 503              	CAN_ReceiveMsgToDiffWrist_1:
 504              	.LFB41:
 784:Generated_Source\PSoC4/CAN_TX_RX_func.c **** #endif /* CAN_RX3_FUNC_ENABLE */
 785:Generated_Source\PSoC4/CAN_TX_RX_func.c **** 
 786:Generated_Source\PSoC4/CAN_TX_RX_func.c **** 
 787:Generated_Source\PSoC4/CAN_TX_RX_func.c **** #if (CAN_RX4_FUNC_ENABLE)
 788:Generated_Source\PSoC4/CAN_TX_RX_func.c ****     /*******************************************************************************
 789:Generated_Source\PSoC4/CAN_TX_RX_func.c ****     * FUNCTION NAME:   CAN_ReceiveMsgToDiffWrist_1
 790:Generated_Source\PSoC4/CAN_TX_RX_func.c ****     ********************************************************************************
 791:Generated_Source\PSoC4/CAN_TX_RX_func.c ****     *
 792:Generated_Source\PSoC4/CAN_TX_RX_func.c ****     * Summary:
 793:Generated_Source\PSoC4/CAN_TX_RX_func.c ****     *  This function is the entry point to Receive Message 4 Interrupt. Clears the
 794:Generated_Source\PSoC4/CAN_TX_RX_func.c ****     *  Receive Message 4 interrupt flag. Generated only for the Receive mailbox
 795:Generated_Source\PSoC4/CAN_TX_RX_func.c ****     *  designed as Full.
 796:Generated_Source\PSoC4/CAN_TX_RX_func.c ****     *
 797:Generated_Source\PSoC4/CAN_TX_RX_func.c ****     * Parameters:
 798:Generated_Source\PSoC4/CAN_TX_RX_func.c ****     *  None.
ARM GAS  C:\Users\austc\AppData\Local\Temp\ccgQthMX.s 			page 24


 799:Generated_Source\PSoC4/CAN_TX_RX_func.c ****     *
 800:Generated_Source\PSoC4/CAN_TX_RX_func.c ****     * Return:
 801:Generated_Source\PSoC4/CAN_TX_RX_func.c ****     *  None.
 802:Generated_Source\PSoC4/CAN_TX_RX_func.c ****     *
 803:Generated_Source\PSoC4/CAN_TX_RX_func.c ****     * Reentrant:
 804:Generated_Source\PSoC4/CAN_TX_RX_func.c ****     *  Depends on the Customer code.
 805:Generated_Source\PSoC4/CAN_TX_RX_func.c ****     *
 806:Generated_Source\PSoC4/CAN_TX_RX_func.c ****     *******************************************************************************/
 807:Generated_Source\PSoC4/CAN_TX_RX_func.c ****     void CAN_ReceiveMsgToDiffWrist_1(void) 
 808:Generated_Source\PSoC4/CAN_TX_RX_func.c ****     {
 505              		.loc 1 808 0
 506              		.cfi_startproc
 507              		@ args = 0, pretend = 0, frame = 0
 508              		@ frame_needed = 0, uses_anonymous_args = 0
 509              		@ link register save eliminated.
 809:Generated_Source\PSoC4/CAN_TX_RX_func.c ****         /* `#START MESSAGE_ToDiffWrist_1_RECEIVED` */
 810:Generated_Source\PSoC4/CAN_TX_RX_func.c **** 
 811:Generated_Source\PSoC4/CAN_TX_RX_func.c ****         /* `#END` */
 812:Generated_Source\PSoC4/CAN_TX_RX_func.c **** 
 813:Generated_Source\PSoC4/CAN_TX_RX_func.c ****         #ifdef CAN_RECEIVE_MSG_ToDiffWrist_1_CALLBACK
 814:Generated_Source\PSoC4/CAN_TX_RX_func.c ****             CAN_ReceiveMsg_ToDiffWrist_1_Callback();
 815:Generated_Source\PSoC4/CAN_TX_RX_func.c ****         #endif /* CAN_RECEIVE_MSG_ToDiffWrist_1_CALLBACK */
 816:Generated_Source\PSoC4/CAN_TX_RX_func.c **** 
 817:Generated_Source\PSoC4/CAN_TX_RX_func.c ****         CAN_RX_ACK_MESSAGE(4u);
 510              		.loc 1 817 0
 511 0000 024A     		ldr	r2, .L46
 512 0002 1168     		ldr	r1, [r2]
 513 0004 0123     		movs	r3, #1
 514 0006 0B43     		orrs	r3, r1
 515 0008 1360     		str	r3, [r2]
 818:Generated_Source\PSoC4/CAN_TX_RX_func.c ****     }
 516              		.loc 1 818 0
 517              		@ sp needed
 518 000a 7047     		bx	lr
 519              	.L47:
 520              		.align	2
 521              	.L46:
 522 000c 20012F40 		.word	1076822304
 523              		.cfi_endproc
 524              	.LFE41:
 525              		.size	CAN_ReceiveMsgToDiffWrist_1, .-CAN_ReceiveMsgToDiffWrist_1
 526              		.section	.text.CAN_ReceiveMsgToDiffWrist2_1,"ax",%progbits
 527              		.align	2
 528              		.global	CAN_ReceiveMsgToDiffWrist2_1
 529              		.code	16
 530              		.thumb_func
 531              		.type	CAN_ReceiveMsgToDiffWrist2_1, %function
 532              	CAN_ReceiveMsgToDiffWrist2_1:
 533              	.LFB42:
 819:Generated_Source\PSoC4/CAN_TX_RX_func.c **** #endif /* CAN_RX4_FUNC_ENABLE */
 820:Generated_Source\PSoC4/CAN_TX_RX_func.c **** 
 821:Generated_Source\PSoC4/CAN_TX_RX_func.c **** 
 822:Generated_Source\PSoC4/CAN_TX_RX_func.c **** #if (CAN_RX5_FUNC_ENABLE)
 823:Generated_Source\PSoC4/CAN_TX_RX_func.c ****     /*******************************************************************************
 824:Generated_Source\PSoC4/CAN_TX_RX_func.c ****     * FUNCTION NAME:   CAN_ReceiveMsgToDiffWrist2_1
 825:Generated_Source\PSoC4/CAN_TX_RX_func.c ****     ********************************************************************************
 826:Generated_Source\PSoC4/CAN_TX_RX_func.c ****     *
ARM GAS  C:\Users\austc\AppData\Local\Temp\ccgQthMX.s 			page 25


 827:Generated_Source\PSoC4/CAN_TX_RX_func.c ****     * Summary:
 828:Generated_Source\PSoC4/CAN_TX_RX_func.c ****     *  This function is the entry point to Receive Message 5 Interrupt. Clears the
 829:Generated_Source\PSoC4/CAN_TX_RX_func.c ****     *  Receive Message 5 interrupt flag. Generated only for the Receive mailbox
 830:Generated_Source\PSoC4/CAN_TX_RX_func.c ****     *  designed as Full.
 831:Generated_Source\PSoC4/CAN_TX_RX_func.c ****     *
 832:Generated_Source\PSoC4/CAN_TX_RX_func.c ****     * Parameters:
 833:Generated_Source\PSoC4/CAN_TX_RX_func.c ****     *  None.
 834:Generated_Source\PSoC4/CAN_TX_RX_func.c ****     *
 835:Generated_Source\PSoC4/CAN_TX_RX_func.c ****     * Return:
 836:Generated_Source\PSoC4/CAN_TX_RX_func.c ****     *  None.
 837:Generated_Source\PSoC4/CAN_TX_RX_func.c ****     *
 838:Generated_Source\PSoC4/CAN_TX_RX_func.c ****     * Reentrant:
 839:Generated_Source\PSoC4/CAN_TX_RX_func.c ****     *  Depends on the Customer code.
 840:Generated_Source\PSoC4/CAN_TX_RX_func.c ****     *
 841:Generated_Source\PSoC4/CAN_TX_RX_func.c ****     *******************************************************************************/
 842:Generated_Source\PSoC4/CAN_TX_RX_func.c ****     void CAN_ReceiveMsgToDiffWrist2_1(void) 
 843:Generated_Source\PSoC4/CAN_TX_RX_func.c ****     {
 534              		.loc 1 843 0
 535              		.cfi_startproc
 536              		@ args = 0, pretend = 0, frame = 0
 537              		@ frame_needed = 0, uses_anonymous_args = 0
 538              		@ link register save eliminated.
 844:Generated_Source\PSoC4/CAN_TX_RX_func.c ****         /* `#START MESSAGE_ToDiffWrist2_1_RECEIVED` */
 845:Generated_Source\PSoC4/CAN_TX_RX_func.c **** 
 846:Generated_Source\PSoC4/CAN_TX_RX_func.c ****         /* `#END` */
 847:Generated_Source\PSoC4/CAN_TX_RX_func.c **** 
 848:Generated_Source\PSoC4/CAN_TX_RX_func.c ****         #ifdef CAN_RECEIVE_MSG_ToDiffWrist2_1_CALLBACK
 849:Generated_Source\PSoC4/CAN_TX_RX_func.c ****             CAN_ReceiveMsg_ToDiffWrist2_1_Callback();
 850:Generated_Source\PSoC4/CAN_TX_RX_func.c ****         #endif /* CAN_RECEIVE_MSG_ToDiffWrist2_1_CALLBACK */
 851:Generated_Source\PSoC4/CAN_TX_RX_func.c **** 
 852:Generated_Source\PSoC4/CAN_TX_RX_func.c ****         CAN_RX_ACK_MESSAGE(5u);
 539              		.loc 1 852 0
 540 0000 024A     		ldr	r2, .L49
 541 0002 1168     		ldr	r1, [r2]
 542 0004 0123     		movs	r3, #1
 543 0006 0B43     		orrs	r3, r1
 544 0008 1360     		str	r3, [r2]
 853:Generated_Source\PSoC4/CAN_TX_RX_func.c ****     }
 545              		.loc 1 853 0
 546              		@ sp needed
 547 000a 7047     		bx	lr
 548              	.L50:
 549              		.align	2
 550              	.L49:
 551 000c 40012F40 		.word	1076822336
 552              		.cfi_endproc
 553              	.LFE42:
 554              		.size	CAN_ReceiveMsgToDiffWrist2_1, .-CAN_ReceiveMsgToDiffWrist2_1
 555              		.section	.text.CAN_ReceiveMsgToHand_1,"ax",%progbits
 556              		.align	2
 557              		.global	CAN_ReceiveMsgToHand_1
 558              		.code	16
 559              		.thumb_func
 560              		.type	CAN_ReceiveMsgToHand_1, %function
 561              	CAN_ReceiveMsgToHand_1:
 562              	.LFB43:
 854:Generated_Source\PSoC4/CAN_TX_RX_func.c **** #endif /* CAN_RX5_FUNC_ENABLE */
ARM GAS  C:\Users\austc\AppData\Local\Temp\ccgQthMX.s 			page 26


 855:Generated_Source\PSoC4/CAN_TX_RX_func.c **** 
 856:Generated_Source\PSoC4/CAN_TX_RX_func.c **** 
 857:Generated_Source\PSoC4/CAN_TX_RX_func.c **** #if (CAN_RX6_FUNC_ENABLE)
 858:Generated_Source\PSoC4/CAN_TX_RX_func.c ****     /*******************************************************************************
 859:Generated_Source\PSoC4/CAN_TX_RX_func.c ****     * FUNCTION NAME:   CAN_ReceiveMsgToHand_1
 860:Generated_Source\PSoC4/CAN_TX_RX_func.c ****     ********************************************************************************
 861:Generated_Source\PSoC4/CAN_TX_RX_func.c ****     *
 862:Generated_Source\PSoC4/CAN_TX_RX_func.c ****     * Summary:
 863:Generated_Source\PSoC4/CAN_TX_RX_func.c ****     *  This function is the entry point to Receive Message 6 Interrupt. Clears the
 864:Generated_Source\PSoC4/CAN_TX_RX_func.c ****     *  Receive Message 6 interrupt flag. Generated only for the Receive mailbox
 865:Generated_Source\PSoC4/CAN_TX_RX_func.c ****     *  designed as Full.
 866:Generated_Source\PSoC4/CAN_TX_RX_func.c ****     *
 867:Generated_Source\PSoC4/CAN_TX_RX_func.c ****     * Parameters:
 868:Generated_Source\PSoC4/CAN_TX_RX_func.c ****     *  None.
 869:Generated_Source\PSoC4/CAN_TX_RX_func.c ****     *
 870:Generated_Source\PSoC4/CAN_TX_RX_func.c ****     * Return:
 871:Generated_Source\PSoC4/CAN_TX_RX_func.c ****     *  None.
 872:Generated_Source\PSoC4/CAN_TX_RX_func.c ****     *
 873:Generated_Source\PSoC4/CAN_TX_RX_func.c ****     * Reentrant:
 874:Generated_Source\PSoC4/CAN_TX_RX_func.c ****     *  Depends on the Customer code.
 875:Generated_Source\PSoC4/CAN_TX_RX_func.c ****     *
 876:Generated_Source\PSoC4/CAN_TX_RX_func.c ****     *******************************************************************************/
 877:Generated_Source\PSoC4/CAN_TX_RX_func.c ****     void CAN_ReceiveMsgToHand_1(void) 
 878:Generated_Source\PSoC4/CAN_TX_RX_func.c ****     {
 563              		.loc 1 878 0
 564              		.cfi_startproc
 565              		@ args = 0, pretend = 0, frame = 0
 566              		@ frame_needed = 0, uses_anonymous_args = 0
 567              		@ link register save eliminated.
 879:Generated_Source\PSoC4/CAN_TX_RX_func.c ****         /* `#START MESSAGE_ToHand_1_RECEIVED` */
 880:Generated_Source\PSoC4/CAN_TX_RX_func.c **** 
 881:Generated_Source\PSoC4/CAN_TX_RX_func.c ****         /* `#END` */
 882:Generated_Source\PSoC4/CAN_TX_RX_func.c **** 
 883:Generated_Source\PSoC4/CAN_TX_RX_func.c ****         #ifdef CAN_RECEIVE_MSG_ToHand_1_CALLBACK
 884:Generated_Source\PSoC4/CAN_TX_RX_func.c ****             CAN_ReceiveMsg_ToHand_1_Callback();
 885:Generated_Source\PSoC4/CAN_TX_RX_func.c ****         #endif /* CAN_RECEIVE_MSG_ToHand_1_CALLBACK */
 886:Generated_Source\PSoC4/CAN_TX_RX_func.c **** 
 887:Generated_Source\PSoC4/CAN_TX_RX_func.c ****         CAN_RX_ACK_MESSAGE(6u);
 568              		.loc 1 887 0
 569 0000 024A     		ldr	r2, .L52
 570 0002 1168     		ldr	r1, [r2]
 571 0004 0123     		movs	r3, #1
 572 0006 0B43     		orrs	r3, r1
 573 0008 1360     		str	r3, [r2]
 888:Generated_Source\PSoC4/CAN_TX_RX_func.c ****     }
 574              		.loc 1 888 0
 575              		@ sp needed
 576 000a 7047     		bx	lr
 577              	.L53:
 578              		.align	2
 579              	.L52:
 580 000c 60012F40 		.word	1076822368
 581              		.cfi_endproc
 582              	.LFE43:
 583              		.size	CAN_ReceiveMsgToHand_1, .-CAN_ReceiveMsgToHand_1
 584              		.section	.text.CAN_ReceiveMsgToBaseRotation_0,"ax",%progbits
 585              		.align	2
ARM GAS  C:\Users\austc\AppData\Local\Temp\ccgQthMX.s 			page 27


 586              		.global	CAN_ReceiveMsgToBaseRotation_0
 587              		.code	16
 588              		.thumb_func
 589              		.type	CAN_ReceiveMsgToBaseRotation_0, %function
 590              	CAN_ReceiveMsgToBaseRotation_0:
 591              	.LFB44:
 889:Generated_Source\PSoC4/CAN_TX_RX_func.c **** #endif /* CAN_RX6_FUNC_ENABLE */
 890:Generated_Source\PSoC4/CAN_TX_RX_func.c **** 
 891:Generated_Source\PSoC4/CAN_TX_RX_func.c **** 
 892:Generated_Source\PSoC4/CAN_TX_RX_func.c **** #if (CAN_RX7_FUNC_ENABLE)
 893:Generated_Source\PSoC4/CAN_TX_RX_func.c ****     /*******************************************************************************
 894:Generated_Source\PSoC4/CAN_TX_RX_func.c ****     * FUNCTION NAME:   CAN_ReceiveMsgToBaseRotation_0
 895:Generated_Source\PSoC4/CAN_TX_RX_func.c ****     ********************************************************************************
 896:Generated_Source\PSoC4/CAN_TX_RX_func.c ****     *
 897:Generated_Source\PSoC4/CAN_TX_RX_func.c ****     * Summary:
 898:Generated_Source\PSoC4/CAN_TX_RX_func.c ****     *  This function is the entry point to Receive Message 7 Interrupt. Clears the
 899:Generated_Source\PSoC4/CAN_TX_RX_func.c ****     *  Receive Message 7 interrupt flag. Generated only for the Receive mailbox
 900:Generated_Source\PSoC4/CAN_TX_RX_func.c ****     *  designed as Full.
 901:Generated_Source\PSoC4/CAN_TX_RX_func.c ****     *
 902:Generated_Source\PSoC4/CAN_TX_RX_func.c ****     * Parameters:
 903:Generated_Source\PSoC4/CAN_TX_RX_func.c ****     *  None.
 904:Generated_Source\PSoC4/CAN_TX_RX_func.c ****     *
 905:Generated_Source\PSoC4/CAN_TX_RX_func.c ****     * Return:
 906:Generated_Source\PSoC4/CAN_TX_RX_func.c ****     *  None.
 907:Generated_Source\PSoC4/CAN_TX_RX_func.c ****     *
 908:Generated_Source\PSoC4/CAN_TX_RX_func.c ****     * Reentrant:
 909:Generated_Source\PSoC4/CAN_TX_RX_func.c ****     *  Depends on the Customer code.
 910:Generated_Source\PSoC4/CAN_TX_RX_func.c ****     *
 911:Generated_Source\PSoC4/CAN_TX_RX_func.c ****     *******************************************************************************/
 912:Generated_Source\PSoC4/CAN_TX_RX_func.c ****     void CAN_ReceiveMsgToBaseRotation_0(void) 
 913:Generated_Source\PSoC4/CAN_TX_RX_func.c ****     {
 592              		.loc 1 913 0
 593              		.cfi_startproc
 594              		@ args = 0, pretend = 0, frame = 0
 595              		@ frame_needed = 0, uses_anonymous_args = 0
 596              		@ link register save eliminated.
 914:Generated_Source\PSoC4/CAN_TX_RX_func.c ****         /* `#START MESSAGE_ToBaseRotation_0_RECEIVED` */
 915:Generated_Source\PSoC4/CAN_TX_RX_func.c **** 
 916:Generated_Source\PSoC4/CAN_TX_RX_func.c ****         /* `#END` */
 917:Generated_Source\PSoC4/CAN_TX_RX_func.c **** 
 918:Generated_Source\PSoC4/CAN_TX_RX_func.c ****         #ifdef CAN_RECEIVE_MSG_ToBaseRotation_0_CALLBACK
 919:Generated_Source\PSoC4/CAN_TX_RX_func.c ****             CAN_ReceiveMsg_ToBaseRotation_0_Callback();
 920:Generated_Source\PSoC4/CAN_TX_RX_func.c ****         #endif /* CAN_RECEIVE_MSG_ToBaseRotation_0_CALLBACK */
 921:Generated_Source\PSoC4/CAN_TX_RX_func.c **** 
 922:Generated_Source\PSoC4/CAN_TX_RX_func.c ****         CAN_RX_ACK_MESSAGE(7u);
 597              		.loc 1 922 0
 598 0000 024A     		ldr	r2, .L55
 599 0002 1168     		ldr	r1, [r2]
 600 0004 0123     		movs	r3, #1
 601 0006 0B43     		orrs	r3, r1
 602 0008 1360     		str	r3, [r2]
 923:Generated_Source\PSoC4/CAN_TX_RX_func.c ****     }
 603              		.loc 1 923 0
 604              		@ sp needed
 605 000a 7047     		bx	lr
 606              	.L56:
 607              		.align	2
ARM GAS  C:\Users\austc\AppData\Local\Temp\ccgQthMX.s 			page 28


 608              	.L55:
 609 000c 80012F40 		.word	1076822400
 610              		.cfi_endproc
 611              	.LFE44:
 612              		.size	CAN_ReceiveMsgToBaseRotation_0, .-CAN_ReceiveMsgToBaseRotation_0
 613              		.section	.text.CAN_ReceiveMsgToShoulder_0,"ax",%progbits
 614              		.align	2
 615              		.global	CAN_ReceiveMsgToShoulder_0
 616              		.code	16
 617              		.thumb_func
 618              		.type	CAN_ReceiveMsgToShoulder_0, %function
 619              	CAN_ReceiveMsgToShoulder_0:
 620              	.LFB45:
 924:Generated_Source\PSoC4/CAN_TX_RX_func.c **** #endif /* CAN_RX7_FUNC_ENABLE */
 925:Generated_Source\PSoC4/CAN_TX_RX_func.c **** 
 926:Generated_Source\PSoC4/CAN_TX_RX_func.c **** 
 927:Generated_Source\PSoC4/CAN_TX_RX_func.c **** #if (CAN_RX8_FUNC_ENABLE)
 928:Generated_Source\PSoC4/CAN_TX_RX_func.c ****     /*******************************************************************************
 929:Generated_Source\PSoC4/CAN_TX_RX_func.c ****     * FUNCTION NAME:   CAN_ReceiveMsgToShoulder_0
 930:Generated_Source\PSoC4/CAN_TX_RX_func.c ****     ********************************************************************************
 931:Generated_Source\PSoC4/CAN_TX_RX_func.c ****     *
 932:Generated_Source\PSoC4/CAN_TX_RX_func.c ****     * Summary:
 933:Generated_Source\PSoC4/CAN_TX_RX_func.c ****     *  This function is the entry point to Receive Message 8 Interrupt. Clears the
 934:Generated_Source\PSoC4/CAN_TX_RX_func.c ****     *  Receive Message 8 interrupt flag. Generated only for the Receive mailbox
 935:Generated_Source\PSoC4/CAN_TX_RX_func.c ****     *  designed as Full.
 936:Generated_Source\PSoC4/CAN_TX_RX_func.c ****     *
 937:Generated_Source\PSoC4/CAN_TX_RX_func.c ****     * Parameters:
 938:Generated_Source\PSoC4/CAN_TX_RX_func.c ****     *  None.
 939:Generated_Source\PSoC4/CAN_TX_RX_func.c ****     *
 940:Generated_Source\PSoC4/CAN_TX_RX_func.c ****     * Return:
 941:Generated_Source\PSoC4/CAN_TX_RX_func.c ****     *  None.
 942:Generated_Source\PSoC4/CAN_TX_RX_func.c ****     *
 943:Generated_Source\PSoC4/CAN_TX_RX_func.c ****     * Reentrant:
 944:Generated_Source\PSoC4/CAN_TX_RX_func.c ****     *  Depends on the Customer code.
 945:Generated_Source\PSoC4/CAN_TX_RX_func.c ****     *
 946:Generated_Source\PSoC4/CAN_TX_RX_func.c ****     *******************************************************************************/
 947:Generated_Source\PSoC4/CAN_TX_RX_func.c ****     void CAN_ReceiveMsgToShoulder_0(void) 
 948:Generated_Source\PSoC4/CAN_TX_RX_func.c ****     {
 621              		.loc 1 948 0
 622              		.cfi_startproc
 623              		@ args = 0, pretend = 0, frame = 0
 624              		@ frame_needed = 0, uses_anonymous_args = 0
 625              		@ link register save eliminated.
 949:Generated_Source\PSoC4/CAN_TX_RX_func.c ****         /* `#START MESSAGE_ToShoulder_0_RECEIVED` */
 950:Generated_Source\PSoC4/CAN_TX_RX_func.c **** 
 951:Generated_Source\PSoC4/CAN_TX_RX_func.c ****         /* `#END` */
 952:Generated_Source\PSoC4/CAN_TX_RX_func.c **** 
 953:Generated_Source\PSoC4/CAN_TX_RX_func.c ****         #ifdef CAN_RECEIVE_MSG_ToShoulder_0_CALLBACK
 954:Generated_Source\PSoC4/CAN_TX_RX_func.c ****             CAN_ReceiveMsg_ToShoulder_0_Callback();
 955:Generated_Source\PSoC4/CAN_TX_RX_func.c ****         #endif /* CAN_RECEIVE_MSG_ToShoulder_0_CALLBACK */
 956:Generated_Source\PSoC4/CAN_TX_RX_func.c **** 
 957:Generated_Source\PSoC4/CAN_TX_RX_func.c ****         CAN_RX_ACK_MESSAGE(8u);
 626              		.loc 1 957 0
 627 0000 024A     		ldr	r2, .L58
 628 0002 1168     		ldr	r1, [r2]
 629 0004 0123     		movs	r3, #1
 630 0006 0B43     		orrs	r3, r1
ARM GAS  C:\Users\austc\AppData\Local\Temp\ccgQthMX.s 			page 29


 631 0008 1360     		str	r3, [r2]
 958:Generated_Source\PSoC4/CAN_TX_RX_func.c ****     }
 632              		.loc 1 958 0
 633              		@ sp needed
 634 000a 7047     		bx	lr
 635              	.L59:
 636              		.align	2
 637              	.L58:
 638 000c A0012F40 		.word	1076822432
 639              		.cfi_endproc
 640              	.LFE45:
 641              		.size	CAN_ReceiveMsgToShoulder_0, .-CAN_ReceiveMsgToShoulder_0
 642              		.section	.text.CAN_ReceiveMsgToElbow_0,"ax",%progbits
 643              		.align	2
 644              		.global	CAN_ReceiveMsgToElbow_0
 645              		.code	16
 646              		.thumb_func
 647              		.type	CAN_ReceiveMsgToElbow_0, %function
 648              	CAN_ReceiveMsgToElbow_0:
 649              	.LFB46:
 959:Generated_Source\PSoC4/CAN_TX_RX_func.c **** #endif /* CAN_RX8_FUNC_ENABLE */
 960:Generated_Source\PSoC4/CAN_TX_RX_func.c **** 
 961:Generated_Source\PSoC4/CAN_TX_RX_func.c **** 
 962:Generated_Source\PSoC4/CAN_TX_RX_func.c **** #if (CAN_RX9_FUNC_ENABLE)
 963:Generated_Source\PSoC4/CAN_TX_RX_func.c ****     /*******************************************************************************
 964:Generated_Source\PSoC4/CAN_TX_RX_func.c ****     * FUNCTION NAME:   CAN_ReceiveMsgToElbow_0
 965:Generated_Source\PSoC4/CAN_TX_RX_func.c ****     ********************************************************************************
 966:Generated_Source\PSoC4/CAN_TX_RX_func.c ****     *
 967:Generated_Source\PSoC4/CAN_TX_RX_func.c ****     * Summary:
 968:Generated_Source\PSoC4/CAN_TX_RX_func.c ****     *  This function is the entry point to Receive Message 9 Interrupt. Clears the
 969:Generated_Source\PSoC4/CAN_TX_RX_func.c ****     *  Receive Message 9 interrupt flag. Generated only for the Receive mailbox
 970:Generated_Source\PSoC4/CAN_TX_RX_func.c ****     *  designed as Full.
 971:Generated_Source\PSoC4/CAN_TX_RX_func.c ****     *
 972:Generated_Source\PSoC4/CAN_TX_RX_func.c ****     * Parameters:
 973:Generated_Source\PSoC4/CAN_TX_RX_func.c ****     *  None.
 974:Generated_Source\PSoC4/CAN_TX_RX_func.c ****     *
 975:Generated_Source\PSoC4/CAN_TX_RX_func.c ****     * Return:
 976:Generated_Source\PSoC4/CAN_TX_RX_func.c ****     *  None.
 977:Generated_Source\PSoC4/CAN_TX_RX_func.c ****     *
 978:Generated_Source\PSoC4/CAN_TX_RX_func.c ****     * Reentrant:
 979:Generated_Source\PSoC4/CAN_TX_RX_func.c ****     *  Depends on the Customer code.
 980:Generated_Source\PSoC4/CAN_TX_RX_func.c ****     *
 981:Generated_Source\PSoC4/CAN_TX_RX_func.c ****     *******************************************************************************/
 982:Generated_Source\PSoC4/CAN_TX_RX_func.c ****     void CAN_ReceiveMsgToElbow_0(void) 
 983:Generated_Source\PSoC4/CAN_TX_RX_func.c ****     {
 650              		.loc 1 983 0
 651              		.cfi_startproc
 652              		@ args = 0, pretend = 0, frame = 0
 653              		@ frame_needed = 0, uses_anonymous_args = 0
 654              		@ link register save eliminated.
 984:Generated_Source\PSoC4/CAN_TX_RX_func.c ****         /* `#START MESSAGE_ToElbow_0_RECEIVED` */
 985:Generated_Source\PSoC4/CAN_TX_RX_func.c **** 
 986:Generated_Source\PSoC4/CAN_TX_RX_func.c ****         /* `#END` */
 987:Generated_Source\PSoC4/CAN_TX_RX_func.c **** 
 988:Generated_Source\PSoC4/CAN_TX_RX_func.c ****         #ifdef CAN_RECEIVE_MSG_ToElbow_0_CALLBACK
 989:Generated_Source\PSoC4/CAN_TX_RX_func.c ****             CAN_ReceiveMsg_ToElbow_0_Callback();
 990:Generated_Source\PSoC4/CAN_TX_RX_func.c ****         #endif /* CAN_RECEIVE_MSG_ToElbow_0_CALLBACK */
ARM GAS  C:\Users\austc\AppData\Local\Temp\ccgQthMX.s 			page 30


 991:Generated_Source\PSoC4/CAN_TX_RX_func.c **** 
 992:Generated_Source\PSoC4/CAN_TX_RX_func.c ****         CAN_RX_ACK_MESSAGE(9u);
 655              		.loc 1 992 0
 656 0000 024A     		ldr	r2, .L61
 657 0002 1168     		ldr	r1, [r2]
 658 0004 0123     		movs	r3, #1
 659 0006 0B43     		orrs	r3, r1
 660 0008 1360     		str	r3, [r2]
 993:Generated_Source\PSoC4/CAN_TX_RX_func.c ****     }
 661              		.loc 1 993 0
 662              		@ sp needed
 663 000a 7047     		bx	lr
 664              	.L62:
 665              		.align	2
 666              	.L61:
 667 000c C0012F40 		.word	1076822464
 668              		.cfi_endproc
 669              	.LFE46:
 670              		.size	CAN_ReceiveMsgToElbow_0, .-CAN_ReceiveMsgToElbow_0
 671              		.section	.text.CAN_ReceiveMsgForearmRot_0,"ax",%progbits
 672              		.align	2
 673              		.global	CAN_ReceiveMsgForearmRot_0
 674              		.code	16
 675              		.thumb_func
 676              		.type	CAN_ReceiveMsgForearmRot_0, %function
 677              	CAN_ReceiveMsgForearmRot_0:
 678              	.LFB47:
 994:Generated_Source\PSoC4/CAN_TX_RX_func.c **** #endif /* CAN_RX9_FUNC_ENABLE */
 995:Generated_Source\PSoC4/CAN_TX_RX_func.c **** 
 996:Generated_Source\PSoC4/CAN_TX_RX_func.c **** 
 997:Generated_Source\PSoC4/CAN_TX_RX_func.c **** #if (CAN_RX10_FUNC_ENABLE)
 998:Generated_Source\PSoC4/CAN_TX_RX_func.c ****     /*******************************************************************************
 999:Generated_Source\PSoC4/CAN_TX_RX_func.c ****     * FUNCTION NAME:   CAN_ReceiveMsgForearmRot_0
1000:Generated_Source\PSoC4/CAN_TX_RX_func.c ****     ********************************************************************************
1001:Generated_Source\PSoC4/CAN_TX_RX_func.c ****     *
1002:Generated_Source\PSoC4/CAN_TX_RX_func.c ****     * Summary:
1003:Generated_Source\PSoC4/CAN_TX_RX_func.c ****     *  This function is the entry point to Receive Message 10 Interrupt. Clears the
1004:Generated_Source\PSoC4/CAN_TX_RX_func.c ****     *  Receive Message 10 interrupt flag. Generated only for the Receive mailbox
1005:Generated_Source\PSoC4/CAN_TX_RX_func.c ****     *  designed as Full.
1006:Generated_Source\PSoC4/CAN_TX_RX_func.c ****     *
1007:Generated_Source\PSoC4/CAN_TX_RX_func.c ****     * Parameters:
1008:Generated_Source\PSoC4/CAN_TX_RX_func.c ****     *  None.
1009:Generated_Source\PSoC4/CAN_TX_RX_func.c ****     *
1010:Generated_Source\PSoC4/CAN_TX_RX_func.c ****     * Return:
1011:Generated_Source\PSoC4/CAN_TX_RX_func.c ****     *  None.
1012:Generated_Source\PSoC4/CAN_TX_RX_func.c ****     *
1013:Generated_Source\PSoC4/CAN_TX_RX_func.c ****     * Reentrant:
1014:Generated_Source\PSoC4/CAN_TX_RX_func.c ****     *  Depends on the Customer code.
1015:Generated_Source\PSoC4/CAN_TX_RX_func.c ****     *
1016:Generated_Source\PSoC4/CAN_TX_RX_func.c ****     *******************************************************************************/
1017:Generated_Source\PSoC4/CAN_TX_RX_func.c ****     void CAN_ReceiveMsgForearmRot_0(void) 
1018:Generated_Source\PSoC4/CAN_TX_RX_func.c ****     {
 679              		.loc 1 1018 0
 680              		.cfi_startproc
 681              		@ args = 0, pretend = 0, frame = 0
 682              		@ frame_needed = 0, uses_anonymous_args = 0
 683              		@ link register save eliminated.
ARM GAS  C:\Users\austc\AppData\Local\Temp\ccgQthMX.s 			page 31


1019:Generated_Source\PSoC4/CAN_TX_RX_func.c ****         /* `#START MESSAGE_ForearmRot_0_RECEIVED` */
1020:Generated_Source\PSoC4/CAN_TX_RX_func.c **** 
1021:Generated_Source\PSoC4/CAN_TX_RX_func.c ****         /* `#END` */
1022:Generated_Source\PSoC4/CAN_TX_RX_func.c **** 
1023:Generated_Source\PSoC4/CAN_TX_RX_func.c ****         #ifdef CAN_RECEIVE_MSG_ForearmRot_0_CALLBACK
1024:Generated_Source\PSoC4/CAN_TX_RX_func.c ****             CAN_ReceiveMsg_ForearmRot_0_Callback();
1025:Generated_Source\PSoC4/CAN_TX_RX_func.c ****         #endif /* CAN_RECEIVE_MSG_ForearmRot_0_CALLBACK */
1026:Generated_Source\PSoC4/CAN_TX_RX_func.c **** 
1027:Generated_Source\PSoC4/CAN_TX_RX_func.c ****         CAN_RX_ACK_MESSAGE(10u);
 684              		.loc 1 1027 0
 685 0000 024A     		ldr	r2, .L64
 686 0002 1168     		ldr	r1, [r2]
 687 0004 0123     		movs	r3, #1
 688 0006 0B43     		orrs	r3, r1
 689 0008 1360     		str	r3, [r2]
1028:Generated_Source\PSoC4/CAN_TX_RX_func.c ****     }
 690              		.loc 1 1028 0
 691              		@ sp needed
 692 000a 7047     		bx	lr
 693              	.L65:
 694              		.align	2
 695              	.L64:
 696 000c E0012F40 		.word	1076822496
 697              		.cfi_endproc
 698              	.LFE47:
 699              		.size	CAN_ReceiveMsgForearmRot_0, .-CAN_ReceiveMsgForearmRot_0
 700              		.section	.text.CAN_ReceiveMsgToDiffWrist_0,"ax",%progbits
 701              		.align	2
 702              		.global	CAN_ReceiveMsgToDiffWrist_0
 703              		.code	16
 704              		.thumb_func
 705              		.type	CAN_ReceiveMsgToDiffWrist_0, %function
 706              	CAN_ReceiveMsgToDiffWrist_0:
 707              	.LFB48:
1029:Generated_Source\PSoC4/CAN_TX_RX_func.c **** #endif /* CAN_RX10_FUNC_ENABLE */
1030:Generated_Source\PSoC4/CAN_TX_RX_func.c **** 
1031:Generated_Source\PSoC4/CAN_TX_RX_func.c **** 
1032:Generated_Source\PSoC4/CAN_TX_RX_func.c **** #if (CAN_RX11_FUNC_ENABLE)
1033:Generated_Source\PSoC4/CAN_TX_RX_func.c ****     /*******************************************************************************
1034:Generated_Source\PSoC4/CAN_TX_RX_func.c ****     * FUNCTION NAME:   CAN_ReceiveMsgToDiffWrist_0
1035:Generated_Source\PSoC4/CAN_TX_RX_func.c ****     ********************************************************************************
1036:Generated_Source\PSoC4/CAN_TX_RX_func.c ****     *
1037:Generated_Source\PSoC4/CAN_TX_RX_func.c ****     * Summary:
1038:Generated_Source\PSoC4/CAN_TX_RX_func.c ****     *  This function is the entry point to Receive Message 11 Interrupt. Clears the
1039:Generated_Source\PSoC4/CAN_TX_RX_func.c ****     *  Receive Message 11 interrupt flag. Generated only for the Receive mailbox
1040:Generated_Source\PSoC4/CAN_TX_RX_func.c ****     *  designed as Full.
1041:Generated_Source\PSoC4/CAN_TX_RX_func.c ****     *
1042:Generated_Source\PSoC4/CAN_TX_RX_func.c ****     * Parameters:
1043:Generated_Source\PSoC4/CAN_TX_RX_func.c ****     *  None.
1044:Generated_Source\PSoC4/CAN_TX_RX_func.c ****     *
1045:Generated_Source\PSoC4/CAN_TX_RX_func.c ****     * Return:
1046:Generated_Source\PSoC4/CAN_TX_RX_func.c ****     *  None.
1047:Generated_Source\PSoC4/CAN_TX_RX_func.c ****     *
1048:Generated_Source\PSoC4/CAN_TX_RX_func.c ****     * Reentrant:
1049:Generated_Source\PSoC4/CAN_TX_RX_func.c ****     *  Depends on the Customer code.
1050:Generated_Source\PSoC4/CAN_TX_RX_func.c ****     *
1051:Generated_Source\PSoC4/CAN_TX_RX_func.c ****     *******************************************************************************/
ARM GAS  C:\Users\austc\AppData\Local\Temp\ccgQthMX.s 			page 32


1052:Generated_Source\PSoC4/CAN_TX_RX_func.c ****     void CAN_ReceiveMsgToDiffWrist_0(void) 
1053:Generated_Source\PSoC4/CAN_TX_RX_func.c ****     {
 708              		.loc 1 1053 0
 709              		.cfi_startproc
 710              		@ args = 0, pretend = 0, frame = 0
 711              		@ frame_needed = 0, uses_anonymous_args = 0
 712              		@ link register save eliminated.
1054:Generated_Source\PSoC4/CAN_TX_RX_func.c ****         /* `#START MESSAGE_ToDiffWrist_0_RECEIVED` */
1055:Generated_Source\PSoC4/CAN_TX_RX_func.c **** 
1056:Generated_Source\PSoC4/CAN_TX_RX_func.c ****         /* `#END` */
1057:Generated_Source\PSoC4/CAN_TX_RX_func.c **** 
1058:Generated_Source\PSoC4/CAN_TX_RX_func.c ****         #ifdef CAN_RECEIVE_MSG_ToDiffWrist_0_CALLBACK
1059:Generated_Source\PSoC4/CAN_TX_RX_func.c ****             CAN_ReceiveMsg_ToDiffWrist_0_Callback();
1060:Generated_Source\PSoC4/CAN_TX_RX_func.c ****         #endif /* CAN_RECEIVE_MSG_ToDiffWrist_0_CALLBACK */
1061:Generated_Source\PSoC4/CAN_TX_RX_func.c **** 
1062:Generated_Source\PSoC4/CAN_TX_RX_func.c ****         CAN_RX_ACK_MESSAGE(11u);
 713              		.loc 1 1062 0
 714 0000 024A     		ldr	r2, .L67
 715 0002 1168     		ldr	r1, [r2]
 716 0004 0123     		movs	r3, #1
 717 0006 0B43     		orrs	r3, r1
 718 0008 1360     		str	r3, [r2]
1063:Generated_Source\PSoC4/CAN_TX_RX_func.c ****     }
 719              		.loc 1 1063 0
 720              		@ sp needed
 721 000a 7047     		bx	lr
 722              	.L68:
 723              		.align	2
 724              	.L67:
 725 000c 00022F40 		.word	1076822528
 726              		.cfi_endproc
 727              	.LFE48:
 728              		.size	CAN_ReceiveMsgToDiffWrist_0, .-CAN_ReceiveMsgToDiffWrist_0
 729              		.section	.text.CAN_ReceiveMsgToDiffWrist2_0,"ax",%progbits
 730              		.align	2
 731              		.global	CAN_ReceiveMsgToDiffWrist2_0
 732              		.code	16
 733              		.thumb_func
 734              		.type	CAN_ReceiveMsgToDiffWrist2_0, %function
 735              	CAN_ReceiveMsgToDiffWrist2_0:
 736              	.LFB49:
1064:Generated_Source\PSoC4/CAN_TX_RX_func.c **** #endif /* CAN_RX11_FUNC_ENABLE */
1065:Generated_Source\PSoC4/CAN_TX_RX_func.c **** 
1066:Generated_Source\PSoC4/CAN_TX_RX_func.c **** 
1067:Generated_Source\PSoC4/CAN_TX_RX_func.c **** #if (CAN_RX12_FUNC_ENABLE)
1068:Generated_Source\PSoC4/CAN_TX_RX_func.c ****     /*******************************************************************************
1069:Generated_Source\PSoC4/CAN_TX_RX_func.c ****     * FUNCTION NAME:   CAN_ReceiveMsgToDiffWrist2_0
1070:Generated_Source\PSoC4/CAN_TX_RX_func.c ****     ********************************************************************************
1071:Generated_Source\PSoC4/CAN_TX_RX_func.c ****     *
1072:Generated_Source\PSoC4/CAN_TX_RX_func.c ****     * Summary:
1073:Generated_Source\PSoC4/CAN_TX_RX_func.c ****     *  This function is the entry point to Receive Message 12 Interrupt. Clears the
1074:Generated_Source\PSoC4/CAN_TX_RX_func.c ****     *  Receive Message 12 interrupt flag. Generated only for the Receive mailbox
1075:Generated_Source\PSoC4/CAN_TX_RX_func.c ****     *  designed as Full.
1076:Generated_Source\PSoC4/CAN_TX_RX_func.c ****     *
1077:Generated_Source\PSoC4/CAN_TX_RX_func.c ****     * Parameters:
1078:Generated_Source\PSoC4/CAN_TX_RX_func.c ****     *  None.
1079:Generated_Source\PSoC4/CAN_TX_RX_func.c ****     *
ARM GAS  C:\Users\austc\AppData\Local\Temp\ccgQthMX.s 			page 33


1080:Generated_Source\PSoC4/CAN_TX_RX_func.c ****     * Return:
1081:Generated_Source\PSoC4/CAN_TX_RX_func.c ****     *  None.
1082:Generated_Source\PSoC4/CAN_TX_RX_func.c ****     *
1083:Generated_Source\PSoC4/CAN_TX_RX_func.c ****     * Reentrant:
1084:Generated_Source\PSoC4/CAN_TX_RX_func.c ****     *  Depends on the Customer code.
1085:Generated_Source\PSoC4/CAN_TX_RX_func.c ****     *
1086:Generated_Source\PSoC4/CAN_TX_RX_func.c ****     *******************************************************************************/
1087:Generated_Source\PSoC4/CAN_TX_RX_func.c ****     void CAN_ReceiveMsgToDiffWrist2_0(void) 
1088:Generated_Source\PSoC4/CAN_TX_RX_func.c ****     {
 737              		.loc 1 1088 0
 738              		.cfi_startproc
 739              		@ args = 0, pretend = 0, frame = 0
 740              		@ frame_needed = 0, uses_anonymous_args = 0
 741              		@ link register save eliminated.
1089:Generated_Source\PSoC4/CAN_TX_RX_func.c ****         /* `#START MESSAGE_ToDiffWrist2_0_RECEIVED` */
1090:Generated_Source\PSoC4/CAN_TX_RX_func.c **** 
1091:Generated_Source\PSoC4/CAN_TX_RX_func.c ****         /* `#END` */
1092:Generated_Source\PSoC4/CAN_TX_RX_func.c **** 
1093:Generated_Source\PSoC4/CAN_TX_RX_func.c ****         #ifdef CAN_RECEIVE_MSG_ToDiffWrist2_0_CALLBACK
1094:Generated_Source\PSoC4/CAN_TX_RX_func.c ****             CAN_ReceiveMsg_ToDiffWrist2_0_Callback();
1095:Generated_Source\PSoC4/CAN_TX_RX_func.c ****         #endif /* CAN_RECEIVE_MSG_ToDiffWrist2_0_CALLBACK */
1096:Generated_Source\PSoC4/CAN_TX_RX_func.c **** 
1097:Generated_Source\PSoC4/CAN_TX_RX_func.c ****         CAN_RX_ACK_MESSAGE(12u);
 742              		.loc 1 1097 0
 743 0000 024A     		ldr	r2, .L70
 744 0002 1168     		ldr	r1, [r2]
 745 0004 0123     		movs	r3, #1
 746 0006 0B43     		orrs	r3, r1
 747 0008 1360     		str	r3, [r2]
1098:Generated_Source\PSoC4/CAN_TX_RX_func.c ****     }
 748              		.loc 1 1098 0
 749              		@ sp needed
 750 000a 7047     		bx	lr
 751              	.L71:
 752              		.align	2
 753              	.L70:
 754 000c 20022F40 		.word	1076822560
 755              		.cfi_endproc
 756              	.LFE49:
 757              		.size	CAN_ReceiveMsgToDiffWrist2_0, .-CAN_ReceiveMsgToDiffWrist2_0
 758              		.section	.text.CAN_ReceiveMsgToHand_0,"ax",%progbits
 759              		.align	2
 760              		.global	CAN_ReceiveMsgToHand_0
 761              		.code	16
 762              		.thumb_func
 763              		.type	CAN_ReceiveMsgToHand_0, %function
 764              	CAN_ReceiveMsgToHand_0:
 765              	.LFB50:
1099:Generated_Source\PSoC4/CAN_TX_RX_func.c **** #endif /* CAN_RX12_FUNC_ENABLE */
1100:Generated_Source\PSoC4/CAN_TX_RX_func.c **** 
1101:Generated_Source\PSoC4/CAN_TX_RX_func.c **** 
1102:Generated_Source\PSoC4/CAN_TX_RX_func.c **** #if (CAN_RX13_FUNC_ENABLE)
1103:Generated_Source\PSoC4/CAN_TX_RX_func.c ****     /*******************************************************************************
1104:Generated_Source\PSoC4/CAN_TX_RX_func.c ****     * FUNCTION NAME:   CAN_ReceiveMsgToHand_0
1105:Generated_Source\PSoC4/CAN_TX_RX_func.c ****     ********************************************************************************
1106:Generated_Source\PSoC4/CAN_TX_RX_func.c ****     *
1107:Generated_Source\PSoC4/CAN_TX_RX_func.c ****     * Summary:
ARM GAS  C:\Users\austc\AppData\Local\Temp\ccgQthMX.s 			page 34


1108:Generated_Source\PSoC4/CAN_TX_RX_func.c ****     *  This function is the entry point to Receive Message 13 Interrupt. Clears the
1109:Generated_Source\PSoC4/CAN_TX_RX_func.c ****     *  Receive Message 13 interrupt flag. Generated only for the Receive mailbox
1110:Generated_Source\PSoC4/CAN_TX_RX_func.c ****     *  designed as Full.
1111:Generated_Source\PSoC4/CAN_TX_RX_func.c ****     *
1112:Generated_Source\PSoC4/CAN_TX_RX_func.c ****     * Parameters:
1113:Generated_Source\PSoC4/CAN_TX_RX_func.c ****     *  None.
1114:Generated_Source\PSoC4/CAN_TX_RX_func.c ****     *
1115:Generated_Source\PSoC4/CAN_TX_RX_func.c ****     * Return:
1116:Generated_Source\PSoC4/CAN_TX_RX_func.c ****     *  None.
1117:Generated_Source\PSoC4/CAN_TX_RX_func.c ****     *
1118:Generated_Source\PSoC4/CAN_TX_RX_func.c ****     * Reentrant:
1119:Generated_Source\PSoC4/CAN_TX_RX_func.c ****     *  Depends on the Customer code.
1120:Generated_Source\PSoC4/CAN_TX_RX_func.c ****     *
1121:Generated_Source\PSoC4/CAN_TX_RX_func.c ****     *******************************************************************************/
1122:Generated_Source\PSoC4/CAN_TX_RX_func.c ****     void CAN_ReceiveMsgToHand_0(void) 
1123:Generated_Source\PSoC4/CAN_TX_RX_func.c ****     {
 766              		.loc 1 1123 0
 767              		.cfi_startproc
 768              		@ args = 0, pretend = 0, frame = 0
 769              		@ frame_needed = 0, uses_anonymous_args = 0
 770              		@ link register save eliminated.
1124:Generated_Source\PSoC4/CAN_TX_RX_func.c ****         /* `#START MESSAGE_ToHand_0_RECEIVED` */
1125:Generated_Source\PSoC4/CAN_TX_RX_func.c **** 
1126:Generated_Source\PSoC4/CAN_TX_RX_func.c ****         /* `#END` */
1127:Generated_Source\PSoC4/CAN_TX_RX_func.c **** 
1128:Generated_Source\PSoC4/CAN_TX_RX_func.c ****         #ifdef CAN_RECEIVE_MSG_ToHand_0_CALLBACK
1129:Generated_Source\PSoC4/CAN_TX_RX_func.c ****             CAN_ReceiveMsg_ToHand_0_Callback();
1130:Generated_Source\PSoC4/CAN_TX_RX_func.c ****         #endif /* CAN_RECEIVE_MSG_ToHand_0_CALLBACK */
1131:Generated_Source\PSoC4/CAN_TX_RX_func.c **** 
1132:Generated_Source\PSoC4/CAN_TX_RX_func.c ****         CAN_RX_ACK_MESSAGE(13u);
 771              		.loc 1 1132 0
 772 0000 024A     		ldr	r2, .L73
 773 0002 1168     		ldr	r1, [r2]
 774 0004 0123     		movs	r3, #1
 775 0006 0B43     		orrs	r3, r1
 776 0008 1360     		str	r3, [r2]
1133:Generated_Source\PSoC4/CAN_TX_RX_func.c ****     }
 777              		.loc 1 1133 0
 778              		@ sp needed
 779 000a 7047     		bx	lr
 780              	.L74:
 781              		.align	2
 782              	.L73:
 783 000c 40022F40 		.word	1076822592
 784              		.cfi_endproc
 785              	.LFE50:
 786              		.size	CAN_ReceiveMsgToHand_0, .-CAN_ReceiveMsgToHand_0
 787              		.section	.text.CAN_ReceiveMsgGeneral_0,"ax",%progbits
 788              		.align	2
 789              		.global	CAN_ReceiveMsgGeneral_0
 790              		.code	16
 791              		.thumb_func
 792              		.type	CAN_ReceiveMsgGeneral_0, %function
 793              	CAN_ReceiveMsgGeneral_0:
 794              	.LFB51:
1134:Generated_Source\PSoC4/CAN_TX_RX_func.c **** #endif /* CAN_RX13_FUNC_ENABLE */
1135:Generated_Source\PSoC4/CAN_TX_RX_func.c **** 
ARM GAS  C:\Users\austc\AppData\Local\Temp\ccgQthMX.s 			page 35


1136:Generated_Source\PSoC4/CAN_TX_RX_func.c **** 
1137:Generated_Source\PSoC4/CAN_TX_RX_func.c **** #if (CAN_RX14_FUNC_ENABLE)
1138:Generated_Source\PSoC4/CAN_TX_RX_func.c ****     /*******************************************************************************
1139:Generated_Source\PSoC4/CAN_TX_RX_func.c ****     * FUNCTION NAME:   CAN_ReceiveMsgGeneral_0
1140:Generated_Source\PSoC4/CAN_TX_RX_func.c ****     ********************************************************************************
1141:Generated_Source\PSoC4/CAN_TX_RX_func.c ****     *
1142:Generated_Source\PSoC4/CAN_TX_RX_func.c ****     * Summary:
1143:Generated_Source\PSoC4/CAN_TX_RX_func.c ****     *  This function is the entry point to Receive Message 14 Interrupt. Clears the
1144:Generated_Source\PSoC4/CAN_TX_RX_func.c ****     *  Receive Message 14 interrupt flag. Generated only for the Receive mailbox
1145:Generated_Source\PSoC4/CAN_TX_RX_func.c ****     *  designed as Full.
1146:Generated_Source\PSoC4/CAN_TX_RX_func.c ****     *
1147:Generated_Source\PSoC4/CAN_TX_RX_func.c ****     * Parameters:
1148:Generated_Source\PSoC4/CAN_TX_RX_func.c ****     *  None.
1149:Generated_Source\PSoC4/CAN_TX_RX_func.c ****     *
1150:Generated_Source\PSoC4/CAN_TX_RX_func.c ****     * Return:
1151:Generated_Source\PSoC4/CAN_TX_RX_func.c ****     *  None.
1152:Generated_Source\PSoC4/CAN_TX_RX_func.c ****     *
1153:Generated_Source\PSoC4/CAN_TX_RX_func.c ****     * Reentrant:
1154:Generated_Source\PSoC4/CAN_TX_RX_func.c ****     *  Depends on the Customer code.
1155:Generated_Source\PSoC4/CAN_TX_RX_func.c ****     *
1156:Generated_Source\PSoC4/CAN_TX_RX_func.c ****     *******************************************************************************/
1157:Generated_Source\PSoC4/CAN_TX_RX_func.c ****     void CAN_ReceiveMsgGeneral_0(void) 
1158:Generated_Source\PSoC4/CAN_TX_RX_func.c ****     {
 795              		.loc 1 1158 0
 796              		.cfi_startproc
 797              		@ args = 0, pretend = 0, frame = 0
 798              		@ frame_needed = 0, uses_anonymous_args = 0
 799              		@ link register save eliminated.
1159:Generated_Source\PSoC4/CAN_TX_RX_func.c ****         /* `#START MESSAGE_General_0_RECEIVED` */
1160:Generated_Source\PSoC4/CAN_TX_RX_func.c **** 
1161:Generated_Source\PSoC4/CAN_TX_RX_func.c ****         /* `#END` */
1162:Generated_Source\PSoC4/CAN_TX_RX_func.c **** 
1163:Generated_Source\PSoC4/CAN_TX_RX_func.c ****         #ifdef CAN_RECEIVE_MSG_General_0_CALLBACK
1164:Generated_Source\PSoC4/CAN_TX_RX_func.c ****             CAN_ReceiveMsg_General_0_Callback();
1165:Generated_Source\PSoC4/CAN_TX_RX_func.c ****         #endif /* CAN_RECEIVE_MSG_General_0_CALLBACK */
1166:Generated_Source\PSoC4/CAN_TX_RX_func.c **** 
1167:Generated_Source\PSoC4/CAN_TX_RX_func.c ****         CAN_RX_ACK_MESSAGE(14u);
 800              		.loc 1 1167 0
 801 0000 024A     		ldr	r2, .L76
 802 0002 1168     		ldr	r1, [r2]
 803 0004 0123     		movs	r3, #1
 804 0006 0B43     		orrs	r3, r1
 805 0008 1360     		str	r3, [r2]
1168:Generated_Source\PSoC4/CAN_TX_RX_func.c ****     }
 806              		.loc 1 1168 0
 807              		@ sp needed
 808 000a 7047     		bx	lr
 809              	.L77:
 810              		.align	2
 811              	.L76:
 812 000c 60022F40 		.word	1076822624
 813              		.cfi_endproc
 814              	.LFE51:
 815              		.size	CAN_ReceiveMsgGeneral_0, .-CAN_ReceiveMsgGeneral_0
 816              		.section	.text.CAN_ReceiveMsgGeneral_1,"ax",%progbits
 817              		.align	2
 818              		.global	CAN_ReceiveMsgGeneral_1
ARM GAS  C:\Users\austc\AppData\Local\Temp\ccgQthMX.s 			page 36


 819              		.code	16
 820              		.thumb_func
 821              		.type	CAN_ReceiveMsgGeneral_1, %function
 822              	CAN_ReceiveMsgGeneral_1:
 823              	.LFB52:
1169:Generated_Source\PSoC4/CAN_TX_RX_func.c **** #endif /* CAN_RX14_FUNC_ENABLE */
1170:Generated_Source\PSoC4/CAN_TX_RX_func.c **** 
1171:Generated_Source\PSoC4/CAN_TX_RX_func.c **** 
1172:Generated_Source\PSoC4/CAN_TX_RX_func.c **** #if (CAN_RX15_FUNC_ENABLE)
1173:Generated_Source\PSoC4/CAN_TX_RX_func.c ****     /*******************************************************************************
1174:Generated_Source\PSoC4/CAN_TX_RX_func.c ****     * FUNCTION NAME:   CAN_ReceiveMsgGeneral_1
1175:Generated_Source\PSoC4/CAN_TX_RX_func.c ****     ********************************************************************************
1176:Generated_Source\PSoC4/CAN_TX_RX_func.c ****     *
1177:Generated_Source\PSoC4/CAN_TX_RX_func.c ****     * Summary:
1178:Generated_Source\PSoC4/CAN_TX_RX_func.c ****     *  This function is the entry point to Receive Message 15 Interrupt. Clears the
1179:Generated_Source\PSoC4/CAN_TX_RX_func.c ****     *  Receive Message 15 interrupt flag. Generated only for the Receive mailbox
1180:Generated_Source\PSoC4/CAN_TX_RX_func.c ****     *  designed as Full.
1181:Generated_Source\PSoC4/CAN_TX_RX_func.c ****     *
1182:Generated_Source\PSoC4/CAN_TX_RX_func.c ****     * Parameters:
1183:Generated_Source\PSoC4/CAN_TX_RX_func.c ****     *  None.
1184:Generated_Source\PSoC4/CAN_TX_RX_func.c ****     *
1185:Generated_Source\PSoC4/CAN_TX_RX_func.c ****     * Return:
1186:Generated_Source\PSoC4/CAN_TX_RX_func.c ****     *  None.
1187:Generated_Source\PSoC4/CAN_TX_RX_func.c ****     *
1188:Generated_Source\PSoC4/CAN_TX_RX_func.c ****     * Reentrant:
1189:Generated_Source\PSoC4/CAN_TX_RX_func.c ****     *  Depends on the Customer code.
1190:Generated_Source\PSoC4/CAN_TX_RX_func.c ****     *
1191:Generated_Source\PSoC4/CAN_TX_RX_func.c ****     *******************************************************************************/
1192:Generated_Source\PSoC4/CAN_TX_RX_func.c ****     void CAN_ReceiveMsgGeneral_1(void) 
1193:Generated_Source\PSoC4/CAN_TX_RX_func.c ****     {
 824              		.loc 1 1193 0
 825              		.cfi_startproc
 826              		@ args = 0, pretend = 0, frame = 0
 827              		@ frame_needed = 0, uses_anonymous_args = 0
 828              		@ link register save eliminated.
1194:Generated_Source\PSoC4/CAN_TX_RX_func.c ****         /* `#START MESSAGE_General_1_RECEIVED` */
1195:Generated_Source\PSoC4/CAN_TX_RX_func.c **** 
1196:Generated_Source\PSoC4/CAN_TX_RX_func.c ****         /* `#END` */
1197:Generated_Source\PSoC4/CAN_TX_RX_func.c **** 
1198:Generated_Source\PSoC4/CAN_TX_RX_func.c ****         #ifdef CAN_RECEIVE_MSG_General_1_CALLBACK
1199:Generated_Source\PSoC4/CAN_TX_RX_func.c ****             CAN_ReceiveMsg_General_1_Callback();
1200:Generated_Source\PSoC4/CAN_TX_RX_func.c ****         #endif /* CAN_RECEIVE_MSG_General_1_CALLBACK */
1201:Generated_Source\PSoC4/CAN_TX_RX_func.c **** 
1202:Generated_Source\PSoC4/CAN_TX_RX_func.c ****         CAN_RX_ACK_MESSAGE(15u);
 829              		.loc 1 1202 0
 830 0000 024A     		ldr	r2, .L79
 831 0002 1168     		ldr	r1, [r2]
 832 0004 0123     		movs	r3, #1
 833 0006 0B43     		orrs	r3, r1
 834 0008 1360     		str	r3, [r2]
1203:Generated_Source\PSoC4/CAN_TX_RX_func.c ****     }
 835              		.loc 1 1203 0
 836              		@ sp needed
 837 000a 7047     		bx	lr
 838              	.L80:
 839              		.align	2
 840              	.L79:
ARM GAS  C:\Users\austc\AppData\Local\Temp\ccgQthMX.s 			page 37


 841 000c 80022F40 		.word	1076822656
 842              		.cfi_endproc
 843              	.LFE52:
 844              		.size	CAN_ReceiveMsgGeneral_1, .-CAN_ReceiveMsgGeneral_1
 845              		.text
 846              	.Letext0:
 847              		.file 2 "Generated_Source\\PSoC4\\cytypes.h"
 848              		.file 3 "Generated_Source\\PSoC4\\CAN.h"
 849              		.file 4 "Generated_Source\\PSoC4\\CyLib.h"