ARM GAS  C:\Users\austc\AppData\Local\Temp\ccORObfh.s 			page 1


   1              		.syntax unified
   2              		.cpu cortex-m0
   3              		.fpu softvfp
   4              		.eabi_attribute 20, 1
   5              		.eabi_attribute 21, 1
   6              		.eabi_attribute 23, 3
   7              		.eabi_attribute 24, 1
   8              		.eabi_attribute 25, 1
   9              		.eabi_attribute 26, 1
  10              		.eabi_attribute 30, 1
  11              		.eabi_attribute 34, 0
  12              		.eabi_attribute 18, 4
  13              		.thumb
  14              		.syntax unified
  15              		.file	"cyfitter_cfg.c"
  16              		.text
  17              	.Ltext0:
  18              		.cfi_sections	.debug_frame
  19              		.section	.text.cfg_write_bytes32,"ax",%progbits
  20              		.align	2
  21              		.code	16
  22              		.thumb_func
  23              		.type	cfg_write_bytes32, %function
  24              	cfg_write_bytes32:
  25              	.LFB37:
  26              		.file 1 "Generated_Source\\PSoC4\\cyfitter_cfg.c"
   1:Generated_Source\PSoC4/cyfitter_cfg.c **** 
   2:Generated_Source\PSoC4/cyfitter_cfg.c **** /*******************************************************************************
   3:Generated_Source\PSoC4/cyfitter_cfg.c **** * File Name: cyfitter_cfg.c
   4:Generated_Source\PSoC4/cyfitter_cfg.c **** * 
   5:Generated_Source\PSoC4/cyfitter_cfg.c **** * PSoC Creator  4.2
   6:Generated_Source\PSoC4/cyfitter_cfg.c **** *
   7:Generated_Source\PSoC4/cyfitter_cfg.c **** * Description:
   8:Generated_Source\PSoC4/cyfitter_cfg.c **** * This file contains device initialization code.
   9:Generated_Source\PSoC4/cyfitter_cfg.c **** * Except for the user defined sections in CyClockStartupError(), this file should not be modified.
  10:Generated_Source\PSoC4/cyfitter_cfg.c **** * This file is automatically generated by PSoC Creator.
  11:Generated_Source\PSoC4/cyfitter_cfg.c **** *
  12:Generated_Source\PSoC4/cyfitter_cfg.c **** ********************************************************************************
  13:Generated_Source\PSoC4/cyfitter_cfg.c **** * Copyright (c) 2007-2018 Cypress Semiconductor.  All rights reserved.
  14:Generated_Source\PSoC4/cyfitter_cfg.c **** * You may use this file only in accordance with the license, terms, conditions, 
  15:Generated_Source\PSoC4/cyfitter_cfg.c **** * disclaimers, and limitations in the end user license agreement accompanying 
  16:Generated_Source\PSoC4/cyfitter_cfg.c **** * the software package with which this file was provided.
  17:Generated_Source\PSoC4/cyfitter_cfg.c **** ********************************************************************************/
  18:Generated_Source\PSoC4/cyfitter_cfg.c **** 
  19:Generated_Source\PSoC4/cyfitter_cfg.c **** #include <string.h>
  20:Generated_Source\PSoC4/cyfitter_cfg.c **** #include "cytypes.h"
  21:Generated_Source\PSoC4/cyfitter_cfg.c **** #include "cydevice_trm.h"
  22:Generated_Source\PSoC4/cyfitter_cfg.c **** #include "cyfitter.h"
  23:Generated_Source\PSoC4/cyfitter_cfg.c **** #include "CyLib.h"
  24:Generated_Source\PSoC4/cyfitter_cfg.c **** #include "CyLFClk.h"
  25:Generated_Source\PSoC4/cyfitter_cfg.c **** #include "cyfitter_cfg.h"
  26:Generated_Source\PSoC4/cyfitter_cfg.c **** #include "cyapicallbacks.h"
  27:Generated_Source\PSoC4/cyfitter_cfg.c **** 
  28:Generated_Source\PSoC4/cyfitter_cfg.c **** 
  29:Generated_Source\PSoC4/cyfitter_cfg.c **** #if defined(__GNUC__) || defined(__ARMCC_VERSION)
  30:Generated_Source\PSoC4/cyfitter_cfg.c ****     #define CYPACKED 
  31:Generated_Source\PSoC4/cyfitter_cfg.c ****     #define CYPACKED_ATTR __attribute__ ((packed))
ARM GAS  C:\Users\austc\AppData\Local\Temp\ccORObfh.s 			page 2


  32:Generated_Source\PSoC4/cyfitter_cfg.c ****     #define CYALIGNED __attribute__ ((aligned))
  33:Generated_Source\PSoC4/cyfitter_cfg.c ****     #define CY_CFG_UNUSED __attribute__ ((unused))
  34:Generated_Source\PSoC4/cyfitter_cfg.c ****     #ifndef CY_CFG_SECTION
  35:Generated_Source\PSoC4/cyfitter_cfg.c ****         #define CY_CFG_SECTION __attribute__ ((section(".psocinit")))
  36:Generated_Source\PSoC4/cyfitter_cfg.c ****     #endif
  37:Generated_Source\PSoC4/cyfitter_cfg.c ****     
  38:Generated_Source\PSoC4/cyfitter_cfg.c ****     #if defined(__ARMCC_VERSION)
  39:Generated_Source\PSoC4/cyfitter_cfg.c ****         #define CY_CFG_MEMORY_BARRIER() __memory_changed()
  40:Generated_Source\PSoC4/cyfitter_cfg.c ****     #else
  41:Generated_Source\PSoC4/cyfitter_cfg.c ****         #define CY_CFG_MEMORY_BARRIER() __sync_synchronize()
  42:Generated_Source\PSoC4/cyfitter_cfg.c ****     #endif
  43:Generated_Source\PSoC4/cyfitter_cfg.c ****     
  44:Generated_Source\PSoC4/cyfitter_cfg.c **** #elif defined(__ICCARM__)
  45:Generated_Source\PSoC4/cyfitter_cfg.c ****     #include <intrinsics.h>
  46:Generated_Source\PSoC4/cyfitter_cfg.c **** 
  47:Generated_Source\PSoC4/cyfitter_cfg.c ****     #define CYPACKED __packed
  48:Generated_Source\PSoC4/cyfitter_cfg.c ****     #define CYPACKED_ATTR 
  49:Generated_Source\PSoC4/cyfitter_cfg.c ****     #define CYALIGNED _Pragma("data_alignment=4")
  50:Generated_Source\PSoC4/cyfitter_cfg.c ****     #define CY_CFG_UNUSED _Pragma("diag_suppress=Pe177")
  51:Generated_Source\PSoC4/cyfitter_cfg.c ****     #define CY_CFG_SECTION _Pragma("location=\".psocinit\"")
  52:Generated_Source\PSoC4/cyfitter_cfg.c ****     
  53:Generated_Source\PSoC4/cyfitter_cfg.c ****     #define CY_CFG_MEMORY_BARRIER() __DMB()
  54:Generated_Source\PSoC4/cyfitter_cfg.c ****     
  55:Generated_Source\PSoC4/cyfitter_cfg.c **** #else
  56:Generated_Source\PSoC4/cyfitter_cfg.c ****     #error Unsupported toolchain
  57:Generated_Source\PSoC4/cyfitter_cfg.c **** #endif
  58:Generated_Source\PSoC4/cyfitter_cfg.c **** 
  59:Generated_Source\PSoC4/cyfitter_cfg.c **** #ifndef CYCODE
  60:Generated_Source\PSoC4/cyfitter_cfg.c ****     #define CYCODE
  61:Generated_Source\PSoC4/cyfitter_cfg.c **** #endif
  62:Generated_Source\PSoC4/cyfitter_cfg.c **** #ifndef CYDATA
  63:Generated_Source\PSoC4/cyfitter_cfg.c ****     #define CYDATA
  64:Generated_Source\PSoC4/cyfitter_cfg.c **** #endif
  65:Generated_Source\PSoC4/cyfitter_cfg.c **** #ifndef CYFAR
  66:Generated_Source\PSoC4/cyfitter_cfg.c ****     #define CYFAR
  67:Generated_Source\PSoC4/cyfitter_cfg.c **** #endif
  68:Generated_Source\PSoC4/cyfitter_cfg.c **** #ifndef CYXDATA
  69:Generated_Source\PSoC4/cyfitter_cfg.c ****     #define CYXDATA
  70:Generated_Source\PSoC4/cyfitter_cfg.c **** #endif
  71:Generated_Source\PSoC4/cyfitter_cfg.c **** 
  72:Generated_Source\PSoC4/cyfitter_cfg.c **** 
  73:Generated_Source\PSoC4/cyfitter_cfg.c **** CY_CFG_UNUSED
  74:Generated_Source\PSoC4/cyfitter_cfg.c **** static void CYMEMZERO(void *s, size_t n);
  75:Generated_Source\PSoC4/cyfitter_cfg.c **** CY_CFG_UNUSED
  76:Generated_Source\PSoC4/cyfitter_cfg.c **** static void CYMEMZERO(void *s, size_t n)
  77:Generated_Source\PSoC4/cyfitter_cfg.c **** {
  78:Generated_Source\PSoC4/cyfitter_cfg.c **** 	(void)memset(s, 0, n);
  79:Generated_Source\PSoC4/cyfitter_cfg.c **** }
  80:Generated_Source\PSoC4/cyfitter_cfg.c **** CY_CFG_UNUSED
  81:Generated_Source\PSoC4/cyfitter_cfg.c **** static void CYCONFIGCPY(void *dest, const void *src, size_t n);
  82:Generated_Source\PSoC4/cyfitter_cfg.c **** CY_CFG_UNUSED
  83:Generated_Source\PSoC4/cyfitter_cfg.c **** static void CYCONFIGCPY(void *dest, const void *src, size_t n)
  84:Generated_Source\PSoC4/cyfitter_cfg.c **** {
  85:Generated_Source\PSoC4/cyfitter_cfg.c **** 	(void)memcpy(dest, src, n);
  86:Generated_Source\PSoC4/cyfitter_cfg.c **** }
  87:Generated_Source\PSoC4/cyfitter_cfg.c **** CY_CFG_UNUSED
  88:Generated_Source\PSoC4/cyfitter_cfg.c **** static void CYCONFIGCPYCODE(void *dest, const void *src, size_t n);
ARM GAS  C:\Users\austc\AppData\Local\Temp\ccORObfh.s 			page 3


  89:Generated_Source\PSoC4/cyfitter_cfg.c **** CY_CFG_UNUSED
  90:Generated_Source\PSoC4/cyfitter_cfg.c **** static void CYCONFIGCPYCODE(void *dest, const void *src, size_t n)
  91:Generated_Source\PSoC4/cyfitter_cfg.c **** {
  92:Generated_Source\PSoC4/cyfitter_cfg.c **** 	(void)memcpy(dest, src, n);
  93:Generated_Source\PSoC4/cyfitter_cfg.c **** }
  94:Generated_Source\PSoC4/cyfitter_cfg.c **** 
  95:Generated_Source\PSoC4/cyfitter_cfg.c **** 
  96:Generated_Source\PSoC4/cyfitter_cfg.c **** 
  97:Generated_Source\PSoC4/cyfitter_cfg.c **** 
  98:Generated_Source\PSoC4/cyfitter_cfg.c **** /* Clock startup error codes                                                   */
  99:Generated_Source\PSoC4/cyfitter_cfg.c **** #define CYCLOCKSTART_NO_ERROR    0u
 100:Generated_Source\PSoC4/cyfitter_cfg.c **** #define CYCLOCKSTART_XTAL_ERROR  1u
 101:Generated_Source\PSoC4/cyfitter_cfg.c **** #define CYCLOCKSTART_32KHZ_ERROR 2u
 102:Generated_Source\PSoC4/cyfitter_cfg.c **** #define CYCLOCKSTART_PLL_ERROR   3u
 103:Generated_Source\PSoC4/cyfitter_cfg.c **** #define CYCLOCKSTART_FLL_ERROR   4u
 104:Generated_Source\PSoC4/cyfitter_cfg.c **** #define CYCLOCKSTART_WCO_ERROR   5u
 105:Generated_Source\PSoC4/cyfitter_cfg.c **** 
 106:Generated_Source\PSoC4/cyfitter_cfg.c **** 
 107:Generated_Source\PSoC4/cyfitter_cfg.c **** #ifdef CY_NEED_CYCLOCKSTARTUPERROR
 108:Generated_Source\PSoC4/cyfitter_cfg.c **** /*******************************************************************************
 109:Generated_Source\PSoC4/cyfitter_cfg.c **** * Function Name: CyClockStartupError
 110:Generated_Source\PSoC4/cyfitter_cfg.c **** ********************************************************************************
 111:Generated_Source\PSoC4/cyfitter_cfg.c **** * Summary:
 112:Generated_Source\PSoC4/cyfitter_cfg.c **** *  If an error is encountered during clock configuration (crystal startup error,
 113:Generated_Source\PSoC4/cyfitter_cfg.c **** *  PLL lock error, etc.), the system will end up here.  Unless reimplemented by
 114:Generated_Source\PSoC4/cyfitter_cfg.c **** *  the customer, this function will stop in an infinite loop.
 115:Generated_Source\PSoC4/cyfitter_cfg.c **** *
 116:Generated_Source\PSoC4/cyfitter_cfg.c **** * Parameters:
 117:Generated_Source\PSoC4/cyfitter_cfg.c **** *   void
 118:Generated_Source\PSoC4/cyfitter_cfg.c **** *
 119:Generated_Source\PSoC4/cyfitter_cfg.c **** * Return:
 120:Generated_Source\PSoC4/cyfitter_cfg.c **** *   void
 121:Generated_Source\PSoC4/cyfitter_cfg.c **** *
 122:Generated_Source\PSoC4/cyfitter_cfg.c **** *******************************************************************************/
 123:Generated_Source\PSoC4/cyfitter_cfg.c **** CY_CFG_UNUSED
 124:Generated_Source\PSoC4/cyfitter_cfg.c **** static void CyClockStartupError(uint8 errorCode);
 125:Generated_Source\PSoC4/cyfitter_cfg.c **** CY_CFG_UNUSED
 126:Generated_Source\PSoC4/cyfitter_cfg.c **** static void CyClockStartupError(uint8 errorCode)
 127:Generated_Source\PSoC4/cyfitter_cfg.c **** {
 128:Generated_Source\PSoC4/cyfitter_cfg.c ****     /* To remove the compiler warning if errorCode not used.                */
 129:Generated_Source\PSoC4/cyfitter_cfg.c ****     errorCode = errorCode;
 130:Generated_Source\PSoC4/cyfitter_cfg.c **** 
 131:Generated_Source\PSoC4/cyfitter_cfg.c ****     /* If we have a clock startup error (bad MHz crystal, PLL lock, etc.),  */
 132:Generated_Source\PSoC4/cyfitter_cfg.c ****     /* we will end up here to allow the customer to implement something to  */
 133:Generated_Source\PSoC4/cyfitter_cfg.c ****     /* deal with the clock condition.                                       */
 134:Generated_Source\PSoC4/cyfitter_cfg.c **** 
 135:Generated_Source\PSoC4/cyfitter_cfg.c **** #ifdef CY_CFG_CLOCK_STARTUP_ERROR_CALLBACK
 136:Generated_Source\PSoC4/cyfitter_cfg.c ****     CY_CFG_Clock_Startup_ErrorCallback();
 137:Generated_Source\PSoC4/cyfitter_cfg.c **** #else
 138:Generated_Source\PSoC4/cyfitter_cfg.c ****     /*  If not using CY_CFG_CLOCK_STARTUP_ERROR_CALLBACK, place your clock startup code here. */
 139:Generated_Source\PSoC4/cyfitter_cfg.c ****     /* `#START CyClockStartupError` */
 140:Generated_Source\PSoC4/cyfitter_cfg.c **** 
 141:Generated_Source\PSoC4/cyfitter_cfg.c **** 
 142:Generated_Source\PSoC4/cyfitter_cfg.c **** 
 143:Generated_Source\PSoC4/cyfitter_cfg.c ****     /* `#END` */
 144:Generated_Source\PSoC4/cyfitter_cfg.c **** 
 145:Generated_Source\PSoC4/cyfitter_cfg.c ****     while(1) {}
ARM GAS  C:\Users\austc\AppData\Local\Temp\ccORObfh.s 			page 4


 146:Generated_Source\PSoC4/cyfitter_cfg.c **** #endif /* CY_CFG_CLOCK_STARTUP_ERROR_CALLBACK */
 147:Generated_Source\PSoC4/cyfitter_cfg.c **** }
 148:Generated_Source\PSoC4/cyfitter_cfg.c **** #endif
 149:Generated_Source\PSoC4/cyfitter_cfg.c **** 
 150:Generated_Source\PSoC4/cyfitter_cfg.c **** #define CY_CFG_BASE_ADDR_COUNT 16u
 151:Generated_Source\PSoC4/cyfitter_cfg.c **** CYPACKED typedef struct
 152:Generated_Source\PSoC4/cyfitter_cfg.c **** {
 153:Generated_Source\PSoC4/cyfitter_cfg.c **** 	uint8 offset;
 154:Generated_Source\PSoC4/cyfitter_cfg.c **** 	uint8 value;
 155:Generated_Source\PSoC4/cyfitter_cfg.c **** } CYPACKED_ATTR cy_cfg_addrvalue_t;
 156:Generated_Source\PSoC4/cyfitter_cfg.c **** 
 157:Generated_Source\PSoC4/cyfitter_cfg.c **** 
 158:Generated_Source\PSoC4/cyfitter_cfg.c **** 
 159:Generated_Source\PSoC4/cyfitter_cfg.c **** /*******************************************************************************
 160:Generated_Source\PSoC4/cyfitter_cfg.c **** * Function Name: cfg_write_bytes32
 161:Generated_Source\PSoC4/cyfitter_cfg.c **** ********************************************************************************
 162:Generated_Source\PSoC4/cyfitter_cfg.c **** * Summary:
 163:Generated_Source\PSoC4/cyfitter_cfg.c **** *  This function is used for setting up the chip configuration areas that
 164:Generated_Source\PSoC4/cyfitter_cfg.c **** *  contain relatively sparse data.
 165:Generated_Source\PSoC4/cyfitter_cfg.c **** *
 166:Generated_Source\PSoC4/cyfitter_cfg.c **** * Parameters:
 167:Generated_Source\PSoC4/cyfitter_cfg.c **** *   void
 168:Generated_Source\PSoC4/cyfitter_cfg.c **** *
 169:Generated_Source\PSoC4/cyfitter_cfg.c **** * Return:
 170:Generated_Source\PSoC4/cyfitter_cfg.c **** *   void
 171:Generated_Source\PSoC4/cyfitter_cfg.c **** *
 172:Generated_Source\PSoC4/cyfitter_cfg.c **** *******************************************************************************/
 173:Generated_Source\PSoC4/cyfitter_cfg.c **** static void cfg_write_bytes32(const uint32 addr_table[], const cy_cfg_addrvalue_t data_table[]);
 174:Generated_Source\PSoC4/cyfitter_cfg.c **** static void cfg_write_bytes32(const uint32 addr_table[], const cy_cfg_addrvalue_t data_table[])
 175:Generated_Source\PSoC4/cyfitter_cfg.c **** {
  27              		.loc 1 175 0
  28              		.cfi_startproc
  29              		@ args = 0, pretend = 0, frame = 0
  30              		@ frame_needed = 0, uses_anonymous_args = 0
  31              	.LVL0:
  32 0000 F0B5     		push	{r4, r5, r6, r7, lr}
  33              		.cfi_def_cfa_offset 20
  34              		.cfi_offset 4, -20
  35              		.cfi_offset 5, -16
  36              		.cfi_offset 6, -12
  37              		.cfi_offset 7, -8
  38              		.cfi_offset 14, -4
  39              	.LVL1:
 176:Generated_Source\PSoC4/cyfitter_cfg.c **** 	/* For 32-bit little-endian architectures */
 177:Generated_Source\PSoC4/cyfitter_cfg.c **** 	uint32 i, j = 0u;
  40              		.loc 1 177 0
  41 0002 0025     		movs	r5, #0
 178:Generated_Source\PSoC4/cyfitter_cfg.c **** 	for (i = 0u; i < CY_CFG_BASE_ADDR_COUNT; i++)
  42              		.loc 1 178 0
  43 0004 0027     		movs	r7, #0
  44 0006 11E0     		b	.L2
  45              	.LVL2:
  46              	.L5:
  47              	.LBB2:
 179:Generated_Source\PSoC4/cyfitter_cfg.c **** 	{
 180:Generated_Source\PSoC4/cyfitter_cfg.c **** 		uint32 baseAddr = addr_table[i];
  48              		.loc 1 180 0
ARM GAS  C:\Users\austc\AppData\Local\Temp\ccORObfh.s 			page 5


  49 0008 BB00     		lsls	r3, r7, #2
  50 000a C658     		ldr	r6, [r0, r3]
  51              	.LVL3:
 181:Generated_Source\PSoC4/cyfitter_cfg.c **** 		uint8 count = (uint8)baseAddr;
  52              		.loc 1 181 0
  53 000c F3B2     		uxtb	r3, r6
  54              	.LVL4:
 182:Generated_Source\PSoC4/cyfitter_cfg.c **** 		baseAddr &= 0xFFFFFF00u;
  55              		.loc 1 182 0
  56 000e FF22     		movs	r2, #255
  57 0010 9643     		bics	r6, r2
  58              	.LVL5:
 183:Generated_Source\PSoC4/cyfitter_cfg.c **** 		while (count != 0u)
  59              		.loc 1 183 0
  60 0012 08E0     		b	.L3
  61              	.L4:
 184:Generated_Source\PSoC4/cyfitter_cfg.c **** 		{
 185:Generated_Source\PSoC4/cyfitter_cfg.c **** 			CY_SET_REG8((void *)(baseAddr + data_table[j].offset), data_table[j].value);
  62              		.loc 1 185 0
  63 0014 6A00     		lsls	r2, r5, #1
  64 0016 8A18     		adds	r2, r1, r2
  65 0018 1478     		ldrb	r4, [r2]
  66 001a A419     		adds	r4, r4, r6
  67 001c 5278     		ldrb	r2, [r2, #1]
  68 001e 2270     		strb	r2, [r4]
 186:Generated_Source\PSoC4/cyfitter_cfg.c **** 			j++;
  69              		.loc 1 186 0
  70 0020 0135     		adds	r5, r5, #1
  71              	.LVL6:
 187:Generated_Source\PSoC4/cyfitter_cfg.c **** 			count--;
  72              		.loc 1 187 0
  73 0022 013B     		subs	r3, r3, #1
  74              	.LVL7:
  75 0024 DBB2     		uxtb	r3, r3
  76              	.LVL8:
  77              	.L3:
 183:Generated_Source\PSoC4/cyfitter_cfg.c **** 		{
  78              		.loc 1 183 0
  79 0026 002B     		cmp	r3, #0
  80 0028 F4D1     		bne	.L4
  81              	.LBE2:
 178:Generated_Source\PSoC4/cyfitter_cfg.c **** 	{
  82              		.loc 1 178 0 discriminator 2
  83 002a 0137     		adds	r7, r7, #1
  84              	.LVL9:
  85              	.L2:
 178:Generated_Source\PSoC4/cyfitter_cfg.c **** 	{
  86              		.loc 1 178 0 is_stmt 0 discriminator 1
  87 002c 0F2F     		cmp	r7, #15
  88 002e EBD9     		bls	.L5
 188:Generated_Source\PSoC4/cyfitter_cfg.c **** 		}
 189:Generated_Source\PSoC4/cyfitter_cfg.c **** 	}
 190:Generated_Source\PSoC4/cyfitter_cfg.c **** }
  89              		.loc 1 190 0 is_stmt 1
  90              		@ sp needed
  91              	.LVL10:
  92              	.LVL11:
ARM GAS  C:\Users\austc\AppData\Local\Temp\ccORObfh.s 			page 6


  93 0030 F0BD     		pop	{r4, r5, r6, r7, pc}
  94              		.cfi_endproc
  95              	.LFE37:
  96              		.size	cfg_write_bytes32, .-cfg_write_bytes32
  97 0032 C046     		.section	.text.CYMEMZERO,"ax",%progbits
  98              		.align	2
  99              		.code	16
 100              		.thumb_func
 101              		.type	CYMEMZERO, %function
 102              	CYMEMZERO:
 103              	.LFB34:
  77:Generated_Source\PSoC4/cyfitter_cfg.c **** 	(void)memset(s, 0, n);
 104              		.loc 1 77 0
 105              		.cfi_startproc
 106              		@ args = 0, pretend = 0, frame = 0
 107              		@ frame_needed = 0, uses_anonymous_args = 0
 108              	.LVL12:
 109 0000 10B5     		push	{r4, lr}
 110              		.cfi_def_cfa_offset 8
 111              		.cfi_offset 4, -8
 112              		.cfi_offset 14, -4
 113 0002 0A00     		movs	r2, r1
  78:Generated_Source\PSoC4/cyfitter_cfg.c **** }
 114              		.loc 1 78 0
 115 0004 0021     		movs	r1, #0
 116              	.LVL13:
 117 0006 FFF7FEFF 		bl	memset
 118              	.LVL14:
  79:Generated_Source\PSoC4/cyfitter_cfg.c **** CY_CFG_UNUSED
 119              		.loc 1 79 0
 120              		@ sp needed
 121 000a 10BD     		pop	{r4, pc}
 122              		.cfi_endproc
 123              	.LFE34:
 124              		.size	CYMEMZERO, .-CYMEMZERO
 125              		.section	.psocinit,"ax",%progbits
 126              		.align	2
 127              		.code	16
 128              		.thumb_func
 129              		.type	ClockSetup, %function
 130              	ClockSetup:
 131              	.LFB38:
 191:Generated_Source\PSoC4/cyfitter_cfg.c **** 
 192:Generated_Source\PSoC4/cyfitter_cfg.c **** 
 193:Generated_Source\PSoC4/cyfitter_cfg.c **** /*******************************************************************************
 194:Generated_Source\PSoC4/cyfitter_cfg.c **** * Function Name: ClockSetup
 195:Generated_Source\PSoC4/cyfitter_cfg.c **** ********************************************************************************
 196:Generated_Source\PSoC4/cyfitter_cfg.c **** *
 197:Generated_Source\PSoC4/cyfitter_cfg.c **** * Summary:
 198:Generated_Source\PSoC4/cyfitter_cfg.c **** *   Performs the initialization of all of the clocks in the device based on the
 199:Generated_Source\PSoC4/cyfitter_cfg.c **** *   settings in the Clock tab of the DWR.  This includes enabling the requested
 200:Generated_Source\PSoC4/cyfitter_cfg.c **** *   clocks and setting the necessary dividers to produce the desired frequency. 
 201:Generated_Source\PSoC4/cyfitter_cfg.c **** *
 202:Generated_Source\PSoC4/cyfitter_cfg.c **** * Parameters:
 203:Generated_Source\PSoC4/cyfitter_cfg.c **** *   void
 204:Generated_Source\PSoC4/cyfitter_cfg.c **** *
 205:Generated_Source\PSoC4/cyfitter_cfg.c **** * Return:
ARM GAS  C:\Users\austc\AppData\Local\Temp\ccORObfh.s 			page 7


 206:Generated_Source\PSoC4/cyfitter_cfg.c **** *   void
 207:Generated_Source\PSoC4/cyfitter_cfg.c **** *
 208:Generated_Source\PSoC4/cyfitter_cfg.c **** *******************************************************************************/
 209:Generated_Source\PSoC4/cyfitter_cfg.c **** static void ClockSetup(void);
 210:Generated_Source\PSoC4/cyfitter_cfg.c **** CY_CFG_SECTION
 211:Generated_Source\PSoC4/cyfitter_cfg.c **** static void ClockSetup(void)
 212:Generated_Source\PSoC4/cyfitter_cfg.c **** {
 132              		.loc 1 212 0
 133              		.cfi_startproc
 134              		@ args = 0, pretend = 0, frame = 0
 135              		@ frame_needed = 0, uses_anonymous_args = 0
 136 0000 70B5     		push	{r4, r5, r6, lr}
 137              		.cfi_def_cfa_offset 16
 138              		.cfi_offset 4, -16
 139              		.cfi_offset 5, -12
 140              		.cfi_offset 6, -8
 141              		.cfi_offset 14, -4
 213:Generated_Source\PSoC4/cyfitter_cfg.c **** 
 214:Generated_Source\PSoC4/cyfitter_cfg.c **** 	/* Set Flash Cycles based on max possible frequency in case a glitch occurs during ClockSetup(). *
 215:Generated_Source\PSoC4/cyfitter_cfg.c **** 	CY_SET_REG32((void CYXDATA *)(CYREG_CPUSS_FLASH_CTL), (0x0012u));
 142              		.loc 1 215 0
 143 0002 1222     		movs	r2, #18
 144 0004 2E4B     		ldr	r3, .L8
 145 0006 1A60     		str	r2, [r3]
 216:Generated_Source\PSoC4/cyfitter_cfg.c **** 	/* Setup and trim IMO based on desired frequency. */
 217:Generated_Source\PSoC4/cyfitter_cfg.c **** 	CySysClkWriteImoFreq(48u);
 146              		.loc 1 217 0
 147 0008 3020     		movs	r0, #48
 148 000a FFF7FEFF 		bl	CySysClkWriteImoFreq
 149              	.LVL15:
 218:Generated_Source\PSoC4/cyfitter_cfg.c **** 	/* CYDEV_WDT_CONFIG Starting address: CYDEV_WDT_CONFIG */
 219:Generated_Source\PSoC4/cyfitter_cfg.c **** 	CY_SET_REG32((void *)(CYREG_WDT_CONFIG), 0x40000000u);
 150              		.loc 1 219 0
 151 000e 2D4C     		ldr	r4, .L8+4
 152 0010 8025     		movs	r5, #128
 153 0012 ED05     		lsls	r5, r5, #23
 154 0014 2560     		str	r5, [r4]
 220:Generated_Source\PSoC4/cyfitter_cfg.c **** 
 221:Generated_Source\PSoC4/cyfitter_cfg.c **** 
 222:Generated_Source\PSoC4/cyfitter_cfg.c **** 	/* Setup phase aligned clocks */
 223:Generated_Source\PSoC4/cyfitter_cfg.c **** 	CY_SET_REG32((void *)CYREG_PERI_DIV_16_CTL0, 0x00000000u);
 155              		.loc 1 223 0
 156 0016 0022     		movs	r2, #0
 157 0018 2B4B     		ldr	r3, .L8+8
 158 001a 1A60     		str	r2, [r3]
 224:Generated_Source\PSoC4/cyfitter_cfg.c **** 	CY_SET_REG32((void *)CYREG_PERI_DIV_CMD, 0x8000FF40u);
 159              		.loc 1 224 0
 160 001c 2B4B     		ldr	r3, .L8+12
 161 001e 2C4A     		ldr	r2, .L8+16
 162 0020 1A60     		str	r2, [r3]
 225:Generated_Source\PSoC4/cyfitter_cfg.c **** 	CY_SET_REG32((void *)CYREG_PERI_DIV_16_CTL2, 0x00000100u);
 163              		.loc 1 225 0
 164 0022 8022     		movs	r2, #128
 165 0024 5200     		lsls	r2, r2, #1
 166 0026 2B49     		ldr	r1, .L8+20
 167 0028 0A60     		str	r2, [r1]
 226:Generated_Source\PSoC4/cyfitter_cfg.c **** 	CY_SET_REG32((void *)CYREG_PERI_DIV_CMD, 0x8000FF42u);
ARM GAS  C:\Users\austc\AppData\Local\Temp\ccORObfh.s 			page 8


 168              		.loc 1 226 0
 169 002a 2B49     		ldr	r1, .L8+24
 170 002c 1960     		str	r1, [r3]
 227:Generated_Source\PSoC4/cyfitter_cfg.c **** 	CY_SET_REG32((void *)CYREG_PERI_DIV_24_5_CTL, 0x061A7F00u);
 171              		.loc 1 227 0
 172 002e 2B48     		ldr	r0, .L8+28
 173 0030 2B49     		ldr	r1, .L8+32
 174 0032 0860     		str	r0, [r1]
 228:Generated_Source\PSoC4/cyfitter_cfg.c **** 	CY_SET_REG32((void *)CYREG_PERI_DIV_CMD, 0x8000FFC0u);
 175              		.loc 1 228 0
 176 0034 2B49     		ldr	r1, .L8+36
 177 0036 1960     		str	r1, [r3]
 229:Generated_Source\PSoC4/cyfitter_cfg.c **** 	CY_SET_REG32((void *)CYREG_PERI_DIV_16_CTL1, 0x00000100u);
 178              		.loc 1 229 0
 179 0038 2B49     		ldr	r1, .L8+40
 180 003a 0A60     		str	r2, [r1]
 230:Generated_Source\PSoC4/cyfitter_cfg.c **** 	CY_SET_REG32((void *)CYREG_PERI_DIV_CMD, 0x8000FF41u);
 181              		.loc 1 230 0
 182 003c 2B4A     		ldr	r2, .L8+44
 183 003e 1A60     		str	r2, [r3]
 231:Generated_Source\PSoC4/cyfitter_cfg.c **** 	CY_SET_REG32((void *)CYREG_PERI_DIV_16_CTL3, 0x00000300u);
 184              		.loc 1 231 0
 185 0040 C021     		movs	r1, #192
 186 0042 8900     		lsls	r1, r1, #2
 187 0044 2A4A     		ldr	r2, .L8+48
 188 0046 1160     		str	r1, [r2]
 232:Generated_Source\PSoC4/cyfitter_cfg.c **** 	CY_SET_REG32((void *)CYREG_PERI_DIV_CMD, 0x8000FF43u);
 189              		.loc 1 232 0
 190 0048 2A4A     		ldr	r2, .L8+52
 191 004a 1A60     		str	r2, [r3]
 233:Generated_Source\PSoC4/cyfitter_cfg.c **** 	CY_SET_REG32((void *)CYREG_PERI_DIV_16_CTL4, 0x00000700u);
 192              		.loc 1 233 0
 193 004c E021     		movs	r1, #224
 194 004e C900     		lsls	r1, r1, #3
 195 0050 294A     		ldr	r2, .L8+56
 196 0052 1160     		str	r1, [r2]
 234:Generated_Source\PSoC4/cyfitter_cfg.c **** 	CY_SET_REG32((void *)CYREG_PERI_DIV_CMD, 0x8000FF44u);
 197              		.loc 1 234 0
 198 0054 294A     		ldr	r2, .L8+60
 199 0056 1A60     		str	r2, [r3]
 235:Generated_Source\PSoC4/cyfitter_cfg.c **** 	CY_SET_REG32((void *)CYREG_PERI_DIV_16_CTL6, 0x00001C00u);
 200              		.loc 1 235 0
 201 0058 E021     		movs	r1, #224
 202 005a 4901     		lsls	r1, r1, #5
 203 005c 284A     		ldr	r2, .L8+64
 204 005e 1160     		str	r1, [r2]
 236:Generated_Source\PSoC4/cyfitter_cfg.c **** 	CY_SET_REG32((void *)CYREG_PERI_DIV_CMD, 0x8000FF46u);
 205              		.loc 1 236 0
 206 0060 284A     		ldr	r2, .L8+68
 207 0062 1A60     		str	r2, [r3]
 237:Generated_Source\PSoC4/cyfitter_cfg.c **** 	CY_SET_REG32((void *)CYREG_PERI_DIV_16_CTL5, 0x00001800u);
 208              		.loc 1 237 0
 209 0064 C021     		movs	r1, #192
 210 0066 4901     		lsls	r1, r1, #5
 211 0068 274A     		ldr	r2, .L8+72
 212 006a 1160     		str	r1, [r2]
 238:Generated_Source\PSoC4/cyfitter_cfg.c **** 	CY_SET_REG32((void *)CYREG_PERI_DIV_CMD, 0x8000FF45u);
ARM GAS  C:\Users\austc\AppData\Local\Temp\ccORObfh.s 			page 9


 213              		.loc 1 238 0
 214 006c 274A     		ldr	r2, .L8+76
 215 006e 1A60     		str	r2, [r3]
 239:Generated_Source\PSoC4/cyfitter_cfg.c **** 
 240:Generated_Source\PSoC4/cyfitter_cfg.c **** 	/* CYDEV_CLK_IMO_CONFIG Starting address: CYDEV_CLK_IMO_CONFIG */
 241:Generated_Source\PSoC4/cyfitter_cfg.c **** 	CY_SET_REG32((void *)(CYREG_CLK_IMO_CONFIG), 0x82000000u);
 216              		.loc 1 241 0
 217 0070 8222     		movs	r2, #130
 218 0072 1206     		lsls	r2, r2, #24
 219 0074 264B     		ldr	r3, .L8+80
 220 0076 1A60     		str	r2, [r3]
 242:Generated_Source\PSoC4/cyfitter_cfg.c **** 
 243:Generated_Source\PSoC4/cyfitter_cfg.c **** 	/* CYDEV_CLK_SELECT Starting address: CYDEV_CLK_SELECT */
 244:Generated_Source\PSoC4/cyfitter_cfg.c **** 	CY_SET_REG32((void *)(CYREG_CLK_SELECT), 0x00060249u);
 221              		.loc 1 244 0
 222 0078 264A     		ldr	r2, .L8+84
 223 007a 274B     		ldr	r3, .L8+88
 224 007c 1A60     		str	r2, [r3]
 245:Generated_Source\PSoC4/cyfitter_cfg.c **** 
 246:Generated_Source\PSoC4/cyfitter_cfg.c **** 	/* CYDEV_PERI_PCLK_CTL22 Starting address: CYDEV_PERI_PCLK_CTL22 */
 247:Generated_Source\PSoC4/cyfitter_cfg.c **** 	CY_SET_REG32((void *)(CYREG_PERI_PCLK_CTL22), 0x00000042u);
 225              		.loc 1 247 0
 226 007e 4222     		movs	r2, #66
 227 0080 264B     		ldr	r3, .L8+92
 228 0082 1A60     		str	r2, [r3]
 248:Generated_Source\PSoC4/cyfitter_cfg.c **** 
 249:Generated_Source\PSoC4/cyfitter_cfg.c **** 	/* CYDEV_PERI_PCLK_CTL21 Starting address: CYDEV_PERI_PCLK_CTL21 */
 250:Generated_Source\PSoC4/cyfitter_cfg.c **** 	CY_SET_REG32((void *)(CYREG_PERI_PCLK_CTL21), 0x000000C0u);
 229              		.loc 1 250 0
 230 0084 7E32     		adds	r2, r2, #126
 231 0086 264B     		ldr	r3, .L8+96
 232 0088 1A60     		str	r2, [r3]
 251:Generated_Source\PSoC4/cyfitter_cfg.c **** 
 252:Generated_Source\PSoC4/cyfitter_cfg.c **** 	/* CYDEV_PERI_PCLK_CTL20 Starting address: CYDEV_PERI_PCLK_CTL20 */
 253:Generated_Source\PSoC4/cyfitter_cfg.c **** 	CY_SET_REG32((void *)(CYREG_PERI_PCLK_CTL20), 0x00000041u);
 233              		.loc 1 253 0
 234 008a 7F3A     		subs	r2, r2, #127
 235 008c 254B     		ldr	r3, .L8+100
 236 008e 1A60     		str	r2, [r3]
 254:Generated_Source\PSoC4/cyfitter_cfg.c **** 
 255:Generated_Source\PSoC4/cyfitter_cfg.c **** 	/* CYDEV_PERI_PCLK_CTL15 Starting address: CYDEV_PERI_PCLK_CTL15 */
 256:Generated_Source\PSoC4/cyfitter_cfg.c **** 	CY_SET_REG32((void *)(CYREG_PERI_PCLK_CTL15), 0x00000043u);
 237              		.loc 1 256 0
 238 0090 4323     		movs	r3, #67
 239 0092 254A     		ldr	r2, .L8+104
 240 0094 1360     		str	r3, [r2]
 257:Generated_Source\PSoC4/cyfitter_cfg.c **** 
 258:Generated_Source\PSoC4/cyfitter_cfg.c **** 	/* CYDEV_PERI_PCLK_CTL11 Starting address: CYDEV_PERI_PCLK_CTL11 */
 259:Generated_Source\PSoC4/cyfitter_cfg.c **** 	CY_SET_REG32((void *)(CYREG_PERI_PCLK_CTL11), 0x00000043u);
 241              		.loc 1 259 0
 242 0096 254A     		ldr	r2, .L8+108
 243 0098 1360     		str	r3, [r2]
 260:Generated_Source\PSoC4/cyfitter_cfg.c **** 
 261:Generated_Source\PSoC4/cyfitter_cfg.c **** 	/* CYDEV_PERI_PCLK_CTL10 Starting address: CYDEV_PERI_PCLK_CTL10 */
 262:Generated_Source\PSoC4/cyfitter_cfg.c **** 	CY_SET_REG32((void *)(CYREG_PERI_PCLK_CTL10), 0x00000044u);
 244              		.loc 1 262 0
 245 009a 4422     		movs	r2, #68
ARM GAS  C:\Users\austc\AppData\Local\Temp\ccORObfh.s 			page 10


 246 009c 244B     		ldr	r3, .L8+112
 247 009e 1A60     		str	r2, [r3]
 263:Generated_Source\PSoC4/cyfitter_cfg.c **** 
 264:Generated_Source\PSoC4/cyfitter_cfg.c **** 	/* CYDEV_PERI_PCLK_CTL5 Starting address: CYDEV_PERI_PCLK_CTL5 */
 265:Generated_Source\PSoC4/cyfitter_cfg.c **** 	CY_SET_REG32((void *)(CYREG_PERI_PCLK_CTL5), 0x00000046u);
 248              		.loc 1 265 0
 249 00a0 0232     		adds	r2, r2, #2
 250 00a2 244B     		ldr	r3, .L8+116
 251 00a4 1A60     		str	r2, [r3]
 266:Generated_Source\PSoC4/cyfitter_cfg.c **** 
 267:Generated_Source\PSoC4/cyfitter_cfg.c **** 	/* CYDEV_PERI_PCLK_CTL2 Starting address: CYDEV_PERI_PCLK_CTL2 */
 268:Generated_Source\PSoC4/cyfitter_cfg.c **** 	CY_SET_REG32((void *)(CYREG_PERI_PCLK_CTL2), 0x00000045u);
 252              		.loc 1 268 0
 253 00a6 013A     		subs	r2, r2, #1
 254 00a8 234B     		ldr	r3, .L8+120
 255 00aa 1A60     		str	r2, [r3]
 269:Generated_Source\PSoC4/cyfitter_cfg.c **** 
 270:Generated_Source\PSoC4/cyfitter_cfg.c **** 	(void)CyIntSetVector(8u, &CySysWdtIsr);
 256              		.loc 1 270 0
 257 00ac 2349     		ldr	r1, .L8+124
 258 00ae 0820     		movs	r0, #8
 259 00b0 FFF7FEFF 		bl	CyIntSetVector
 260              	.LVL16:
 271:Generated_Source\PSoC4/cyfitter_cfg.c **** 	CyIntEnable(8u);
 261              		.loc 1 271 0
 262 00b4 0820     		movs	r0, #8
 263 00b6 FFF7FEFF 		bl	CyIntEnable
 264              	.LVL17:
 272:Generated_Source\PSoC4/cyfitter_cfg.c **** 	CY_SET_REG32((void *)(CYREG_WDT_CONFIG), 0x40000000u);
 265              		.loc 1 272 0
 266 00ba 2560     		str	r5, [r4]
 273:Generated_Source\PSoC4/cyfitter_cfg.c **** }
 267              		.loc 1 273 0
 268              		@ sp needed
 269 00bc 70BD     		pop	{r4, r5, r6, pc}
 270              	.L9:
 271 00be C046     		.align	2
 272              	.L8:
 273 00c0 30001040 		.word	1074790448
 274 00c4 0C020B40 		.word	1074463244
 275 00c8 00030140 		.word	1073808128
 276 00cc 00000140 		.word	1073807360
 277 00d0 40FF0080 		.word	-2147418304
 278 00d4 08030140 		.word	1073808136
 279 00d8 42FF0080 		.word	-2147418302
 280 00dc 007F1A06 		.word	102399744
 281 00e0 00050140 		.word	1073808640
 282 00e4 C0FF0080 		.word	-2147418176
 283 00e8 04030140 		.word	1073808132
 284 00ec 41FF0080 		.word	-2147418303
 285 00f0 0C030140 		.word	1073808140
 286 00f4 43FF0080 		.word	-2147418301
 287 00f8 10030140 		.word	1073808144
 288 00fc 44FF0080 		.word	-2147418300
 289 0100 18030140 		.word	1073808152
 290 0104 46FF0080 		.word	-2147418298
 291 0108 14030140 		.word	1073808148
ARM GAS  C:\Users\austc\AppData\Local\Temp\ccORObfh.s 			page 11


 292 010c 45FF0080 		.word	-2147418299
 293 0110 08010B40 		.word	1074462984
 294 0114 49020600 		.word	393801
 295 0118 00010B40 		.word	1074462976
 296 011c 58010140 		.word	1073807704
 297 0120 54010140 		.word	1073807700
 298 0124 50010140 		.word	1073807696
 299 0128 3C010140 		.word	1073807676
 300 012c 2C010140 		.word	1073807660
 301 0130 28010140 		.word	1073807656
 302 0134 14010140 		.word	1073807636
 303 0138 08010140 		.word	1073807624
 304 013c 00000000 		.word	CySysWdtIsr
 305              		.cfi_endproc
 306              	.LFE38:
 307              		.size	ClockSetup, .-ClockSetup
 308              		.section	.text.SetAnalogRoutingPumps,"ax",%progbits
 309              		.align	2
 310              		.global	SetAnalogRoutingPumps
 311              		.code	16
 312              		.thumb_func
 313              		.type	SetAnalogRoutingPumps, %function
 314              	SetAnalogRoutingPumps:
 315              	.LFB40:
 274:Generated_Source\PSoC4/cyfitter_cfg.c **** 
 275:Generated_Source\PSoC4/cyfitter_cfg.c **** 
 276:Generated_Source\PSoC4/cyfitter_cfg.c **** /* Analog API Functions */
 277:Generated_Source\PSoC4/cyfitter_cfg.c **** 
 278:Generated_Source\PSoC4/cyfitter_cfg.c **** 
 279:Generated_Source\PSoC4/cyfitter_cfg.c **** /*******************************************************************************
 280:Generated_Source\PSoC4/cyfitter_cfg.c **** * Function Name: AnalogSetDefault
 281:Generated_Source\PSoC4/cyfitter_cfg.c **** ********************************************************************************
 282:Generated_Source\PSoC4/cyfitter_cfg.c **** *
 283:Generated_Source\PSoC4/cyfitter_cfg.c **** * Summary:
 284:Generated_Source\PSoC4/cyfitter_cfg.c **** *  Sets up the analog portions of the chip to default values based on chip
 285:Generated_Source\PSoC4/cyfitter_cfg.c **** *  configuration options from the project.
 286:Generated_Source\PSoC4/cyfitter_cfg.c **** *
 287:Generated_Source\PSoC4/cyfitter_cfg.c **** * Parameters:
 288:Generated_Source\PSoC4/cyfitter_cfg.c **** *  void
 289:Generated_Source\PSoC4/cyfitter_cfg.c **** *
 290:Generated_Source\PSoC4/cyfitter_cfg.c **** * Return:
 291:Generated_Source\PSoC4/cyfitter_cfg.c **** *  void
 292:Generated_Source\PSoC4/cyfitter_cfg.c **** *
 293:Generated_Source\PSoC4/cyfitter_cfg.c **** *******************************************************************************/
 294:Generated_Source\PSoC4/cyfitter_cfg.c **** static void AnalogSetDefault(void);
 295:Generated_Source\PSoC4/cyfitter_cfg.c **** static void AnalogSetDefault(void)
 296:Generated_Source\PSoC4/cyfitter_cfg.c **** {
 297:Generated_Source\PSoC4/cyfitter_cfg.c **** 	CY_SET_XTND_REG32((void CYFAR *)CYREG_CTBM0_CTB_CTRL, 0x80000000u);
 298:Generated_Source\PSoC4/cyfitter_cfg.c **** 	CY_SET_XTND_REG32((void CYFAR *)CYREG_CTBM0_DFT_CTRL, 0x00000003u);
 299:Generated_Source\PSoC4/cyfitter_cfg.c **** 	CY_SET_XTND_REG32((void CYFAR *)CYREG_CTBM0_OA0_SW, 0x00204008u);
 300:Generated_Source\PSoC4/cyfitter_cfg.c **** 	CY_SET_XTND_REG32((void CYFAR *)CYREG_CTBM1_DFT_CTRL, 0x00000003u);
 301:Generated_Source\PSoC4/cyfitter_cfg.c **** 	CY_SET_XTND_REG32((void CYFAR *)CYREG_SAR_CTRL, 0x80000000u);
 302:Generated_Source\PSoC4/cyfitter_cfg.c **** 	CY_SET_XTND_REG32((void CYFAR *)CYREG_SAR_MUX_SWITCH0, 0x00000081u);
 303:Generated_Source\PSoC4/cyfitter_cfg.c **** 	CY_SET_XTND_REG32((void CYFAR *)CYREG_SAR_MUX_SWITCH_HW_CTRL, 0x00000081u);
 304:Generated_Source\PSoC4/cyfitter_cfg.c **** 	CY_SET_XTND_REG32((void CYFAR *)CYREG_PASS_DSAB_DSAB_CTRL, 0x00000000u);
 305:Generated_Source\PSoC4/cyfitter_cfg.c **** 	SetAnalogRoutingPumps(1);
 306:Generated_Source\PSoC4/cyfitter_cfg.c **** }
ARM GAS  C:\Users\austc\AppData\Local\Temp\ccORObfh.s 			page 12


 307:Generated_Source\PSoC4/cyfitter_cfg.c **** 
 308:Generated_Source\PSoC4/cyfitter_cfg.c **** 
 309:Generated_Source\PSoC4/cyfitter_cfg.c **** /*******************************************************************************
 310:Generated_Source\PSoC4/cyfitter_cfg.c **** * Function Name: SetAnalogRoutingPumps
 311:Generated_Source\PSoC4/cyfitter_cfg.c **** ********************************************************************************
 312:Generated_Source\PSoC4/cyfitter_cfg.c **** *
 313:Generated_Source\PSoC4/cyfitter_cfg.c **** * Summary:
 314:Generated_Source\PSoC4/cyfitter_cfg.c **** * Enables or disables the analog pumps feeding analog routing switches.
 315:Generated_Source\PSoC4/cyfitter_cfg.c **** * Intended to be called at startup, based on the Vdda system configuration;
 316:Generated_Source\PSoC4/cyfitter_cfg.c **** * may be called during operation when the user informs us that the Vdda voltage crossed the pump th
 317:Generated_Source\PSoC4/cyfitter_cfg.c **** *
 318:Generated_Source\PSoC4/cyfitter_cfg.c **** * Parameters:
 319:Generated_Source\PSoC4/cyfitter_cfg.c **** *  enabled - 1 to enable the pumps, 0 to disable the pumps
 320:Generated_Source\PSoC4/cyfitter_cfg.c **** *
 321:Generated_Source\PSoC4/cyfitter_cfg.c **** * Return:
 322:Generated_Source\PSoC4/cyfitter_cfg.c **** *  void
 323:Generated_Source\PSoC4/cyfitter_cfg.c **** *
 324:Generated_Source\PSoC4/cyfitter_cfg.c **** *******************************************************************************/
 325:Generated_Source\PSoC4/cyfitter_cfg.c **** void SetAnalogRoutingPumps(uint8 enabled)
 326:Generated_Source\PSoC4/cyfitter_cfg.c **** {
 316              		.loc 1 326 0
 317              		.cfi_startproc
 318              		@ args = 0, pretend = 0, frame = 0
 319              		@ frame_needed = 0, uses_anonymous_args = 0
 320              		@ link register save eliminated.
 321              	.LVL18:
 327:Generated_Source\PSoC4/cyfitter_cfg.c **** 	uint32 regValue = CY_GET_XTND_REG32((void *)(CYREG_SAR_PUMP_CTRL));
 322              		.loc 1 327 0
 323 0000 064B     		ldr	r3, .L13
 324 0002 1B68     		ldr	r3, [r3]
 325              	.LVL19:
 328:Generated_Source\PSoC4/cyfitter_cfg.c **** 	if (enabled != 0u)
 326              		.loc 1 328 0
 327 0004 0028     		cmp	r0, #0
 328 0006 03D0     		beq	.L11
 329:Generated_Source\PSoC4/cyfitter_cfg.c **** 	{
 330:Generated_Source\PSoC4/cyfitter_cfg.c **** 		regValue |= 0x80000000u;
 329              		.loc 1 330 0
 330 0008 8022     		movs	r2, #128
 331 000a 1206     		lsls	r2, r2, #24
 332 000c 1343     		orrs	r3, r2
 333              	.LVL20:
 334 000e 01E0     		b	.L12
 335              	.L11:
 331:Generated_Source\PSoC4/cyfitter_cfg.c **** 	}
 332:Generated_Source\PSoC4/cyfitter_cfg.c **** 	else
 333:Generated_Source\PSoC4/cyfitter_cfg.c **** 	{
 334:Generated_Source\PSoC4/cyfitter_cfg.c **** 		regValue &= ~0x80000000u;
 336              		.loc 1 334 0
 337 0010 5B00     		lsls	r3, r3, #1
 338              	.LVL21:
 339 0012 5B08     		lsrs	r3, r3, #1
 340              	.LVL22:
 341              	.L12:
 335:Generated_Source\PSoC4/cyfitter_cfg.c **** 	}
 336:Generated_Source\PSoC4/cyfitter_cfg.c **** 	CY_SET_XTND_REG32((void *)(CYREG_SAR_PUMP_CTRL), regValue);
 342              		.loc 1 336 0
ARM GAS  C:\Users\austc\AppData\Local\Temp\ccORObfh.s 			page 13


 343 0014 014A     		ldr	r2, .L13
 344 0016 1360     		str	r3, [r2]
 337:Generated_Source\PSoC4/cyfitter_cfg.c **** }
 345              		.loc 1 337 0
 346              		@ sp needed
 347 0018 7047     		bx	lr
 348              	.L14:
 349 001a C046     		.align	2
 350              	.L13:
 351 001c 80033A40 		.word	1077543808
 352              		.cfi_endproc
 353              	.LFE40:
 354              		.size	SetAnalogRoutingPumps, .-SetAnalogRoutingPumps
 355              		.section	.text.AnalogSetDefault,"ax",%progbits
 356              		.align	2
 357              		.code	16
 358              		.thumb_func
 359              		.type	AnalogSetDefault, %function
 360              	AnalogSetDefault:
 361              	.LFB39:
 296:Generated_Source\PSoC4/cyfitter_cfg.c **** 	CY_SET_XTND_REG32((void CYFAR *)CYREG_CTBM0_CTB_CTRL, 0x80000000u);
 362              		.loc 1 296 0
 363              		.cfi_startproc
 364              		@ args = 0, pretend = 0, frame = 0
 365              		@ frame_needed = 0, uses_anonymous_args = 0
 366 0000 10B5     		push	{r4, lr}
 367              		.cfi_def_cfa_offset 8
 368              		.cfi_offset 4, -8
 369              		.cfi_offset 14, -4
 297:Generated_Source\PSoC4/cyfitter_cfg.c **** 	CY_SET_XTND_REG32((void CYFAR *)CYREG_CTBM0_DFT_CTRL, 0x00000003u);
 370              		.loc 1 297 0
 371 0002 8023     		movs	r3, #128
 372 0004 1B06     		lsls	r3, r3, #24
 373 0006 0C4A     		ldr	r2, .L16
 374 0008 1360     		str	r3, [r2]
 298:Generated_Source\PSoC4/cyfitter_cfg.c **** 	CY_SET_XTND_REG32((void CYFAR *)CYREG_CTBM0_OA0_SW, 0x00204008u);
 375              		.loc 1 298 0
 376 000a 0322     		movs	r2, #3
 377 000c 0B49     		ldr	r1, .L16+4
 378 000e 0A60     		str	r2, [r1]
 299:Generated_Source\PSoC4/cyfitter_cfg.c **** 	CY_SET_XTND_REG32((void CYFAR *)CYREG_CTBM1_DFT_CTRL, 0x00000003u);
 379              		.loc 1 299 0
 380 0010 0B48     		ldr	r0, .L16+8
 381 0012 0C49     		ldr	r1, .L16+12
 382 0014 0860     		str	r0, [r1]
 300:Generated_Source\PSoC4/cyfitter_cfg.c **** 	CY_SET_XTND_REG32((void CYFAR *)CYREG_SAR_CTRL, 0x80000000u);
 383              		.loc 1 300 0
 384 0016 0C49     		ldr	r1, .L16+16
 385 0018 0A60     		str	r2, [r1]
 301:Generated_Source\PSoC4/cyfitter_cfg.c **** 	CY_SET_XTND_REG32((void CYFAR *)CYREG_SAR_MUX_SWITCH0, 0x00000081u);
 386              		.loc 1 301 0
 387 001a 0C4A     		ldr	r2, .L16+20
 388 001c 1360     		str	r3, [r2]
 302:Generated_Source\PSoC4/cyfitter_cfg.c **** 	CY_SET_XTND_REG32((void CYFAR *)CYREG_SAR_MUX_SWITCH_HW_CTRL, 0x00000081u);
 389              		.loc 1 302 0
 390 001e 8123     		movs	r3, #129
 391 0020 0B4A     		ldr	r2, .L16+24
ARM GAS  C:\Users\austc\AppData\Local\Temp\ccORObfh.s 			page 14


 392 0022 1360     		str	r3, [r2]
 303:Generated_Source\PSoC4/cyfitter_cfg.c **** 	CY_SET_XTND_REG32((void CYFAR *)CYREG_PASS_DSAB_DSAB_CTRL, 0x00000000u);
 393              		.loc 1 303 0
 394 0024 0B4A     		ldr	r2, .L16+28
 395 0026 1360     		str	r3, [r2]
 304:Generated_Source\PSoC4/cyfitter_cfg.c **** 	SetAnalogRoutingPumps(1);
 396              		.loc 1 304 0
 397 0028 0022     		movs	r2, #0
 398 002a 0B4B     		ldr	r3, .L16+32
 399 002c 1A60     		str	r2, [r3]
 305:Generated_Source\PSoC4/cyfitter_cfg.c **** }
 400              		.loc 1 305 0
 401 002e 0120     		movs	r0, #1
 402 0030 FFF7FEFF 		bl	SetAnalogRoutingPumps
 403              	.LVL23:
 306:Generated_Source\PSoC4/cyfitter_cfg.c **** 
 404              		.loc 1 306 0
 405              		@ sp needed
 406 0034 10BD     		pop	{r4, pc}
 407              	.L17:
 408 0036 C046     		.align	2
 409              	.L16:
 410 0038 00003040 		.word	1076887552
 411 003c 30003040 		.word	1076887600
 412 0040 08402000 		.word	2113544
 413 0044 80003040 		.word	1076887680
 414 0048 30003140 		.word	1076953136
 415 004c 00003A40 		.word	1077542912
 416 0050 00033A40 		.word	1077543680
 417 0054 40033A40 		.word	1077543744
 418 0058 000E3F40 		.word	1077874176
 419              		.cfi_endproc
 420              	.LFE39:
 421              		.size	AnalogSetDefault, .-AnalogSetDefault
 422              		.section	.psocinit
 423              		.align	2
 424              		.global	cyfitter_cfg
 425              		.code	16
 426              		.thumb_func
 427              		.type	cyfitter_cfg, %function
 428              	cyfitter_cfg:
 429              	.LFB41:
 338:Generated_Source\PSoC4/cyfitter_cfg.c **** 
 339:Generated_Source\PSoC4/cyfitter_cfg.c **** 
 340:Generated_Source\PSoC4/cyfitter_cfg.c **** 
 341:Generated_Source\PSoC4/cyfitter_cfg.c **** 
 342:Generated_Source\PSoC4/cyfitter_cfg.c **** /*******************************************************************************
 343:Generated_Source\PSoC4/cyfitter_cfg.c **** * Function Name: cyfitter_cfg
 344:Generated_Source\PSoC4/cyfitter_cfg.c **** ********************************************************************************
 345:Generated_Source\PSoC4/cyfitter_cfg.c **** * Summary:
 346:Generated_Source\PSoC4/cyfitter_cfg.c **** *  This function is called by the start-up code for the selected device. It
 347:Generated_Source\PSoC4/cyfitter_cfg.c **** *  performs all of the necessary device configuration based on the design
 348:Generated_Source\PSoC4/cyfitter_cfg.c **** *  settings.  This includes settings from the Design Wide Resources (DWR) such
 349:Generated_Source\PSoC4/cyfitter_cfg.c **** *  as Clocks and Pins as well as any component configuration that is necessary.
 350:Generated_Source\PSoC4/cyfitter_cfg.c **** *
 351:Generated_Source\PSoC4/cyfitter_cfg.c **** * Parameters:
 352:Generated_Source\PSoC4/cyfitter_cfg.c **** *   void
ARM GAS  C:\Users\austc\AppData\Local\Temp\ccORObfh.s 			page 15


 353:Generated_Source\PSoC4/cyfitter_cfg.c **** *
 354:Generated_Source\PSoC4/cyfitter_cfg.c **** * Return:
 355:Generated_Source\PSoC4/cyfitter_cfg.c **** *   void
 356:Generated_Source\PSoC4/cyfitter_cfg.c **** *
 357:Generated_Source\PSoC4/cyfitter_cfg.c **** *******************************************************************************/
 358:Generated_Source\PSoC4/cyfitter_cfg.c **** CY_CFG_SECTION
 359:Generated_Source\PSoC4/cyfitter_cfg.c **** void cyfitter_cfg(void)
 360:Generated_Source\PSoC4/cyfitter_cfg.c **** {
 430              		.loc 1 360 0
 431              		.cfi_startproc
 432              		@ args = 0, pretend = 0, frame = 0
 433              		@ frame_needed = 0, uses_anonymous_args = 0
 434 0140 10B5     		push	{r4, lr}
 435              		.cfi_def_cfa_offset 8
 436              		.cfi_offset 4, -8
 437              		.cfi_offset 14, -4
 361:Generated_Source\PSoC4/cyfitter_cfg.c **** 	/* Disable interrupts by default. Let user enable if/when they want. */
 362:Generated_Source\PSoC4/cyfitter_cfg.c **** 	CyGlobalIntDisable;
 438              		.loc 1 362 0
 439              		.syntax divided
 440              	@ 362 "Generated_Source\PSoC4\cyfitter_cfg.c" 1
 441 0142 72B6     		CPSID   i
 442              	@ 0 "" 2
 363:Generated_Source\PSoC4/cyfitter_cfg.c **** 
 364:Generated_Source\PSoC4/cyfitter_cfg.c **** 	/* Enable the clock in the interrupt controller for the routed interrupts */
 365:Generated_Source\PSoC4/cyfitter_cfg.c **** 	CY_SET_REG8((void *)CYREG_UDB_UDB_INT_CLK_CTL, 0x01u);
 443              		.loc 1 365 0
 444              		.thumb
 445              		.syntax unified
 446 0144 0122     		movs	r2, #1
 447 0146 444B     		ldr	r3, .L21
 448 0148 1A70     		strb	r2, [r3]
 449              	.LVL24:
 450              	.LBB3:
 366:Generated_Source\PSoC4/cyfitter_cfg.c **** 	{
 367:Generated_Source\PSoC4/cyfitter_cfg.c **** 		static const uint32 CYCODE cy_cfg_addr_table[] = {
 368:Generated_Source\PSoC4/cyfitter_cfg.c **** 			0x400F0004u, /* Base address: 0x400F0000 Count: 4 */
 369:Generated_Source\PSoC4/cyfitter_cfg.c **** 			0x400F303Fu, /* Base address: 0x400F3000 Count: 63 */
 370:Generated_Source\PSoC4/cyfitter_cfg.c **** 			0x400F3134u, /* Base address: 0x400F3100 Count: 52 */
 371:Generated_Source\PSoC4/cyfitter_cfg.c **** 			0x400F3254u, /* Base address: 0x400F3200 Count: 84 */
 372:Generated_Source\PSoC4/cyfitter_cfg.c **** 			0x400F332Eu, /* Base address: 0x400F3300 Count: 46 */
 373:Generated_Source\PSoC4/cyfitter_cfg.c **** 			0x400F3441u, /* Base address: 0x400F3400 Count: 65 */
 374:Generated_Source\PSoC4/cyfitter_cfg.c **** 			0x400F3533u, /* Base address: 0x400F3500 Count: 51 */
 375:Generated_Source\PSoC4/cyfitter_cfg.c **** 			0x400F3645u, /* Base address: 0x400F3600 Count: 69 */
 376:Generated_Source\PSoC4/cyfitter_cfg.c **** 			0x400F3735u, /* Base address: 0x400F3700 Count: 53 */
 377:Generated_Source\PSoC4/cyfitter_cfg.c **** 			0x400F4009u, /* Base address: 0x400F4000 Count: 9 */
 378:Generated_Source\PSoC4/cyfitter_cfg.c **** 			0x400F4102u, /* Base address: 0x400F4100 Count: 2 */
 379:Generated_Source\PSoC4/cyfitter_cfg.c **** 			0x400F4209u, /* Base address: 0x400F4200 Count: 9 */
 380:Generated_Source\PSoC4/cyfitter_cfg.c **** 			0x400F4305u, /* Base address: 0x400F4300 Count: 5 */
 381:Generated_Source\PSoC4/cyfitter_cfg.c **** 			0x400F4507u, /* Base address: 0x400F4500 Count: 7 */
 382:Generated_Source\PSoC4/cyfitter_cfg.c **** 			0x400F4602u, /* Base address: 0x400F4600 Count: 2 */
 383:Generated_Source\PSoC4/cyfitter_cfg.c **** 			0x400F6003u, /* Base address: 0x400F6000 Count: 3 */
 384:Generated_Source\PSoC4/cyfitter_cfg.c **** 		};
 385:Generated_Source\PSoC4/cyfitter_cfg.c **** 
 386:Generated_Source\PSoC4/cyfitter_cfg.c **** 		static const cy_cfg_addrvalue_t CYCODE cy_cfg_data_table[] = {
 387:Generated_Source\PSoC4/cyfitter_cfg.c **** 			{0x80u, 0x0Fu},
 388:Generated_Source\PSoC4/cyfitter_cfg.c **** 			{0x84u, 0x6Fu},
ARM GAS  C:\Users\austc\AppData\Local\Temp\ccORObfh.s 			page 16


 389:Generated_Source\PSoC4/cyfitter_cfg.c **** 			{0x85u, 0x03u},
 390:Generated_Source\PSoC4/cyfitter_cfg.c **** 			{0x86u, 0x0Du},
 391:Generated_Source\PSoC4/cyfitter_cfg.c **** 			{0x02u, 0x02u},
 392:Generated_Source\PSoC4/cyfitter_cfg.c **** 			{0x04u, 0x02u},
 393:Generated_Source\PSoC4/cyfitter_cfg.c **** 			{0x05u, 0x10u},
 394:Generated_Source\PSoC4/cyfitter_cfg.c **** 			{0x09u, 0x0Cu},
 395:Generated_Source\PSoC4/cyfitter_cfg.c **** 			{0x0Bu, 0x02u},
 396:Generated_Source\PSoC4/cyfitter_cfg.c **** 			{0x0Du, 0x0Cu},
 397:Generated_Source\PSoC4/cyfitter_cfg.c **** 			{0x0Fu, 0x01u},
 398:Generated_Source\PSoC4/cyfitter_cfg.c **** 			{0x13u, 0x0Fu},
 399:Generated_Source\PSoC4/cyfitter_cfg.c **** 			{0x15u, 0x07u},
 400:Generated_Source\PSoC4/cyfitter_cfg.c **** 			{0x19u, 0x10u},
 401:Generated_Source\PSoC4/cyfitter_cfg.c **** 			{0x1Au, 0x02u},
 402:Generated_Source\PSoC4/cyfitter_cfg.c **** 			{0x22u, 0x01u},
 403:Generated_Source\PSoC4/cyfitter_cfg.c **** 			{0x23u, 0x10u},
 404:Generated_Source\PSoC4/cyfitter_cfg.c **** 			{0x25u, 0x08u},
 405:Generated_Source\PSoC4/cyfitter_cfg.c **** 			{0x27u, 0x01u},
 406:Generated_Source\PSoC4/cyfitter_cfg.c **** 			{0x29u, 0x0Bu},
 407:Generated_Source\PSoC4/cyfitter_cfg.c **** 			{0x2Bu, 0x04u},
 408:Generated_Source\PSoC4/cyfitter_cfg.c **** 			{0x30u, 0x02u},
 409:Generated_Source\PSoC4/cyfitter_cfg.c **** 			{0x33u, 0x0Fu},
 410:Generated_Source\PSoC4/cyfitter_cfg.c **** 			{0x34u, 0x01u},
 411:Generated_Source\PSoC4/cyfitter_cfg.c **** 			{0x35u, 0x10u},
 412:Generated_Source\PSoC4/cyfitter_cfg.c **** 			{0x3Eu, 0x01u},
 413:Generated_Source\PSoC4/cyfitter_cfg.c **** 			{0x3Fu, 0x10u},
 414:Generated_Source\PSoC4/cyfitter_cfg.c **** 			{0x54u, 0x0Fu},
 415:Generated_Source\PSoC4/cyfitter_cfg.c **** 			{0x58u, 0x04u},
 416:Generated_Source\PSoC4/cyfitter_cfg.c **** 			{0x59u, 0x04u},
 417:Generated_Source\PSoC4/cyfitter_cfg.c **** 			{0x5Bu, 0x04u},
 418:Generated_Source\PSoC4/cyfitter_cfg.c **** 			{0x5Cu, 0x11u},
 419:Generated_Source\PSoC4/cyfitter_cfg.c **** 			{0x5Du, 0x10u},
 420:Generated_Source\PSoC4/cyfitter_cfg.c **** 			{0x5Fu, 0x01u},
 421:Generated_Source\PSoC4/cyfitter_cfg.c **** 			{0x88u, 0x07u},
 422:Generated_Source\PSoC4/cyfitter_cfg.c **** 			{0x89u, 0x9Eu},
 423:Generated_Source\PSoC4/cyfitter_cfg.c **** 			{0x8Bu, 0x60u},
 424:Generated_Source\PSoC4/cyfitter_cfg.c **** 			{0x8Du, 0x30u},
 425:Generated_Source\PSoC4/cyfitter_cfg.c **** 			{0x8Eu, 0x04u},
 426:Generated_Source\PSoC4/cyfitter_cfg.c **** 			{0x8Fu, 0xC9u},
 427:Generated_Source\PSoC4/cyfitter_cfg.c **** 			{0x90u, 0x04u},
 428:Generated_Source\PSoC4/cyfitter_cfg.c **** 			{0x94u, 0x01u},
 429:Generated_Source\PSoC4/cyfitter_cfg.c **** 			{0x95u, 0x73u},
 430:Generated_Source\PSoC4/cyfitter_cfg.c **** 			{0x96u, 0x02u},
 431:Generated_Source\PSoC4/cyfitter_cfg.c **** 			{0x99u, 0x94u},
 432:Generated_Source\PSoC4/cyfitter_cfg.c **** 			{0x9Au, 0x07u},
 433:Generated_Source\PSoC4/cyfitter_cfg.c **** 			{0x9Bu, 0x60u},
 434:Generated_Source\PSoC4/cyfitter_cfg.c **** 			{0x9Eu, 0x20u},
 435:Generated_Source\PSoC4/cyfitter_cfg.c **** 			{0xA2u, 0x10u},
 436:Generated_Source\PSoC4/cyfitter_cfg.c **** 			{0xA4u, 0x01u},
 437:Generated_Source\PSoC4/cyfitter_cfg.c **** 			{0xA6u, 0x02u},
 438:Generated_Source\PSoC4/cyfitter_cfg.c **** 			{0xA7u, 0x0Fu},
 439:Generated_Source\PSoC4/cyfitter_cfg.c **** 			{0xA8u, 0x07u},
 440:Generated_Source\PSoC4/cyfitter_cfg.c **** 			{0xA9u, 0xFDu},
 441:Generated_Source\PSoC4/cyfitter_cfg.c **** 			{0xABu, 0x02u},
 442:Generated_Source\PSoC4/cyfitter_cfg.c **** 			{0xADu, 0xCFu},
 443:Generated_Source\PSoC4/cyfitter_cfg.c **** 			{0xAEu, 0x08u},
 444:Generated_Source\PSoC4/cyfitter_cfg.c **** 			{0xAFu, 0x30u},
 445:Generated_Source\PSoC4/cyfitter_cfg.c **** 			{0xB0u, 0x10u},
ARM GAS  C:\Users\austc\AppData\Local\Temp\ccORObfh.s 			page 17


 446:Generated_Source\PSoC4/cyfitter_cfg.c **** 			{0xB1u, 0xFFu},
 447:Generated_Source\PSoC4/cyfitter_cfg.c **** 			{0xB2u, 0x20u},
 448:Generated_Source\PSoC4/cyfitter_cfg.c **** 			{0xB4u, 0x0Fu},
 449:Generated_Source\PSoC4/cyfitter_cfg.c **** 			{0xBFu, 0x01u},
 450:Generated_Source\PSoC4/cyfitter_cfg.c **** 			{0xD8u, 0x04u},
 451:Generated_Source\PSoC4/cyfitter_cfg.c **** 			{0xD9u, 0x04u},
 452:Generated_Source\PSoC4/cyfitter_cfg.c **** 			{0xDCu, 0x01u},
 453:Generated_Source\PSoC4/cyfitter_cfg.c **** 			{0xDFu, 0x01u},
 454:Generated_Source\PSoC4/cyfitter_cfg.c **** 			{0x00u, 0x04u},
 455:Generated_Source\PSoC4/cyfitter_cfg.c **** 			{0x01u, 0x02u},
 456:Generated_Source\PSoC4/cyfitter_cfg.c **** 			{0x05u, 0x80u},
 457:Generated_Source\PSoC4/cyfitter_cfg.c **** 			{0x07u, 0x04u},
 458:Generated_Source\PSoC4/cyfitter_cfg.c **** 			{0x09u, 0x20u},
 459:Generated_Source\PSoC4/cyfitter_cfg.c **** 			{0x0Du, 0x20u},
 460:Generated_Source\PSoC4/cyfitter_cfg.c **** 			{0x0Eu, 0x41u},
 461:Generated_Source\PSoC4/cyfitter_cfg.c **** 			{0x0Fu, 0x10u},
 462:Generated_Source\PSoC4/cyfitter_cfg.c **** 			{0x10u, 0x80u},
 463:Generated_Source\PSoC4/cyfitter_cfg.c **** 			{0x14u, 0x60u},
 464:Generated_Source\PSoC4/cyfitter_cfg.c **** 			{0x15u, 0x10u},
 465:Generated_Source\PSoC4/cyfitter_cfg.c **** 			{0x17u, 0x40u},
 466:Generated_Source\PSoC4/cyfitter_cfg.c **** 			{0x18u, 0x04u},
 467:Generated_Source\PSoC4/cyfitter_cfg.c **** 			{0x1Au, 0x80u},
 468:Generated_Source\PSoC4/cyfitter_cfg.c **** 			{0x1Cu, 0x10u},
 469:Generated_Source\PSoC4/cyfitter_cfg.c **** 			{0x1Du, 0x20u},
 470:Generated_Source\PSoC4/cyfitter_cfg.c **** 			{0x1Eu, 0x60u},
 471:Generated_Source\PSoC4/cyfitter_cfg.c **** 			{0x1Fu, 0x22u},
 472:Generated_Source\PSoC4/cyfitter_cfg.c **** 			{0x21u, 0x04u},
 473:Generated_Source\PSoC4/cyfitter_cfg.c **** 			{0x22u, 0x10u},
 474:Generated_Source\PSoC4/cyfitter_cfg.c **** 			{0x23u, 0x10u},
 475:Generated_Source\PSoC4/cyfitter_cfg.c **** 			{0x27u, 0x40u},
 476:Generated_Source\PSoC4/cyfitter_cfg.c **** 			{0x28u, 0x20u},
 477:Generated_Source\PSoC4/cyfitter_cfg.c **** 			{0x29u, 0x02u},
 478:Generated_Source\PSoC4/cyfitter_cfg.c **** 			{0x2Bu, 0x08u},
 479:Generated_Source\PSoC4/cyfitter_cfg.c **** 			{0x2Du, 0xD0u},
 480:Generated_Source\PSoC4/cyfitter_cfg.c **** 			{0x2Fu, 0x28u},
 481:Generated_Source\PSoC4/cyfitter_cfg.c **** 			{0x31u, 0x20u},
 482:Generated_Source\PSoC4/cyfitter_cfg.c **** 			{0x33u, 0x06u},
 483:Generated_Source\PSoC4/cyfitter_cfg.c **** 			{0x34u, 0x20u},
 484:Generated_Source\PSoC4/cyfitter_cfg.c **** 			{0x36u, 0x10u},
 485:Generated_Source\PSoC4/cyfitter_cfg.c **** 			{0x37u, 0x04u},
 486:Generated_Source\PSoC4/cyfitter_cfg.c **** 			{0x38u, 0x04u},
 487:Generated_Source\PSoC4/cyfitter_cfg.c **** 			{0x39u, 0x40u},
 488:Generated_Source\PSoC4/cyfitter_cfg.c **** 			{0x3Bu, 0x10u},
 489:Generated_Source\PSoC4/cyfitter_cfg.c **** 			{0x3Eu, 0x40u},
 490:Generated_Source\PSoC4/cyfitter_cfg.c **** 			{0x3Fu, 0x10u},
 491:Generated_Source\PSoC4/cyfitter_cfg.c **** 			{0x58u, 0x02u},
 492:Generated_Source\PSoC4/cyfitter_cfg.c **** 			{0x5Au, 0xA0u},
 493:Generated_Source\PSoC4/cyfitter_cfg.c **** 			{0x5Bu, 0x04u},
 494:Generated_Source\PSoC4/cyfitter_cfg.c **** 			{0x80u, 0x02u},
 495:Generated_Source\PSoC4/cyfitter_cfg.c **** 			{0x83u, 0x08u},
 496:Generated_Source\PSoC4/cyfitter_cfg.c **** 			{0x84u, 0x40u},
 497:Generated_Source\PSoC4/cyfitter_cfg.c **** 			{0x8Au, 0x01u},
 498:Generated_Source\PSoC4/cyfitter_cfg.c **** 			{0xC0u, 0xCCu},
 499:Generated_Source\PSoC4/cyfitter_cfg.c **** 			{0xC2u, 0xF2u},
 500:Generated_Source\PSoC4/cyfitter_cfg.c **** 			{0xC4u, 0xF8u},
 501:Generated_Source\PSoC4/cyfitter_cfg.c **** 			{0xCAu, 0x77u},
 502:Generated_Source\PSoC4/cyfitter_cfg.c **** 			{0xCCu, 0x67u},
ARM GAS  C:\Users\austc\AppData\Local\Temp\ccORObfh.s 			page 18


 503:Generated_Source\PSoC4/cyfitter_cfg.c **** 			{0xCEu, 0x3Eu},
 504:Generated_Source\PSoC4/cyfitter_cfg.c **** 			{0xD6u, 0x0Fu},
 505:Generated_Source\PSoC4/cyfitter_cfg.c **** 			{0xE4u, 0x80u},
 506:Generated_Source\PSoC4/cyfitter_cfg.c **** 			{0x09u, 0x0Cu},
 507:Generated_Source\PSoC4/cyfitter_cfg.c **** 			{0x0Fu, 0x01u},
 508:Generated_Source\PSoC4/cyfitter_cfg.c **** 			{0x19u, 0x06u},
 509:Generated_Source\PSoC4/cyfitter_cfg.c **** 			{0x1Du, 0x0Cu},
 510:Generated_Source\PSoC4/cyfitter_cfg.c **** 			{0x27u, 0x01u},
 511:Generated_Source\PSoC4/cyfitter_cfg.c **** 			{0x29u, 0x0Au},
 512:Generated_Source\PSoC4/cyfitter_cfg.c **** 			{0x31u, 0x01u},
 513:Generated_Source\PSoC4/cyfitter_cfg.c **** 			{0x35u, 0x0Eu},
 514:Generated_Source\PSoC4/cyfitter_cfg.c **** 			{0x39u, 0x20u},
 515:Generated_Source\PSoC4/cyfitter_cfg.c **** 			{0x3Fu, 0x01u},
 516:Generated_Source\PSoC4/cyfitter_cfg.c **** 			{0x40u, 0x36u},
 517:Generated_Source\PSoC4/cyfitter_cfg.c **** 			{0x41u, 0x02u},
 518:Generated_Source\PSoC4/cyfitter_cfg.c **** 			{0x49u, 0xFFu},
 519:Generated_Source\PSoC4/cyfitter_cfg.c **** 			{0x4Au, 0xFFu},
 520:Generated_Source\PSoC4/cyfitter_cfg.c **** 			{0x4Bu, 0xFFu},
 521:Generated_Source\PSoC4/cyfitter_cfg.c **** 			{0x4Du, 0xA0u},
 522:Generated_Source\PSoC4/cyfitter_cfg.c **** 			{0x4Fu, 0x01u},
 523:Generated_Source\PSoC4/cyfitter_cfg.c **** 			{0x50u, 0x18u},
 524:Generated_Source\PSoC4/cyfitter_cfg.c **** 			{0x59u, 0x04u},
 525:Generated_Source\PSoC4/cyfitter_cfg.c **** 			{0x5Au, 0x04u},
 526:Generated_Source\PSoC4/cyfitter_cfg.c **** 			{0x5Cu, 0x10u},
 527:Generated_Source\PSoC4/cyfitter_cfg.c **** 			{0x5Du, 0x01u},
 528:Generated_Source\PSoC4/cyfitter_cfg.c **** 			{0x5Fu, 0x01u},
 529:Generated_Source\PSoC4/cyfitter_cfg.c **** 			{0x60u, 0x40u},
 530:Generated_Source\PSoC4/cyfitter_cfg.c **** 			{0x62u, 0x80u},
 531:Generated_Source\PSoC4/cyfitter_cfg.c **** 			{0x64u, 0x40u},
 532:Generated_Source\PSoC4/cyfitter_cfg.c **** 			{0x65u, 0x40u},
 533:Generated_Source\PSoC4/cyfitter_cfg.c **** 			{0x66u, 0x80u},
 534:Generated_Source\PSoC4/cyfitter_cfg.c **** 			{0x68u, 0x40u},
 535:Generated_Source\PSoC4/cyfitter_cfg.c **** 			{0x6Au, 0x80u},
 536:Generated_Source\PSoC4/cyfitter_cfg.c **** 			{0x6Cu, 0x40u},
 537:Generated_Source\PSoC4/cyfitter_cfg.c **** 			{0x6Du, 0x20u},
 538:Generated_Source\PSoC4/cyfitter_cfg.c **** 			{0x6Eu, 0x80u},
 539:Generated_Source\PSoC4/cyfitter_cfg.c **** 			{0x85u, 0x02u},
 540:Generated_Source\PSoC4/cyfitter_cfg.c **** 			{0x8Fu, 0x02u},
 541:Generated_Source\PSoC4/cyfitter_cfg.c **** 			{0x91u, 0x01u},
 542:Generated_Source\PSoC4/cyfitter_cfg.c **** 			{0x9Cu, 0x08u},
 543:Generated_Source\PSoC4/cyfitter_cfg.c **** 			{0xA3u, 0x01u},
 544:Generated_Source\PSoC4/cyfitter_cfg.c **** 			{0xA4u, 0x01u},
 545:Generated_Source\PSoC4/cyfitter_cfg.c **** 			{0xA8u, 0x03u},
 546:Generated_Source\PSoC4/cyfitter_cfg.c **** 			{0xABu, 0x05u},
 547:Generated_Source\PSoC4/cyfitter_cfg.c **** 			{0xACu, 0x03u},
 548:Generated_Source\PSoC4/cyfitter_cfg.c **** 			{0xAEu, 0x0Cu},
 549:Generated_Source\PSoC4/cyfitter_cfg.c **** 			{0xB0u, 0x02u},
 550:Generated_Source\PSoC4/cyfitter_cfg.c **** 			{0xB1u, 0x04u},
 551:Generated_Source\PSoC4/cyfitter_cfg.c **** 			{0xB2u, 0x08u},
 552:Generated_Source\PSoC4/cyfitter_cfg.c **** 			{0xB3u, 0x01u},
 553:Generated_Source\PSoC4/cyfitter_cfg.c **** 			{0xB4u, 0x01u},
 554:Generated_Source\PSoC4/cyfitter_cfg.c **** 			{0xB6u, 0x04u},
 555:Generated_Source\PSoC4/cyfitter_cfg.c **** 			{0xB7u, 0x02u},
 556:Generated_Source\PSoC4/cyfitter_cfg.c **** 			{0xB8u, 0x22u},
 557:Generated_Source\PSoC4/cyfitter_cfg.c **** 			{0xBEu, 0x14u},
 558:Generated_Source\PSoC4/cyfitter_cfg.c **** 			{0xBFu, 0x44u},
 559:Generated_Source\PSoC4/cyfitter_cfg.c **** 			{0xC0u, 0x36u},
ARM GAS  C:\Users\austc\AppData\Local\Temp\ccORObfh.s 			page 19


 560:Generated_Source\PSoC4/cyfitter_cfg.c **** 			{0xC1u, 0x02u},
 561:Generated_Source\PSoC4/cyfitter_cfg.c **** 			{0xC5u, 0x0Eu},
 562:Generated_Source\PSoC4/cyfitter_cfg.c **** 			{0xC6u, 0xC4u},
 563:Generated_Source\PSoC4/cyfitter_cfg.c **** 			{0xC7u, 0x32u},
 564:Generated_Source\PSoC4/cyfitter_cfg.c **** 			{0xC8u, 0x3Du},
 565:Generated_Source\PSoC4/cyfitter_cfg.c **** 			{0xC9u, 0xFFu},
 566:Generated_Source\PSoC4/cyfitter_cfg.c **** 			{0xCAu, 0xFFu},
 567:Generated_Source\PSoC4/cyfitter_cfg.c **** 			{0xCBu, 0xFFu},
 568:Generated_Source\PSoC4/cyfitter_cfg.c **** 			{0xCDu, 0xAFu},
 569:Generated_Source\PSoC4/cyfitter_cfg.c **** 			{0xCEu, 0x07u},
 570:Generated_Source\PSoC4/cyfitter_cfg.c **** 			{0xCFu, 0x01u},
 571:Generated_Source\PSoC4/cyfitter_cfg.c **** 			{0xD0u, 0x18u},
 572:Generated_Source\PSoC4/cyfitter_cfg.c **** 			{0xD2u, 0x80u},
 573:Generated_Source\PSoC4/cyfitter_cfg.c **** 			{0xD8u, 0x04u},
 574:Generated_Source\PSoC4/cyfitter_cfg.c **** 			{0xD9u, 0x04u},
 575:Generated_Source\PSoC4/cyfitter_cfg.c **** 			{0xDAu, 0x04u},
 576:Generated_Source\PSoC4/cyfitter_cfg.c **** 			{0xDBu, 0x04u},
 577:Generated_Source\PSoC4/cyfitter_cfg.c **** 			{0xDCu, 0x11u},
 578:Generated_Source\PSoC4/cyfitter_cfg.c **** 			{0xDDu, 0x11u},
 579:Generated_Source\PSoC4/cyfitter_cfg.c **** 			{0xDFu, 0x01u},
 580:Generated_Source\PSoC4/cyfitter_cfg.c **** 			{0xE0u, 0x40u},
 581:Generated_Source\PSoC4/cyfitter_cfg.c **** 			{0xE2u, 0x80u},
 582:Generated_Source\PSoC4/cyfitter_cfg.c **** 			{0xE4u, 0x40u},
 583:Generated_Source\PSoC4/cyfitter_cfg.c **** 			{0xE5u, 0x40u},
 584:Generated_Source\PSoC4/cyfitter_cfg.c **** 			{0xE6u, 0x80u},
 585:Generated_Source\PSoC4/cyfitter_cfg.c **** 			{0xE8u, 0x40u},
 586:Generated_Source\PSoC4/cyfitter_cfg.c **** 			{0xEAu, 0x80u},
 587:Generated_Source\PSoC4/cyfitter_cfg.c **** 			{0xECu, 0x40u},
 588:Generated_Source\PSoC4/cyfitter_cfg.c **** 			{0xEDu, 0x20u},
 589:Generated_Source\PSoC4/cyfitter_cfg.c **** 			{0xEEu, 0x80u},
 590:Generated_Source\PSoC4/cyfitter_cfg.c **** 			{0x0Au, 0x01u},
 591:Generated_Source\PSoC4/cyfitter_cfg.c **** 			{0x10u, 0x0Au},
 592:Generated_Source\PSoC4/cyfitter_cfg.c **** 			{0x12u, 0x20u},
 593:Generated_Source\PSoC4/cyfitter_cfg.c **** 			{0x19u, 0x1Au},
 594:Generated_Source\PSoC4/cyfitter_cfg.c **** 			{0x1Au, 0x01u},
 595:Generated_Source\PSoC4/cyfitter_cfg.c **** 			{0x1Bu, 0x10u},
 596:Generated_Source\PSoC4/cyfitter_cfg.c **** 			{0x21u, 0x0Au},
 597:Generated_Source\PSoC4/cyfitter_cfg.c **** 			{0x22u, 0x40u},
 598:Generated_Source\PSoC4/cyfitter_cfg.c **** 			{0x26u, 0x20u},
 599:Generated_Source\PSoC4/cyfitter_cfg.c **** 			{0x27u, 0x84u},
 600:Generated_Source\PSoC4/cyfitter_cfg.c **** 			{0x29u, 0x21u},
 601:Generated_Source\PSoC4/cyfitter_cfg.c **** 			{0x2Fu, 0x28u},
 602:Generated_Source\PSoC4/cyfitter_cfg.c **** 			{0x31u, 0x02u},
 603:Generated_Source\PSoC4/cyfitter_cfg.c **** 			{0x35u, 0x80u},
 604:Generated_Source\PSoC4/cyfitter_cfg.c **** 			{0x36u, 0x20u},
 605:Generated_Source\PSoC4/cyfitter_cfg.c **** 			{0x38u, 0x84u},
 606:Generated_Source\PSoC4/cyfitter_cfg.c **** 			{0x3Eu, 0x80u},
 607:Generated_Source\PSoC4/cyfitter_cfg.c **** 			{0x3Fu, 0x10u},
 608:Generated_Source\PSoC4/cyfitter_cfg.c **** 			{0x41u, 0x28u},
 609:Generated_Source\PSoC4/cyfitter_cfg.c **** 			{0x45u, 0x28u},
 610:Generated_Source\PSoC4/cyfitter_cfg.c **** 			{0x49u, 0x14u},
 611:Generated_Source\PSoC4/cyfitter_cfg.c **** 			{0x4Fu, 0x20u},
 612:Generated_Source\PSoC4/cyfitter_cfg.c **** 			{0x50u, 0xCAu},
 613:Generated_Source\PSoC4/cyfitter_cfg.c **** 			{0x52u, 0x10u},
 614:Generated_Source\PSoC4/cyfitter_cfg.c **** 			{0x58u, 0xA4u},
 615:Generated_Source\PSoC4/cyfitter_cfg.c **** 			{0x71u, 0x01u},
 616:Generated_Source\PSoC4/cyfitter_cfg.c **** 			{0x80u, 0x20u},
ARM GAS  C:\Users\austc\AppData\Local\Temp\ccORObfh.s 			page 20


 617:Generated_Source\PSoC4/cyfitter_cfg.c **** 			{0x88u, 0x04u},
 618:Generated_Source\PSoC4/cyfitter_cfg.c **** 			{0x90u, 0x14u},
 619:Generated_Source\PSoC4/cyfitter_cfg.c **** 			{0x91u, 0x08u},
 620:Generated_Source\PSoC4/cyfitter_cfg.c **** 			{0x93u, 0x10u},
 621:Generated_Source\PSoC4/cyfitter_cfg.c **** 			{0x9Du, 0x82u},
 622:Generated_Source\PSoC4/cyfitter_cfg.c **** 			{0x9Fu, 0x04u},
 623:Generated_Source\PSoC4/cyfitter_cfg.c **** 			{0xA1u, 0x20u},
 624:Generated_Source\PSoC4/cyfitter_cfg.c **** 			{0xA3u, 0x02u},
 625:Generated_Source\PSoC4/cyfitter_cfg.c **** 			{0xA4u, 0x80u},
 626:Generated_Source\PSoC4/cyfitter_cfg.c **** 			{0xA7u, 0x08u},
 627:Generated_Source\PSoC4/cyfitter_cfg.c **** 			{0xC2u, 0x01u},
 628:Generated_Source\PSoC4/cyfitter_cfg.c **** 			{0xC4u, 0x07u},
 629:Generated_Source\PSoC4/cyfitter_cfg.c **** 			{0xCAu, 0x65u},
 630:Generated_Source\PSoC4/cyfitter_cfg.c **** 			{0xCCu, 0x31u},
 631:Generated_Source\PSoC4/cyfitter_cfg.c **** 			{0xCEu, 0x3Au},
 632:Generated_Source\PSoC4/cyfitter_cfg.c **** 			{0xD0u, 0x66u},
 633:Generated_Source\PSoC4/cyfitter_cfg.c **** 			{0xD2u, 0x24u},
 634:Generated_Source\PSoC4/cyfitter_cfg.c **** 			{0xD6u, 0x0Eu},
 635:Generated_Source\PSoC4/cyfitter_cfg.c **** 			{0xE6u, 0x04u},
 636:Generated_Source\PSoC4/cyfitter_cfg.c **** 			{0x06u, 0x02u},
 637:Generated_Source\PSoC4/cyfitter_cfg.c **** 			{0x08u, 0x01u},
 638:Generated_Source\PSoC4/cyfitter_cfg.c **** 			{0x0Cu, 0x01u},
 639:Generated_Source\PSoC4/cyfitter_cfg.c **** 			{0x14u, 0x01u},
 640:Generated_Source\PSoC4/cyfitter_cfg.c **** 			{0x17u, 0x01u},
 641:Generated_Source\PSoC4/cyfitter_cfg.c **** 			{0x18u, 0x01u},
 642:Generated_Source\PSoC4/cyfitter_cfg.c **** 			{0x2Au, 0x04u},
 643:Generated_Source\PSoC4/cyfitter_cfg.c **** 			{0x2Du, 0x01u},
 644:Generated_Source\PSoC4/cyfitter_cfg.c **** 			{0x2Eu, 0x01u},
 645:Generated_Source\PSoC4/cyfitter_cfg.c **** 			{0x30u, 0x04u},
 646:Generated_Source\PSoC4/cyfitter_cfg.c **** 			{0x31u, 0x01u},
 647:Generated_Source\PSoC4/cyfitter_cfg.c **** 			{0x34u, 0x03u},
 648:Generated_Source\PSoC4/cyfitter_cfg.c **** 			{0x3Fu, 0x01u},
 649:Generated_Source\PSoC4/cyfitter_cfg.c **** 			{0x40u, 0x51u},
 650:Generated_Source\PSoC4/cyfitter_cfg.c **** 			{0x49u, 0xFFu},
 651:Generated_Source\PSoC4/cyfitter_cfg.c **** 			{0x4Au, 0xFFu},
 652:Generated_Source\PSoC4/cyfitter_cfg.c **** 			{0x4Bu, 0xFFu},
 653:Generated_Source\PSoC4/cyfitter_cfg.c **** 			{0x4Fu, 0x01u},
 654:Generated_Source\PSoC4/cyfitter_cfg.c **** 			{0x50u, 0x18u},
 655:Generated_Source\PSoC4/cyfitter_cfg.c **** 			{0x54u, 0x0Fu},
 656:Generated_Source\PSoC4/cyfitter_cfg.c **** 			{0x58u, 0x04u},
 657:Generated_Source\PSoC4/cyfitter_cfg.c **** 			{0x59u, 0x04u},
 658:Generated_Source\PSoC4/cyfitter_cfg.c **** 			{0x5Au, 0x04u},
 659:Generated_Source\PSoC4/cyfitter_cfg.c **** 			{0x5Bu, 0x04u},
 660:Generated_Source\PSoC4/cyfitter_cfg.c **** 			{0x5Cu, 0x01u},
 661:Generated_Source\PSoC4/cyfitter_cfg.c **** 			{0x5Du, 0x13u},
 662:Generated_Source\PSoC4/cyfitter_cfg.c **** 			{0x5Fu, 0x05u},
 663:Generated_Source\PSoC4/cyfitter_cfg.c **** 			{0x60u, 0x40u},
 664:Generated_Source\PSoC4/cyfitter_cfg.c **** 			{0x62u, 0x40u},
 665:Generated_Source\PSoC4/cyfitter_cfg.c **** 			{0x64u, 0x40u},
 666:Generated_Source\PSoC4/cyfitter_cfg.c **** 			{0x65u, 0x40u},
 667:Generated_Source\PSoC4/cyfitter_cfg.c **** 			{0x66u, 0x80u},
 668:Generated_Source\PSoC4/cyfitter_cfg.c **** 			{0x68u, 0x80u},
 669:Generated_Source\PSoC4/cyfitter_cfg.c **** 			{0x6Au, 0x80u},
 670:Generated_Source\PSoC4/cyfitter_cfg.c **** 			{0x6Cu, 0x80u},
 671:Generated_Source\PSoC4/cyfitter_cfg.c **** 			{0x6Eu, 0x80u},
 672:Generated_Source\PSoC4/cyfitter_cfg.c **** 			{0x80u, 0x01u},
 673:Generated_Source\PSoC4/cyfitter_cfg.c **** 			{0x90u, 0x02u},
ARM GAS  C:\Users\austc\AppData\Local\Temp\ccORObfh.s 			page 21


 674:Generated_Source\PSoC4/cyfitter_cfg.c **** 			{0xB0u, 0x01u},
 675:Generated_Source\PSoC4/cyfitter_cfg.c **** 			{0xB2u, 0x02u},
 676:Generated_Source\PSoC4/cyfitter_cfg.c **** 			{0xC0u, 0x43u},
 677:Generated_Source\PSoC4/cyfitter_cfg.c **** 			{0xC9u, 0xFFu},
 678:Generated_Source\PSoC4/cyfitter_cfg.c **** 			{0xCAu, 0xFFu},
 679:Generated_Source\PSoC4/cyfitter_cfg.c **** 			{0xCBu, 0xFFu},
 680:Generated_Source\PSoC4/cyfitter_cfg.c **** 			{0xCDu, 0x83u},
 681:Generated_Source\PSoC4/cyfitter_cfg.c **** 			{0xCEu, 0x03u},
 682:Generated_Source\PSoC4/cyfitter_cfg.c **** 			{0xCFu, 0x01u},
 683:Generated_Source\PSoC4/cyfitter_cfg.c **** 			{0xD0u, 0x18u},
 684:Generated_Source\PSoC4/cyfitter_cfg.c **** 			{0xD2u, 0x80u},
 685:Generated_Source\PSoC4/cyfitter_cfg.c **** 			{0xD6u, 0x04u},
 686:Generated_Source\PSoC4/cyfitter_cfg.c **** 			{0xD8u, 0x04u},
 687:Generated_Source\PSoC4/cyfitter_cfg.c **** 			{0xDAu, 0x04u},
 688:Generated_Source\PSoC4/cyfitter_cfg.c **** 			{0xDBu, 0x04u},
 689:Generated_Source\PSoC4/cyfitter_cfg.c **** 			{0xDCu, 0x02u},
 690:Generated_Source\PSoC4/cyfitter_cfg.c **** 			{0xDDu, 0x33u},
 691:Generated_Source\PSoC4/cyfitter_cfg.c **** 			{0xDFu, 0x01u},
 692:Generated_Source\PSoC4/cyfitter_cfg.c **** 			{0xE0u, 0x40u},
 693:Generated_Source\PSoC4/cyfitter_cfg.c **** 			{0xE2u, 0x40u},
 694:Generated_Source\PSoC4/cyfitter_cfg.c **** 			{0xE4u, 0x40u},
 695:Generated_Source\PSoC4/cyfitter_cfg.c **** 			{0xE5u, 0x40u},
 696:Generated_Source\PSoC4/cyfitter_cfg.c **** 			{0xE6u, 0x80u},
 697:Generated_Source\PSoC4/cyfitter_cfg.c **** 			{0xE8u, 0x80u},
 698:Generated_Source\PSoC4/cyfitter_cfg.c **** 			{0xEAu, 0x80u},
 699:Generated_Source\PSoC4/cyfitter_cfg.c **** 			{0xECu, 0x80u},
 700:Generated_Source\PSoC4/cyfitter_cfg.c **** 			{0xEEu, 0x80u},
 701:Generated_Source\PSoC4/cyfitter_cfg.c **** 			{0x00u, 0x14u},
 702:Generated_Source\PSoC4/cyfitter_cfg.c **** 			{0x01u, 0x80u},
 703:Generated_Source\PSoC4/cyfitter_cfg.c **** 			{0x07u, 0x40u},
 704:Generated_Source\PSoC4/cyfitter_cfg.c **** 			{0x0Bu, 0x18u},
 705:Generated_Source\PSoC4/cyfitter_cfg.c **** 			{0x0Fu, 0x80u},
 706:Generated_Source\PSoC4/cyfitter_cfg.c **** 			{0x10u, 0x0Au},
 707:Generated_Source\PSoC4/cyfitter_cfg.c **** 			{0x19u, 0x20u},
 708:Generated_Source\PSoC4/cyfitter_cfg.c **** 			{0x1Bu, 0x01u},
 709:Generated_Source\PSoC4/cyfitter_cfg.c **** 			{0x1Eu, 0x60u},
 710:Generated_Source\PSoC4/cyfitter_cfg.c **** 			{0x22u, 0x01u},
 711:Generated_Source\PSoC4/cyfitter_cfg.c **** 			{0x2Bu, 0x01u},
 712:Generated_Source\PSoC4/cyfitter_cfg.c **** 			{0x30u, 0x08u},
 713:Generated_Source\PSoC4/cyfitter_cfg.c **** 			{0x42u, 0x02u},
 714:Generated_Source\PSoC4/cyfitter_cfg.c **** 			{0x46u, 0xA0u},
 715:Generated_Source\PSoC4/cyfitter_cfg.c **** 			{0x48u, 0x09u},
 716:Generated_Source\PSoC4/cyfitter_cfg.c **** 			{0x49u, 0x10u},
 717:Generated_Source\PSoC4/cyfitter_cfg.c **** 			{0x59u, 0x18u},
 718:Generated_Source\PSoC4/cyfitter_cfg.c **** 			{0x5Au, 0x82u},
 719:Generated_Source\PSoC4/cyfitter_cfg.c **** 			{0x5Eu, 0x60u},
 720:Generated_Source\PSoC4/cyfitter_cfg.c **** 			{0x61u, 0x04u},
 721:Generated_Source\PSoC4/cyfitter_cfg.c **** 			{0x62u, 0x10u},
 722:Generated_Source\PSoC4/cyfitter_cfg.c **** 			{0x67u, 0x40u},
 723:Generated_Source\PSoC4/cyfitter_cfg.c **** 			{0x74u, 0x01u},
 724:Generated_Source\PSoC4/cyfitter_cfg.c **** 			{0x76u, 0x80u},
 725:Generated_Source\PSoC4/cyfitter_cfg.c **** 			{0x7Au, 0x20u},
 726:Generated_Source\PSoC4/cyfitter_cfg.c **** 			{0x83u, 0x40u},
 727:Generated_Source\PSoC4/cyfitter_cfg.c **** 			{0x87u, 0x40u},
 728:Generated_Source\PSoC4/cyfitter_cfg.c **** 			{0x90u, 0x10u},
 729:Generated_Source\PSoC4/cyfitter_cfg.c **** 			{0x91u, 0x08u},
 730:Generated_Source\PSoC4/cyfitter_cfg.c **** 			{0x92u, 0x80u},
ARM GAS  C:\Users\austc\AppData\Local\Temp\ccORObfh.s 			page 22


 731:Generated_Source\PSoC4/cyfitter_cfg.c **** 			{0x93u, 0x10u},
 732:Generated_Source\PSoC4/cyfitter_cfg.c **** 			{0x99u, 0x0Cu},
 733:Generated_Source\PSoC4/cyfitter_cfg.c **** 			{0x9Au, 0x10u},
 734:Generated_Source\PSoC4/cyfitter_cfg.c **** 			{0x9Bu, 0x80u},
 735:Generated_Source\PSoC4/cyfitter_cfg.c **** 			{0x9Du, 0xA0u},
 736:Generated_Source\PSoC4/cyfitter_cfg.c **** 			{0x9Eu, 0x80u},
 737:Generated_Source\PSoC4/cyfitter_cfg.c **** 			{0xA0u, 0x08u},
 738:Generated_Source\PSoC4/cyfitter_cfg.c **** 			{0xA2u, 0x20u},
 739:Generated_Source\PSoC4/cyfitter_cfg.c **** 			{0xA3u, 0x02u},
 740:Generated_Source\PSoC4/cyfitter_cfg.c **** 			{0xA7u, 0x28u},
 741:Generated_Source\PSoC4/cyfitter_cfg.c **** 			{0xB4u, 0x80u},
 742:Generated_Source\PSoC4/cyfitter_cfg.c **** 			{0xC0u, 0x17u},
 743:Generated_Source\PSoC4/cyfitter_cfg.c **** 			{0xC2u, 0x16u},
 744:Generated_Source\PSoC4/cyfitter_cfg.c **** 			{0xC4u, 0x03u},
 745:Generated_Source\PSoC4/cyfitter_cfg.c **** 			{0xCAu, 0x08u},
 746:Generated_Source\PSoC4/cyfitter_cfg.c **** 			{0xCCu, 0x02u},
 747:Generated_Source\PSoC4/cyfitter_cfg.c **** 			{0xD0u, 0xC8u},
 748:Generated_Source\PSoC4/cyfitter_cfg.c **** 			{0xD2u, 0x08u},
 749:Generated_Source\PSoC4/cyfitter_cfg.c **** 			{0xD6u, 0x3Fu},
 750:Generated_Source\PSoC4/cyfitter_cfg.c **** 			{0xD8u, 0x86u},
 751:Generated_Source\PSoC4/cyfitter_cfg.c **** 			{0xDEu, 0x02u},
 752:Generated_Source\PSoC4/cyfitter_cfg.c **** 			{0x08u, 0x03u},
 753:Generated_Source\PSoC4/cyfitter_cfg.c **** 			{0x0Au, 0x0Cu},
 754:Generated_Source\PSoC4/cyfitter_cfg.c **** 			{0x0Cu, 0x0Cu},
 755:Generated_Source\PSoC4/cyfitter_cfg.c **** 			{0x0Eu, 0x03u},
 756:Generated_Source\PSoC4/cyfitter_cfg.c **** 			{0x14u, 0x0Fu},
 757:Generated_Source\PSoC4/cyfitter_cfg.c **** 			{0x20u, 0x05u},
 758:Generated_Source\PSoC4/cyfitter_cfg.c **** 			{0x22u, 0x0Au},
 759:Generated_Source\PSoC4/cyfitter_cfg.c **** 			{0x24u, 0x07u},
 760:Generated_Source\PSoC4/cyfitter_cfg.c **** 			{0x28u, 0x0Au},
 761:Generated_Source\PSoC4/cyfitter_cfg.c **** 			{0x2Au, 0x05u},
 762:Generated_Source\PSoC4/cyfitter_cfg.c **** 			{0x32u, 0x0Fu},
 763:Generated_Source\PSoC4/cyfitter_cfg.c **** 			{0x40u, 0x45u},
 764:Generated_Source\PSoC4/cyfitter_cfg.c **** 			{0x45u, 0xECu},
 765:Generated_Source\PSoC4/cyfitter_cfg.c **** 			{0x46u, 0x22u},
 766:Generated_Source\PSoC4/cyfitter_cfg.c **** 			{0x47u, 0x20u},
 767:Generated_Source\PSoC4/cyfitter_cfg.c **** 			{0x48u, 0x2Fu},
 768:Generated_Source\PSoC4/cyfitter_cfg.c **** 			{0x49u, 0xFFu},
 769:Generated_Source\PSoC4/cyfitter_cfg.c **** 			{0x4Au, 0xFFu},
 770:Generated_Source\PSoC4/cyfitter_cfg.c **** 			{0x4Bu, 0xFFu},
 771:Generated_Source\PSoC4/cyfitter_cfg.c **** 			{0x4Du, 0x83u},
 772:Generated_Source\PSoC4/cyfitter_cfg.c **** 			{0x4Eu, 0x03u},
 773:Generated_Source\PSoC4/cyfitter_cfg.c **** 			{0x4Fu, 0x01u},
 774:Generated_Source\PSoC4/cyfitter_cfg.c **** 			{0x50u, 0x18u},
 775:Generated_Source\PSoC4/cyfitter_cfg.c **** 			{0x54u, 0x01u},
 776:Generated_Source\PSoC4/cyfitter_cfg.c **** 			{0x56u, 0x04u},
 777:Generated_Source\PSoC4/cyfitter_cfg.c **** 			{0x58u, 0x04u},
 778:Generated_Source\PSoC4/cyfitter_cfg.c **** 			{0x5Au, 0x04u},
 779:Generated_Source\PSoC4/cyfitter_cfg.c **** 			{0x5Bu, 0x04u},
 780:Generated_Source\PSoC4/cyfitter_cfg.c **** 			{0x5Cu, 0x01u},
 781:Generated_Source\PSoC4/cyfitter_cfg.c **** 			{0x5Du, 0x33u},
 782:Generated_Source\PSoC4/cyfitter_cfg.c **** 			{0x5Fu, 0x01u},
 783:Generated_Source\PSoC4/cyfitter_cfg.c **** 			{0x60u, 0x40u},
 784:Generated_Source\PSoC4/cyfitter_cfg.c **** 			{0x62u, 0x40u},
 785:Generated_Source\PSoC4/cyfitter_cfg.c **** 			{0x64u, 0x40u},
 786:Generated_Source\PSoC4/cyfitter_cfg.c **** 			{0x65u, 0x40u},
 787:Generated_Source\PSoC4/cyfitter_cfg.c **** 			{0x66u, 0x80u},
ARM GAS  C:\Users\austc\AppData\Local\Temp\ccORObfh.s 			page 23


 788:Generated_Source\PSoC4/cyfitter_cfg.c **** 			{0x68u, 0x80u},
 789:Generated_Source\PSoC4/cyfitter_cfg.c **** 			{0x6Au, 0x80u},
 790:Generated_Source\PSoC4/cyfitter_cfg.c **** 			{0x6Cu, 0x80u},
 791:Generated_Source\PSoC4/cyfitter_cfg.c **** 			{0x6Eu, 0x80u},
 792:Generated_Source\PSoC4/cyfitter_cfg.c **** 			{0x85u, 0xC5u},
 793:Generated_Source\PSoC4/cyfitter_cfg.c **** 			{0x87u, 0x3Au},
 794:Generated_Source\PSoC4/cyfitter_cfg.c **** 			{0x89u, 0x0Eu},
 795:Generated_Source\PSoC4/cyfitter_cfg.c **** 			{0x8Au, 0x0Fu},
 796:Generated_Source\PSoC4/cyfitter_cfg.c **** 			{0x8Bu, 0xF0u},
 797:Generated_Source\PSoC4/cyfitter_cfg.c **** 			{0x8Cu, 0x0Cu},
 798:Generated_Source\PSoC4/cyfitter_cfg.c **** 			{0x8Eu, 0x02u},
 799:Generated_Source\PSoC4/cyfitter_cfg.c **** 			{0x91u, 0x96u},
 800:Generated_Source\PSoC4/cyfitter_cfg.c **** 			{0x93u, 0x68u},
 801:Generated_Source\PSoC4/cyfitter_cfg.c **** 			{0x95u, 0xFEu},
 802:Generated_Source\PSoC4/cyfitter_cfg.c **** 			{0x97u, 0x01u},
 803:Generated_Source\PSoC4/cyfitter_cfg.c **** 			{0x98u, 0x0Bu},
 804:Generated_Source\PSoC4/cyfitter_cfg.c **** 			{0x99u, 0x7Fu},
 805:Generated_Source\PSoC4/cyfitter_cfg.c **** 			{0x9Au, 0x04u},
 806:Generated_Source\PSoC4/cyfitter_cfg.c **** 			{0xA4u, 0x07u},
 807:Generated_Source\PSoC4/cyfitter_cfg.c **** 			{0xA8u, 0x0Cu},
 808:Generated_Source\PSoC4/cyfitter_cfg.c **** 			{0xAAu, 0x01u},
 809:Generated_Source\PSoC4/cyfitter_cfg.c **** 			{0xABu, 0x01u},
 810:Generated_Source\PSoC4/cyfitter_cfg.c **** 			{0xACu, 0x08u},
 811:Generated_Source\PSoC4/cyfitter_cfg.c **** 			{0xADu, 0xA3u},
 812:Generated_Source\PSoC4/cyfitter_cfg.c **** 			{0xAEu, 0x01u},
 813:Generated_Source\PSoC4/cyfitter_cfg.c **** 			{0xAFu, 0x5Cu},
 814:Generated_Source\PSoC4/cyfitter_cfg.c **** 			{0xB5u, 0xFFu},
 815:Generated_Source\PSoC4/cyfitter_cfg.c **** 			{0xB6u, 0x0Fu},
 816:Generated_Source\PSoC4/cyfitter_cfg.c **** 			{0xBFu, 0x10u},
 817:Generated_Source\PSoC4/cyfitter_cfg.c **** 			{0xD8u, 0x04u},
 818:Generated_Source\PSoC4/cyfitter_cfg.c **** 			{0xD9u, 0x04u},
 819:Generated_Source\PSoC4/cyfitter_cfg.c **** 			{0xDCu, 0x01u},
 820:Generated_Source\PSoC4/cyfitter_cfg.c **** 			{0xDFu, 0x01u},
 821:Generated_Source\PSoC4/cyfitter_cfg.c **** 			{0x00u, 0x10u},
 822:Generated_Source\PSoC4/cyfitter_cfg.c **** 			{0x01u, 0x80u},
 823:Generated_Source\PSoC4/cyfitter_cfg.c **** 			{0x04u, 0x10u},
 824:Generated_Source\PSoC4/cyfitter_cfg.c **** 			{0x05u, 0x80u},
 825:Generated_Source\PSoC4/cyfitter_cfg.c **** 			{0x0Bu, 0x08u},
 826:Generated_Source\PSoC4/cyfitter_cfg.c **** 			{0x0Eu, 0x20u},
 827:Generated_Source\PSoC4/cyfitter_cfg.c **** 			{0x10u, 0x02u},
 828:Generated_Source\PSoC4/cyfitter_cfg.c **** 			{0x12u, 0x24u},
 829:Generated_Source\PSoC4/cyfitter_cfg.c **** 			{0x13u, 0x08u},
 830:Generated_Source\PSoC4/cyfitter_cfg.c **** 			{0x16u, 0x04u},
 831:Generated_Source\PSoC4/cyfitter_cfg.c **** 			{0x17u, 0x09u},
 832:Generated_Source\PSoC4/cyfitter_cfg.c **** 			{0x19u, 0x80u},
 833:Generated_Source\PSoC4/cyfitter_cfg.c **** 			{0x1Eu, 0x20u},
 834:Generated_Source\PSoC4/cyfitter_cfg.c **** 			{0x1Fu, 0x0Cu},
 835:Generated_Source\PSoC4/cyfitter_cfg.c **** 			{0x20u, 0x04u},
 836:Generated_Source\PSoC4/cyfitter_cfg.c **** 			{0x29u, 0xA0u},
 837:Generated_Source\PSoC4/cyfitter_cfg.c **** 			{0x30u, 0x02u},
 838:Generated_Source\PSoC4/cyfitter_cfg.c **** 			{0x32u, 0x20u},
 839:Generated_Source\PSoC4/cyfitter_cfg.c **** 			{0x33u, 0x0Bu},
 840:Generated_Source\PSoC4/cyfitter_cfg.c **** 			{0x38u, 0x10u},
 841:Generated_Source\PSoC4/cyfitter_cfg.c **** 			{0x39u, 0x08u},
 842:Generated_Source\PSoC4/cyfitter_cfg.c **** 			{0x3Au, 0x04u},
 843:Generated_Source\PSoC4/cyfitter_cfg.c **** 			{0x46u, 0x80u},
 844:Generated_Source\PSoC4/cyfitter_cfg.c **** 			{0x4Fu, 0x85u},
ARM GAS  C:\Users\austc\AppData\Local\Temp\ccORObfh.s 			page 24


 845:Generated_Source\PSoC4/cyfitter_cfg.c **** 			{0x56u, 0x22u},
 846:Generated_Source\PSoC4/cyfitter_cfg.c **** 			{0x57u, 0x60u},
 847:Generated_Source\PSoC4/cyfitter_cfg.c **** 			{0x5Fu, 0x85u},
 848:Generated_Source\PSoC4/cyfitter_cfg.c **** 			{0x67u, 0x80u},
 849:Generated_Source\PSoC4/cyfitter_cfg.c **** 			{0x87u, 0x40u},
 850:Generated_Source\PSoC4/cyfitter_cfg.c **** 			{0x90u, 0x10u},
 851:Generated_Source\PSoC4/cyfitter_cfg.c **** 			{0x91u, 0x08u},
 852:Generated_Source\PSoC4/cyfitter_cfg.c **** 			{0x94u, 0x04u},
 853:Generated_Source\PSoC4/cyfitter_cfg.c **** 			{0x97u, 0x08u},
 854:Generated_Source\PSoC4/cyfitter_cfg.c **** 			{0x99u, 0x20u},
 855:Generated_Source\PSoC4/cyfitter_cfg.c **** 			{0x9Au, 0x80u},
 856:Generated_Source\PSoC4/cyfitter_cfg.c **** 			{0x9Bu, 0x80u},
 857:Generated_Source\PSoC4/cyfitter_cfg.c **** 			{0x9Du, 0x80u},
 858:Generated_Source\PSoC4/cyfitter_cfg.c **** 			{0x9Eu, 0x22u},
 859:Generated_Source\PSoC4/cyfitter_cfg.c **** 			{0xA2u, 0x20u},
 860:Generated_Source\PSoC4/cyfitter_cfg.c **** 			{0xA3u, 0x02u},
 861:Generated_Source\PSoC4/cyfitter_cfg.c **** 			{0xA4u, 0x02u},
 862:Generated_Source\PSoC4/cyfitter_cfg.c **** 			{0xA7u, 0x28u},
 863:Generated_Source\PSoC4/cyfitter_cfg.c **** 			{0xABu, 0x40u},
 864:Generated_Source\PSoC4/cyfitter_cfg.c **** 			{0xC0u, 0xC3u},
 865:Generated_Source\PSoC4/cyfitter_cfg.c **** 			{0xC2u, 0x22u},
 866:Generated_Source\PSoC4/cyfitter_cfg.c **** 			{0xC4u, 0x77u},
 867:Generated_Source\PSoC4/cyfitter_cfg.c **** 			{0xCAu, 0x0Cu},
 868:Generated_Source\PSoC4/cyfitter_cfg.c **** 			{0xCCu, 0x07u},
 869:Generated_Source\PSoC4/cyfitter_cfg.c **** 			{0xCEu, 0x06u},
 870:Generated_Source\PSoC4/cyfitter_cfg.c **** 			{0xD0u, 0x80u},
 871:Generated_Source\PSoC4/cyfitter_cfg.c **** 			{0xD2u, 0x10u},
 872:Generated_Source\PSoC4/cyfitter_cfg.c **** 			{0xD6u, 0xD0u},
 873:Generated_Source\PSoC4/cyfitter_cfg.c **** 			{0xD8u, 0x80u},
 874:Generated_Source\PSoC4/cyfitter_cfg.c **** 			{0x02u, 0x08u},
 875:Generated_Source\PSoC4/cyfitter_cfg.c **** 			{0x05u, 0x40u},
 876:Generated_Source\PSoC4/cyfitter_cfg.c **** 			{0x6Bu, 0x02u},
 877:Generated_Source\PSoC4/cyfitter_cfg.c **** 			{0x6Fu, 0x02u},
 878:Generated_Source\PSoC4/cyfitter_cfg.c **** 			{0x85u, 0x40u},
 879:Generated_Source\PSoC4/cyfitter_cfg.c **** 			{0x8Au, 0x08u},
 880:Generated_Source\PSoC4/cyfitter_cfg.c **** 			{0xC0u, 0xC0u},
 881:Generated_Source\PSoC4/cyfitter_cfg.c **** 			{0xDAu, 0xC0u},
 882:Generated_Source\PSoC4/cyfitter_cfg.c **** 			{0xE4u, 0x10u},
 883:Generated_Source\PSoC4/cyfitter_cfg.c **** 			{0x9Fu, 0x02u},
 884:Generated_Source\PSoC4/cyfitter_cfg.c **** 			{0xA7u, 0x02u},
 885:Generated_Source\PSoC4/cyfitter_cfg.c **** 			{0x08u, 0x80u},
 886:Generated_Source\PSoC4/cyfitter_cfg.c **** 			{0x0Eu, 0x40u},
 887:Generated_Source\PSoC4/cyfitter_cfg.c **** 			{0x80u, 0x80u},
 888:Generated_Source\PSoC4/cyfitter_cfg.c **** 			{0x87u, 0x02u},
 889:Generated_Source\PSoC4/cyfitter_cfg.c **** 			{0x9Fu, 0x02u},
 890:Generated_Source\PSoC4/cyfitter_cfg.c **** 			{0xA7u, 0x02u},
 891:Generated_Source\PSoC4/cyfitter_cfg.c **** 			{0xC2u, 0x60u},
 892:Generated_Source\PSoC4/cyfitter_cfg.c **** 			{0xE4u, 0x80u},
 893:Generated_Source\PSoC4/cyfitter_cfg.c **** 			{0xE6u, 0x40u},
 894:Generated_Source\PSoC4/cyfitter_cfg.c **** 			{0x87u, 0x02u},
 895:Generated_Source\PSoC4/cyfitter_cfg.c **** 			{0xA7u, 0x02u},
 896:Generated_Source\PSoC4/cyfitter_cfg.c **** 			{0xAAu, 0x40u},
 897:Generated_Source\PSoC4/cyfitter_cfg.c **** 			{0xE2u, 0x10u},
 898:Generated_Source\PSoC4/cyfitter_cfg.c **** 			{0xE8u, 0x20u},
 899:Generated_Source\PSoC4/cyfitter_cfg.c **** 			{0x00u, 0x40u},
 900:Generated_Source\PSoC4/cyfitter_cfg.c **** 			{0x04u, 0x10u},
 901:Generated_Source\PSoC4/cyfitter_cfg.c **** 			{0x06u, 0x20u},
ARM GAS  C:\Users\austc\AppData\Local\Temp\ccORObfh.s 			page 25


 902:Generated_Source\PSoC4/cyfitter_cfg.c **** 			{0x80u, 0x40u},
 903:Generated_Source\PSoC4/cyfitter_cfg.c **** 			{0x8Au, 0x20u},
 904:Generated_Source\PSoC4/cyfitter_cfg.c **** 			{0xC0u, 0x07u},
 905:Generated_Source\PSoC4/cyfitter_cfg.c **** 			{0xE6u, 0x01u},
 906:Generated_Source\PSoC4/cyfitter_cfg.c **** 			{0xB4u, 0x10u},
 907:Generated_Source\PSoC4/cyfitter_cfg.c **** 			{0xEAu, 0x08u},
 908:Generated_Source\PSoC4/cyfitter_cfg.c **** 			{0x01u, 0x0Eu},
 909:Generated_Source\PSoC4/cyfitter_cfg.c **** 			{0x10u, 0x02u},
 910:Generated_Source\PSoC4/cyfitter_cfg.c **** 			{0x12u, 0x0Eu},
 911:Generated_Source\PSoC4/cyfitter_cfg.c **** 		};
 912:Generated_Source\PSoC4/cyfitter_cfg.c **** 
 913:Generated_Source\PSoC4/cyfitter_cfg.c **** 
 914:Generated_Source\PSoC4/cyfitter_cfg.c **** 
 915:Generated_Source\PSoC4/cyfitter_cfg.c **** 		CYPACKED typedef struct {
 916:Generated_Source\PSoC4/cyfitter_cfg.c **** 			void CYFAR *address;
 917:Generated_Source\PSoC4/cyfitter_cfg.c **** 			uint16 size;
 918:Generated_Source\PSoC4/cyfitter_cfg.c **** 		} CYPACKED_ATTR cfg_memset_t;
 919:Generated_Source\PSoC4/cyfitter_cfg.c **** 
 920:Generated_Source\PSoC4/cyfitter_cfg.c **** 		static const cfg_memset_t CYCODE cfg_memset_list[] = {
 921:Generated_Source\PSoC4/cyfitter_cfg.c **** 			/* address, size */
 922:Generated_Source\PSoC4/cyfitter_cfg.c **** 			{(void CYFAR *)(CYDEV_UDB_P0_U0_BASE), 2048u},
 923:Generated_Source\PSoC4/cyfitter_cfg.c **** 			{(void CYFAR *)(CYDEV_UDB_DSI0_BASE), 2048u},
 924:Generated_Source\PSoC4/cyfitter_cfg.c **** 		};
 925:Generated_Source\PSoC4/cyfitter_cfg.c **** 
 926:Generated_Source\PSoC4/cyfitter_cfg.c **** 		uint8 CYDATA i;
 927:Generated_Source\PSoC4/cyfitter_cfg.c **** 
 928:Generated_Source\PSoC4/cyfitter_cfg.c **** 		/* Zero out critical memory blocks before beginning configuration */
 929:Generated_Source\PSoC4/cyfitter_cfg.c **** 		for (i = 0u; i < (sizeof(cfg_memset_list)/sizeof(cfg_memset_list[0])); i++)
 451              		.loc 1 929 0
 452 014a 0024     		movs	r4, #0
 453 014c 0FE0     		b	.L19
 454              	.LVL25:
 455              	.L20:
 456              	.LBB4:
 930:Generated_Source\PSoC4/cyfitter_cfg.c **** 		{
 931:Generated_Source\PSoC4/cyfitter_cfg.c **** 			const cfg_memset_t CYCODE * CYDATA ms = &cfg_memset_list[i];
 932:Generated_Source\PSoC4/cyfitter_cfg.c **** 			CYMEMZERO(ms->address, (size_t)(uint32)(ms->size));
 457              		.loc 1 932 0 discriminator 3
 458 014e 4348     		ldr	r0, .L21+4
 459 0150 6200     		lsls	r2, r4, #1
 460 0152 1319     		adds	r3, r2, r4
 461 0154 5900     		lsls	r1, r3, #1
 462 0156 0B00     		movs	r3, r1
 463 0158 4118     		adds	r1, r0, r1
 464 015a 8988     		ldrh	r1, [r1, #4]
 465 015c 1A5A     		ldrh	r2, [r3, r0]
 466 015e C318     		adds	r3, r0, r3
 467 0160 5888     		ldrh	r0, [r3, #2]
 468 0162 0004     		lsls	r0, r0, #16
 469 0164 1043     		orrs	r0, r2
 470 0166 FFF7FEFF 		bl	CYMEMZERO
 471              	.LVL26:
 472              	.LBE4:
 929:Generated_Source\PSoC4/cyfitter_cfg.c **** 		{
 473              		.loc 1 929 0 discriminator 3
 474 016a 0134     		adds	r4, r4, #1
 475              	.LVL27:
ARM GAS  C:\Users\austc\AppData\Local\Temp\ccORObfh.s 			page 26


 476 016c E4B2     		uxtb	r4, r4
 477              	.LVL28:
 478              	.L19:
 929:Generated_Source\PSoC4/cyfitter_cfg.c **** 		{
 479              		.loc 1 929 0 is_stmt 0 discriminator 1
 480 016e 012C     		cmp	r4, #1
 481 0170 EDD9     		bls	.L20
 933:Generated_Source\PSoC4/cyfitter_cfg.c **** 		}
 934:Generated_Source\PSoC4/cyfitter_cfg.c **** 
 935:Generated_Source\PSoC4/cyfitter_cfg.c **** 		cfg_write_bytes32(cy_cfg_addr_table, cy_cfg_data_table);
 482              		.loc 1 935 0 is_stmt 1
 483 0172 3A49     		ldr	r1, .L21+4
 484 0174 0C31     		adds	r1, r1, #12
 485 0176 3A48     		ldr	r0, .L21+8
 486 0178 2430     		adds	r0, r0, #36
 487 017a FFF7FEFF 		bl	cfg_write_bytes32
 488              	.LVL29:
 936:Generated_Source\PSoC4/cyfitter_cfg.c **** 
 937:Generated_Source\PSoC4/cyfitter_cfg.c **** 		/* HSIOM Starting address: CYDEV_HSIOM_BASE */
 938:Generated_Source\PSoC4/cyfitter_cfg.c **** 		CY_SET_REG32((void *)(CYDEV_HSIOM_BASE), 0x080000AAu);
 489              		.loc 1 938 0
 490 017e 394A     		ldr	r2, .L21+12
 491 0180 394B     		ldr	r3, .L21+16
 492 0182 1A60     		str	r2, [r3]
 939:Generated_Source\PSoC4/cyfitter_cfg.c **** 		CY_SET_REG32((void *)(CYREG_HSIOM_PORT_SEL3), 0x0000EE00u);
 493              		.loc 1 939 0
 494 0184 EE22     		movs	r2, #238
 495 0186 1202     		lsls	r2, r2, #8
 496 0188 384B     		ldr	r3, .L21+20
 497 018a 1A60     		str	r2, [r3]
 940:Generated_Source\PSoC4/cyfitter_cfg.c **** 		CY_SET_REG32((void *)(CYREG_HSIOM_PORT_SEL5), 0x00000008u);
 498              		.loc 1 940 0
 499 018c 0823     		movs	r3, #8
 500 018e 384A     		ldr	r2, .L21+24
 501 0190 1360     		str	r3, [r2]
 941:Generated_Source\PSoC4/cyfitter_cfg.c **** 		CY_SET_REG32((void *)(CYREG_HSIOM_PORT_SEL6), 0x00EE0099u);
 502              		.loc 1 941 0
 503 0192 3849     		ldr	r1, .L21+28
 504 0194 384A     		ldr	r2, .L21+32
 505 0196 1160     		str	r1, [r2]
 942:Generated_Source\PSoC4/cyfitter_cfg.c **** 		CY_SET_REG32((void *)(CYREG_HSIOM_PORT_SEL7), 0x00000008u);
 506              		.loc 1 942 0
 507 0198 384A     		ldr	r2, .L21+36
 508 019a 1360     		str	r3, [r2]
 943:Generated_Source\PSoC4/cyfitter_cfg.c **** 
 944:Generated_Source\PSoC4/cyfitter_cfg.c **** 		/* UDB_PA_0 Starting address: CYDEV_UDB_PA0_BASE */
 945:Generated_Source\PSoC4/cyfitter_cfg.c **** 		CY_SET_REG32((void *)(CYDEV_UDB_PA0_BASE), 0x00990000u);
 509              		.loc 1 945 0
 510 019c 9923     		movs	r3, #153
 511 019e 1B04     		lsls	r3, r3, #16
 512 01a0 374A     		ldr	r2, .L21+40
 513 01a2 1360     		str	r3, [r2]
 946:Generated_Source\PSoC4/cyfitter_cfg.c **** 
 947:Generated_Source\PSoC4/cyfitter_cfg.c **** 		/* UDB_PA_1 Starting address: CYDEV_UDB_PA1_BASE */
 948:Generated_Source\PSoC4/cyfitter_cfg.c **** 		CY_SET_REG32((void *)(CYDEV_UDB_PA1_BASE), 0x00990000u);
 514              		.loc 1 948 0
 515 01a4 374A     		ldr	r2, .L21+44
ARM GAS  C:\Users\austc\AppData\Local\Temp\ccORObfh.s 			page 27


 516 01a6 1360     		str	r3, [r2]
 949:Generated_Source\PSoC4/cyfitter_cfg.c **** 
 950:Generated_Source\PSoC4/cyfitter_cfg.c **** 		/* UDB_PA_2 Starting address: CYDEV_UDB_PA2_BASE */
 951:Generated_Source\PSoC4/cyfitter_cfg.c **** 		CY_SET_REG32((void *)(CYDEV_UDB_PA2_BASE), 0x00990000u);
 517              		.loc 1 951 0
 518 01a8 374A     		ldr	r2, .L21+48
 519 01aa 1360     		str	r3, [r2]
 952:Generated_Source\PSoC4/cyfitter_cfg.c **** 
 953:Generated_Source\PSoC4/cyfitter_cfg.c **** 		/* UDB_PA_4 Starting address: CYDEV_UDB_PA4_BASE */
 954:Generated_Source\PSoC4/cyfitter_cfg.c **** 		CY_SET_REG32((void *)(CYDEV_UDB_PA4_BASE), 0x00990000u);
 520              		.loc 1 954 0
 521 01ac 374A     		ldr	r2, .L21+52
 522 01ae 1360     		str	r3, [r2]
 955:Generated_Source\PSoC4/cyfitter_cfg.c **** 
 956:Generated_Source\PSoC4/cyfitter_cfg.c **** 		/* UDB_PA_5 Starting address: CYDEV_UDB_PA5_BASE */
 957:Generated_Source\PSoC4/cyfitter_cfg.c **** 		CY_SET_REG32((void *)(CYDEV_UDB_PA5_BASE), 0x00990000u);
 523              		.loc 1 957 0
 524 01b0 374A     		ldr	r2, .L21+56
 525 01b2 1360     		str	r3, [r2]
 958:Generated_Source\PSoC4/cyfitter_cfg.c **** 
 959:Generated_Source\PSoC4/cyfitter_cfg.c **** 		/* UDB_PA_7 Starting address: CYDEV_UDB_PA7_BASE */
 960:Generated_Source\PSoC4/cyfitter_cfg.c **** 		CY_SET_REG32((void *)(CYDEV_UDB_PA7_BASE), 0x00990000u);
 526              		.loc 1 960 0
 527 01b4 374A     		ldr	r2, .L21+60
 528 01b6 1360     		str	r3, [r2]
 961:Generated_Source\PSoC4/cyfitter_cfg.c **** 
 962:Generated_Source\PSoC4/cyfitter_cfg.c **** 		/* UDB_P2_U0_CFG24 Starting address: CYDEV_UDB_P2_U0_CFG24 */
 963:Generated_Source\PSoC4/cyfitter_cfg.c **** 		CY_SET_REG32((void *)(CYREG_UDB_P2_U0_CFG24), 0x84040404u);
 529              		.loc 1 963 0
 530 01b8 374A     		ldr	r2, .L21+64
 531 01ba 384B     		ldr	r3, .L21+68
 532 01bc 1A60     		str	r2, [r3]
 964:Generated_Source\PSoC4/cyfitter_cfg.c **** 
 965:Generated_Source\PSoC4/cyfitter_cfg.c **** 		/* INT_SELECT Starting address: CYDEV_CPUSS_INT_SEL */
 966:Generated_Source\PSoC4/cyfitter_cfg.c **** 		CY_SET_REG32((void *)(CYREG_CPUSS_INT_SEL), 0x00000003u);
 533              		.loc 1 966 0
 534 01be 0321     		movs	r1, #3
 535 01c0 374B     		ldr	r3, .L21+72
 536 01c2 1960     		str	r1, [r3]
 967:Generated_Source\PSoC4/cyfitter_cfg.c **** 
 968:Generated_Source\PSoC4/cyfitter_cfg.c **** 		/* INT_CONFIG Starting address: CYDEV_UDB_INT_CFG */
 969:Generated_Source\PSoC4/cyfitter_cfg.c **** 		CY_SET_REG32((void *)(CYREG_UDB_INT_CFG), 0x00000003u);
 537              		.loc 1 969 0
 538 01c4 374B     		ldr	r3, .L21+76
 539 01c6 1960     		str	r1, [r3]
 970:Generated_Source\PSoC4/cyfitter_cfg.c **** 
 971:Generated_Source\PSoC4/cyfitter_cfg.c **** 		/* Enable UDB array and digital routing */
 972:Generated_Source\PSoC4/cyfitter_cfg.c **** 		CY_SET_XTND_REG8((void *)CYREG_UDB_UDB_WAIT_CFG, (uint8)((CY_GET_XTND_REG8((void *)CYREG_UDB_UDB_
 540              		.loc 1 972 0
 541 01c8 3748     		ldr	r0, .L21+80
 542 01ca 0378     		ldrb	r3, [r0]
 543 01cc 3C22     		movs	r2, #60
 544 01ce 9343     		bics	r3, r2
 545 01d0 1422     		movs	r2, #20
 546 01d2 1343     		orrs	r3, r2
 547 01d4 DBB2     		uxtb	r3, r3
 548 01d6 0370     		strb	r3, [r0]
ARM GAS  C:\Users\austc\AppData\Local\Temp\ccORObfh.s 			page 28


 973:Generated_Source\PSoC4/cyfitter_cfg.c **** 		CY_SET_XTND_REG8((void *)CYREG_UDB_UDB_BANK_CTL, (uint8)(CY_GET_XTND_REG8((void *)CYREG_UDB_UDB_B
 549              		.loc 1 973 0
 550 01d8 344A     		ldr	r2, .L21+84
 551 01da 1078     		ldrb	r0, [r2]
 552 01dc 1623     		movs	r3, #22
 553 01de 0343     		orrs	r3, r0
 554 01e0 DBB2     		uxtb	r3, r3
 555 01e2 1370     		strb	r3, [r2]
 556              	.LBE3:
 974:Generated_Source\PSoC4/cyfitter_cfg.c **** 	}
 975:Generated_Source\PSoC4/cyfitter_cfg.c **** 
 976:Generated_Source\PSoC4/cyfitter_cfg.c **** 	/* Perform second pass device configuration. These items must be configured in specific order afte
 977:Generated_Source\PSoC4/cyfitter_cfg.c **** 	/* IOPINS0_0 Starting address: CYDEV_GPIO_PRT0_BASE */
 978:Generated_Source\PSoC4/cyfitter_cfg.c **** 	CY_SET_REG32((void *)(CYDEV_GPIO_PRT0_BASE), 0x00000002u);
 557              		.loc 1 978 0
 558 01e4 0222     		movs	r2, #2
 559 01e6 324B     		ldr	r3, .L21+88
 560 01e8 1A60     		str	r2, [r3]
 979:Generated_Source\PSoC4/cyfitter_cfg.c **** 	CY_SET_REG32((void *)(CYREG_GPIO_PRT0_PC), 0x00040031u);
 561              		.loc 1 979 0
 562 01ea 3248     		ldr	r0, .L21+92
 563 01ec 324B     		ldr	r3, .L21+96
 564 01ee 1860     		str	r0, [r3]
 980:Generated_Source\PSoC4/cyfitter_cfg.c **** 
 981:Generated_Source\PSoC4/cyfitter_cfg.c **** 	/* IOPINS0_1 Starting address: CYDEV_GPIO_PRT1_BASE */
 982:Generated_Source\PSoC4/cyfitter_cfg.c **** 	CY_SET_REG32((void *)(CYDEV_GPIO_PRT1_BASE), 0x00000074u);
 565              		.loc 1 982 0
 566 01f0 7420     		movs	r0, #116
 567 01f2 324B     		ldr	r3, .L21+100
 568 01f4 1860     		str	r0, [r3]
 983:Generated_Source\PSoC4/cyfitter_cfg.c **** 	CY_SET_REG32((void *)(CYREG_GPIO_PRT1_PC), 0x00012000u);
 569              		.loc 1 983 0
 570 01f6 9020     		movs	r0, #144
 571 01f8 4002     		lsls	r0, r0, #9
 572 01fa 314B     		ldr	r3, .L21+104
 573 01fc 1860     		str	r0, [r3]
 984:Generated_Source\PSoC4/cyfitter_cfg.c **** 	CY_SET_REG32((void *)(CYREG_GPIO_PRT1_PC2), 0x000000C4u);
 574              		.loc 1 984 0
 575 01fe C420     		movs	r0, #196
 576 0200 304B     		ldr	r3, .L21+108
 577 0202 1860     		str	r0, [r3]
 985:Generated_Source\PSoC4/cyfitter_cfg.c **** 
 986:Generated_Source\PSoC4/cyfitter_cfg.c **** 	/* IOPINS0_2 Starting address: CYDEV_GPIO_PRT2_BASE */
 987:Generated_Source\PSoC4/cyfitter_cfg.c **** 	CY_SET_REG32((void *)(CYDEV_GPIO_PRT2_BASE), 0x000000FFu);
 578              		.loc 1 987 0
 579 0204 3B30     		adds	r0, r0, #59
 580 0206 304B     		ldr	r3, .L21+112
 581 0208 1860     		str	r0, [r3]
 988:Generated_Source\PSoC4/cyfitter_cfg.c **** 	CY_SET_REG32((void *)(CYREG_GPIO_PRT2_PC), 0x00092490u);
 582              		.loc 1 988 0
 583 020a 3048     		ldr	r0, .L21+116
 584 020c 304B     		ldr	r3, .L21+120
 585 020e 1860     		str	r0, [r3]
 989:Generated_Source\PSoC4/cyfitter_cfg.c **** 	CY_SET_REG32((void *)(CYREG_GPIO_PRT2_PC2), 0x00000081u);
 586              		.loc 1 989 0
 587 0210 8120     		movs	r0, #129
 588 0212 304B     		ldr	r3, .L21+124
ARM GAS  C:\Users\austc\AppData\Local\Temp\ccORObfh.s 			page 29


 589 0214 1860     		str	r0, [r3]
 990:Generated_Source\PSoC4/cyfitter_cfg.c **** 
 991:Generated_Source\PSoC4/cyfitter_cfg.c **** 	/* IOPINS0_3 Starting address: CYDEV_GPIO_PRT3_BASE */
 992:Generated_Source\PSoC4/cyfitter_cfg.c **** 	CY_SET_REG32((void *)(CYREG_GPIO_PRT3_PC), 0x00000D80u);
 590              		.loc 1 992 0
 591 0216 D820     		movs	r0, #216
 592 0218 0001     		lsls	r0, r0, #4
 593 021a 2F4B     		ldr	r3, .L21+128
 594 021c 1860     		str	r0, [r3]
 993:Generated_Source\PSoC4/cyfitter_cfg.c **** 
 994:Generated_Source\PSoC4/cyfitter_cfg.c **** 	/* IOPINS0_4 Starting address: CYDEV_GPIO_PRT4_BASE */
 995:Generated_Source\PSoC4/cyfitter_cfg.c **** 	CY_SET_REG32((void *)(CYDEV_GPIO_PRT4_BASE), 0x0000006Eu);
 595              		.loc 1 995 0
 596 021e 6E20     		movs	r0, #110
 597 0220 2E4B     		ldr	r3, .L21+132
 598 0222 1860     		str	r0, [r3]
 996:Generated_Source\PSoC4/cyfitter_cfg.c **** 	CY_SET_REG32((void *)(CYREG_GPIO_PRT4_PC), 0x00090490u);
 599              		.loc 1 996 0
 600 0224 2E48     		ldr	r0, .L21+136
 601 0226 2F4B     		ldr	r3, .L21+140
 602 0228 1860     		str	r0, [r3]
 997:Generated_Source\PSoC4/cyfitter_cfg.c **** 
 998:Generated_Source\PSoC4/cyfitter_cfg.c **** 	/* IOPINS0_5 Starting address: CYDEV_GPIO_PRT5_BASE */
 999:Generated_Source\PSoC4/cyfitter_cfg.c **** 	CY_SET_REG32((void *)(CYDEV_GPIO_PRT5_BASE), 0x00000003u);
 603              		.loc 1 999 0
 604 022a 2F4B     		ldr	r3, .L21+144
 605 022c 1960     		str	r1, [r3]
1000:Generated_Source\PSoC4/cyfitter_cfg.c **** 	CY_SET_REG32((void *)(CYREG_GPIO_PRT5_PC), 0x00000256u);
 606              		.loc 1 1000 0
 607 022e 2F49     		ldr	r1, .L21+148
 608 0230 2F4B     		ldr	r3, .L21+152
 609 0232 1960     		str	r1, [r3]
1001:Generated_Source\PSoC4/cyfitter_cfg.c **** 
1002:Generated_Source\PSoC4/cyfitter_cfg.c **** 	/* IOPINS0_6 Starting address: CYDEV_GPIO_PRT6_BASE */
1003:Generated_Source\PSoC4/cyfitter_cfg.c **** 	CY_SET_REG32((void *)(CYDEV_GPIO_PRT6_BASE), 0x00000036u);
 610              		.loc 1 1003 0
 611 0234 3623     		movs	r3, #54
 612 0236 2F49     		ldr	r1, .L21+156
 613 0238 0B60     		str	r3, [r1]
1004:Generated_Source\PSoC4/cyfitter_cfg.c **** 	CY_SET_REG32((void *)(CYREG_GPIO_PRT6_PC), 0x000240B1u);
 614              		.loc 1 1004 0
 615 023a 2F48     		ldr	r0, .L21+160
 616 023c 2F49     		ldr	r1, .L21+164
 617 023e 0860     		str	r0, [r1]
1005:Generated_Source\PSoC4/cyfitter_cfg.c **** 	CY_SET_REG32((void *)(CYREG_GPIO_PRT6_PC2), 0x00000002u);
 618              		.loc 1 1005 0
 619 0240 2F49     		ldr	r1, .L21+168
 620 0242 0A60     		str	r2, [r1]
1006:Generated_Source\PSoC4/cyfitter_cfg.c **** 
1007:Generated_Source\PSoC4/cyfitter_cfg.c **** 	/* IOPINS0_7 Starting address: CYDEV_GPIO_PRT7_BASE */
1008:Generated_Source\PSoC4/cyfitter_cfg.c **** 	CY_SET_REG32((void *)(CYDEV_GPIO_PRT7_BASE), 0x00000001u);
 621              		.loc 1 1008 0
 622 0244 0121     		movs	r1, #1
 623 0246 2F4A     		ldr	r2, .L21+172
 624 0248 1160     		str	r1, [r2]
1009:Generated_Source\PSoC4/cyfitter_cfg.c **** 	CY_SET_REG32((void *)(CYREG_GPIO_PRT7_PC), 0x00000036u);
 625              		.loc 1 1009 0
ARM GAS  C:\Users\austc\AppData\Local\Temp\ccORObfh.s 			page 30


 626 024a 2F4A     		ldr	r2, .L21+176
 627 024c 1360     		str	r3, [r2]
1010:Generated_Source\PSoC4/cyfitter_cfg.c **** 
1011:Generated_Source\PSoC4/cyfitter_cfg.c **** 
1012:Generated_Source\PSoC4/cyfitter_cfg.c **** 	/* Setup clocks based on selections from Clock DWR */
1013:Generated_Source\PSoC4/cyfitter_cfg.c **** 	ClockSetup();
 628              		.loc 1 1013 0
 629 024e FFF7D7FE 		bl	ClockSetup
 630              	.LVL30:
1014:Generated_Source\PSoC4/cyfitter_cfg.c **** 
1015:Generated_Source\PSoC4/cyfitter_cfg.c **** 	/* Perform basic analog initialization to defaults */
1016:Generated_Source\PSoC4/cyfitter_cfg.c **** 	AnalogSetDefault();
 631              		.loc 1 1016 0
 632 0252 FFF7FEFF 		bl	AnalogSetDefault
 633              	.LVL31:
1017:Generated_Source\PSoC4/cyfitter_cfg.c **** 
1018:Generated_Source\PSoC4/cyfitter_cfg.c **** }
 634              		.loc 1 1018 0
 635              		@ sp needed
 636              	.LVL32:
 637 0256 10BD     		pop	{r4, pc}
 638              	.L22:
 639              		.align	2
 640              	.L21:
 641 0258 1C700F40 		.word	1074753564
 642 025c 00000000 		.word	.LANCHOR0
 643 0260 00040000 		.word	.LANCHOR1
 644 0264 AA000008 		.word	134217898
 645 0268 00000240 		.word	1073872896
 646 026c 00030240 		.word	1073873664
 647 0270 00050240 		.word	1073874176
 648 0274 9900EE00 		.word	15597721
 649 0278 00060240 		.word	1073874432
 650 027c 00070240 		.word	1073874688
 651 0280 00500F40 		.word	1074745344
 652 0284 10500F40 		.word	1074745360
 653 0288 20500F40 		.word	1074745376
 654 028c 40500F40 		.word	1074745408
 655 0290 50500F40 		.word	1074745424
 656 0294 70500F40 		.word	1074745456
 657 0298 04040484 		.word	-2080111612
 658 029c 58340F40 		.word	1074738264
 659 02a0 20001040 		.word	1074790432
 660 02a4 00800F40 		.word	1074757632
 661 02a8 01700F40 		.word	1074753537
 662 02ac 00700F40 		.word	1074753536
 663 02b0 00000440 		.word	1074003968
 664 02b4 31000400 		.word	262193
 665 02b8 08000440 		.word	1074003976
 666 02bc 00010440 		.word	1074004224
 667 02c0 08010440 		.word	1074004232
 668 02c4 18010440 		.word	1074004248
 669 02c8 00020440 		.word	1074004480
 670 02cc 90240900 		.word	599184
 671 02d0 08020440 		.word	1074004488
 672 02d4 18020440 		.word	1074004504
 673 02d8 08030440 		.word	1074004744
ARM GAS  C:\Users\austc\AppData\Local\Temp\ccORObfh.s 			page 31


 674 02dc 00040440 		.word	1074004992
 675 02e0 90040900 		.word	590992
 676 02e4 08040440 		.word	1074005000
 677 02e8 00050440 		.word	1074005248
 678 02ec 56020000 		.word	598
 679 02f0 08050440 		.word	1074005256
 680 02f4 00060440 		.word	1074005504
 681 02f8 B1400200 		.word	147633
 682 02fc 08060440 		.word	1074005512
 683 0300 18060440 		.word	1074005528
 684 0304 00070440 		.word	1074005760
 685 0308 08070440 		.word	1074005768
 686              		.cfi_endproc
 687              	.LFE41:
 688              		.size	cyfitter_cfg, .-cyfitter_cfg
 689              		.section	.rodata
 690              		.align	2
 691              		.set	.LANCHOR0,. + 0
 692              		.set	.LANCHOR1,. + 1024
 693              		.type	cfg_memset_list.7121, %object
 694              		.size	cfg_memset_list.7121, 12
 695              	cfg_memset_list.7121:
 696 0000 00300F40 		.word	1074737152
 697 0004 0008     		.short	2048
 698 0006 00400F40 		.4byte	1074741248
 699 000a 0008     		.short	2048
 700              		.type	cy_cfg_data_table.7116, %object
 701              		.size	cy_cfg_data_table.7116, 1048
 702              	cy_cfg_data_table.7116:
 703 000c 80       		.byte	-128
 704 000d 0F       		.byte	15
 705 000e 84       		.byte	-124
 706 000f 6F       		.byte	111
 707 0010 85       		.byte	-123
 708 0011 03       		.byte	3
 709 0012 86       		.byte	-122
 710 0013 0D       		.byte	13
 711 0014 02       		.byte	2
 712 0015 02       		.byte	2
 713 0016 04       		.byte	4
 714 0017 02       		.byte	2
 715 0018 05       		.byte	5
 716 0019 10       		.byte	16
 717 001a 09       		.byte	9
 718 001b 0C       		.byte	12
 719 001c 0B       		.byte	11
 720 001d 02       		.byte	2
 721 001e 0D       		.byte	13
 722 001f 0C       		.byte	12
 723 0020 0F       		.byte	15
 724 0021 01       		.byte	1
 725 0022 13       		.byte	19
 726 0023 0F       		.byte	15
 727 0024 15       		.byte	21
 728 0025 07       		.byte	7
 729 0026 19       		.byte	25
 730 0027 10       		.byte	16
ARM GAS  C:\Users\austc\AppData\Local\Temp\ccORObfh.s 			page 32


 731 0028 1A       		.byte	26
 732 0029 02       		.byte	2
 733 002a 22       		.byte	34
 734 002b 01       		.byte	1
 735 002c 23       		.byte	35
 736 002d 10       		.byte	16
 737 002e 25       		.byte	37
 738 002f 08       		.byte	8
 739 0030 27       		.byte	39
 740 0031 01       		.byte	1
 741 0032 29       		.byte	41
 742 0033 0B       		.byte	11
 743 0034 2B       		.byte	43
 744 0035 04       		.byte	4
 745 0036 30       		.byte	48
 746 0037 02       		.byte	2
 747 0038 33       		.byte	51
 748 0039 0F       		.byte	15
 749 003a 34       		.byte	52
 750 003b 01       		.byte	1
 751 003c 35       		.byte	53
 752 003d 10       		.byte	16
 753 003e 3E       		.byte	62
 754 003f 01       		.byte	1
 755 0040 3F       		.byte	63
 756 0041 10       		.byte	16
 757 0042 54       		.byte	84
 758 0043 0F       		.byte	15
 759 0044 58       		.byte	88
 760 0045 04       		.byte	4
 761 0046 59       		.byte	89
 762 0047 04       		.byte	4
 763 0048 5B       		.byte	91
 764 0049 04       		.byte	4
 765 004a 5C       		.byte	92
 766 004b 11       		.byte	17
 767 004c 5D       		.byte	93
 768 004d 10       		.byte	16
 769 004e 5F       		.byte	95
 770 004f 01       		.byte	1
 771 0050 88       		.byte	-120
 772 0051 07       		.byte	7
 773 0052 89       		.byte	-119
 774 0053 9E       		.byte	-98
 775 0054 8B       		.byte	-117
 776 0055 60       		.byte	96
 777 0056 8D       		.byte	-115
 778 0057 30       		.byte	48
 779 0058 8E       		.byte	-114
 780 0059 04       		.byte	4
 781 005a 8F       		.byte	-113
 782 005b C9       		.byte	-55
 783 005c 90       		.byte	-112
 784 005d 04       		.byte	4
 785 005e 94       		.byte	-108
 786 005f 01       		.byte	1
 787 0060 95       		.byte	-107
ARM GAS  C:\Users\austc\AppData\Local\Temp\ccORObfh.s 			page 33


 788 0061 73       		.byte	115
 789 0062 96       		.byte	-106
 790 0063 02       		.byte	2
 791 0064 99       		.byte	-103
 792 0065 94       		.byte	-108
 793 0066 9A       		.byte	-102
 794 0067 07       		.byte	7
 795 0068 9B       		.byte	-101
 796 0069 60       		.byte	96
 797 006a 9E       		.byte	-98
 798 006b 20       		.byte	32
 799 006c A2       		.byte	-94
 800 006d 10       		.byte	16
 801 006e A4       		.byte	-92
 802 006f 01       		.byte	1
 803 0070 A6       		.byte	-90
 804 0071 02       		.byte	2
 805 0072 A7       		.byte	-89
 806 0073 0F       		.byte	15
 807 0074 A8       		.byte	-88
 808 0075 07       		.byte	7
 809 0076 A9       		.byte	-87
 810 0077 FD       		.byte	-3
 811 0078 AB       		.byte	-85
 812 0079 02       		.byte	2
 813 007a AD       		.byte	-83
 814 007b CF       		.byte	-49
 815 007c AE       		.byte	-82
 816 007d 08       		.byte	8
 817 007e AF       		.byte	-81
 818 007f 30       		.byte	48
 819 0080 B0       		.byte	-80
 820 0081 10       		.byte	16
 821 0082 B1       		.byte	-79
 822 0083 FF       		.byte	-1
 823 0084 B2       		.byte	-78
 824 0085 20       		.byte	32
 825 0086 B4       		.byte	-76
 826 0087 0F       		.byte	15
 827 0088 BF       		.byte	-65
 828 0089 01       		.byte	1
 829 008a D8       		.byte	-40
 830 008b 04       		.byte	4
 831 008c D9       		.byte	-39
 832 008d 04       		.byte	4
 833 008e DC       		.byte	-36
 834 008f 01       		.byte	1
 835 0090 DF       		.byte	-33
 836 0091 01       		.byte	1
 837 0092 00       		.byte	0
 838 0093 04       		.byte	4
 839 0094 01       		.byte	1
 840 0095 02       		.byte	2
 841 0096 05       		.byte	5
 842 0097 80       		.byte	-128
 843 0098 07       		.byte	7
 844 0099 04       		.byte	4
ARM GAS  C:\Users\austc\AppData\Local\Temp\ccORObfh.s 			page 34


 845 009a 09       		.byte	9
 846 009b 20       		.byte	32
 847 009c 0D       		.byte	13
 848 009d 20       		.byte	32
 849 009e 0E       		.byte	14
 850 009f 41       		.byte	65
 851 00a0 0F       		.byte	15
 852 00a1 10       		.byte	16
 853 00a2 10       		.byte	16
 854 00a3 80       		.byte	-128
 855 00a4 14       		.byte	20
 856 00a5 60       		.byte	96
 857 00a6 15       		.byte	21
 858 00a7 10       		.byte	16
 859 00a8 17       		.byte	23
 860 00a9 40       		.byte	64
 861 00aa 18       		.byte	24
 862 00ab 04       		.byte	4
 863 00ac 1A       		.byte	26
 864 00ad 80       		.byte	-128
 865 00ae 1C       		.byte	28
 866 00af 10       		.byte	16
 867 00b0 1D       		.byte	29
 868 00b1 20       		.byte	32
 869 00b2 1E       		.byte	30
 870 00b3 60       		.byte	96
 871 00b4 1F       		.byte	31
 872 00b5 22       		.byte	34
 873 00b6 21       		.byte	33
 874 00b7 04       		.byte	4
 875 00b8 22       		.byte	34
 876 00b9 10       		.byte	16
 877 00ba 23       		.byte	35
 878 00bb 10       		.byte	16
 879 00bc 27       		.byte	39
 880 00bd 40       		.byte	64
 881 00be 28       		.byte	40
 882 00bf 20       		.byte	32
 883 00c0 29       		.byte	41
 884 00c1 02       		.byte	2
 885 00c2 2B       		.byte	43
 886 00c3 08       		.byte	8
 887 00c4 2D       		.byte	45
 888 00c5 D0       		.byte	-48
 889 00c6 2F       		.byte	47
 890 00c7 28       		.byte	40
 891 00c8 31       		.byte	49
 892 00c9 20       		.byte	32
 893 00ca 33       		.byte	51
 894 00cb 06       		.byte	6
 895 00cc 34       		.byte	52
 896 00cd 20       		.byte	32
 897 00ce 36       		.byte	54
 898 00cf 10       		.byte	16
 899 00d0 37       		.byte	55
 900 00d1 04       		.byte	4
 901 00d2 38       		.byte	56
ARM GAS  C:\Users\austc\AppData\Local\Temp\ccORObfh.s 			page 35


 902 00d3 04       		.byte	4
 903 00d4 39       		.byte	57
 904 00d5 40       		.byte	64
 905 00d6 3B       		.byte	59
 906 00d7 10       		.byte	16
 907 00d8 3E       		.byte	62
 908 00d9 40       		.byte	64
 909 00da 3F       		.byte	63
 910 00db 10       		.byte	16
 911 00dc 58       		.byte	88
 912 00dd 02       		.byte	2
 913 00de 5A       		.byte	90
 914 00df A0       		.byte	-96
 915 00e0 5B       		.byte	91
 916 00e1 04       		.byte	4
 917 00e2 80       		.byte	-128
 918 00e3 02       		.byte	2
 919 00e4 83       		.byte	-125
 920 00e5 08       		.byte	8
 921 00e6 84       		.byte	-124
 922 00e7 40       		.byte	64
 923 00e8 8A       		.byte	-118
 924 00e9 01       		.byte	1
 925 00ea C0       		.byte	-64
 926 00eb CC       		.byte	-52
 927 00ec C2       		.byte	-62
 928 00ed F2       		.byte	-14
 929 00ee C4       		.byte	-60
 930 00ef F8       		.byte	-8
 931 00f0 CA       		.byte	-54
 932 00f1 77       		.byte	119
 933 00f2 CC       		.byte	-52
 934 00f3 67       		.byte	103
 935 00f4 CE       		.byte	-50
 936 00f5 3E       		.byte	62
 937 00f6 D6       		.byte	-42
 938 00f7 0F       		.byte	15
 939 00f8 E4       		.byte	-28
 940 00f9 80       		.byte	-128
 941 00fa 09       		.byte	9
 942 00fb 0C       		.byte	12
 943 00fc 0F       		.byte	15
 944 00fd 01       		.byte	1
 945 00fe 19       		.byte	25
 946 00ff 06       		.byte	6
 947 0100 1D       		.byte	29
 948 0101 0C       		.byte	12
 949 0102 27       		.byte	39
 950 0103 01       		.byte	1
 951 0104 29       		.byte	41
 952 0105 0A       		.byte	10
 953 0106 31       		.byte	49
 954 0107 01       		.byte	1
 955 0108 35       		.byte	53
 956 0109 0E       		.byte	14
 957 010a 39       		.byte	57
 958 010b 20       		.byte	32
ARM GAS  C:\Users\austc\AppData\Local\Temp\ccORObfh.s 			page 36


 959 010c 3F       		.byte	63
 960 010d 01       		.byte	1
 961 010e 40       		.byte	64
 962 010f 36       		.byte	54
 963 0110 41       		.byte	65
 964 0111 02       		.byte	2
 965 0112 49       		.byte	73
 966 0113 FF       		.byte	-1
 967 0114 4A       		.byte	74
 968 0115 FF       		.byte	-1
 969 0116 4B       		.byte	75
 970 0117 FF       		.byte	-1
 971 0118 4D       		.byte	77
 972 0119 A0       		.byte	-96
 973 011a 4F       		.byte	79
 974 011b 01       		.byte	1
 975 011c 50       		.byte	80
 976 011d 18       		.byte	24
 977 011e 59       		.byte	89
 978 011f 04       		.byte	4
 979 0120 5A       		.byte	90
 980 0121 04       		.byte	4
 981 0122 5C       		.byte	92
 982 0123 10       		.byte	16
 983 0124 5D       		.byte	93
 984 0125 01       		.byte	1
 985 0126 5F       		.byte	95
 986 0127 01       		.byte	1
 987 0128 60       		.byte	96
 988 0129 40       		.byte	64
 989 012a 62       		.byte	98
 990 012b 80       		.byte	-128
 991 012c 64       		.byte	100
 992 012d 40       		.byte	64
 993 012e 65       		.byte	101
 994 012f 40       		.byte	64
 995 0130 66       		.byte	102
 996 0131 80       		.byte	-128
 997 0132 68       		.byte	104
 998 0133 40       		.byte	64
 999 0134 6A       		.byte	106
 1000 0135 80       		.byte	-128
 1001 0136 6C       		.byte	108
 1002 0137 40       		.byte	64
 1003 0138 6D       		.byte	109
 1004 0139 20       		.byte	32
 1005 013a 6E       		.byte	110
 1006 013b 80       		.byte	-128
 1007 013c 85       		.byte	-123
 1008 013d 02       		.byte	2
 1009 013e 8F       		.byte	-113
 1010 013f 02       		.byte	2
 1011 0140 91       		.byte	-111
 1012 0141 01       		.byte	1
 1013 0142 9C       		.byte	-100
 1014 0143 08       		.byte	8
 1015 0144 A3       		.byte	-93
ARM GAS  C:\Users\austc\AppData\Local\Temp\ccORObfh.s 			page 37


 1016 0145 01       		.byte	1
 1017 0146 A4       		.byte	-92
 1018 0147 01       		.byte	1
 1019 0148 A8       		.byte	-88
 1020 0149 03       		.byte	3
 1021 014a AB       		.byte	-85
 1022 014b 05       		.byte	5
 1023 014c AC       		.byte	-84
 1024 014d 03       		.byte	3
 1025 014e AE       		.byte	-82
 1026 014f 0C       		.byte	12
 1027 0150 B0       		.byte	-80
 1028 0151 02       		.byte	2
 1029 0152 B1       		.byte	-79
 1030 0153 04       		.byte	4
 1031 0154 B2       		.byte	-78
 1032 0155 08       		.byte	8
 1033 0156 B3       		.byte	-77
 1034 0157 01       		.byte	1
 1035 0158 B4       		.byte	-76
 1036 0159 01       		.byte	1
 1037 015a B6       		.byte	-74
 1038 015b 04       		.byte	4
 1039 015c B7       		.byte	-73
 1040 015d 02       		.byte	2
 1041 015e B8       		.byte	-72
 1042 015f 22       		.byte	34
 1043 0160 BE       		.byte	-66
 1044 0161 14       		.byte	20
 1045 0162 BF       		.byte	-65
 1046 0163 44       		.byte	68
 1047 0164 C0       		.byte	-64
 1048 0165 36       		.byte	54
 1049 0166 C1       		.byte	-63
 1050 0167 02       		.byte	2
 1051 0168 C5       		.byte	-59
 1052 0169 0E       		.byte	14
 1053 016a C6       		.byte	-58
 1054 016b C4       		.byte	-60
 1055 016c C7       		.byte	-57
 1056 016d 32       		.byte	50
 1057 016e C8       		.byte	-56
 1058 016f 3D       		.byte	61
 1059 0170 C9       		.byte	-55
 1060 0171 FF       		.byte	-1
 1061 0172 CA       		.byte	-54
 1062 0173 FF       		.byte	-1
 1063 0174 CB       		.byte	-53
 1064 0175 FF       		.byte	-1
 1065 0176 CD       		.byte	-51
 1066 0177 AF       		.byte	-81
 1067 0178 CE       		.byte	-50
 1068 0179 07       		.byte	7
 1069 017a CF       		.byte	-49
 1070 017b 01       		.byte	1
 1071 017c D0       		.byte	-48
 1072 017d 18       		.byte	24
ARM GAS  C:\Users\austc\AppData\Local\Temp\ccORObfh.s 			page 38


 1073 017e D2       		.byte	-46
 1074 017f 80       		.byte	-128
 1075 0180 D8       		.byte	-40
 1076 0181 04       		.byte	4
 1077 0182 D9       		.byte	-39
 1078 0183 04       		.byte	4
 1079 0184 DA       		.byte	-38
 1080 0185 04       		.byte	4
 1081 0186 DB       		.byte	-37
 1082 0187 04       		.byte	4
 1083 0188 DC       		.byte	-36
 1084 0189 11       		.byte	17
 1085 018a DD       		.byte	-35
 1086 018b 11       		.byte	17
 1087 018c DF       		.byte	-33
 1088 018d 01       		.byte	1
 1089 018e E0       		.byte	-32
 1090 018f 40       		.byte	64
 1091 0190 E2       		.byte	-30
 1092 0191 80       		.byte	-128
 1093 0192 E4       		.byte	-28
 1094 0193 40       		.byte	64
 1095 0194 E5       		.byte	-27
 1096 0195 40       		.byte	64
 1097 0196 E6       		.byte	-26
 1098 0197 80       		.byte	-128
 1099 0198 E8       		.byte	-24
 1100 0199 40       		.byte	64
 1101 019a EA       		.byte	-22
 1102 019b 80       		.byte	-128
 1103 019c EC       		.byte	-20
 1104 019d 40       		.byte	64
 1105 019e ED       		.byte	-19
 1106 019f 20       		.byte	32
 1107 01a0 EE       		.byte	-18
 1108 01a1 80       		.byte	-128
 1109 01a2 0A       		.byte	10
 1110 01a3 01       		.byte	1
 1111 01a4 10       		.byte	16
 1112 01a5 0A       		.byte	10
 1113 01a6 12       		.byte	18
 1114 01a7 20       		.byte	32
 1115 01a8 19       		.byte	25
 1116 01a9 1A       		.byte	26
 1117 01aa 1A       		.byte	26
 1118 01ab 01       		.byte	1
 1119 01ac 1B       		.byte	27
 1120 01ad 10       		.byte	16
 1121 01ae 21       		.byte	33
 1122 01af 0A       		.byte	10
 1123 01b0 22       		.byte	34
 1124 01b1 40       		.byte	64
 1125 01b2 26       		.byte	38
 1126 01b3 20       		.byte	32
 1127 01b4 27       		.byte	39
 1128 01b5 84       		.byte	-124
 1129 01b6 29       		.byte	41
ARM GAS  C:\Users\austc\AppData\Local\Temp\ccORObfh.s 			page 39


 1130 01b7 21       		.byte	33
 1131 01b8 2F       		.byte	47
 1132 01b9 28       		.byte	40
 1133 01ba 31       		.byte	49
 1134 01bb 02       		.byte	2
 1135 01bc 35       		.byte	53
 1136 01bd 80       		.byte	-128
 1137 01be 36       		.byte	54
 1138 01bf 20       		.byte	32
 1139 01c0 38       		.byte	56
 1140 01c1 84       		.byte	-124
 1141 01c2 3E       		.byte	62
 1142 01c3 80       		.byte	-128
 1143 01c4 3F       		.byte	63
 1144 01c5 10       		.byte	16
 1145 01c6 41       		.byte	65
 1146 01c7 28       		.byte	40
 1147 01c8 45       		.byte	69
 1148 01c9 28       		.byte	40
 1149 01ca 49       		.byte	73
 1150 01cb 14       		.byte	20
 1151 01cc 4F       		.byte	79
 1152 01cd 20       		.byte	32
 1153 01ce 50       		.byte	80
 1154 01cf CA       		.byte	-54
 1155 01d0 52       		.byte	82
 1156 01d1 10       		.byte	16
 1157 01d2 58       		.byte	88
 1158 01d3 A4       		.byte	-92
 1159 01d4 71       		.byte	113
 1160 01d5 01       		.byte	1
 1161 01d6 80       		.byte	-128
 1162 01d7 20       		.byte	32
 1163 01d8 88       		.byte	-120
 1164 01d9 04       		.byte	4
 1165 01da 90       		.byte	-112
 1166 01db 14       		.byte	20
 1167 01dc 91       		.byte	-111
 1168 01dd 08       		.byte	8
 1169 01de 93       		.byte	-109
 1170 01df 10       		.byte	16
 1171 01e0 9D       		.byte	-99
 1172 01e1 82       		.byte	-126
 1173 01e2 9F       		.byte	-97
 1174 01e3 04       		.byte	4
 1175 01e4 A1       		.byte	-95
 1176 01e5 20       		.byte	32
 1177 01e6 A3       		.byte	-93
 1178 01e7 02       		.byte	2
 1179 01e8 A4       		.byte	-92
 1180 01e9 80       		.byte	-128
 1181 01ea A7       		.byte	-89
 1182 01eb 08       		.byte	8
 1183 01ec C2       		.byte	-62
 1184 01ed 01       		.byte	1
 1185 01ee C4       		.byte	-60
 1186 01ef 07       		.byte	7
ARM GAS  C:\Users\austc\AppData\Local\Temp\ccORObfh.s 			page 40


 1187 01f0 CA       		.byte	-54
 1188 01f1 65       		.byte	101
 1189 01f2 CC       		.byte	-52
 1190 01f3 31       		.byte	49
 1191 01f4 CE       		.byte	-50
 1192 01f5 3A       		.byte	58
 1193 01f6 D0       		.byte	-48
 1194 01f7 66       		.byte	102
 1195 01f8 D2       		.byte	-46
 1196 01f9 24       		.byte	36
 1197 01fa D6       		.byte	-42
 1198 01fb 0E       		.byte	14
 1199 01fc E6       		.byte	-26
 1200 01fd 04       		.byte	4
 1201 01fe 06       		.byte	6
 1202 01ff 02       		.byte	2
 1203 0200 08       		.byte	8
 1204 0201 01       		.byte	1
 1205 0202 0C       		.byte	12
 1206 0203 01       		.byte	1
 1207 0204 14       		.byte	20
 1208 0205 01       		.byte	1
 1209 0206 17       		.byte	23
 1210 0207 01       		.byte	1
 1211 0208 18       		.byte	24
 1212 0209 01       		.byte	1
 1213 020a 2A       		.byte	42
 1214 020b 04       		.byte	4
 1215 020c 2D       		.byte	45
 1216 020d 01       		.byte	1
 1217 020e 2E       		.byte	46
 1218 020f 01       		.byte	1
 1219 0210 30       		.byte	48
 1220 0211 04       		.byte	4
 1221 0212 31       		.byte	49
 1222 0213 01       		.byte	1
 1223 0214 34       		.byte	52
 1224 0215 03       		.byte	3
 1225 0216 3F       		.byte	63
 1226 0217 01       		.byte	1
 1227 0218 40       		.byte	64
 1228 0219 51       		.byte	81
 1229 021a 49       		.byte	73
 1230 021b FF       		.byte	-1
 1231 021c 4A       		.byte	74
 1232 021d FF       		.byte	-1
 1233 021e 4B       		.byte	75
 1234 021f FF       		.byte	-1
 1235 0220 4F       		.byte	79
 1236 0221 01       		.byte	1
 1237 0222 50       		.byte	80
 1238 0223 18       		.byte	24
 1239 0224 54       		.byte	84
 1240 0225 0F       		.byte	15
 1241 0226 58       		.byte	88
 1242 0227 04       		.byte	4
 1243 0228 59       		.byte	89
ARM GAS  C:\Users\austc\AppData\Local\Temp\ccORObfh.s 			page 41


 1244 0229 04       		.byte	4
 1245 022a 5A       		.byte	90
 1246 022b 04       		.byte	4
 1247 022c 5B       		.byte	91
 1248 022d 04       		.byte	4
 1249 022e 5C       		.byte	92
 1250 022f 01       		.byte	1
 1251 0230 5D       		.byte	93
 1252 0231 13       		.byte	19
 1253 0232 5F       		.byte	95
 1254 0233 05       		.byte	5
 1255 0234 60       		.byte	96
 1256 0235 40       		.byte	64
 1257 0236 62       		.byte	98
 1258 0237 40       		.byte	64
 1259 0238 64       		.byte	100
 1260 0239 40       		.byte	64
 1261 023a 65       		.byte	101
 1262 023b 40       		.byte	64
 1263 023c 66       		.byte	102
 1264 023d 80       		.byte	-128
 1265 023e 68       		.byte	104
 1266 023f 80       		.byte	-128
 1267 0240 6A       		.byte	106
 1268 0241 80       		.byte	-128
 1269 0242 6C       		.byte	108
 1270 0243 80       		.byte	-128
 1271 0244 6E       		.byte	110
 1272 0245 80       		.byte	-128
 1273 0246 80       		.byte	-128
 1274 0247 01       		.byte	1
 1275 0248 90       		.byte	-112
 1276 0249 02       		.byte	2
 1277 024a B0       		.byte	-80
 1278 024b 01       		.byte	1
 1279 024c B2       		.byte	-78
 1280 024d 02       		.byte	2
 1281 024e C0       		.byte	-64
 1282 024f 43       		.byte	67
 1283 0250 C9       		.byte	-55
 1284 0251 FF       		.byte	-1
 1285 0252 CA       		.byte	-54
 1286 0253 FF       		.byte	-1
 1287 0254 CB       		.byte	-53
 1288 0255 FF       		.byte	-1
 1289 0256 CD       		.byte	-51
 1290 0257 83       		.byte	-125
 1291 0258 CE       		.byte	-50
 1292 0259 03       		.byte	3
 1293 025a CF       		.byte	-49
 1294 025b 01       		.byte	1
 1295 025c D0       		.byte	-48
 1296 025d 18       		.byte	24
 1297 025e D2       		.byte	-46
 1298 025f 80       		.byte	-128
 1299 0260 D6       		.byte	-42
 1300 0261 04       		.byte	4
ARM GAS  C:\Users\austc\AppData\Local\Temp\ccORObfh.s 			page 42


 1301 0262 D8       		.byte	-40
 1302 0263 04       		.byte	4
 1303 0264 DA       		.byte	-38
 1304 0265 04       		.byte	4
 1305 0266 DB       		.byte	-37
 1306 0267 04       		.byte	4
 1307 0268 DC       		.byte	-36
 1308 0269 02       		.byte	2
 1309 026a DD       		.byte	-35
 1310 026b 33       		.byte	51
 1311 026c DF       		.byte	-33
 1312 026d 01       		.byte	1
 1313 026e E0       		.byte	-32
 1314 026f 40       		.byte	64
 1315 0270 E2       		.byte	-30
 1316 0271 40       		.byte	64
 1317 0272 E4       		.byte	-28
 1318 0273 40       		.byte	64
 1319 0274 E5       		.byte	-27
 1320 0275 40       		.byte	64
 1321 0276 E6       		.byte	-26
 1322 0277 80       		.byte	-128
 1323 0278 E8       		.byte	-24
 1324 0279 80       		.byte	-128
 1325 027a EA       		.byte	-22
 1326 027b 80       		.byte	-128
 1327 027c EC       		.byte	-20
 1328 027d 80       		.byte	-128
 1329 027e EE       		.byte	-18
 1330 027f 80       		.byte	-128
 1331 0280 00       		.byte	0
 1332 0281 14       		.byte	20
 1333 0282 01       		.byte	1
 1334 0283 80       		.byte	-128
 1335 0284 07       		.byte	7
 1336 0285 40       		.byte	64
 1337 0286 0B       		.byte	11
 1338 0287 18       		.byte	24
 1339 0288 0F       		.byte	15
 1340 0289 80       		.byte	-128
 1341 028a 10       		.byte	16
 1342 028b 0A       		.byte	10
 1343 028c 19       		.byte	25
 1344 028d 20       		.byte	32
 1345 028e 1B       		.byte	27
 1346 028f 01       		.byte	1
 1347 0290 1E       		.byte	30
 1348 0291 60       		.byte	96
 1349 0292 22       		.byte	34
 1350 0293 01       		.byte	1
 1351 0294 2B       		.byte	43
 1352 0295 01       		.byte	1
 1353 0296 30       		.byte	48
 1354 0297 08       		.byte	8
 1355 0298 42       		.byte	66
 1356 0299 02       		.byte	2
 1357 029a 46       		.byte	70
ARM GAS  C:\Users\austc\AppData\Local\Temp\ccORObfh.s 			page 43


 1358 029b A0       		.byte	-96
 1359 029c 48       		.byte	72
 1360 029d 09       		.byte	9
 1361 029e 49       		.byte	73
 1362 029f 10       		.byte	16
 1363 02a0 59       		.byte	89
 1364 02a1 18       		.byte	24
 1365 02a2 5A       		.byte	90
 1366 02a3 82       		.byte	-126
 1367 02a4 5E       		.byte	94
 1368 02a5 60       		.byte	96
 1369 02a6 61       		.byte	97
 1370 02a7 04       		.byte	4
 1371 02a8 62       		.byte	98
 1372 02a9 10       		.byte	16
 1373 02aa 67       		.byte	103
 1374 02ab 40       		.byte	64
 1375 02ac 74       		.byte	116
 1376 02ad 01       		.byte	1
 1377 02ae 76       		.byte	118
 1378 02af 80       		.byte	-128
 1379 02b0 7A       		.byte	122
 1380 02b1 20       		.byte	32
 1381 02b2 83       		.byte	-125
 1382 02b3 40       		.byte	64
 1383 02b4 87       		.byte	-121
 1384 02b5 40       		.byte	64
 1385 02b6 90       		.byte	-112
 1386 02b7 10       		.byte	16
 1387 02b8 91       		.byte	-111
 1388 02b9 08       		.byte	8
 1389 02ba 92       		.byte	-110
 1390 02bb 80       		.byte	-128
 1391 02bc 93       		.byte	-109
 1392 02bd 10       		.byte	16
 1393 02be 99       		.byte	-103
 1394 02bf 0C       		.byte	12
 1395 02c0 9A       		.byte	-102
 1396 02c1 10       		.byte	16
 1397 02c2 9B       		.byte	-101
 1398 02c3 80       		.byte	-128
 1399 02c4 9D       		.byte	-99
 1400 02c5 A0       		.byte	-96
 1401 02c6 9E       		.byte	-98
 1402 02c7 80       		.byte	-128
 1403 02c8 A0       		.byte	-96
 1404 02c9 08       		.byte	8
 1405 02ca A2       		.byte	-94
 1406 02cb 20       		.byte	32
 1407 02cc A3       		.byte	-93
 1408 02cd 02       		.byte	2
 1409 02ce A7       		.byte	-89
 1410 02cf 28       		.byte	40
 1411 02d0 B4       		.byte	-76
 1412 02d1 80       		.byte	-128
 1413 02d2 C0       		.byte	-64
 1414 02d3 17       		.byte	23
ARM GAS  C:\Users\austc\AppData\Local\Temp\ccORObfh.s 			page 44


 1415 02d4 C2       		.byte	-62
 1416 02d5 16       		.byte	22
 1417 02d6 C4       		.byte	-60
 1418 02d7 03       		.byte	3
 1419 02d8 CA       		.byte	-54
 1420 02d9 08       		.byte	8
 1421 02da CC       		.byte	-52
 1422 02db 02       		.byte	2
 1423 02dc D0       		.byte	-48
 1424 02dd C8       		.byte	-56
 1425 02de D2       		.byte	-46
 1426 02df 08       		.byte	8
 1427 02e0 D6       		.byte	-42
 1428 02e1 3F       		.byte	63
 1429 02e2 D8       		.byte	-40
 1430 02e3 86       		.byte	-122
 1431 02e4 DE       		.byte	-34
 1432 02e5 02       		.byte	2
 1433 02e6 08       		.byte	8
 1434 02e7 03       		.byte	3
 1435 02e8 0A       		.byte	10
 1436 02e9 0C       		.byte	12
 1437 02ea 0C       		.byte	12
 1438 02eb 0C       		.byte	12
 1439 02ec 0E       		.byte	14
 1440 02ed 03       		.byte	3
 1441 02ee 14       		.byte	20
 1442 02ef 0F       		.byte	15
 1443 02f0 20       		.byte	32
 1444 02f1 05       		.byte	5
 1445 02f2 22       		.byte	34
 1446 02f3 0A       		.byte	10
 1447 02f4 24       		.byte	36
 1448 02f5 07       		.byte	7
 1449 02f6 28       		.byte	40
 1450 02f7 0A       		.byte	10
 1451 02f8 2A       		.byte	42
 1452 02f9 05       		.byte	5
 1453 02fa 32       		.byte	50
 1454 02fb 0F       		.byte	15
 1455 02fc 40       		.byte	64
 1456 02fd 45       		.byte	69
 1457 02fe 45       		.byte	69
 1458 02ff EC       		.byte	-20
 1459 0300 46       		.byte	70
 1460 0301 22       		.byte	34
 1461 0302 47       		.byte	71
 1462 0303 20       		.byte	32
 1463 0304 48       		.byte	72
 1464 0305 2F       		.byte	47
 1465 0306 49       		.byte	73
 1466 0307 FF       		.byte	-1
 1467 0308 4A       		.byte	74
 1468 0309 FF       		.byte	-1
 1469 030a 4B       		.byte	75
 1470 030b FF       		.byte	-1
 1471 030c 4D       		.byte	77
ARM GAS  C:\Users\austc\AppData\Local\Temp\ccORObfh.s 			page 45


 1472 030d 83       		.byte	-125
 1473 030e 4E       		.byte	78
 1474 030f 03       		.byte	3
 1475 0310 4F       		.byte	79
 1476 0311 01       		.byte	1
 1477 0312 50       		.byte	80
 1478 0313 18       		.byte	24
 1479 0314 54       		.byte	84
 1480 0315 01       		.byte	1
 1481 0316 56       		.byte	86
 1482 0317 04       		.byte	4
 1483 0318 58       		.byte	88
 1484 0319 04       		.byte	4
 1485 031a 5A       		.byte	90
 1486 031b 04       		.byte	4
 1487 031c 5B       		.byte	91
 1488 031d 04       		.byte	4
 1489 031e 5C       		.byte	92
 1490 031f 01       		.byte	1
 1491 0320 5D       		.byte	93
 1492 0321 33       		.byte	51
 1493 0322 5F       		.byte	95
 1494 0323 01       		.byte	1
 1495 0324 60       		.byte	96
 1496 0325 40       		.byte	64
 1497 0326 62       		.byte	98
 1498 0327 40       		.byte	64
 1499 0328 64       		.byte	100
 1500 0329 40       		.byte	64
 1501 032a 65       		.byte	101
 1502 032b 40       		.byte	64
 1503 032c 66       		.byte	102
 1504 032d 80       		.byte	-128
 1505 032e 68       		.byte	104
 1506 032f 80       		.byte	-128
 1507 0330 6A       		.byte	106
 1508 0331 80       		.byte	-128
 1509 0332 6C       		.byte	108
 1510 0333 80       		.byte	-128
 1511 0334 6E       		.byte	110
 1512 0335 80       		.byte	-128
 1513 0336 85       		.byte	-123
 1514 0337 C5       		.byte	-59
 1515 0338 87       		.byte	-121
 1516 0339 3A       		.byte	58
 1517 033a 89       		.byte	-119
 1518 033b 0E       		.byte	14
 1519 033c 8A       		.byte	-118
 1520 033d 0F       		.byte	15
 1521 033e 8B       		.byte	-117
 1522 033f F0       		.byte	-16
 1523 0340 8C       		.byte	-116
 1524 0341 0C       		.byte	12
 1525 0342 8E       		.byte	-114
 1526 0343 02       		.byte	2
 1527 0344 91       		.byte	-111
 1528 0345 96       		.byte	-106
ARM GAS  C:\Users\austc\AppData\Local\Temp\ccORObfh.s 			page 46


 1529 0346 93       		.byte	-109
 1530 0347 68       		.byte	104
 1531 0348 95       		.byte	-107
 1532 0349 FE       		.byte	-2
 1533 034a 97       		.byte	-105
 1534 034b 01       		.byte	1
 1535 034c 98       		.byte	-104
 1536 034d 0B       		.byte	11
 1537 034e 99       		.byte	-103
 1538 034f 7F       		.byte	127
 1539 0350 9A       		.byte	-102
 1540 0351 04       		.byte	4
 1541 0352 A4       		.byte	-92
 1542 0353 07       		.byte	7
 1543 0354 A8       		.byte	-88
 1544 0355 0C       		.byte	12
 1545 0356 AA       		.byte	-86
 1546 0357 01       		.byte	1
 1547 0358 AB       		.byte	-85
 1548 0359 01       		.byte	1
 1549 035a AC       		.byte	-84
 1550 035b 08       		.byte	8
 1551 035c AD       		.byte	-83
 1552 035d A3       		.byte	-93
 1553 035e AE       		.byte	-82
 1554 035f 01       		.byte	1
 1555 0360 AF       		.byte	-81
 1556 0361 5C       		.byte	92
 1557 0362 B5       		.byte	-75
 1558 0363 FF       		.byte	-1
 1559 0364 B6       		.byte	-74
 1560 0365 0F       		.byte	15
 1561 0366 BF       		.byte	-65
 1562 0367 10       		.byte	16
 1563 0368 D8       		.byte	-40
 1564 0369 04       		.byte	4
 1565 036a D9       		.byte	-39
 1566 036b 04       		.byte	4
 1567 036c DC       		.byte	-36
 1568 036d 01       		.byte	1
 1569 036e DF       		.byte	-33
 1570 036f 01       		.byte	1
 1571 0370 00       		.byte	0
 1572 0371 10       		.byte	16
 1573 0372 01       		.byte	1
 1574 0373 80       		.byte	-128
 1575 0374 04       		.byte	4
 1576 0375 10       		.byte	16
 1577 0376 05       		.byte	5
 1578 0377 80       		.byte	-128
 1579 0378 0B       		.byte	11
 1580 0379 08       		.byte	8
 1581 037a 0E       		.byte	14
 1582 037b 20       		.byte	32
 1583 037c 10       		.byte	16
 1584 037d 02       		.byte	2
 1585 037e 12       		.byte	18
ARM GAS  C:\Users\austc\AppData\Local\Temp\ccORObfh.s 			page 47


 1586 037f 24       		.byte	36
 1587 0380 13       		.byte	19
 1588 0381 08       		.byte	8
 1589 0382 16       		.byte	22
 1590 0383 04       		.byte	4
 1591 0384 17       		.byte	23
 1592 0385 09       		.byte	9
 1593 0386 19       		.byte	25
 1594 0387 80       		.byte	-128
 1595 0388 1E       		.byte	30
 1596 0389 20       		.byte	32
 1597 038a 1F       		.byte	31
 1598 038b 0C       		.byte	12
 1599 038c 20       		.byte	32
 1600 038d 04       		.byte	4
 1601 038e 29       		.byte	41
 1602 038f A0       		.byte	-96
 1603 0390 30       		.byte	48
 1604 0391 02       		.byte	2
 1605 0392 32       		.byte	50
 1606 0393 20       		.byte	32
 1607 0394 33       		.byte	51
 1608 0395 0B       		.byte	11
 1609 0396 38       		.byte	56
 1610 0397 10       		.byte	16
 1611 0398 39       		.byte	57
 1612 0399 08       		.byte	8
 1613 039a 3A       		.byte	58
 1614 039b 04       		.byte	4
 1615 039c 46       		.byte	70
 1616 039d 80       		.byte	-128
 1617 039e 4F       		.byte	79
 1618 039f 85       		.byte	-123
 1619 03a0 56       		.byte	86
 1620 03a1 22       		.byte	34
 1621 03a2 57       		.byte	87
 1622 03a3 60       		.byte	96
 1623 03a4 5F       		.byte	95
 1624 03a5 85       		.byte	-123
 1625 03a6 67       		.byte	103
 1626 03a7 80       		.byte	-128
 1627 03a8 87       		.byte	-121
 1628 03a9 40       		.byte	64
 1629 03aa 90       		.byte	-112
 1630 03ab 10       		.byte	16
 1631 03ac 91       		.byte	-111
 1632 03ad 08       		.byte	8
 1633 03ae 94       		.byte	-108
 1634 03af 04       		.byte	4
 1635 03b0 97       		.byte	-105
 1636 03b1 08       		.byte	8
 1637 03b2 99       		.byte	-103
 1638 03b3 20       		.byte	32
 1639 03b4 9A       		.byte	-102
 1640 03b5 80       		.byte	-128
 1641 03b6 9B       		.byte	-101
 1642 03b7 80       		.byte	-128
ARM GAS  C:\Users\austc\AppData\Local\Temp\ccORObfh.s 			page 48


 1643 03b8 9D       		.byte	-99
 1644 03b9 80       		.byte	-128
 1645 03ba 9E       		.byte	-98
 1646 03bb 22       		.byte	34
 1647 03bc A2       		.byte	-94
 1648 03bd 20       		.byte	32
 1649 03be A3       		.byte	-93
 1650 03bf 02       		.byte	2
 1651 03c0 A4       		.byte	-92
 1652 03c1 02       		.byte	2
 1653 03c2 A7       		.byte	-89
 1654 03c3 28       		.byte	40
 1655 03c4 AB       		.byte	-85
 1656 03c5 40       		.byte	64
 1657 03c6 C0       		.byte	-64
 1658 03c7 C3       		.byte	-61
 1659 03c8 C2       		.byte	-62
 1660 03c9 22       		.byte	34
 1661 03ca C4       		.byte	-60
 1662 03cb 77       		.byte	119
 1663 03cc CA       		.byte	-54
 1664 03cd 0C       		.byte	12
 1665 03ce CC       		.byte	-52
 1666 03cf 07       		.byte	7
 1667 03d0 CE       		.byte	-50
 1668 03d1 06       		.byte	6
 1669 03d2 D0       		.byte	-48
 1670 03d3 80       		.byte	-128
 1671 03d4 D2       		.byte	-46
 1672 03d5 10       		.byte	16
 1673 03d6 D6       		.byte	-42
 1674 03d7 D0       		.byte	-48
 1675 03d8 D8       		.byte	-40
 1676 03d9 80       		.byte	-128
 1677 03da 02       		.byte	2
 1678 03db 08       		.byte	8
 1679 03dc 05       		.byte	5
 1680 03dd 40       		.byte	64
 1681 03de 6B       		.byte	107
 1682 03df 02       		.byte	2
 1683 03e0 6F       		.byte	111
 1684 03e1 02       		.byte	2
 1685 03e2 85       		.byte	-123
 1686 03e3 40       		.byte	64
 1687 03e4 8A       		.byte	-118
 1688 03e5 08       		.byte	8
 1689 03e6 C0       		.byte	-64
 1690 03e7 C0       		.byte	-64
 1691 03e8 DA       		.byte	-38
 1692 03e9 C0       		.byte	-64
 1693 03ea E4       		.byte	-28
 1694 03eb 10       		.byte	16
 1695 03ec 9F       		.byte	-97
 1696 03ed 02       		.byte	2
 1697 03ee A7       		.byte	-89
 1698 03ef 02       		.byte	2
 1699 03f0 08       		.byte	8
ARM GAS  C:\Users\austc\AppData\Local\Temp\ccORObfh.s 			page 49


 1700 03f1 80       		.byte	-128
 1701 03f2 0E       		.byte	14
 1702 03f3 40       		.byte	64
 1703 03f4 80       		.byte	-128
 1704 03f5 80       		.byte	-128
 1705 03f6 87       		.byte	-121
 1706 03f7 02       		.byte	2
 1707 03f8 9F       		.byte	-97
 1708 03f9 02       		.byte	2
 1709 03fa A7       		.byte	-89
 1710 03fb 02       		.byte	2
 1711 03fc C2       		.byte	-62
 1712 03fd 60       		.byte	96
 1713 03fe E4       		.byte	-28
 1714 03ff 80       		.byte	-128
 1715 0400 E6       		.byte	-26
 1716 0401 40       		.byte	64
 1717 0402 87       		.byte	-121
 1718 0403 02       		.byte	2
 1719 0404 A7       		.byte	-89
 1720 0405 02       		.byte	2
 1721 0406 AA       		.byte	-86
 1722 0407 40       		.byte	64
 1723 0408 E2       		.byte	-30
 1724 0409 10       		.byte	16
 1725 040a E8       		.byte	-24
 1726 040b 20       		.byte	32
 1727 040c 00       		.byte	0
 1728 040d 40       		.byte	64
 1729 040e 04       		.byte	4
 1730 040f 10       		.byte	16
 1731 0410 06       		.byte	6
 1732 0411 20       		.byte	32
 1733 0412 80       		.byte	-128
 1734 0413 40       		.byte	64
 1735 0414 8A       		.byte	-118
 1736 0415 20       		.byte	32
 1737 0416 C0       		.byte	-64
 1738 0417 07       		.byte	7
 1739 0418 E6       		.byte	-26
 1740 0419 01       		.byte	1
 1741 041a B4       		.byte	-76
 1742 041b 10       		.byte	16
 1743 041c EA       		.byte	-22
 1744 041d 08       		.byte	8
 1745 041e 01       		.byte	1
 1746 041f 0E       		.byte	14
 1747 0420 10       		.byte	16
 1748 0421 02       		.byte	2
 1749 0422 12       		.byte	18
 1750 0423 0E       		.byte	14
 1751              		.type	cy_cfg_addr_table.7115, %object
 1752              		.size	cy_cfg_addr_table.7115, 64
 1753              	cy_cfg_addr_table.7115:
 1754 0424 04000F40 		.word	1074724868
 1755 0428 3F300F40 		.word	1074737215
 1756 042c 34310F40 		.word	1074737460
ARM GAS  C:\Users\austc\AppData\Local\Temp\ccORObfh.s 			page 50


 1757 0430 54320F40 		.word	1074737748
 1758 0434 2E330F40 		.word	1074737966
 1759 0438 41340F40 		.word	1074738241
 1760 043c 33350F40 		.word	1074738483
 1761 0440 45360F40 		.word	1074738757
 1762 0444 35370F40 		.word	1074738997
 1763 0448 09400F40 		.word	1074741257
 1764 044c 02410F40 		.word	1074741506
 1765 0450 09420F40 		.word	1074741769
 1766 0454 05430F40 		.word	1074742021
 1767 0458 07450F40 		.word	1074742535
 1768 045c 02460F40 		.word	1074742786
 1769 0460 03600F40 		.word	1074749443
 1770              		.text
 1771              	.Letext0:
 1772              		.file 2 "c:\\program files (x86)\\cypress\\psoc creator\\4.2\\psoc creator\\import\\gnu\\arm\\5.4.
 1773              		.file 3 "Generated_Source\\PSoC4\\cytypes.h"
 1774              		.file 4 "Generated_Source\\PSoC4\\CyLib.h"