ARM GAS  C:\Users\austc\AppData\Local\Temp\ccKyHRsy.s 			page 1


   1              		.syntax unified
   2              		.cpu cortex-m0
   3              		.fpu softvfp
   4              		.eabi_attribute 20, 1
   5              		.eabi_attribute 21, 1
   6              		.eabi_attribute 23, 3
   7              		.eabi_attribute 24, 1
   8              		.eabi_attribute 25, 1
   9              		.eabi_attribute 26, 1
  10              		.eabi_attribute 30, 1
  11              		.eabi_attribute 34, 0
  12              		.eabi_attribute 18, 4
  13              		.thumb
  14              		.syntax unified
  15              		.file	"main.c"
  16              		.text
  17              	.Ltext0:
  18              		.cfi_sections	.debug_frame
  19              		.section	.text.ISR_CAN,"ax",%progbits
  20              		.align	2
  21              		.global	ISR_CAN
  22              		.code	16
  23              		.thumb_func
  24              		.type	ISR_CAN, %function
  25              	ISR_CAN:
  26              	.LFB47:
  27              		.file 1 "main.c"
   1:main.c        **** /* ========================================
   2:main.c        ****  *
   3:main.c        ****  * Copyright YOUR COMPANY, THE YEAR
   4:main.c        ****  * All Rights Reserved
   5:main.c        ****  * UNPUBLISHED, LICENSED SOFTWARE.
   6:main.c        ****  *
   7:main.c        ****  * CONFIDENTIAL AND PROPRIETARY INFORMATION
   8:main.c        ****  * WHICH IS THE PROPERTY OF your company.
   9:main.c        ****  *
  10:main.c        ****  * ========================================
  11:main.c        **** */
  12:main.c        **** #include <project.h>
  13:main.c        **** #include "cyapicallbacks.h"
  14:main.c        **** #include <stdio.h>
  15:main.c        **** 
  16:main.c        **** #define REV2
  17:main.c        **** #define LED_ON   (0u)
  18:main.c        **** #define LED_OFF  (1u)
  19:main.c        **** 
  20:main.c        **** //LED
  21:main.c        **** uint8 time_LED = 0;
  22:main.c        **** 
  23:main.c        **** //CAN variables
  24:main.c        **** uint32 message_id = 0;
  25:main.c        **** #define MESSAGE_IDE             (0u)    /* Standard message */
  26:main.c        **** #define MESSAGE_IRQ             (0u)    /* No transmit IRQ */
  27:main.c        **** #define MESSAGE_RTR             (0u)    /* No RTR */
  28:main.c        **** uint16 CAN_RX_MAILBOX_1_SHIFT  = 0b1;
  29:main.c        **** uint32 CAN_RX_MAILBOX_0_SHIFT  = 0b10000000;
  30:main.c        **** uint16 CAN_RX_MAILBOX_1 = 0u;
ARM GAS  C:\Users\austc\AppData\Local\Temp\ccKyHRsy.s 			page 2


  31:main.c        **** uint16 CAN_RX_MAILBOX_0 = 7u;
  32:main.c        **** int CAN_TIMEOUT;
  33:main.c        **** 
  34:main.c        **** CY_ISR_PROTO(ISR_CAN);
  35:main.c        **** 
  36:main.c        **** //Uart variables
  37:main.c        **** volatile uint8 uart_debug = 2;
  38:main.c        **** #define TX_DATA_SIZE            (100u)
  39:main.c        **** #define PWM_PERIOD = 255;
  40:main.c        **** 
  41:main.c        **** 
  42:main.c        **** //drive varaible
  43:main.c        **** int GEAR_RATIO;
  44:main.c        **** int pwm_compare;
  45:main.c        **** uint8 invalidate = 0;
  46:main.c        **** 
  47:main.c        **** //PID varaibles
  48:main.c        **** int8 flipEncoder = 1;
  49:main.c        **** int16 final_angle = 0;
  50:main.c        **** int i = 0;
  51:main.c        **** int lastp = 0;
  52:main.c        **** int kp;
  53:main.c        **** int ki;
  54:main.c        **** int kd;
  55:main.c        **** double ratio;
  56:main.c        **** uint8 complete = 0;
  57:main.c        **** uint8 maxV = 0;
  58:main.c        **** 
  59:main.c        **** //drive mode
  60:main.c        **** uint8 mode = 2;
  61:main.c        **** 
  62:main.c        **** //flags
  63:main.c        **** uint8 send_data = 1;
  64:main.c        **** uint8 model_req = 0;
  65:main.c        **** uint8 disable_limit = 0;
  66:main.c        **** 
  67:main.c        **** //Status and Data Structs
  68:main.c        **** struct Can_data Can_rx_pwm, Can_rx_angle;
  69:main.c        **** struct Error stall;
  70:main.c        **** struct Error command_failed;
  71:main.c        **** struct Error invalid_arg;
  72:main.c        **** 
  73:main.c        **** 
  74:main.c        **** int mailbox = 0x000;
  75:main.c        **** uint8 emergency = 0;
  76:main.c        **** char8 txData[TX_DATA_SIZE];
  77:main.c        **** /* Global variables used to store configuration and data for BASIC CAN mailbox */
  78:main.c        **** CAN_DATA_BYTES_MSG data;
  79:main.c        **** CAN_TX_MSG message;
  80:main.c        **** 
  81:main.c        **** volatile uint8 drive = 0;
  82:main.c        **** 
  83:main.c        **** 
  84:main.c        **** CY_ISR(Period_Reset_Handler) {
  85:main.c        ****     int timer = Timer_1_ReadStatusRegister();
  86:main.c        ****     if(uart_debug) {
  87:main.c        ****         sprintf(txData,"Period interupt triggerd %x\r\n", timer);
ARM GAS  C:\Users\austc\AppData\Local\Temp\ccKyHRsy.s 			page 3


  88:main.c        ****         //UART_UartPutString(txData);
  89:main.c        ****     }
  90:main.c        ****     send_data = 1;
  91:main.c        ****     invalidate++;
  92:main.c        ****     time_LED++;
  93:main.c        ****     if(invalidate >= 20){
  94:main.c        ****         set_PWM(0);   
  95:main.c        ****         Can_rx_pwm.done = 1;
  96:main.c        ****     }
  97:main.c        ****     
  98:main.c        ****     #ifdef REV2
  99:main.c        ****         if(time_LED >= 5){
 100:main.c        ****             Test_LED_Write(LED_OFF);
 101:main.c        ****             
 102:main.c        ****             
 103:main.c        ****         }
 104:main.c        ****     #endif
 105:main.c        **** }
 106:main.c        ****   
 107:main.c        **** CY_ISR(Pin_Limit_Handler){
 108:main.c        ****     if(uart_debug) {
 109:main.c        ****         sprintf(txData,"Limit interupt triggerd\r\n");
 110:main.c        ****         UART_UartPutString(txData);
 111:main.c        ****     }
 112:main.c        ****     set_PWM(pwm_compare);
 113:main.c        ****     QuadDec_SetCounter(0);
 114:main.c        **** }
 115:main.c        **** 
 116:main.c        **** int main(void)
 117:main.c        **** { 
 118:main.c        ****     #ifdef REV2
 119:main.c        ****         Test_LED_Write(LED_ON);
 120:main.c        ****         Error_Write(LED_ON);
 121:main.c        ****     #endif
 122:main.c        ****     stall.code = 0x01;
 123:main.c        ****     stall.done = 1;
 124:main.c        ****     command_failed.code = 0x02;
 125:main.c        ****     command_failed.done = 1;
 126:main.c        ****     invalid_arg.code = 0x03;
 127:main.c        ****     invalid_arg.done = 1;
 128:main.c        ****     uint8 error;
 129:main.c        ****         /* BASIC CAN mailbox configuration */
 130:main.c        ****     message.dlc = 5u;
 131:main.c        ****     message.ide = MESSAGE_IDE;
 132:main.c        ****     message.irq = MESSAGE_IRQ;
 133:main.c        ****     message.msg = &data;
 134:main.c        ****     message.rtr = MESSAGE_RTR;
 135:main.c        ****     
 136:main.c        ****     #ifdef REV2
 137:main.c        ****         Test_LED_Write(0);
 138:main.c        ****         Error_Write(0);
 139:main.c        ****     #endif
 140:main.c        **** 
 141:main.c        ****     initialize();
 142:main.c        ****     initialize_can_addr();
 143:main.c        ****     int up = 0;
 144:main.c        ****     int test = 0;
ARM GAS  C:\Users\austc\AppData\Local\Temp\ccKyHRsy.s 			page 4


 145:main.c        ****     pwm_compare = 0;
 146:main.c        ****     set_PWM(0);
 147:main.c        ****     
 148:main.c        ****     #ifdef REV2
 149:main.c        ****         Test_LED_Write(LED_OFF);
 150:main.c        ****         Error_Write(LED_OFF);
 151:main.c        ****     #endif
 152:main.c        ****     
 153:main.c        ****     for(;;)
 154:main.c        ****     {
 155:main.c        ****         if(!emergency) {
 156:main.c        **** 
 157:main.c        ****             //Tests if there are still drive packets that still need to be done
 158:main.c        ****             //drive = !Can_rx_pwm.done | !Can_rx_angle.done;
 159:main.c        ****             
 160:main.c        ****             //Handles Can drive recieve packets
 161:main.c        ****             //if (drive)
 162:main.c        ****             //{           
 163:main.c        ****                 //Mode 0 packets
 164:main.c        ****                 if(!Can_rx_pwm.done) {
 165:main.c        ****                     if(mode == 0) {
 166:main.c        ****                         if(uart_debug) {
 167:main.c        ****                             sprintf(txData, "B1: %d, B2: %d done %x\r\n",Can_rx_pwm.b1, Can_rx_pwm.
 168:main.c        ****                             UART_UartPutString(txData);
 169:main.c        ****                         }
 170:main.c        ****                         Can_rx_pwm.done = 1;
 171:main.c        ****                         if(Can_rx_pwm.b2 & 0b01) {
 172:main.c        ****                             set_PWM((int)Can_rx_pwm.b1);
 173:main.c        ****                         }
 174:main.c        ****                         else {
 175:main.c        ****                             set_PWM(-(int)Can_rx_pwm.b1);
 176:main.c        ****                         }
 177:main.c        ****                     } else {
 178:main.c        ****                         command_failed.done = 0;
 179:main.c        ****                         command_failed.param = 0x02;
 180:main.c        ****                         if(uart_debug) {
 181:main.c        ****                             sprintf(txData, "Mode is not set to 0, mode is %d\r\n",mode);
 182:main.c        ****                             UART_UartPutString(txData);
 183:main.c        ****                         }
 184:main.c        ****                     }
 185:main.c        ****                 }
 186:main.c        ****                 
 187:main.c        ****                 // Mode 1 packets
 188:main.c        ****                // if(!Can_rx_angle.done){
 189:main.c        ****                     if(mode == 1){
 190:main.c        ****                         if(uart_debug) {
 191:main.c        ****                             sprintf(txData, "B1: %d, B3: %d done %x\r\n",Can_rx_angle.b1, Can_rx_an
 192:main.c        ****                             UART_UartPutString(txData);
 193:main.c        ****                         }
 194:main.c        ****                         //Can_rx_angle.done = 1;
 195:main.c        ****                         complete = 0;
 196:main.c        ****                         maxV = Can_rx_angle.b3;
 197:main.c        ****                         i = 0;
 198:main.c        ****                         
 199:main.c        ****                        // final_angle = final_angle | (int16)Can_rx_angle.b2 << 8;
 200:main.c        ****                        // final_angle = final_angle | (int16)Can_rx_angle.b1;
 201:main.c        ****                         final_angle = ((uint16_t)Can_rx_angle.b2) << 8 | Can_rx_angle.b1;
ARM GAS  C:\Users\austc\AppData\Local\Temp\ccKyHRsy.s 			page 5


 202:main.c        ****                         set_Position(final_angle);
 203:main.c        ****                     }
 204:main.c        ****                     else if(!Can_rx_pwm.done) {
 205:main.c        ****                         command_failed.done = 0;
 206:main.c        ****                         command_failed.param = 0x04;
 207:main.c        ****                         if(uart_debug) {
 208:main.c        ****                             sprintf(txData, "Mode is not set to 1, mode is %d\r\n", mode);
 209:main.c        ****                             UART_UartPutString(txData);
 210:main.c        ****                         }
 211:main.c        ****                     }
 212:main.c        ****                 //}
 213:main.c        ****                 
 214:main.c        ****                 if(mode != 1 && mode != 0) {
 215:main.c        ****                     Can_rx_angle.done = 1;
 216:main.c        ****                     Can_rx_pwm.done = 1;
 217:main.c        ****                 }
 218:main.c        ****             //}
 219:main.c        ****             
 220:main.c        ****             //Tests if there are any errors
 221:main.c        ****           //  error = !stall.done | !invalid_arg.done | !command_failed.done; 
 222:main.c        ****             
 223:main.c        ****             //sends errors over CAN
 224:main.c        ****             /*if(error){
 225:main.c        ****                 if(!stall.done) {
 226:main.c        ****                     CAN_Send_Error(stall.code, stall.param);
 227:main.c        ****                     stall.done = 1;
 228:main.c        ****                 }
 229:main.c        ****                 if(!invalid_arg.done) {
 230:main.c        ****                     CAN_Send_Error(invalid_arg.code, invalid_arg.param);
 231:main.c        ****                     invalid_arg.done = 1;
 232:main.c        ****                 }
 233:main.c        ****                 if(!command_failed.done) {
 234:main.c        ****                     CAN_Send_Error(command_failed.code, command_failed.param);
 235:main.c        ****                     command_failed.done = 1;
 236:main.c        ****                 }
 237:main.c        ****             }*/
 238:main.c        ****             
 239:main.c        ****             //Sends periodic data
 240:main.c        ****             if(send_data) {
 241:main.c        ****                 if(uart_debug) {
 242:main.c        ****                     sprintf(txData,"\nSending Data... \r\n");
 243:main.c        ****                    // UART_UartPutString(txData);
 244:main.c        ****                 }
 245:main.c        ****                 CAN_Send_Encoder(); 
 246:main.c        ****                 send_data = 0;
 247:main.c        ****             }
 248:main.c        ****             
 249:main.c        ****             //Sends model
 250:main.c        ****             if(model_req) {
 251:main.c        ****                 CAN_Send_Model();
 252:main.c        ****                 model_req = 0;
 253:main.c        ****             }
 254:main.c        ****             //PWM test code
 255:main.c        ****             /*CyDelay(100);
 256:main.c        ****             if(up){
 257:main.c        ****                 test += 10;
 258:main.c        ****             } else {
ARM GAS  C:\Users\austc\AppData\Local\Temp\ccKyHRsy.s 			page 6


 259:main.c        ****                 test -= 10;   
 260:main.c        ****             }
 261:main.c        ****             if(test > 255) {
 262:main.c        ****                 up = 0;   
 263:main.c        ****             } else if (test < -255) {
 264:main.c        ****                 up = 1;
 265:main.c        ****             }
 266:main.c        ****             set_PWM(test);
 267:main.c        ****             */
 268:main.c        **** 
 269:main.c        ****         }
 270:main.c        ****     }
 271:main.c        **** }
 272:main.c        **** 
 273:main.c        **** void emergency_halt(void) {
 274:main.c        ****     PWM_Motor_Stop();
 275:main.c        ****     emergency = 1;
 276:main.c        ****     // stops all motors;
 277:main.c        ****     // waits for restart CAN signal.
 278:main.c        **** }
 279:main.c        **** 
 280:main.c        **** void initialize(void) {
 281:main.c        ****     
 282:main.c        ****     int can_start = CAN_Start();
 283:main.c        ****     Status_Reg_Switches_InterruptEnable();
 284:main.c        ****     Timer_1_Start();
 285:main.c        ****    // ADC_SAR_Seq_1_Start();
 286:main.c        ****     //ADC_SAR_Seq_1_StartConvert();
 287:main.c        ****     QuadDec_Start();
 288:main.c        ****     PWM_Motor_Start();  
 289:main.c        ****     
 290:main.c        ****     CAN_GlobalIntEnable();
 291:main.c        ****     CyIntSetVector(CAN_ISR_NUMBER, ISR_CAN);
 292:main.c        ****     CyGlobalIntEnable; /* Enable global interrupts. */
 293:main.c        ****     isr_Limit_1_StartEx(Pin_Limit_Handler);
 294:main.c        ****     isr_period_StartEx(Period_Reset_Handler);
 295:main.c        ****     
 296:main.c        ****     if(uart_debug) {
 297:main.c        ****         UART_Start();
 298:main.c        ****         sprintf(txData, "CAN_Start():  %u\r\n",can_start);
 299:main.c        ****         UART_UartPutString(txData); 
 300:main.c        ****     }
 301:main.c        **** }
 302:main.c        **** 
 303:main.c        **** //Recieve:
 304:main.c        **** //1 00010 10000 0x450 BBB to base rotation
 305:main.c        **** //1 00010 10001 0x451 
 306:main.c        **** //1 00010 10010 0x452
 307:main.c        **** //1 00010 10011 0x453
 308:main.c        **** //1 00010 10100 0x454
 309:main.c        **** //1 00010 10101 0x455
 310:main.c        **** //1 00010 10110 0x456
 311:main.c        **** //Send:
 312:main.c        **** //1 10000 00010 0x602 base rotation to BBB 
 313:main.c        **** //1 10001 00010 0x622 shoulder to BBB
 314:main.c        **** //1 10010 00010 0x642 elbow ""
 315:main.c        **** //1 10011 00010 0x662 forearm rotation ""
ARM GAS  C:\Users\austc\AppData\Local\Temp\ccKyHRsy.s 			page 7


 316:main.c        **** //1 10100 00010 0x682 diff wrist 1 ""
 317:main.c        **** //1 10101 00010 0x6A2 diff wrist 2 ""
 318:main.c        **** //1 10110 00010 0x6C2 hand ""
 319:main.c        **** void initialize_can_addr(void) {
 320:main.c        ****     uint8 setting = Can_addr_Read();
 321:main.c        ****     uint8 shift = 0;
 322:main.c        ****     switch(Can_addr_Read()) {
 323:main.c        ****         case 0b000: //Base rotation
 324:main.c        ****             message_id = 0b10000;
 325:main.c        ****             shift = 0;
 326:main.c        ****             ratio = 1;
 327:main.c        ****             break;
 328:main.c        ****         case 0b001: // shoulder
 329:main.c        ****             message_id = 0b10001;
 330:main.c        ****             shift = 1;
 331:main.c        ****             ratio = 14.45;
 332:main.c        ****             #ifdef REV2
 333:main.c        ****                 flipEncoder = 1;
 334:main.c        ****             #endif
 335:main.c        ****             kp = 50;
 336:main.c        ****             ki = 12;
 337:main.c        ****             kd = 10;
 338:main.c        ****             break;
 339:main.c        ****         case 0b010: // elbow
 340:main.c        ****             message_id = 0b10010;
 341:main.c        ****             shift = 2;
 342:main.c        ****             ratio = 2.8;
 343:main.c        ****             break;
 344:main.c        ****         case 0b011: // forearm rotation
 345:main.c        ****             message_id = 0b10011;
 346:main.c        ****             disable_limit = 1;
 347:main.c        ****             shift = 3;
 348:main.c        ****             ratio = 1;
 349:main.c        **** 
 350:main.c        ****             break;
 351:main.c        ****         case 0b100: // diff wrist 1
 352:main.c        ****             message_id = 0b10100;
 353:main.c        ****             disable_limit = 1;
 354:main.c        ****             shift = 4;
 355:main.c        ****             ratio = 1.3888;
 356:main.c        ****             kp = 20;
 357:main.c        ****             ki = 30;
 358:main.c        ****             kd = 10;
 359:main.c        ****             flipEncoder = -1;
 360:main.c        ****             break;
 361:main.c        ****         case 0b101: // diff wrist 2
 362:main.c        ****             message_id = 0b10101;
 363:main.c        ****             disable_limit = 1;
 364:main.c        ****             flipEncoder = -1;
 365:main.c        ****             shift = 5;
 366:main.c        ****             ratio = 1.3888;
 367:main.c        ****             kp = 50;
 368:main.c        ****             ki = 40;
 369:main.c        ****             kd = 10;
 370:main.c        ****             break;
 371:main.c        ****         case 0b110: // hand
 372:main.c        ****             message_id = 0b10110;
ARM GAS  C:\Users\austc\AppData\Local\Temp\ccKyHRsy.s 			page 8


 373:main.c        ****             shift = 6;
 374:main.c        ****             ratio = 1;
 375:main.c        ****             break;
 376:main.c        ****     }
 377:main.c        ****     
 378:main.c        ****     CAN_RX_MAILBOX_0_SHIFT = CAN_RX_MAILBOX_0_SHIFT << shift;
 379:main.c        ****     CAN_RX_MAILBOX_1_SHIFT = CAN_RX_MAILBOX_1_SHIFT << shift;
 380:main.c        ****     CAN_RX_MAILBOX_0 += shift;
 381:main.c        ****     CAN_RX_MAILBOX_1 += shift;
 382:main.c        ****     set_CAN_ID(0b1);
 383:main.c        ****     
 384:main.c        ****     if(uart_debug) {
 385:main.c        ****         sprintf(txData, "CAN dip setting:  %x Message ID: %ld\r\n",setting, message_id);
 386:main.c        ****         UART_UartPutString(txData); 
 387:main.c        ****         sprintf(txData, "Can shift: %d   P0Mailbox: %d P1Mailbox %d\r\n",shift, CAN_RX_MAILBOX_0, C
 388:main.c        ****         UART_UartPutString(txData); 
 389:main.c        ****         sprintf(txData, "disable_limit: %d\r\n",disable_limit);
 390:main.c        ****         UART_UartPutString(txData); 
 391:main.c        ****     }
 392:main.c        **** }
 393:main.c        **** 
 394:main.c        **** void set_CAN_ID(uint32 priority) {
 395:main.c        ****     message.id = (priority << 10) | (message_id << 5) | 0b00010;
 396:main.c        **** }
 397:main.c        **** 
 398:main.c        ****     // takes between -255 and 255
 399:main.c        **** void set_PWM(int compare) {
 400:main.c        ****     pwm_compare = compare;
 401:main.c        ****     #ifdef REV2
 402:main.c        ****     compare = -compare;
 403:main.c        ****     #endif
 404:main.c        ****      if(uart_debug) {
 405:main.c        ****         sprintf(txData, "PWM:%d disable_limit: %d\r\n",compare,disable_limit);
 406:main.c        ****         UART_UartPutString(txData); 
 407:main.c        ****     }
 408:main.c        ****     invalidate = 0;
 409:main.c        ****     if (compare < -255 || compare > 255) { return; }
 410:main.c        ****     uint8 status = Status_Reg_Switches_Read();
 411:main.c        ****     if (compare < 0 && (!(status & 0b01) || disable_limit) ) {
 412:main.c        ****         Pin_Direction_Write(0);
 413:main.c        ****         PWM_Motor_WriteCompare(-compare);
 414:main.c        ****     } else if (compare > 0 && (!(status & 0b10) || disable_limit) ){
 415:main.c        ****         Pin_Direction_Write(1);
 416:main.c        ****         PWM_Motor_WriteCompare(compare);
 417:main.c        ****     } else {
 418:main.c        ****         PWM_Motor_WriteCompare(0);
 419:main.c        ****         
 420:main.c        ****     }
 421:main.c        **** }
 422:main.c        **** 
 423:main.c        **** void CAN_Send_Encoder(void){
 424:main.c        ****     int16 ticks = QuadDec_GetCounter();
 425:main.c        ****     int16 angle = (((double)ticks)/ratio)*10;
 426:main.c        ****     data.byte[0u] = 0x14u;
 427:main.c        ****     data.byte[1u] = LO8(angle);
 428:main.c        ****     data.byte[2u] = HI8(angle);
 429:main.c        ****     data.byte[3u] = 0;
ARM GAS  C:\Users\austc\AppData\Local\Temp\ccKyHRsy.s 			page 9


 430:main.c        ****     data.byte[4u] = 0;
 431:main.c        ****     CAN_SendMsg(&message);
 432:main.c        ****     if(uart_debug == 2) {
 433:main.c        ****         sprintf(txData, "CAN_Send_Encoder: byte[0u] %x byte[1u] %x byte[2u] %x QuadDec Count %d\r\n
 434:main.c        ****             data.byte[0u],data.byte[1u],data.byte[2u],
 435:main.c        ****             QuadDec_GetCounter());
 436:main.c        ****         UART_UartPutString(txData);    
 437:main.c        ****     }
 438:main.c        **** }
 439:main.c        **** 
 440:main.c        **** void CAN_Send_Telemetry(void) {
 441:main.c        ****     data.byte[0u] = 0x18u;
 442:main.c        ****     data.byte[1u] = 0;
 443:main.c        ****     data.byte[2u] = 0;
 444:main.c        ****     data.byte[3u] = 0;
 445:main.c        ****     data.byte[4u] = 0;
 446:main.c        ****     CAN_SendMsg(&message);
 447:main.c        ****     if(uart_debug == 2) {
 448:main.c        ****         sprintf(txData, "Telemerty: byte[0u] %x byte[1u] %x\r\n",(uint8)data.byte[0u],(uint8)data.b
 449:main.c        ****         UART_UartPutString(txData); 
 450:main.c        ****     }
 451:main.c        **** }
 452:main.c        **** 
 453:main.c        **** void CAN_Send_Model(void) {
 454:main.c        ****     data.byte[0u] = 0x12u;
 455:main.c        ****     data.byte[1u] = 0x00u;
 456:main.c        ****     data.byte[2u] = 0;
 457:main.c        ****     data.byte[3u] = 0;
 458:main.c        ****     data.byte[4u] = 0;
 459:main.c        ****     CAN_SendMsg(&message);
 460:main.c        ****     if(uart_debug == 2) {
 461:main.c        ****         sprintf(txData, "Model: byte[0u] %x byte[1u] %x\r\n",data.byte[0u],data.byte[1u]);
 462:main.c        ****         UART_UartPutString(txData); 
 463:main.c        ****     }
 464:main.c        **** }
 465:main.c        **** 
 466:main.c        **** void CAN_Send_Error(uint8 code, uint8 param) {
 467:main.c        ****     data.byte[0u] = 0xffu;
 468:main.c        ****     data.byte[1u] = code;
 469:main.c        ****     data.byte[2u] = param;
 470:main.c        ****     data.byte[3u] = 0;
 471:main.c        ****     data.byte[4u] = 0;
 472:main.c        ****     CAN_SendMsg(&message);
 473:main.c        ****     if(uart_debug == 2) {
 474:main.c        ****         sprintf(txData, "Error: byte[0u] %x byte[1u] %x byte[2u] %x\r\n",data.byte[0u],data.byte[1u
 475:main.c        ****         UART_UartPutString(txData); 
 476:main.c        ****     }
 477:main.c        **** }
 478:main.c        **** 
 479:main.c        **** CY_ISR(ISR_CAN)
 480:main.c        **** {
  28              		.loc 1 480 0
  29              		.cfi_startproc
  30              		@ args = 0, pretend = 0, frame = 0
  31              		@ frame_needed = 0, uses_anonymous_args = 0
  32 0000 10B5     		push	{r4, lr}
  33              		.cfi_def_cfa_offset 8
ARM GAS  C:\Users\austc\AppData\Local\Temp\ccKyHRsy.s 			page 10


  34              		.cfi_offset 4, -8
  35              		.cfi_offset 14, -4
 481:main.c        ****     /* Clear Receive Message flag */
 482:main.c        ****     CAN_INT_SR_REG = CAN_RX_MESSAGE_MASK;
  36              		.loc 1 482 0
  37 0002 8022     		movs	r2, #128
  38 0004 5201     		lsls	r2, r2, #5
  39 0006 8B4B     		ldr	r3, .L23
  40 0008 1A60     		str	r2, [r3]
 483:main.c        ****     if(uart_debug) {
  41              		.loc 1 483 0
  42 000a 8B4B     		ldr	r3, .L23+4
  43 000c 1B78     		ldrb	r3, [r3]
  44 000e 002B     		cmp	r3, #0
  45 0010 02D0     		beq	.L2
 484:main.c        ****         UART_UartPutString("\n Can rx triggered\n");   
  46              		.loc 1 484 0
  47 0012 8A48     		ldr	r0, .L23+8
  48 0014 FFF7FEFF 		bl	UART_UartPutString
  49              	.LVL0:
  50              	.L2:
 485:main.c        ****     }
 486:main.c        ****     /* Switch status message received */
 487:main.c        ****     if ((CAN_BUF_SR_REG & CAN_RX_MAILBOX_0_SHIFT) != 0u)
  51              		.loc 1 487 0
  52 0018 894B     		ldr	r3, .L23+12
  53 001a 1B68     		ldr	r3, [r3]
  54 001c 864A     		ldr	r2, .L23+4
  55 001e 5268     		ldr	r2, [r2, #4]
  56 0020 1A42     		tst	r2, r3
  57 0022 00D1     		bne	.LCB28
  58 0024 7FE0     		b	.L3	@long jump
  59              	.LCB28:
 488:main.c        ****     {   
 489:main.c        ****         if(uart_debug){
  60              		.loc 1 489 0
  61 0026 844B     		ldr	r3, .L23+4
  62 0028 1B78     		ldrb	r3, [r3]
  63 002a 002B     		cmp	r3, #0
  64 002c 02D0     		beq	.L4
 490:main.c        ****             UART_UartPutString("P0 recieved\n");    
  65              		.loc 1 490 0
  66 002e 8548     		ldr	r0, .L23+16
  67 0030 FFF7FEFF 		bl	UART_UartPutString
  68              	.LVL1:
  69              	.L4:
 491:main.c        ****         }
 492:main.c        ****         #ifdef REV2
 493:main.c        ****         time_LED = 0;
  70              		.loc 1 493 0
  71 0034 0022     		movs	r2, #0
  72 0036 844B     		ldr	r3, .L23+20
  73 0038 1A70     		strb	r2, [r3]
 494:main.c        ****         Test_LED_Write(LED_ON);
  74              		.loc 1 494 0
  75 003a 0020     		movs	r0, #0
  76 003c FFF7FEFF 		bl	Test_LED_Write
ARM GAS  C:\Users\austc\AppData\Local\Temp\ccKyHRsy.s 			page 11


  77              	.LVL2:
 495:main.c        ****         #endif
 496:main.c        ****         set_data(CAN_RX_MAILBOX_0);
  78              		.loc 1 496 0
  79 0040 7D4B     		ldr	r3, .L23+4
  80 0042 1B89     		ldrh	r3, [r3, #8]
  81              	.LVL3:
  82              	.LBB6:
  83              	.LBB7:
 497:main.c        ****         /* Acknowledges receipt of new message */
 498:main.c        ****         CAN_RX_ACK_MESSAGE(CAN_RX_MAILBOX_0);
 499:main.c        ****     }
 500:main.c        **** 
 501:main.c        ****     if ((CAN_BUF_SR_REG & CAN_RX_MAILBOX_1_SHIFT) != 0u)
 502:main.c        ****     {
 503:main.c        ****         if(uart_debug){
 504:main.c        ****             UART_UartPutString("P1 recieved\n\n");    
 505:main.c        ****         }
 506:main.c        ****         #ifdef REV2
 507:main.c        ****         time_LED = 0;
 508:main.c        ****         Test_LED_Write(LED_ON);
 509:main.c        ****         #endif
 510:main.c        ****         set_data(CAN_RX_MAILBOX_1);
 511:main.c        ****         /* Acknowledges receipt of new message */
 512:main.c        ****         CAN_RX_ACK_MESSAGE(CAN_RX_MAILBOX_1);
 513:main.c        ****     }
 514:main.c        ****     
 515:main.c        **** }
 516:main.c        **** 
 517:main.c        **** inline void set_data(uint16 addr){
 518:main.c        ****         //set mode
 519:main.c        ****         if(CAN_RX_DATA_BYTE1(addr) == 0x00) {
  84              		.loc 1 519 0
  85 0044 5B01     		lsls	r3, r3, #5
  86              	.LVL4:
  87 0046 814A     		ldr	r2, .L23+24
  88 0048 9446     		mov	ip, r2
  89 004a 6344     		add	r3, r3, ip
  90 004c 9A68     		ldr	r2, [r3, #8]
  91 004e 120E     		lsrs	r2, r2, #24
  92 0050 23D1     		bne	.L5
 520:main.c        ****             if(CAN_RX_DATA_BYTE2(addr) == 1 || CAN_RX_DATA_BYTE2(addr) == 0) {
  93              		.loc 1 520 0
  94 0052 9A68     		ldr	r2, [r3, #8]
  95 0054 120C     		lsrs	r2, r2, #16
  96 0056 FF21     		movs	r1, #255
  97 0058 0A40     		ands	r2, r1
  98 005a 012A     		cmp	r2, #1
  99 005c 03D0     		beq	.L6
 100 005e 9A68     		ldr	r2, [r3, #8]
 101 0060 120C     		lsrs	r2, r2, #16
 102 0062 1142     		tst	r1, r2
 103 0064 11D1     		bne	.L7
 104              	.L6:
 521:main.c        ****                 mode = CAN_RX_DATA_BYTE2(addr);
 105              		.loc 1 521 0
 106 0066 9B68     		ldr	r3, [r3, #8]
ARM GAS  C:\Users\austc\AppData\Local\Temp\ccKyHRsy.s 			page 12


 107 0068 1B0C     		lsrs	r3, r3, #16
 108 006a DBB2     		uxtb	r3, r3
 109 006c 724A     		ldr	r2, .L23+4
 110 006e 9372     		strb	r3, [r2, #10]
 522:main.c        ****                 if(mode == 1){
 111              		.loc 1 522 0
 112 0070 012B     		cmp	r3, #1
 113 0072 0ED1     		bne	.L8
 523:main.c        ****                     final_angle = QuadDec_GetCounter() * flipEncoder;
 114              		.loc 1 523 0
 115 0074 FFF7FEFF 		bl	QuadDec_GetCounter
 116              	.LVL5:
 117 0078 734A     		ldr	r2, .L23+20
 118 007a 6F4B     		ldr	r3, .L23+4
 119 007c DB7A     		ldrb	r3, [r3, #11]
 120 007e 5BB2     		sxtb	r3, r3
 121 0080 5843     		muls	r0, r3
 122 0082 5080     		strh	r0, [r2, #2]
 524:main.c        ****                     i = 0;
 123              		.loc 1 524 0
 124 0084 0023     		movs	r3, #0
 125 0086 5360     		str	r3, [r2, #4]
 126 0088 03E0     		b	.L8
 127              	.LVL6:
 128              	.L7:
 525:main.c        ****                 }
 526:main.c        ****             }
 527:main.c        ****             else {
 528:main.c        ****                 invalid_arg.param = 0x00;
 129              		.loc 1 528 0
 130 008a 714B     		ldr	r3, .L23+28
 131 008c 0022     		movs	r2, #0
 132 008e 5A70     		strb	r2, [r3, #1]
 529:main.c        ****                 invalid_arg.done = 0;
 133              		.loc 1 529 0
 134 0090 9A70     		strb	r2, [r3, #2]
 135              	.LVL7:
 136              	.L8:
 530:main.c        ****             }
 531:main.c        ****             complete = 1;
 137              		.loc 1 531 0
 138 0092 0122     		movs	r2, #1
 139 0094 6C4B     		ldr	r3, .L23+20
 140 0096 1A72     		strb	r2, [r3, #8]
 141 0098 3BE0     		b	.L9
 142              	.LVL8:
 143              	.L5:
 532:main.c        ****         } 
 533:main.c        ****         //pwm
 534:main.c        ****         else if(CAN_RX_DATA_BYTE1(addr) == 0x02) {
 144              		.loc 1 534 0
 145 009a 9A68     		ldr	r2, [r3, #8]
 146 009c 120E     		lsrs	r2, r2, #24
 147 009e 022A     		cmp	r2, #2
 148 00a0 0ED1     		bne	.L10
 535:main.c        ****             Can_rx_pwm.b1 = CAN_RX_DATA_BYTE2(addr);
 149              		.loc 1 535 0
ARM GAS  C:\Users\austc\AppData\Local\Temp\ccKyHRsy.s 			page 13


 150 00a2 9968     		ldr	r1, [r3, #8]
 151 00a4 090C     		lsrs	r1, r1, #16
 152 00a6 6B4A     		ldr	r2, .L23+32
 153 00a8 5170     		strb	r1, [r2, #1]
 536:main.c        ****             Can_rx_pwm.b2 = CAN_RX_DATA_BYTE3(addr);
 154              		.loc 1 536 0
 155 00aa 9968     		ldr	r1, [r3, #8]
 156 00ac 090A     		lsrs	r1, r1, #8
 157 00ae 9170     		strb	r1, [r2, #2]
 537:main.c        ****             Can_rx_pwm.b3 = CAN_RX_DATA_BYTE4(addr);
 158              		.loc 1 537 0
 159 00b0 9968     		ldr	r1, [r3, #8]
 160 00b2 D170     		strb	r1, [r2, #3]
 538:main.c        ****             Can_rx_pwm.b4 = CAN_RX_DATA_BYTE5(addr);
 161              		.loc 1 538 0
 162 00b4 DB68     		ldr	r3, [r3, #12]
 163 00b6 1B0E     		lsrs	r3, r3, #24
 164 00b8 1371     		strb	r3, [r2, #4]
 539:main.c        ****             Can_rx_pwm.done = 0;
 165              		.loc 1 539 0
 166 00ba 0023     		movs	r3, #0
 167 00bc 5371     		strb	r3, [r2, #5]
 168 00be 28E0     		b	.L9
 169              	.L10:
 540:main.c        ****         } 
 541:main.c        ****         //angle
 542:main.c        ****         else if(CAN_RX_DATA_BYTE1(addr) == 0x04) {
 170              		.loc 1 542 0
 171 00c0 9A68     		ldr	r2, [r3, #8]
 172 00c2 120E     		lsrs	r2, r2, #24
 173 00c4 042A     		cmp	r2, #4
 174 00c6 1DD1     		bne	.L11
 543:main.c        ****             Can_rx_angle.b1 = CAN_RX_DATA_BYTE2(addr);
 175              		.loc 1 543 0
 176 00c8 9A68     		ldr	r2, [r3, #8]
 177 00ca 120C     		lsrs	r2, r2, #16
 178 00cc D0B2     		uxtb	r0, r2
 179 00ce 624C     		ldr	r4, .L23+36
 180 00d0 6070     		strb	r0, [r4, #1]
 544:main.c        ****             Can_rx_angle.b2 = CAN_RX_DATA_BYTE3(addr);
 181              		.loc 1 544 0
 182 00d2 9968     		ldr	r1, [r3, #8]
 183 00d4 090A     		lsrs	r1, r1, #8
 184 00d6 CAB2     		uxtb	r2, r1
 185 00d8 A270     		strb	r2, [r4, #2]
 545:main.c        ****             Can_rx_angle.b3 = CAN_RX_DATA_BYTE4(addr);
 186              		.loc 1 545 0
 187 00da 9968     		ldr	r1, [r3, #8]
 188 00dc E170     		strb	r1, [r4, #3]
 546:main.c        ****             Can_rx_angle.b4 = CAN_RX_DATA_BYTE5(addr);
 189              		.loc 1 546 0
 190 00de DB68     		ldr	r3, [r3, #12]
 191 00e0 1B0E     		lsrs	r3, r3, #24
 192 00e2 2371     		strb	r3, [r4, #4]
 547:main.c        ****             Can_rx_angle.done = 0;
 193              		.loc 1 547 0
 194 00e4 0023     		movs	r3, #0
ARM GAS  C:\Users\austc\AppData\Local\Temp\ccKyHRsy.s 			page 14


 195 00e6 6371     		strb	r3, [r4, #5]
 548:main.c        ****             if((((uint16_t)Can_rx_angle.b2) << 8 | Can_rx_angle.b1) != final_angle){
 196              		.loc 1 548 0
 197 00e8 1202     		lsls	r2, r2, #8
 198 00ea 0243     		orrs	r2, r0
 199 00ec 564B     		ldr	r3, .L23+20
 200 00ee 0221     		movs	r1, #2
 201 00f0 5B5E     		ldrsh	r3, [r3, r1]
 202 00f2 9A42     		cmp	r2, r3
 203 00f4 02D0     		beq	.L12
 549:main.c        ****                  i=0;
 204              		.loc 1 549 0
 205 00f6 0022     		movs	r2, #0
 206 00f8 534B     		ldr	r3, .L23+20
 207 00fa 5A60     		str	r2, [r3, #4]
 208              	.L12:
 550:main.c        ****             }
 551:main.c        ****             complete = 1;
 209              		.loc 1 551 0
 210 00fc 0122     		movs	r2, #1
 211 00fe 524B     		ldr	r3, .L23+20
 212 0100 1A72     		strb	r2, [r3, #8]
 213 0102 06E0     		b	.L9
 214              	.L11:
 552:main.c        ****         } 
 553:main.c        ****         //model requst
 554:main.c        ****         else if (CAN_RX_DATA_BYTE1(addr) == 0x10){
 215              		.loc 1 554 0
 216 0104 9B68     		ldr	r3, [r3, #8]
 217 0106 1B0E     		lsrs	r3, r3, #24
 218 0108 102B     		cmp	r3, #16
 219 010a 02D1     		bne	.L9
 555:main.c        ****             model_req = 1;
 220              		.loc 1 555 0
 221 010c 0122     		movs	r2, #1
 222 010e 4E4B     		ldr	r3, .L23+20
 223 0110 5A72     		strb	r2, [r3, #9]
 224              	.LVL9:
 225              	.L9:
 226              	.LBE7:
 227              	.LBE6:
 498:main.c        ****     }
 228              		.loc 1 498 0
 229 0112 494B     		ldr	r3, .L23+4
 230 0114 1B89     		ldrh	r3, [r3, #8]
 231 0116 5B01     		lsls	r3, r3, #5
 232 0118 4C4A     		ldr	r2, .L23+24
 233 011a 9446     		mov	ip, r2
 234 011c 6344     		add	r3, r3, ip
 235 011e 1968     		ldr	r1, [r3]
 236 0120 0122     		movs	r2, #1
 237 0122 0A43     		orrs	r2, r1
 238 0124 1A60     		str	r2, [r3]
 239              	.L3:
 501:main.c        ****     {
 240              		.loc 1 501 0
 241 0126 464B     		ldr	r3, .L23+12
ARM GAS  C:\Users\austc\AppData\Local\Temp\ccKyHRsy.s 			page 15


 242 0128 1A68     		ldr	r2, [r3]
 243 012a 434B     		ldr	r3, .L23+4
 244 012c 9B89     		ldrh	r3, [r3, #12]
 245 012e 1A42     		tst	r2, r3
 246 0130 00D1     		bne	.LCB206
 247 0132 7EE0     		b	.L1	@long jump
 248              	.LCB206:
 503:main.c        ****             UART_UartPutString("P1 recieved\n\n");    
 249              		.loc 1 503 0
 250 0134 404B     		ldr	r3, .L23+4
 251 0136 1B78     		ldrb	r3, [r3]
 252 0138 002B     		cmp	r3, #0
 253 013a 02D0     		beq	.L14
 504:main.c        ****         }
 254              		.loc 1 504 0
 255 013c 4748     		ldr	r0, .L23+40
 256 013e FFF7FEFF 		bl	UART_UartPutString
 257              	.LVL10:
 258              	.L14:
 507:main.c        ****         Test_LED_Write(LED_ON);
 259              		.loc 1 507 0
 260 0142 414C     		ldr	r4, .L23+20
 261 0144 0023     		movs	r3, #0
 262 0146 2370     		strb	r3, [r4]
 508:main.c        ****         #endif
 263              		.loc 1 508 0
 264 0148 0020     		movs	r0, #0
 265 014a FFF7FEFF 		bl	Test_LED_Write
 266              	.LVL11:
 510:main.c        ****         /* Acknowledges receipt of new message */
 267              		.loc 1 510 0
 268 014e 6389     		ldrh	r3, [r4, #10]
 269              	.LVL12:
 270              	.LBB8:
 271              	.LBB9:
 519:main.c        ****             if(CAN_RX_DATA_BYTE2(addr) == 1 || CAN_RX_DATA_BYTE2(addr) == 0) {
 272              		.loc 1 519 0
 273 0150 5B01     		lsls	r3, r3, #5
 274              	.LVL13:
 275 0152 3E4A     		ldr	r2, .L23+24
 276 0154 9446     		mov	ip, r2
 277 0156 6344     		add	r3, r3, ip
 278 0158 9A68     		ldr	r2, [r3, #8]
 279 015a 120E     		lsrs	r2, r2, #24
 280 015c 23D1     		bne	.L15
 520:main.c        ****                 mode = CAN_RX_DATA_BYTE2(addr);
 281              		.loc 1 520 0
 282 015e 9A68     		ldr	r2, [r3, #8]
 283 0160 120C     		lsrs	r2, r2, #16
 284 0162 FF21     		movs	r1, #255
 285 0164 0A40     		ands	r2, r1
 286 0166 012A     		cmp	r2, #1
 287 0168 03D0     		beq	.L16
 288 016a 9A68     		ldr	r2, [r3, #8]
 289 016c 120C     		lsrs	r2, r2, #16
 290 016e 1142     		tst	r1, r2
 291 0170 11D1     		bne	.L17
ARM GAS  C:\Users\austc\AppData\Local\Temp\ccKyHRsy.s 			page 16


 292              	.L16:
 521:main.c        ****                 if(mode == 1){
 293              		.loc 1 521 0
 294 0172 9B68     		ldr	r3, [r3, #8]
 295 0174 1B0C     		lsrs	r3, r3, #16
 296 0176 DBB2     		uxtb	r3, r3
 297 0178 2F4A     		ldr	r2, .L23+4
 298 017a 9372     		strb	r3, [r2, #10]
 522:main.c        ****                     final_angle = QuadDec_GetCounter() * flipEncoder;
 299              		.loc 1 522 0
 300 017c 012B     		cmp	r3, #1
 301 017e 0ED1     		bne	.L18
 523:main.c        ****                     i = 0;
 302              		.loc 1 523 0
 303 0180 FFF7FEFF 		bl	QuadDec_GetCounter
 304              	.LVL14:
 305 0184 304A     		ldr	r2, .L23+20
 306 0186 2C4B     		ldr	r3, .L23+4
 307 0188 DB7A     		ldrb	r3, [r3, #11]
 308 018a 5BB2     		sxtb	r3, r3
 309 018c 5843     		muls	r0, r3
 310 018e 5080     		strh	r0, [r2, #2]
 524:main.c        ****                 }
 311              		.loc 1 524 0
 312 0190 0023     		movs	r3, #0
 313 0192 5360     		str	r3, [r2, #4]
 314 0194 03E0     		b	.L18
 315              	.LVL15:
 316              	.L17:
 528:main.c        ****                 invalid_arg.done = 0;
 317              		.loc 1 528 0
 318 0196 2E4B     		ldr	r3, .L23+28
 319 0198 0022     		movs	r2, #0
 320 019a 5A70     		strb	r2, [r3, #1]
 529:main.c        ****             }
 321              		.loc 1 529 0
 322 019c 9A70     		strb	r2, [r3, #2]
 323              	.LVL16:
 324              	.L18:
 531:main.c        ****         } 
 325              		.loc 1 531 0
 326 019e 0122     		movs	r2, #1
 327 01a0 294B     		ldr	r3, .L23+20
 328 01a2 1A72     		strb	r2, [r3, #8]
 329 01a4 3BE0     		b	.L19
 330              	.LVL17:
 331              	.L15:
 534:main.c        ****             Can_rx_pwm.b1 = CAN_RX_DATA_BYTE2(addr);
 332              		.loc 1 534 0
 333 01a6 9A68     		ldr	r2, [r3, #8]
 334 01a8 120E     		lsrs	r2, r2, #24
 335 01aa 022A     		cmp	r2, #2
 336 01ac 0ED1     		bne	.L20
 535:main.c        ****             Can_rx_pwm.b2 = CAN_RX_DATA_BYTE3(addr);
 337              		.loc 1 535 0
 338 01ae 9968     		ldr	r1, [r3, #8]
 339 01b0 090C     		lsrs	r1, r1, #16
ARM GAS  C:\Users\austc\AppData\Local\Temp\ccKyHRsy.s 			page 17


 340 01b2 284A     		ldr	r2, .L23+32
 341 01b4 5170     		strb	r1, [r2, #1]
 536:main.c        ****             Can_rx_pwm.b3 = CAN_RX_DATA_BYTE4(addr);
 342              		.loc 1 536 0
 343 01b6 9968     		ldr	r1, [r3, #8]
 344 01b8 090A     		lsrs	r1, r1, #8
 345 01ba 9170     		strb	r1, [r2, #2]
 537:main.c        ****             Can_rx_pwm.b4 = CAN_RX_DATA_BYTE5(addr);
 346              		.loc 1 537 0
 347 01bc 9968     		ldr	r1, [r3, #8]
 348 01be D170     		strb	r1, [r2, #3]
 538:main.c        ****             Can_rx_pwm.done = 0;
 349              		.loc 1 538 0
 350 01c0 DB68     		ldr	r3, [r3, #12]
 351 01c2 1B0E     		lsrs	r3, r3, #24
 352 01c4 1371     		strb	r3, [r2, #4]
 539:main.c        ****         } 
 353              		.loc 1 539 0
 354 01c6 0023     		movs	r3, #0
 355 01c8 5371     		strb	r3, [r2, #5]
 356 01ca 28E0     		b	.L19
 357              	.L20:
 542:main.c        ****             Can_rx_angle.b1 = CAN_RX_DATA_BYTE2(addr);
 358              		.loc 1 542 0
 359 01cc 9A68     		ldr	r2, [r3, #8]
 360 01ce 120E     		lsrs	r2, r2, #24
 361 01d0 042A     		cmp	r2, #4
 362 01d2 1DD1     		bne	.L21
 543:main.c        ****             Can_rx_angle.b2 = CAN_RX_DATA_BYTE3(addr);
 363              		.loc 1 543 0
 364 01d4 9A68     		ldr	r2, [r3, #8]
 365 01d6 120C     		lsrs	r2, r2, #16
 366 01d8 D0B2     		uxtb	r0, r2
 367 01da 1F4C     		ldr	r4, .L23+36
 368 01dc 6070     		strb	r0, [r4, #1]
 544:main.c        ****             Can_rx_angle.b3 = CAN_RX_DATA_BYTE4(addr);
 369              		.loc 1 544 0
 370 01de 9968     		ldr	r1, [r3, #8]
 371 01e0 090A     		lsrs	r1, r1, #8
 372 01e2 CAB2     		uxtb	r2, r1
 373 01e4 A270     		strb	r2, [r4, #2]
 545:main.c        ****             Can_rx_angle.b4 = CAN_RX_DATA_BYTE5(addr);
 374              		.loc 1 545 0
 375 01e6 9968     		ldr	r1, [r3, #8]
 376 01e8 E170     		strb	r1, [r4, #3]
 546:main.c        ****             Can_rx_angle.done = 0;
 377              		.loc 1 546 0
 378 01ea DB68     		ldr	r3, [r3, #12]
 379 01ec 1B0E     		lsrs	r3, r3, #24
 380 01ee 2371     		strb	r3, [r4, #4]
 547:main.c        ****             if((((uint16_t)Can_rx_angle.b2) << 8 | Can_rx_angle.b1) != final_angle){
 381              		.loc 1 547 0
 382 01f0 0023     		movs	r3, #0
 383 01f2 6371     		strb	r3, [r4, #5]
 548:main.c        ****                  i=0;
 384              		.loc 1 548 0
 385 01f4 1202     		lsls	r2, r2, #8
ARM GAS  C:\Users\austc\AppData\Local\Temp\ccKyHRsy.s 			page 18


 386 01f6 0243     		orrs	r2, r0
 387 01f8 134B     		ldr	r3, .L23+20
 388 01fa 0221     		movs	r1, #2
 389 01fc 5B5E     		ldrsh	r3, [r3, r1]
 390 01fe 9A42     		cmp	r2, r3
 391 0200 02D0     		beq	.L22
 549:main.c        ****             }
 392              		.loc 1 549 0
 393 0202 0022     		movs	r2, #0
 394 0204 104B     		ldr	r3, .L23+20
 395 0206 5A60     		str	r2, [r3, #4]
 396              	.L22:
 551:main.c        ****         } 
 397              		.loc 1 551 0
 398 0208 0122     		movs	r2, #1
 399 020a 0F4B     		ldr	r3, .L23+20
 400 020c 1A72     		strb	r2, [r3, #8]
 401 020e 06E0     		b	.L19
 402              	.L21:
 554:main.c        ****             model_req = 1;
 403              		.loc 1 554 0
 404 0210 9B68     		ldr	r3, [r3, #8]
 405 0212 1B0E     		lsrs	r3, r3, #24
 406 0214 102B     		cmp	r3, #16
 407 0216 02D1     		bne	.L19
 408              		.loc 1 555 0
 409 0218 0122     		movs	r2, #1
 410 021a 0B4B     		ldr	r3, .L23+20
 411 021c 5A72     		strb	r2, [r3, #9]
 412              	.LVL18:
 413              	.L19:
 414              	.LBE9:
 415              	.LBE8:
 512:main.c        ****     }
 416              		.loc 1 512 0
 417 021e 0A4B     		ldr	r3, .L23+20
 418 0220 5B89     		ldrh	r3, [r3, #10]
 419 0222 5B01     		lsls	r3, r3, #5
 420 0224 094A     		ldr	r2, .L23+24
 421 0226 9446     		mov	ip, r2
 422 0228 6344     		add	r3, r3, ip
 423 022a 1968     		ldr	r1, [r3]
 424 022c 0122     		movs	r2, #1
 425 022e 0A43     		orrs	r2, r1
 426 0230 1A60     		str	r2, [r3]
 427              	.L1:
 515:main.c        **** 
 428              		.loc 1 515 0
 429              		@ sp needed
 430 0232 10BD     		pop	{r4, pc}
 431              	.L24:
 432              		.align	2
 433              	.L23:
 434 0234 00002F40 		.word	1076822016
 435 0238 00000000 		.word	.LANCHOR0
 436 023c 00000000 		.word	.LC1
 437 0240 08002F40 		.word	1076822024
ARM GAS  C:\Users\austc\AppData\Local\Temp\ccKyHRsy.s 			page 19


 438 0244 14000000 		.word	.LC3
 439 0248 00000000 		.word	.LANCHOR1
 440 024c A0002F40 		.word	1076822176
 441 0250 00000000 		.word	invalid_arg
 442 0254 00000000 		.word	Can_rx_pwm
 443 0258 00000000 		.word	Can_rx_angle
 444 025c 24000000 		.word	.LC9
 445              		.cfi_endproc
 446              	.LFE47:
 447              		.size	ISR_CAN, .-ISR_CAN
 448              		.section	.text.emergency_halt,"ax",%progbits
 449              		.align	2
 450              		.global	emergency_halt
 451              		.code	16
 452              		.thumb_func
 453              		.type	emergency_halt, %function
 454              	emergency_halt:
 455              	.LFB38:
 273:main.c        ****     PWM_Motor_Stop();
 456              		.loc 1 273 0
 457              		.cfi_startproc
 458              		@ args = 0, pretend = 0, frame = 0
 459              		@ frame_needed = 0, uses_anonymous_args = 0
 460 0000 10B5     		push	{r4, lr}
 461              		.cfi_def_cfa_offset 8
 462              		.cfi_offset 4, -8
 463              		.cfi_offset 14, -4
 274:main.c        ****     emergency = 1;
 464              		.loc 1 274 0
 465 0002 FFF7FEFF 		bl	PWM_Motor_Stop
 466              	.LVL19:
 275:main.c        ****     // stops all motors;
 467              		.loc 1 275 0
 468 0006 0122     		movs	r2, #1
 469 0008 014B     		ldr	r3, .L26
 470 000a 1A73     		strb	r2, [r3, #12]
 278:main.c        **** 
 471              		.loc 1 278 0
 472              		@ sp needed
 473 000c 10BD     		pop	{r4, pc}
 474              	.L27:
 475 000e C046     		.align	2
 476              	.L26:
 477 0010 00000000 		.word	.LANCHOR1
 478              		.cfi_endproc
 479              	.LFE38:
 480              		.size	emergency_halt, .-emergency_halt
 481              		.section	.text.initialize,"ax",%progbits
 482              		.align	2
 483              		.global	initialize
 484              		.code	16
 485              		.thumb_func
 486              		.type	initialize, %function
 487              	initialize:
 488              	.LFB39:
 280:main.c        ****     
 489              		.loc 1 280 0
ARM GAS  C:\Users\austc\AppData\Local\Temp\ccKyHRsy.s 			page 20


 490              		.cfi_startproc
 491              		@ args = 0, pretend = 0, frame = 0
 492              		@ frame_needed = 0, uses_anonymous_args = 0
 493 0000 70B5     		push	{r4, r5, r6, lr}
 494              		.cfi_def_cfa_offset 16
 495              		.cfi_offset 4, -16
 496              		.cfi_offset 5, -12
 497              		.cfi_offset 6, -8
 498              		.cfi_offset 14, -4
 282:main.c        ****     Status_Reg_Switches_InterruptEnable();
 499              		.loc 1 282 0
 500 0002 FFF7FEFF 		bl	CAN_Start
 501              	.LVL20:
 502 0006 0400     		movs	r4, r0
 503              	.LVL21:
 283:main.c        ****     Timer_1_Start();
 504              		.loc 1 283 0
 505 0008 FFF7FEFF 		bl	Status_Reg_Switches_InterruptEnable
 506              	.LVL22:
 284:main.c        ****    // ADC_SAR_Seq_1_Start();
 507              		.loc 1 284 0
 508 000c FFF7FEFF 		bl	Timer_1_Start
 509              	.LVL23:
 287:main.c        ****     PWM_Motor_Start();  
 510              		.loc 1 287 0
 511 0010 FFF7FEFF 		bl	QuadDec_Start
 512              	.LVL24:
 288:main.c        ****     
 513              		.loc 1 288 0
 514 0014 FFF7FEFF 		bl	PWM_Motor_Start
 515              	.LVL25:
 290:main.c        ****     CyIntSetVector(CAN_ISR_NUMBER, ISR_CAN);
 516              		.loc 1 290 0
 517 0018 FFF7FEFF 		bl	CAN_GlobalIntEnable
 518              	.LVL26:
 291:main.c        ****     CyGlobalIntEnable; /* Enable global interrupts. */
 519              		.loc 1 291 0
 520 001c 0D49     		ldr	r1, .L30
 521 001e 1D20     		movs	r0, #29
 522 0020 FFF7FEFF 		bl	CyIntSetVector
 523              	.LVL27:
 292:main.c        ****     isr_Limit_1_StartEx(Pin_Limit_Handler);
 524              		.loc 1 292 0
 525              		.syntax divided
 526              	@ 292 "main.c" 1
 527 0024 62B6     		CPSIE   i
 528              	@ 0 "" 2
 293:main.c        ****     isr_period_StartEx(Period_Reset_Handler);
 529              		.loc 1 293 0
 530              		.thumb
 531              		.syntax unified
 532 0026 0C48     		ldr	r0, .L30+4
 533 0028 FFF7FEFF 		bl	isr_Limit_1_StartEx
 534              	.LVL28:
 294:main.c        ****     
 535              		.loc 1 294 0
 536 002c 0B48     		ldr	r0, .L30+8
ARM GAS  C:\Users\austc\AppData\Local\Temp\ccKyHRsy.s 			page 21


 537 002e FFF7FEFF 		bl	isr_period_StartEx
 538              	.LVL29:
 296:main.c        ****         UART_Start();
 539              		.loc 1 296 0
 540 0032 0B4B     		ldr	r3, .L30+12
 541 0034 1B78     		ldrb	r3, [r3]
 542 0036 002B     		cmp	r3, #0
 543 0038 0AD0     		beq	.L28
 297:main.c        ****         sprintf(txData, "CAN_Start():  %u\r\n",can_start);
 544              		.loc 1 297 0
 545 003a FFF7FEFF 		bl	UART_Start
 546              	.LVL30:
 298:main.c        ****         UART_UartPutString(txData); 
 547              		.loc 1 298 0
 548 003e 094D     		ldr	r5, .L30+16
 549 0040 2200     		movs	r2, r4
 550 0042 0949     		ldr	r1, .L30+20
 551 0044 2800     		movs	r0, r5
 552 0046 FFF7FEFF 		bl	sprintf
 553              	.LVL31:
 299:main.c        ****     }
 554              		.loc 1 299 0
 555 004a 2800     		movs	r0, r5
 556 004c FFF7FEFF 		bl	UART_UartPutString
 557              	.LVL32:
 558              	.L28:
 301:main.c        **** 
 559              		.loc 1 301 0
 560              		@ sp needed
 561              	.LVL33:
 562 0050 70BD     		pop	{r4, r5, r6, pc}
 563              	.L31:
 564 0052 C046     		.align	2
 565              	.L30:
 566 0054 00000000 		.word	ISR_CAN
 567 0058 00000000 		.word	Pin_Limit_Handler
 568 005c 00000000 		.word	Period_Reset_Handler
 569 0060 00000000 		.word	.LANCHOR0
 570 0064 00000000 		.word	txData
 571 0068 34000000 		.word	.LC16
 572              		.cfi_endproc
 573              	.LFE39:
 574              		.size	initialize, .-initialize
 575              		.section	.text.set_CAN_ID,"ax",%progbits
 576              		.align	2
 577              		.global	set_CAN_ID
 578              		.code	16
 579              		.thumb_func
 580              		.type	set_CAN_ID, %function
 581              	set_CAN_ID:
 582              	.LFB41:
 394:main.c        ****     message.id = (priority << 10) | (message_id << 5) | 0b00010;
 583              		.loc 1 394 0
 584              		.cfi_startproc
 585              		@ args = 0, pretend = 0, frame = 0
 586              		@ frame_needed = 0, uses_anonymous_args = 0
 587              		@ link register save eliminated.
ARM GAS  C:\Users\austc\AppData\Local\Temp\ccKyHRsy.s 			page 22


 588              	.LVL34:
 395:main.c        **** }
 589              		.loc 1 395 0
 590 0000 8002     		lsls	r0, r0, #10
 591              	.LVL35:
 592 0002 044B     		ldr	r3, .L33
 593 0004 1B69     		ldr	r3, [r3, #16]
 594 0006 5B01     		lsls	r3, r3, #5
 595 0008 1843     		orrs	r0, r3
 596 000a 0223     		movs	r3, #2
 597 000c 1843     		orrs	r0, r3
 598 000e 024B     		ldr	r3, .L33+4
 599 0010 1860     		str	r0, [r3]
 396:main.c        **** 
 600              		.loc 1 396 0
 601              		@ sp needed
 602 0012 7047     		bx	lr
 603              	.L34:
 604              		.align	2
 605              	.L33:
 606 0014 00000000 		.word	.LANCHOR1
 607 0018 00000000 		.word	message
 608              		.cfi_endproc
 609              	.LFE41:
 610              		.size	set_CAN_ID, .-set_CAN_ID
 611              		.section	.text.initialize_can_addr,"ax",%progbits
 612              		.align	2
 613              		.global	initialize_can_addr
 614              		.code	16
 615              		.thumb_func
 616              		.type	initialize_can_addr, %function
 617              	initialize_can_addr:
 618              	.LFB40:
 319:main.c        ****     uint8 setting = Can_addr_Read();
 619              		.loc 1 319 0
 620              		.cfi_startproc
 621              		@ args = 0, pretend = 0, frame = 0
 622              		@ frame_needed = 0, uses_anonymous_args = 0
 623 0000 F0B5     		push	{r4, r5, r6, r7, lr}
 624              		.cfi_def_cfa_offset 20
 625              		.cfi_offset 4, -20
 626              		.cfi_offset 5, -16
 627              		.cfi_offset 6, -12
 628              		.cfi_offset 7, -8
 629              		.cfi_offset 14, -4
 630 0002 83B0     		sub	sp, sp, #12
 631              		.cfi_def_cfa_offset 32
 320:main.c        ****     uint8 shift = 0;
 632              		.loc 1 320 0
 633 0004 FFF7FEFF 		bl	Can_addr_Read
 634              	.LVL36:
 635 0008 0500     		movs	r5, r0
 636              	.LVL37:
 322:main.c        ****         case 0b000: //Base rotation
 637              		.loc 1 322 0
 638 000a FFF7FEFF 		bl	Can_addr_Read
 639              	.LVL38:
ARM GAS  C:\Users\austc\AppData\Local\Temp\ccKyHRsy.s 			page 23


 640 000e 0628     		cmp	r0, #6
 641 0010 72D8     		bhi	.L46
 642 0012 8000     		lsls	r0, r0, #2
 643 0014 544B     		ldr	r3, .L47
 644 0016 1B58     		ldr	r3, [r3, r0]
 645 0018 9F46     		mov	pc, r3
 646              		.section	.rodata
 647              		.align	2
 648              	.L38:
 649 0000 1A000000 		.word	.L37
 650 0004 2E000000 		.word	.L39
 651 0008 5A000000 		.word	.L40
 652 000c 6E000000 		.word	.L41
 653 0010 86000000 		.word	.L42
 654 0014 B4000000 		.word	.L43
 655 0018 E4000000 		.word	.L44
 656              		.section	.text.initialize_can_addr
 657              	.L37:
 324:main.c        ****             shift = 0;
 658              		.loc 1 324 0
 659 001a 1022     		movs	r2, #16
 660 001c 534B     		ldr	r3, .L47+4
 661 001e 1A61     		str	r2, [r3, #16]
 326:main.c        ****             break;
 662              		.loc 1 326 0
 663 0020 0020     		movs	r0, #0
 664 0022 5349     		ldr	r1, .L47+8
 665 0024 534B     		ldr	r3, .L47+12
 666 0026 1860     		str	r0, [r3]
 667 0028 5960     		str	r1, [r3, #4]
 325:main.c        ****             ratio = 1;
 668              		.loc 1 325 0
 669 002a 0026     		movs	r6, #0
 327:main.c        ****         case 0b001: // shoulder
 670              		.loc 1 327 0
 671 002c 65E0     		b	.L36
 672              	.L39:
 329:main.c        ****             shift = 1;
 673              		.loc 1 329 0
 674 002e 1122     		movs	r2, #17
 675 0030 4E4B     		ldr	r3, .L47+4
 676 0032 1A61     		str	r2, [r3, #16]
 677              	.LVL39:
 331:main.c        ****             #ifdef REV2
 678              		.loc 1 331 0
 679 0034 5048     		ldr	r0, .L47+16
 680 0036 5149     		ldr	r1, .L47+20
 681 0038 4E4B     		ldr	r3, .L47+12
 682 003a 1860     		str	r0, [r3]
 683 003c 5960     		str	r1, [r3, #4]
 333:main.c        ****             #endif
 684              		.loc 1 333 0
 685 003e 103A     		subs	r2, r2, #16
 686 0040 4F4B     		ldr	r3, .L47+24
 687 0042 DA72     		strb	r2, [r3, #11]
 335:main.c        ****             ki = 12;
 688              		.loc 1 335 0
ARM GAS  C:\Users\austc\AppData\Local\Temp\ccKyHRsy.s 			page 24


 689 0044 3132     		adds	r2, r2, #49
 690 0046 4F4B     		ldr	r3, .L47+28
 691 0048 1A60     		str	r2, [r3]
 336:main.c        ****             kd = 10;
 692              		.loc 1 336 0
 693 004a 263A     		subs	r2, r2, #38
 694 004c 4E4B     		ldr	r3, .L47+32
 695 004e 1A60     		str	r2, [r3]
 337:main.c        ****             break;
 696              		.loc 1 337 0
 697 0050 023A     		subs	r2, r2, #2
 698 0052 4E4B     		ldr	r3, .L47+36
 699 0054 1A60     		str	r2, [r3]
 330:main.c        ****             ratio = 14.45;
 700              		.loc 1 330 0
 701 0056 0126     		movs	r6, #1
 338:main.c        ****         case 0b010: // elbow
 702              		.loc 1 338 0
 703 0058 4FE0     		b	.L36
 704              	.LVL40:
 705              	.L40:
 340:main.c        ****             shift = 2;
 706              		.loc 1 340 0
 707 005a 1222     		movs	r2, #18
 708 005c 434B     		ldr	r3, .L47+4
 709 005e 1A61     		str	r2, [r3, #16]
 710              	.LVL41:
 342:main.c        ****             break;
 711              		.loc 1 342 0
 712 0060 4548     		ldr	r0, .L47+16
 713 0062 4B49     		ldr	r1, .L47+40
 714 0064 434B     		ldr	r3, .L47+12
 715 0066 1860     		str	r0, [r3]
 716 0068 5960     		str	r1, [r3, #4]
 341:main.c        ****             ratio = 2.8;
 717              		.loc 1 341 0
 718 006a 0226     		movs	r6, #2
 343:main.c        ****         case 0b011: // forearm rotation
 719              		.loc 1 343 0
 720 006c 45E0     		b	.L36
 721              	.LVL42:
 722              	.L41:
 345:main.c        ****             disable_limit = 1;
 723              		.loc 1 345 0
 724 006e 3F4B     		ldr	r3, .L47+4
 725 0070 1322     		movs	r2, #19
 726 0072 1A61     		str	r2, [r3, #16]
 346:main.c        ****             shift = 3;
 727              		.loc 1 346 0
 728 0074 123A     		subs	r2, r2, #18
 729 0076 1A75     		strb	r2, [r3, #20]
 730              	.LVL43:
 348:main.c        **** 
 731              		.loc 1 348 0
 732 0078 0020     		movs	r0, #0
 733 007a 3D49     		ldr	r1, .L47+8
 734 007c 3D4B     		ldr	r3, .L47+12
ARM GAS  C:\Users\austc\AppData\Local\Temp\ccKyHRsy.s 			page 25


 735 007e 1860     		str	r0, [r3]
 736 0080 5960     		str	r1, [r3, #4]
 347:main.c        ****             ratio = 1;
 737              		.loc 1 347 0
 738 0082 0326     		movs	r6, #3
 350:main.c        ****         case 0b100: // diff wrist 1
 739              		.loc 1 350 0
 740 0084 39E0     		b	.L36
 741              	.LVL44:
 742              	.L42:
 352:main.c        ****             disable_limit = 1;
 743              		.loc 1 352 0
 744 0086 394A     		ldr	r2, .L47+4
 745 0088 1423     		movs	r3, #20
 746 008a 1361     		str	r3, [r2, #16]
 353:main.c        ****             shift = 4;
 747              		.loc 1 353 0
 748 008c 0121     		movs	r1, #1
 749 008e 1175     		strb	r1, [r2, #20]
 750              	.LVL45:
 355:main.c        ****             kp = 20;
 751              		.loc 1 355 0
 752 0090 4048     		ldr	r0, .L47+44
 753 0092 4149     		ldr	r1, .L47+48
 754 0094 374A     		ldr	r2, .L47+12
 755 0096 1060     		str	r0, [r2]
 756 0098 5160     		str	r1, [r2, #4]
 356:main.c        ****             ki = 30;
 757              		.loc 1 356 0
 758 009a 3A4A     		ldr	r2, .L47+28
 759 009c 1360     		str	r3, [r2]
 357:main.c        ****             kd = 10;
 760              		.loc 1 357 0
 761 009e 1E22     		movs	r2, #30
 762 00a0 394B     		ldr	r3, .L47+32
 763 00a2 1A60     		str	r2, [r3]
 358:main.c        ****             flipEncoder = -1;
 764              		.loc 1 358 0
 765 00a4 143A     		subs	r2, r2, #20
 766 00a6 394B     		ldr	r3, .L47+36
 767 00a8 1A60     		str	r2, [r3]
 359:main.c        ****             break;
 768              		.loc 1 359 0
 769 00aa F532     		adds	r2, r2, #245
 770 00ac 344B     		ldr	r3, .L47+24
 771 00ae DA72     		strb	r2, [r3, #11]
 354:main.c        ****             ratio = 1.3888;
 772              		.loc 1 354 0
 773 00b0 0426     		movs	r6, #4
 360:main.c        ****         case 0b101: // diff wrist 2
 774              		.loc 1 360 0
 775 00b2 22E0     		b	.L36
 776              	.LVL46:
 777              	.L43:
 362:main.c        ****             disable_limit = 1;
 778              		.loc 1 362 0
 779 00b4 2D4B     		ldr	r3, .L47+4
ARM GAS  C:\Users\austc\AppData\Local\Temp\ccKyHRsy.s 			page 26


 780 00b6 1522     		movs	r2, #21
 781 00b8 1A61     		str	r2, [r3, #16]
 363:main.c        ****             flipEncoder = -1;
 782              		.loc 1 363 0
 783 00ba 143A     		subs	r2, r2, #20
 784 00bc 1A75     		strb	r2, [r3, #20]
 364:main.c        ****             shift = 5;
 785              		.loc 1 364 0
 786 00be FE32     		adds	r2, r2, #254
 787 00c0 2F4B     		ldr	r3, .L47+24
 788 00c2 DA72     		strb	r2, [r3, #11]
 789              	.LVL47:
 366:main.c        ****             kp = 50;
 790              		.loc 1 366 0
 791 00c4 3348     		ldr	r0, .L47+44
 792 00c6 3449     		ldr	r1, .L47+48
 793 00c8 2A4B     		ldr	r3, .L47+12
 794 00ca 1860     		str	r0, [r3]
 795 00cc 5960     		str	r1, [r3, #4]
 367:main.c        ****             ki = 40;
 796              		.loc 1 367 0
 797 00ce CD3A     		subs	r2, r2, #205
 798 00d0 2C4B     		ldr	r3, .L47+28
 799 00d2 1A60     		str	r2, [r3]
 368:main.c        ****             kd = 10;
 800              		.loc 1 368 0
 801 00d4 0A3A     		subs	r2, r2, #10
 802 00d6 2C4B     		ldr	r3, .L47+32
 803 00d8 1A60     		str	r2, [r3]
 369:main.c        ****             break;
 804              		.loc 1 369 0
 805 00da 1E3A     		subs	r2, r2, #30
 806 00dc 2B4B     		ldr	r3, .L47+36
 807 00de 1A60     		str	r2, [r3]
 365:main.c        ****             ratio = 1.3888;
 808              		.loc 1 365 0
 809 00e0 0526     		movs	r6, #5
 370:main.c        ****         case 0b110: // hand
 810              		.loc 1 370 0
 811 00e2 0AE0     		b	.L36
 812              	.LVL48:
 813              	.L44:
 372:main.c        ****             shift = 6;
 814              		.loc 1 372 0
 815 00e4 1622     		movs	r2, #22
 816 00e6 214B     		ldr	r3, .L47+4
 817 00e8 1A61     		str	r2, [r3, #16]
 818              	.LVL49:
 374:main.c        ****             break;
 819              		.loc 1 374 0
 820 00ea 0020     		movs	r0, #0
 821 00ec 2049     		ldr	r1, .L47+8
 822 00ee 214B     		ldr	r3, .L47+12
 823 00f0 1860     		str	r0, [r3]
 824 00f2 5960     		str	r1, [r3, #4]
 373:main.c        ****             ratio = 1;
 825              		.loc 1 373 0
ARM GAS  C:\Users\austc\AppData\Local\Temp\ccKyHRsy.s 			page 27


 826 00f4 0626     		movs	r6, #6
 375:main.c        ****     }
 827              		.loc 1 375 0
 828 00f6 00E0     		b	.L36
 829              	.LVL50:
 830              	.L46:
 321:main.c        ****     switch(Can_addr_Read()) {
 831              		.loc 1 321 0
 832 00f8 0026     		movs	r6, #0
 833              	.LVL51:
 834              	.L36:
 378:main.c        ****     CAN_RX_MAILBOX_1_SHIFT = CAN_RX_MAILBOX_1_SHIFT << shift;
 835              		.loc 1 378 0
 836 00fa 214C     		ldr	r4, .L47+24
 837 00fc 6368     		ldr	r3, [r4, #4]
 838 00fe B340     		lsls	r3, r3, r6
 839 0100 6360     		str	r3, [r4, #4]
 379:main.c        ****     CAN_RX_MAILBOX_0 += shift;
 840              		.loc 1 379 0
 841 0102 A389     		ldrh	r3, [r4, #12]
 842 0104 B340     		lsls	r3, r3, r6
 843 0106 A381     		strh	r3, [r4, #12]
 380:main.c        ****     CAN_RX_MAILBOX_1 += shift;
 844              		.loc 1 380 0
 845 0108 B3B2     		uxth	r3, r6
 846 010a 2289     		ldrh	r2, [r4, #8]
 847 010c 9A18     		adds	r2, r3, r2
 848 010e 2281     		strh	r2, [r4, #8]
 381:main.c        ****     set_CAN_ID(0b1);
 849              		.loc 1 381 0
 850 0110 1649     		ldr	r1, .L47+4
 851 0112 4A89     		ldrh	r2, [r1, #10]
 852 0114 9B18     		adds	r3, r3, r2
 853 0116 4B81     		strh	r3, [r1, #10]
 382:main.c        ****     
 854              		.loc 1 382 0
 855 0118 0120     		movs	r0, #1
 856 011a FFF7FEFF 		bl	set_CAN_ID
 857              	.LVL52:
 384:main.c        ****         sprintf(txData, "CAN dip setting:  %x Message ID: %ld\r\n",setting, message_id);
 858              		.loc 1 384 0
 859 011e 2378     		ldrb	r3, [r4]
 860 0120 002B     		cmp	r3, #0
 861 0122 1ED0     		beq	.L35
 385:main.c        ****         UART_UartPutString(txData); 
 862              		.loc 1 385 0
 863 0124 114F     		ldr	r7, .L47+4
 864 0126 1D4C     		ldr	r4, .L47+52
 865 0128 3B69     		ldr	r3, [r7, #16]
 866 012a 2A00     		movs	r2, r5
 867 012c 1C49     		ldr	r1, .L47+56
 868 012e 2000     		movs	r0, r4
 869 0130 FFF7FEFF 		bl	sprintf
 870              	.LVL53:
 386:main.c        ****         sprintf(txData, "Can shift: %d   P0Mailbox: %d P1Mailbox %d\r\n",shift, CAN_RX_MAILBOX_0, C
 871              		.loc 1 386 0
 872 0134 2000     		movs	r0, r4
ARM GAS  C:\Users\austc\AppData\Local\Temp\ccKyHRsy.s 			page 28


 873 0136 FFF7FEFF 		bl	UART_UartPutString
 874              	.LVL54:
 387:main.c        ****         UART_UartPutString(txData); 
 875              		.loc 1 387 0
 876 013a 114B     		ldr	r3, .L47+24
 877 013c 1B89     		ldrh	r3, [r3, #8]
 878 013e 7A89     		ldrh	r2, [r7, #10]
 879 0140 0092     		str	r2, [sp]
 880 0142 3200     		movs	r2, r6
 881 0144 1749     		ldr	r1, .L47+60
 882 0146 2000     		movs	r0, r4
 883 0148 FFF7FEFF 		bl	sprintf
 884              	.LVL55:
 388:main.c        ****         sprintf(txData, "disable_limit: %d\r\n",disable_limit);
 885              		.loc 1 388 0
 886 014c 2000     		movs	r0, r4
 887 014e FFF7FEFF 		bl	UART_UartPutString
 888              	.LVL56:
 389:main.c        ****         UART_UartPutString(txData); 
 889              		.loc 1 389 0
 890 0152 3A7D     		ldrb	r2, [r7, #20]
 891 0154 1449     		ldr	r1, .L47+64
 892 0156 2000     		movs	r0, r4
 893 0158 FFF7FEFF 		bl	sprintf
 894              	.LVL57:
 390:main.c        ****     }
 895              		.loc 1 390 0
 896 015c 2000     		movs	r0, r4
 897 015e FFF7FEFF 		bl	UART_UartPutString
 898              	.LVL58:
 899              	.L35:
 392:main.c        **** 
 900              		.loc 1 392 0
 901 0162 03B0     		add	sp, sp, #12
 902              		@ sp needed
 903              	.LVL59:
 904              	.LVL60:
 905 0164 F0BD     		pop	{r4, r5, r6, r7, pc}
 906              	.L48:
 907 0166 C046     		.align	2
 908              	.L47:
 909 0168 00000000 		.word	.L38
 910 016c 00000000 		.word	.LANCHOR1
 911 0170 0000F03F 		.word	1072693248
 912 0174 00000000 		.word	ratio
 913 0178 66666666 		.word	1717986918
 914 017c 66E62C40 		.word	1076684390
 915 0180 00000000 		.word	.LANCHOR0
 916 0184 00000000 		.word	kp
 917 0188 00000000 		.word	ki
 918 018c 00000000 		.word	kd
 919 0190 66660640 		.word	1074161254
 920 0194 F1F44A59 		.word	1498084593
 921 0198 8638F63F 		.word	1073100934
 922 019c 00000000 		.word	txData
 923 01a0 48000000 		.word	.LC28
 924 01a4 70000000 		.word	.LC31
ARM GAS  C:\Users\austc\AppData\Local\Temp\ccKyHRsy.s 			page 29


 925 01a8 A0000000 		.word	.LC33
 926              		.cfi_endproc
 927              	.LFE40:
 928              		.size	initialize_can_addr, .-initialize_can_addr
 929              		.section	.text.set_PWM,"ax",%progbits
 930              		.align	2
 931              		.global	set_PWM
 932              		.code	16
 933              		.thumb_func
 934              		.type	set_PWM, %function
 935              	set_PWM:
 936              	.LFB42:
 399:main.c        ****     pwm_compare = compare;
 937              		.loc 1 399 0
 938              		.cfi_startproc
 939              		@ args = 0, pretend = 0, frame = 0
 940              		@ frame_needed = 0, uses_anonymous_args = 0
 941              	.LVL61:
 942 0000 70B5     		push	{r4, r5, r6, lr}
 943              		.cfi_def_cfa_offset 16
 944              		.cfi_offset 4, -16
 945              		.cfi_offset 5, -12
 946              		.cfi_offset 6, -8
 947              		.cfi_offset 14, -4
 948 0002 0400     		movs	r4, r0
 400:main.c        ****     #ifdef REV2
 949              		.loc 1 400 0
 950 0004 1F4B     		ldr	r3, .L56
 951 0006 1860     		str	r0, [r3]
 402:main.c        ****     #endif
 952              		.loc 1 402 0
 953 0008 4542     		rsbs	r5, r0, #0
 954              	.LVL62:
 404:main.c        ****         sprintf(txData, "PWM:%d disable_limit: %d\r\n",compare,disable_limit);
 955              		.loc 1 404 0
 956 000a 1F4B     		ldr	r3, .L56+4
 957 000c 1B78     		ldrb	r3, [r3]
 958 000e 002B     		cmp	r3, #0
 959 0010 0AD0     		beq	.L50
 405:main.c        ****         UART_UartPutString(txData); 
 960              		.loc 1 405 0
 961 0012 1E4B     		ldr	r3, .L56+8
 962 0014 1B7D     		ldrb	r3, [r3, #20]
 963 0016 1E4E     		ldr	r6, .L56+12
 964 0018 2A00     		movs	r2, r5
 965 001a 1E49     		ldr	r1, .L56+16
 966 001c 3000     		movs	r0, r6
 967 001e FFF7FEFF 		bl	sprintf
 968              	.LVL63:
 406:main.c        ****     }
 969              		.loc 1 406 0
 970 0022 3000     		movs	r0, r6
 971 0024 FFF7FEFF 		bl	UART_UartPutString
 972              	.LVL64:
 973              	.L50:
 408:main.c        ****     if (compare < -255 || compare > 255) { return; }
 974              		.loc 1 408 0
ARM GAS  C:\Users\austc\AppData\Local\Temp\ccKyHRsy.s 			page 30


 975 0028 0022     		movs	r2, #0
 976 002a 184B     		ldr	r3, .L56+8
 977 002c 5A75     		strb	r2, [r3, #21]
 409:main.c        ****     uint8 status = Status_Reg_Switches_Read();
 978              		.loc 1 409 0
 979 002e FF23     		movs	r3, #255
 980 0030 1B1B     		subs	r3, r3, r4
 981 0032 FF32     		adds	r2, r2, #255
 982 0034 FF32     		adds	r2, r2, #255
 983 0036 9342     		cmp	r3, r2
 984 0038 22D8     		bhi	.L49
 410:main.c        ****     if (compare < 0 && (!(status & 0b01) || disable_limit) ) {
 985              		.loc 1 410 0
 986 003a FFF7FEFF 		bl	Status_Reg_Switches_Read
 987              	.LVL65:
 411:main.c        ****         Pin_Direction_Write(0);
 988              		.loc 1 411 0
 989 003e 002D     		cmp	r5, #0
 990 0040 0CDA     		bge	.L52
 411:main.c        ****         Pin_Direction_Write(0);
 991              		.loc 1 411 0 is_stmt 0 discriminator 1
 992 0042 C307     		lsls	r3, r0, #31
 993 0044 03D5     		bpl	.L53
 411:main.c        ****         Pin_Direction_Write(0);
 994              		.loc 1 411 0 discriminator 2
 995 0046 114B     		ldr	r3, .L56+8
 996 0048 1B7D     		ldrb	r3, [r3, #20]
 997 004a 002B     		cmp	r3, #0
 998 004c 06D0     		beq	.L52
 999              	.L53:
 412:main.c        ****         PWM_Motor_WriteCompare(-compare);
 1000              		.loc 1 412 0 is_stmt 1
 1001 004e 0020     		movs	r0, #0
 1002              	.LVL66:
 1003 0050 FFF7FEFF 		bl	Pin_Direction_Write
 1004              	.LVL67:
 413:main.c        ****     } else if (compare > 0 && (!(status & 0b10) || disable_limit) ){
 1005              		.loc 1 413 0
 1006 0054 2000     		movs	r0, r4
 1007 0056 FFF7FEFF 		bl	PWM_Motor_WriteCompare
 1008              	.LVL68:
 1009 005a 11E0     		b	.L49
 1010              	.LVL69:
 1011              	.L52:
 414:main.c        ****         Pin_Direction_Write(1);
 1012              		.loc 1 414 0
 1013 005c 002D     		cmp	r5, #0
 1014 005e 0CDD     		ble	.L54
 414:main.c        ****         Pin_Direction_Write(1);
 1015              		.loc 1 414 0 is_stmt 0 discriminator 1
 1016 0060 8307     		lsls	r3, r0, #30
 1017 0062 03D5     		bpl	.L55
 414:main.c        ****         Pin_Direction_Write(1);
 1018              		.loc 1 414 0 discriminator 2
 1019 0064 094B     		ldr	r3, .L56+8
 1020 0066 1B7D     		ldrb	r3, [r3, #20]
 1021 0068 002B     		cmp	r3, #0
ARM GAS  C:\Users\austc\AppData\Local\Temp\ccKyHRsy.s 			page 31


 1022 006a 06D0     		beq	.L54
 1023              	.L55:
 415:main.c        ****         PWM_Motor_WriteCompare(compare);
 1024              		.loc 1 415 0 is_stmt 1
 1025 006c 0120     		movs	r0, #1
 1026              	.LVL70:
 1027 006e FFF7FEFF 		bl	Pin_Direction_Write
 1028              	.LVL71:
 416:main.c        ****     } else {
 1029              		.loc 1 416 0
 1030 0072 2800     		movs	r0, r5
 1031 0074 FFF7FEFF 		bl	PWM_Motor_WriteCompare
 1032              	.LVL72:
 1033 0078 02E0     		b	.L49
 1034              	.LVL73:
 1035              	.L54:
 418:main.c        ****         
 1036              		.loc 1 418 0
 1037 007a 0020     		movs	r0, #0
 1038              	.LVL74:
 1039 007c FFF7FEFF 		bl	PWM_Motor_WriteCompare
 1040              	.LVL75:
 1041              	.L49:
 421:main.c        **** 
 1042              		.loc 1 421 0
 1043              		@ sp needed
 1044              	.LVL76:
 1045 0080 70BD     		pop	{r4, r5, r6, pc}
 1046              	.L57:
 1047 0082 C046     		.align	2
 1048              	.L56:
 1049 0084 00000000 		.word	pwm_compare
 1050 0088 00000000 		.word	.LANCHOR0
 1051 008c 00000000 		.word	.LANCHOR1
 1052 0090 00000000 		.word	txData
 1053 0094 B4000000 		.word	.LC38
 1054              		.cfi_endproc
 1055              	.LFE42:
 1056              		.size	set_PWM, .-set_PWM
 1057              		.section	.text.Period_Reset_Handler,"ax",%progbits
 1058              		.align	2
 1059              		.global	Period_Reset_Handler
 1060              		.code	16
 1061              		.thumb_func
 1062              		.type	Period_Reset_Handler, %function
 1063              	Period_Reset_Handler:
 1064              	.LFB35:
  84:main.c        ****     int timer = Timer_1_ReadStatusRegister();
 1065              		.loc 1 84 0
 1066              		.cfi_startproc
 1067              		@ args = 0, pretend = 0, frame = 0
 1068              		@ frame_needed = 0, uses_anonymous_args = 0
 1069 0000 10B5     		push	{r4, lr}
 1070              		.cfi_def_cfa_offset 8
 1071              		.cfi_offset 4, -8
 1072              		.cfi_offset 14, -4
  85:main.c        ****     if(uart_debug) {
ARM GAS  C:\Users\austc\AppData\Local\Temp\ccKyHRsy.s 			page 32


 1073              		.loc 1 85 0
 1074 0002 FFF7FEFF 		bl	Timer_1_ReadStatusRegister
 1075              	.LVL77:
  86:main.c        ****         sprintf(txData,"Period interupt triggerd %x\r\n", timer);
 1076              		.loc 1 86 0
 1077 0006 124B     		ldr	r3, .L62
 1078 0008 1B78     		ldrb	r3, [r3]
 1079 000a 002B     		cmp	r3, #0
 1080 000c 04D0     		beq	.L59
  87:main.c        ****         //UART_UartPutString(txData);
 1081              		.loc 1 87 0
 1082 000e 0200     		movs	r2, r0
 1083 0010 1049     		ldr	r1, .L62+4
 1084 0012 1148     		ldr	r0, .L62+8
 1085              	.LVL78:
 1086 0014 FFF7FEFF 		bl	sprintf
 1087              	.LVL79:
 1088              	.L59:
  90:main.c        ****     invalidate++;
 1089              		.loc 1 90 0
 1090 0018 0122     		movs	r2, #1
 1091 001a 0D4B     		ldr	r3, .L62
 1092 001c 9A73     		strb	r2, [r3, #14]
  91:main.c        ****     time_LED++;
 1093              		.loc 1 91 0
 1094 001e 0F4A     		ldr	r2, .L62+12
 1095 0020 537D     		ldrb	r3, [r2, #21]
 1096 0022 0133     		adds	r3, r3, #1
 1097 0024 DBB2     		uxtb	r3, r3
 1098 0026 5375     		strb	r3, [r2, #21]
  92:main.c        ****     if(invalidate >= 20){
 1099              		.loc 1 92 0
 1100 0028 1178     		ldrb	r1, [r2]
 1101 002a 0131     		adds	r1, r1, #1
 1102 002c 1170     		strb	r1, [r2]
  93:main.c        ****         set_PWM(0);   
 1103              		.loc 1 93 0
 1104 002e 132B     		cmp	r3, #19
 1105 0030 05D9     		bls	.L60
  94:main.c        ****         Can_rx_pwm.done = 1;
 1106              		.loc 1 94 0
 1107 0032 0020     		movs	r0, #0
 1108 0034 FFF7FEFF 		bl	set_PWM
 1109              	.LVL80:
  95:main.c        ****     }
 1110              		.loc 1 95 0
 1111 0038 0122     		movs	r2, #1
 1112 003a 094B     		ldr	r3, .L62+16
 1113 003c 5A71     		strb	r2, [r3, #5]
 1114              	.L60:
  99:main.c        ****             Test_LED_Write(LED_OFF);
 1115              		.loc 1 99 0
 1116 003e 074B     		ldr	r3, .L62+12
 1117 0040 1B78     		ldrb	r3, [r3]
 1118 0042 042B     		cmp	r3, #4
 1119 0044 02D9     		bls	.L58
 100:main.c        ****             
ARM GAS  C:\Users\austc\AppData\Local\Temp\ccKyHRsy.s 			page 33


 1120              		.loc 1 100 0
 1121 0046 0120     		movs	r0, #1
 1122 0048 FFF7FEFF 		bl	Test_LED_Write
 1123              	.LVL81:
 1124              	.L58:
 105:main.c        ****   
 1125              		.loc 1 105 0
 1126              		@ sp needed
 1127 004c 10BD     		pop	{r4, pc}
 1128              	.L63:
 1129 004e C046     		.align	2
 1130              	.L62:
 1131 0050 00000000 		.word	.LANCHOR0
 1132 0054 D0000000 		.word	.LC42
 1133 0058 00000000 		.word	txData
 1134 005c 00000000 		.word	.LANCHOR1
 1135 0060 00000000 		.word	Can_rx_pwm
 1136              		.cfi_endproc
 1137              	.LFE35:
 1138              		.size	Period_Reset_Handler, .-Period_Reset_Handler
 1139              		.section	.text.Pin_Limit_Handler,"ax",%progbits
 1140              		.align	2
 1141              		.global	Pin_Limit_Handler
 1142              		.code	16
 1143              		.thumb_func
 1144              		.type	Pin_Limit_Handler, %function
 1145              	Pin_Limit_Handler:
 1146              	.LFB36:
 107:main.c        ****     if(uart_debug) {
 1147              		.loc 1 107 0
 1148              		.cfi_startproc
 1149              		@ args = 0, pretend = 0, frame = 0
 1150              		@ frame_needed = 0, uses_anonymous_args = 0
 1151 0000 10B5     		push	{r4, lr}
 1152              		.cfi_def_cfa_offset 8
 1153              		.cfi_offset 4, -8
 1154              		.cfi_offset 14, -4
 108:main.c        ****         sprintf(txData,"Limit interupt triggerd\r\n");
 1155              		.loc 1 108 0
 1156 0002 0A4B     		ldr	r3, .L66
 1157 0004 1B78     		ldrb	r3, [r3]
 1158 0006 002B     		cmp	r3, #0
 1159 0008 08D0     		beq	.L65
 109:main.c        ****         UART_UartPutString(txData);
 1160              		.loc 1 109 0
 1161 000a 094C     		ldr	r4, .L66+4
 1162 000c 1A22     		movs	r2, #26
 1163 000e 0949     		ldr	r1, .L66+8
 1164 0010 2000     		movs	r0, r4
 1165 0012 FFF7FEFF 		bl	memcpy
 1166              	.LVL82:
 110:main.c        ****     }
 1167              		.loc 1 110 0
 1168 0016 2000     		movs	r0, r4
 1169 0018 FFF7FEFF 		bl	UART_UartPutString
 1170              	.LVL83:
 1171              	.L65:
ARM GAS  C:\Users\austc\AppData\Local\Temp\ccKyHRsy.s 			page 34


 112:main.c        ****     QuadDec_SetCounter(0);
 1172              		.loc 1 112 0
 1173 001c 064B     		ldr	r3, .L66+12
 1174 001e 1868     		ldr	r0, [r3]
 1175 0020 FFF7FEFF 		bl	set_PWM
 1176              	.LVL84:
 113:main.c        **** }
 1177              		.loc 1 113 0
 1178 0024 0020     		movs	r0, #0
 1179 0026 FFF7FEFF 		bl	QuadDec_SetCounter
 1180              	.LVL85:
 114:main.c        **** 
 1181              		.loc 1 114 0
 1182              		@ sp needed
 1183 002a 10BD     		pop	{r4, pc}
 1184              	.L67:
 1185              		.align	2
 1186              	.L66:
 1187 002c 00000000 		.word	.LANCHOR0
 1188 0030 00000000 		.word	txData
 1189 0034 F0000000 		.word	.LC49
 1190 0038 00000000 		.word	pwm_compare
 1191              		.cfi_endproc
 1192              	.LFE36:
 1193              		.size	Pin_Limit_Handler, .-Pin_Limit_Handler
 1194              		.global	__aeabi_i2d
 1195              		.global	__aeabi_ddiv
 1196              		.global	__aeabi_dmul
 1197              		.global	__aeabi_d2iz
 1198              		.section	.text.CAN_Send_Encoder,"ax",%progbits
 1199              		.align	2
 1200              		.global	CAN_Send_Encoder
 1201              		.code	16
 1202              		.thumb_func
 1203              		.type	CAN_Send_Encoder, %function
 1204              	CAN_Send_Encoder:
 1205              	.LFB43:
 423:main.c        ****     int16 ticks = QuadDec_GetCounter();
 1206              		.loc 1 423 0
 1207              		.cfi_startproc
 1208              		@ args = 0, pretend = 0, frame = 0
 1209              		@ frame_needed = 0, uses_anonymous_args = 0
 1210 0000 F0B5     		push	{r4, r5, r6, r7, lr}
 1211              		.cfi_def_cfa_offset 20
 1212              		.cfi_offset 4, -20
 1213              		.cfi_offset 5, -16
 1214              		.cfi_offset 6, -12
 1215              		.cfi_offset 7, -8
 1216              		.cfi_offset 14, -4
 1217 0002 83B0     		sub	sp, sp, #12
 1218              		.cfi_def_cfa_offset 32
 424:main.c        ****     int16 angle = (((double)ticks)/ratio)*10;
 1219              		.loc 1 424 0
 1220 0004 FFF7FEFF 		bl	QuadDec_GetCounter
 1221              	.LVL86:
 425:main.c        ****     data.byte[0u] = 0x14u;
 1222              		.loc 1 425 0
ARM GAS  C:\Users\austc\AppData\Local\Temp\ccKyHRsy.s 			page 35


 1223 0008 FFF7FEFF 		bl	__aeabi_i2d
 1224              	.LVL87:
 1225 000c 184B     		ldr	r3, .L70
 1226 000e 1A68     		ldr	r2, [r3]
 1227 0010 5B68     		ldr	r3, [r3, #4]
 1228 0012 FFF7FEFF 		bl	__aeabi_ddiv
 1229              	.LVL88:
 1230 0016 0022     		movs	r2, #0
 1231 0018 164B     		ldr	r3, .L70+4
 1232 001a FFF7FEFF 		bl	__aeabi_dmul
 1233              	.LVL89:
 1234 001e FFF7FEFF 		bl	__aeabi_d2iz
 1235              	.LVL90:
 1236 0022 00B2     		sxth	r0, r0
 1237              	.LVL91:
 426:main.c        ****     data.byte[1u] = LO8(angle);
 1238              		.loc 1 426 0
 1239 0024 144B     		ldr	r3, .L70+8
 1240 0026 1422     		movs	r2, #20
 1241 0028 1A70     		strb	r2, [r3]
 427:main.c        ****     data.byte[2u] = HI8(angle);
 1242              		.loc 1 427 0
 1243 002a 5870     		strb	r0, [r3, #1]
 428:main.c        ****     data.byte[3u] = 0;
 1244              		.loc 1 428 0
 1245 002c 80B2     		uxth	r0, r0
 1246 002e 000A     		lsrs	r0, r0, #8
 1247              	.LVL92:
 1248 0030 9870     		strb	r0, [r3, #2]
 429:main.c        ****     data.byte[4u] = 0;
 1249              		.loc 1 429 0
 1250 0032 0022     		movs	r2, #0
 1251 0034 DA70     		strb	r2, [r3, #3]
 430:main.c        ****     CAN_SendMsg(&message);
 1252              		.loc 1 430 0
 1253 0036 1A71     		strb	r2, [r3, #4]
 431:main.c        ****     if(uart_debug == 2) {
 1254              		.loc 1 431 0
 1255 0038 1048     		ldr	r0, .L70+12
 1256 003a FFF7FEFF 		bl	CAN_SendMsg
 1257              	.LVL93:
 432:main.c        ****         sprintf(txData, "CAN_Send_Encoder: byte[0u] %x byte[1u] %x byte[2u] %x QuadDec Count %d\r\n
 1258              		.loc 1 432 0
 1259 003e 104B     		ldr	r3, .L70+16
 1260 0040 1B78     		ldrb	r3, [r3]
 1261 0042 022B     		cmp	r3, #2
 1262 0044 11D1     		bne	.L68
 434:main.c        ****             QuadDec_GetCounter());
 1263              		.loc 1 434 0
 1264 0046 0C4B     		ldr	r3, .L70+8
 1265 0048 1D78     		ldrb	r5, [r3]
 1266 004a 5E78     		ldrb	r6, [r3, #1]
 1267 004c 9F78     		ldrb	r7, [r3, #2]
 435:main.c        ****         UART_UartPutString(txData);    
 1268              		.loc 1 435 0
 1269 004e FFF7FEFF 		bl	QuadDec_GetCounter
 1270              	.LVL94:
ARM GAS  C:\Users\austc\AppData\Local\Temp\ccKyHRsy.s 			page 36


 433:main.c        ****             data.byte[0u],data.byte[1u],data.byte[2u],
 1271              		.loc 1 433 0
 1272 0052 0C4C     		ldr	r4, .L70+20
 1273 0054 0190     		str	r0, [sp, #4]
 1274 0056 0097     		str	r7, [sp]
 1275 0058 3300     		movs	r3, r6
 1276 005a 2A00     		movs	r2, r5
 1277 005c 0A49     		ldr	r1, .L70+24
 1278 005e 2000     		movs	r0, r4
 1279 0060 FFF7FEFF 		bl	sprintf
 1280              	.LVL95:
 436:main.c        ****     }
 1281              		.loc 1 436 0
 1282 0064 2000     		movs	r0, r4
 1283 0066 FFF7FEFF 		bl	UART_UartPutString
 1284              	.LVL96:
 1285              	.L68:
 438:main.c        **** 
 1286              		.loc 1 438 0
 1287 006a 03B0     		add	sp, sp, #12
 1288              		@ sp needed
 1289 006c F0BD     		pop	{r4, r5, r6, r7, pc}
 1290              	.L71:
 1291 006e C046     		.align	2
 1292              	.L70:
 1293 0070 00000000 		.word	ratio
 1294 0074 00002440 		.word	1076101120
 1295 0078 00000000 		.word	data
 1296 007c 00000000 		.word	message
 1297 0080 00000000 		.word	.LANCHOR0
 1298 0084 00000000 		.word	txData
 1299 0088 0C010000 		.word	.LC56
 1300              		.cfi_endproc
 1301              	.LFE43:
 1302              		.size	CAN_Send_Encoder, .-CAN_Send_Encoder
 1303              		.section	.text.CAN_Send_Telemetry,"ax",%progbits
 1304              		.align	2
 1305              		.global	CAN_Send_Telemetry
 1306              		.code	16
 1307              		.thumb_func
 1308              		.type	CAN_Send_Telemetry, %function
 1309              	CAN_Send_Telemetry:
 1310              	.LFB44:
 440:main.c        ****     data.byte[0u] = 0x18u;
 1311              		.loc 1 440 0
 1312              		.cfi_startproc
 1313              		@ args = 0, pretend = 0, frame = 0
 1314              		@ frame_needed = 0, uses_anonymous_args = 0
 1315 0000 10B5     		push	{r4, lr}
 1316              		.cfi_def_cfa_offset 8
 1317              		.cfi_offset 4, -8
 1318              		.cfi_offset 14, -4
 441:main.c        ****     data.byte[1u] = 0;
 1319              		.loc 1 441 0
 1320 0002 0D4B     		ldr	r3, .L74
 1321 0004 1822     		movs	r2, #24
 1322 0006 1A70     		strb	r2, [r3]
ARM GAS  C:\Users\austc\AppData\Local\Temp\ccKyHRsy.s 			page 37


 442:main.c        ****     data.byte[2u] = 0;
 1323              		.loc 1 442 0
 1324 0008 0022     		movs	r2, #0
 1325 000a 5A70     		strb	r2, [r3, #1]
 443:main.c        ****     data.byte[3u] = 0;
 1326              		.loc 1 443 0
 1327 000c 9A70     		strb	r2, [r3, #2]
 444:main.c        ****     data.byte[4u] = 0;
 1328              		.loc 1 444 0
 1329 000e DA70     		strb	r2, [r3, #3]
 445:main.c        ****     CAN_SendMsg(&message);
 1330              		.loc 1 445 0
 1331 0010 1A71     		strb	r2, [r3, #4]
 446:main.c        ****     if(uart_debug == 2) {
 1332              		.loc 1 446 0
 1333 0012 0A48     		ldr	r0, .L74+4
 1334 0014 FFF7FEFF 		bl	CAN_SendMsg
 1335              	.LVL97:
 447:main.c        ****         sprintf(txData, "Telemerty: byte[0u] %x byte[1u] %x\r\n",(uint8)data.byte[0u],(uint8)data.b
 1336              		.loc 1 447 0
 1337 0018 094B     		ldr	r3, .L74+8
 1338 001a 1B78     		ldrb	r3, [r3]
 1339 001c 022B     		cmp	r3, #2
 1340 001e 0AD1     		bne	.L72
 448:main.c        ****         UART_UartPutString(txData); 
 1341              		.loc 1 448 0
 1342 0020 054B     		ldr	r3, .L74
 1343 0022 1A78     		ldrb	r2, [r3]
 1344 0024 5B78     		ldrb	r3, [r3, #1]
 1345 0026 074C     		ldr	r4, .L74+12
 1346 0028 0749     		ldr	r1, .L74+16
 1347 002a 2000     		movs	r0, r4
 1348 002c FFF7FEFF 		bl	sprintf
 1349              	.LVL98:
 449:main.c        ****     }
 1350              		.loc 1 449 0
 1351 0030 2000     		movs	r0, r4
 1352 0032 FFF7FEFF 		bl	UART_UartPutString
 1353              	.LVL99:
 1354              	.L72:
 451:main.c        **** 
 1355              		.loc 1 451 0
 1356              		@ sp needed
 1357 0036 10BD     		pop	{r4, pc}
 1358              	.L75:
 1359              		.align	2
 1360              	.L74:
 1361 0038 00000000 		.word	data
 1362 003c 00000000 		.word	message
 1363 0040 00000000 		.word	.LANCHOR0
 1364 0044 00000000 		.word	txData
 1365 0048 58010000 		.word	.LC62
 1366              		.cfi_endproc
 1367              	.LFE44:
 1368              		.size	CAN_Send_Telemetry, .-CAN_Send_Telemetry
 1369              		.section	.text.CAN_Send_Model,"ax",%progbits
 1370              		.align	2
ARM GAS  C:\Users\austc\AppData\Local\Temp\ccKyHRsy.s 			page 38


 1371              		.global	CAN_Send_Model
 1372              		.code	16
 1373              		.thumb_func
 1374              		.type	CAN_Send_Model, %function
 1375              	CAN_Send_Model:
 1376              	.LFB45:
 453:main.c        ****     data.byte[0u] = 0x12u;
 1377              		.loc 1 453 0
 1378              		.cfi_startproc
 1379              		@ args = 0, pretend = 0, frame = 0
 1380              		@ frame_needed = 0, uses_anonymous_args = 0
 1381 0000 10B5     		push	{r4, lr}
 1382              		.cfi_def_cfa_offset 8
 1383              		.cfi_offset 4, -8
 1384              		.cfi_offset 14, -4
 454:main.c        ****     data.byte[1u] = 0x00u;
 1385              		.loc 1 454 0
 1386 0002 0D4B     		ldr	r3, .L78
 1387 0004 1222     		movs	r2, #18
 1388 0006 1A70     		strb	r2, [r3]
 455:main.c        ****     data.byte[2u] = 0;
 1389              		.loc 1 455 0
 1390 0008 0022     		movs	r2, #0
 1391 000a 5A70     		strb	r2, [r3, #1]
 456:main.c        ****     data.byte[3u] = 0;
 1392              		.loc 1 456 0
 1393 000c 9A70     		strb	r2, [r3, #2]
 457:main.c        ****     data.byte[4u] = 0;
 1394              		.loc 1 457 0
 1395 000e DA70     		strb	r2, [r3, #3]
 458:main.c        ****     CAN_SendMsg(&message);
 1396              		.loc 1 458 0
 1397 0010 1A71     		strb	r2, [r3, #4]
 459:main.c        ****     if(uart_debug == 2) {
 1398              		.loc 1 459 0
 1399 0012 0A48     		ldr	r0, .L78+4
 1400 0014 FFF7FEFF 		bl	CAN_SendMsg
 1401              	.LVL100:
 460:main.c        ****         sprintf(txData, "Model: byte[0u] %x byte[1u] %x\r\n",data.byte[0u],data.byte[1u]);
 1402              		.loc 1 460 0
 1403 0018 094B     		ldr	r3, .L78+8
 1404 001a 1B78     		ldrb	r3, [r3]
 1405 001c 022B     		cmp	r3, #2
 1406 001e 0AD1     		bne	.L76
 461:main.c        ****         UART_UartPutString(txData); 
 1407              		.loc 1 461 0
 1408 0020 054B     		ldr	r3, .L78
 1409 0022 1A78     		ldrb	r2, [r3]
 1410 0024 5B78     		ldrb	r3, [r3, #1]
 1411 0026 074C     		ldr	r4, .L78+12
 1412 0028 0749     		ldr	r1, .L78+16
 1413 002a 2000     		movs	r0, r4
 1414 002c FFF7FEFF 		bl	sprintf
 1415              	.LVL101:
 462:main.c        ****     }
 1416              		.loc 1 462 0
 1417 0030 2000     		movs	r0, r4
ARM GAS  C:\Users\austc\AppData\Local\Temp\ccKyHRsy.s 			page 39


 1418 0032 FFF7FEFF 		bl	UART_UartPutString
 1419              	.LVL102:
 1420              	.L76:
 464:main.c        **** 
 1421              		.loc 1 464 0
 1422              		@ sp needed
 1423 0036 10BD     		pop	{r4, pc}
 1424              	.L79:
 1425              		.align	2
 1426              	.L78:
 1427 0038 00000000 		.word	data
 1428 003c 00000000 		.word	message
 1429 0040 00000000 		.word	.LANCHOR0
 1430 0044 00000000 		.word	txData
 1431 0048 80010000 		.word	.LC68
 1432              		.cfi_endproc
 1433              	.LFE45:
 1434              		.size	CAN_Send_Model, .-CAN_Send_Model
 1435              		.section	.text.CAN_Send_Error,"ax",%progbits
 1436              		.align	2
 1437              		.global	CAN_Send_Error
 1438              		.code	16
 1439              		.thumb_func
 1440              		.type	CAN_Send_Error, %function
 1441              	CAN_Send_Error:
 1442              	.LFB46:
 466:main.c        ****     data.byte[0u] = 0xffu;
 1443              		.loc 1 466 0
 1444              		.cfi_startproc
 1445              		@ args = 0, pretend = 0, frame = 0
 1446              		@ frame_needed = 0, uses_anonymous_args = 0
 1447              	.LVL103:
 1448 0000 10B5     		push	{r4, lr}
 1449              		.cfi_def_cfa_offset 8
 1450              		.cfi_offset 4, -8
 1451              		.cfi_offset 14, -4
 1452 0002 82B0     		sub	sp, sp, #8
 1453              		.cfi_def_cfa_offset 16
 467:main.c        ****     data.byte[1u] = code;
 1454              		.loc 1 467 0
 1455 0004 0E4B     		ldr	r3, .L82
 1456 0006 FF22     		movs	r2, #255
 1457 0008 1A70     		strb	r2, [r3]
 468:main.c        ****     data.byte[2u] = param;
 1458              		.loc 1 468 0
 1459 000a 5870     		strb	r0, [r3, #1]
 469:main.c        ****     data.byte[3u] = 0;
 1460              		.loc 1 469 0
 1461 000c 9970     		strb	r1, [r3, #2]
 470:main.c        ****     data.byte[4u] = 0;
 1462              		.loc 1 470 0
 1463 000e 0022     		movs	r2, #0
 1464 0010 DA70     		strb	r2, [r3, #3]
 471:main.c        ****     CAN_SendMsg(&message);
 1465              		.loc 1 471 0
 1466 0012 1A71     		strb	r2, [r3, #4]
 472:main.c        ****     if(uart_debug == 2) {
ARM GAS  C:\Users\austc\AppData\Local\Temp\ccKyHRsy.s 			page 40


 1467              		.loc 1 472 0
 1468 0014 0B48     		ldr	r0, .L82+4
 1469              	.LVL104:
 1470 0016 FFF7FEFF 		bl	CAN_SendMsg
 1471              	.LVL105:
 473:main.c        ****         sprintf(txData, "Error: byte[0u] %x byte[1u] %x byte[2u] %x\r\n",data.byte[0u],data.byte[1u
 1472              		.loc 1 473 0
 1473 001a 0B4B     		ldr	r3, .L82+8
 1474 001c 1B78     		ldrb	r3, [r3]
 1475 001e 022B     		cmp	r3, #2
 1476 0020 0CD1     		bne	.L80
 474:main.c        ****         UART_UartPutString(txData); 
 1477              		.loc 1 474 0
 1478 0022 0749     		ldr	r1, .L82
 1479 0024 0A78     		ldrb	r2, [r1]
 1480 0026 4B78     		ldrb	r3, [r1, #1]
 1481 0028 8978     		ldrb	r1, [r1, #2]
 1482 002a 084C     		ldr	r4, .L82+12
 1483 002c 0091     		str	r1, [sp]
 1484 002e 0849     		ldr	r1, .L82+16
 1485 0030 2000     		movs	r0, r4
 1486 0032 FFF7FEFF 		bl	sprintf
 1487              	.LVL106:
 475:main.c        ****     }
 1488              		.loc 1 475 0
 1489 0036 2000     		movs	r0, r4
 1490 0038 FFF7FEFF 		bl	UART_UartPutString
 1491              	.LVL107:
 1492              	.L80:
 477:main.c        **** 
 1493              		.loc 1 477 0
 1494 003c 02B0     		add	sp, sp, #8
 1495              		@ sp needed
 1496 003e 10BD     		pop	{r4, pc}
 1497              	.L83:
 1498              		.align	2
 1499              	.L82:
 1500 0040 00000000 		.word	data
 1501 0044 00000000 		.word	message
 1502 0048 00000000 		.word	.LANCHOR0
 1503 004c 00000000 		.word	txData
 1504 0050 A4010000 		.word	.LC74
 1505              		.cfi_endproc
 1506              	.LFE46:
 1507              		.size	CAN_Send_Error, .-CAN_Send_Error
 1508              		.section	.text.set_data,"ax",%progbits
 1509              		.align	2
 1510              		.global	set_data
 1511              		.code	16
 1512              		.thumb_func
 1513              		.type	set_data, %function
 1514              	set_data:
 1515              	.LFB48:
 517:main.c        ****         //set mode
 1516              		.loc 1 517 0
 1517              		.cfi_startproc
 1518              		@ args = 0, pretend = 0, frame = 0
ARM GAS  C:\Users\austc\AppData\Local\Temp\ccKyHRsy.s 			page 41


 1519              		@ frame_needed = 0, uses_anonymous_args = 0
 1520              	.LVL108:
 1521 0000 10B5     		push	{r4, lr}
 1522              		.cfi_def_cfa_offset 8
 1523              		.cfi_offset 4, -8
 1524              		.cfi_offset 14, -4
 519:main.c        ****             if(CAN_RX_DATA_BYTE2(addr) == 1 || CAN_RX_DATA_BYTE2(addr) == 0) {
 1525              		.loc 1 519 0
 1526 0002 4001     		lsls	r0, r0, #5
 1527              	.LVL109:
 1528 0004 334B     		ldr	r3, .L93
 1529 0006 9C46     		mov	ip, r3
 1530 0008 6044     		add	r0, r0, ip
 1531 000a 8368     		ldr	r3, [r0, #8]
 1532 000c 1B0E     		lsrs	r3, r3, #24
 1533 000e 23D1     		bne	.L85
 520:main.c        ****                 mode = CAN_RX_DATA_BYTE2(addr);
 1534              		.loc 1 520 0
 1535 0010 8368     		ldr	r3, [r0, #8]
 1536 0012 1B0C     		lsrs	r3, r3, #16
 1537 0014 FF22     		movs	r2, #255
 1538 0016 1340     		ands	r3, r2
 1539 0018 012B     		cmp	r3, #1
 1540 001a 03D0     		beq	.L86
 520:main.c        ****                 mode = CAN_RX_DATA_BYTE2(addr);
 1541              		.loc 1 520 0 is_stmt 0 discriminator 1
 1542 001c 8368     		ldr	r3, [r0, #8]
 1543 001e 1B0C     		lsrs	r3, r3, #16
 1544 0020 1A42     		tst	r2, r3
 1545 0022 11D1     		bne	.L87
 1546              	.L86:
 521:main.c        ****                 if(mode == 1){
 1547              		.loc 1 521 0 is_stmt 1
 1548 0024 8368     		ldr	r3, [r0, #8]
 1549 0026 1B0C     		lsrs	r3, r3, #16
 1550 0028 DBB2     		uxtb	r3, r3
 1551 002a 2B4A     		ldr	r2, .L93+4
 1552 002c 9372     		strb	r3, [r2, #10]
 522:main.c        ****                     final_angle = QuadDec_GetCounter() * flipEncoder;
 1553              		.loc 1 522 0
 1554 002e 012B     		cmp	r3, #1
 1555 0030 0ED1     		bne	.L88
 523:main.c        ****                     i = 0;
 1556              		.loc 1 523 0
 1557 0032 FFF7FEFF 		bl	QuadDec_GetCounter
 1558              	.LVL110:
 1559 0036 294A     		ldr	r2, .L93+8
 1560 0038 274B     		ldr	r3, .L93+4
 1561 003a DB7A     		ldrb	r3, [r3, #11]
 1562 003c 5BB2     		sxtb	r3, r3
 1563 003e 5843     		muls	r0, r3
 1564 0040 5080     		strh	r0, [r2, #2]
 524:main.c        ****                 }
 1565              		.loc 1 524 0
 1566 0042 0023     		movs	r3, #0
 1567 0044 5360     		str	r3, [r2, #4]
 1568 0046 03E0     		b	.L88
ARM GAS  C:\Users\austc\AppData\Local\Temp\ccKyHRsy.s 			page 42


 1569              	.L87:
 528:main.c        ****                 invalid_arg.done = 0;
 1570              		.loc 1 528 0
 1571 0048 254B     		ldr	r3, .L93+12
 1572 004a 0022     		movs	r2, #0
 1573 004c 5A70     		strb	r2, [r3, #1]
 529:main.c        ****             }
 1574              		.loc 1 529 0
 1575 004e 9A70     		strb	r2, [r3, #2]
 1576              	.L88:
 531:main.c        ****         } 
 1577              		.loc 1 531 0
 1578 0050 0122     		movs	r2, #1
 1579 0052 224B     		ldr	r3, .L93+8
 1580 0054 1A72     		strb	r2, [r3, #8]
 1581 0056 3BE0     		b	.L84
 1582              	.L85:
 534:main.c        ****             Can_rx_pwm.b1 = CAN_RX_DATA_BYTE2(addr);
 1583              		.loc 1 534 0
 1584 0058 8368     		ldr	r3, [r0, #8]
 1585 005a 1B0E     		lsrs	r3, r3, #24
 1586 005c 022B     		cmp	r3, #2
 1587 005e 0ED1     		bne	.L90
 535:main.c        ****             Can_rx_pwm.b2 = CAN_RX_DATA_BYTE3(addr);
 1588              		.loc 1 535 0
 1589 0060 8268     		ldr	r2, [r0, #8]
 1590 0062 120C     		lsrs	r2, r2, #16
 1591 0064 1F4B     		ldr	r3, .L93+16
 1592 0066 5A70     		strb	r2, [r3, #1]
 536:main.c        ****             Can_rx_pwm.b3 = CAN_RX_DATA_BYTE4(addr);
 1593              		.loc 1 536 0
 1594 0068 8268     		ldr	r2, [r0, #8]
 1595 006a 120A     		lsrs	r2, r2, #8
 1596 006c 9A70     		strb	r2, [r3, #2]
 537:main.c        ****             Can_rx_pwm.b4 = CAN_RX_DATA_BYTE5(addr);
 1597              		.loc 1 537 0
 1598 006e 8268     		ldr	r2, [r0, #8]
 1599 0070 DA70     		strb	r2, [r3, #3]
 538:main.c        ****             Can_rx_pwm.done = 0;
 1600              		.loc 1 538 0
 1601 0072 C268     		ldr	r2, [r0, #12]
 1602 0074 120E     		lsrs	r2, r2, #24
 1603 0076 1A71     		strb	r2, [r3, #4]
 539:main.c        ****         } 
 1604              		.loc 1 539 0
 1605 0078 0022     		movs	r2, #0
 1606 007a 5A71     		strb	r2, [r3, #5]
 1607 007c 28E0     		b	.L84
 1608              	.L90:
 542:main.c        ****             Can_rx_angle.b1 = CAN_RX_DATA_BYTE2(addr);
 1609              		.loc 1 542 0
 1610 007e 8368     		ldr	r3, [r0, #8]
 1611 0080 1B0E     		lsrs	r3, r3, #24
 1612 0082 042B     		cmp	r3, #4
 1613 0084 1DD1     		bne	.L91
 543:main.c        ****             Can_rx_angle.b2 = CAN_RX_DATA_BYTE3(addr);
 1614              		.loc 1 543 0
ARM GAS  C:\Users\austc\AppData\Local\Temp\ccKyHRsy.s 			page 43


 1615 0086 8368     		ldr	r3, [r0, #8]
 1616 0088 1B0C     		lsrs	r3, r3, #16
 1617 008a D9B2     		uxtb	r1, r3
 1618 008c 164C     		ldr	r4, .L93+20
 1619 008e 6170     		strb	r1, [r4, #1]
 544:main.c        ****             Can_rx_angle.b3 = CAN_RX_DATA_BYTE4(addr);
 1620              		.loc 1 544 0
 1621 0090 8268     		ldr	r2, [r0, #8]
 1622 0092 120A     		lsrs	r2, r2, #8
 1623 0094 D3B2     		uxtb	r3, r2
 1624 0096 A370     		strb	r3, [r4, #2]
 545:main.c        ****             Can_rx_angle.b4 = CAN_RX_DATA_BYTE5(addr);
 1625              		.loc 1 545 0
 1626 0098 8268     		ldr	r2, [r0, #8]
 1627 009a E270     		strb	r2, [r4, #3]
 546:main.c        ****             Can_rx_angle.done = 0;
 1628              		.loc 1 546 0
 1629 009c C268     		ldr	r2, [r0, #12]
 1630 009e 120E     		lsrs	r2, r2, #24
 1631 00a0 2271     		strb	r2, [r4, #4]
 547:main.c        ****             if((((uint16_t)Can_rx_angle.b2) << 8 | Can_rx_angle.b1) != final_angle){
 1632              		.loc 1 547 0
 1633 00a2 0022     		movs	r2, #0
 1634 00a4 6271     		strb	r2, [r4, #5]
 548:main.c        ****                  i=0;
 1635              		.loc 1 548 0
 1636 00a6 1B02     		lsls	r3, r3, #8
 1637 00a8 0B43     		orrs	r3, r1
 1638 00aa 0C4A     		ldr	r2, .L93+8
 1639 00ac 0221     		movs	r1, #2
 1640 00ae 525E     		ldrsh	r2, [r2, r1]
 1641 00b0 9342     		cmp	r3, r2
 1642 00b2 02D0     		beq	.L92
 549:main.c        ****             }
 1643              		.loc 1 549 0
 1644 00b4 0022     		movs	r2, #0
 1645 00b6 094B     		ldr	r3, .L93+8
 1646 00b8 5A60     		str	r2, [r3, #4]
 1647              	.L92:
 551:main.c        ****         } 
 1648              		.loc 1 551 0
 1649 00ba 0122     		movs	r2, #1
 1650 00bc 074B     		ldr	r3, .L93+8
 1651 00be 1A72     		strb	r2, [r3, #8]
 1652 00c0 06E0     		b	.L84
 1653              	.L91:
 554:main.c        ****             model_req = 1;
 1654              		.loc 1 554 0
 1655 00c2 8368     		ldr	r3, [r0, #8]
 1656 00c4 1B0E     		lsrs	r3, r3, #24
 1657 00c6 102B     		cmp	r3, #16
 1658 00c8 02D1     		bne	.L84
 1659              		.loc 1 555 0
 1660 00ca 0122     		movs	r2, #1
 1661 00cc 034B     		ldr	r3, .L93+8
 1662 00ce 5A72     		strb	r2, [r3, #9]
 1663              	.L84:
ARM GAS  C:\Users\austc\AppData\Local\Temp\ccKyHRsy.s 			page 44


 556:main.c        ****         }
 557:main.c        **** }
 1664              		.loc 1 557 0
 1665              		@ sp needed
 1666 00d0 10BD     		pop	{r4, pc}
 1667              	.L94:
 1668 00d2 C046     		.align	2
 1669              	.L93:
 1670 00d4 A0002F40 		.word	1076822176
 1671 00d8 00000000 		.word	.LANCHOR0
 1672 00dc 00000000 		.word	.LANCHOR1
 1673 00e0 00000000 		.word	invalid_arg
 1674 00e4 00000000 		.word	Can_rx_pwm
 1675 00e8 00000000 		.word	Can_rx_angle
 1676              		.cfi_endproc
 1677              	.LFE48:
 1678              		.size	set_data, .-set_data
 1679              		.section	.text.degrees_to_tick,"ax",%progbits
 1680              		.align	2
 1681              		.global	degrees_to_tick
 1682              		.code	16
 1683              		.thumb_func
 1684              		.type	degrees_to_tick, %function
 1685              	degrees_to_tick:
 1686              	.LFB50:
 558:main.c        **** 
 559:main.c        **** void set_Position(int16 degrees) {
 560:main.c        ****     if(uart_debug) {
 561:main.c        ****         sprintf(txData, "complete: %d\r\n",complete);
 562:main.c        ****         UART_UartPutString(txData);
 563:main.c        ****     }
 564:main.c        ****     //while(!complete) {
 565:main.c        ****         int PWM = position_PID(degrees_to_tick(degrees));
 566:main.c        ****         if(uart_debug) {
 567:main.c        ****             sprintf(txData, "PWM: %d\r\n",PWM);
 568:main.c        ****             UART_UartPutString(txData);
 569:main.c        ****         }
 570:main.c        ****         if(PWM > maxV){
 571:main.c        ****             set_PWM(maxV);   
 572:main.c        ****         } else if(PWM < -maxV) {
 573:main.c        ****             set_PWM(-maxV);
 574:main.c        ****         } else {
 575:main.c        ****             set_PWM(PWM);   
 576:main.c        ****         }
 577:main.c        ****    // }
 578:main.c        **** }
 579:main.c        **** 
 580:main.c        **** int degrees_to_tick(int16 degrees){
 1687              		.loc 1 580 0
 1688              		.cfi_startproc
 1689              		@ args = 0, pretend = 0, frame = 0
 1690              		@ frame_needed = 0, uses_anonymous_args = 0
 1691              	.LVL111:
 1692 0000 70B5     		push	{r4, r5, r6, lr}
 1693              		.cfi_def_cfa_offset 16
 1694              		.cfi_offset 4, -16
 1695              		.cfi_offset 5, -12
ARM GAS  C:\Users\austc\AppData\Local\Temp\ccKyHRsy.s 			page 45


 1696              		.cfi_offset 6, -8
 1697              		.cfi_offset 14, -4
 1698 0002 0500     		movs	r5, r0
 581:main.c        ****     int ticks = (int)((double)degrees * ratio);
 1699              		.loc 1 581 0
 1700 0004 FFF7FEFF 		bl	__aeabi_i2d
 1701              	.LVL112:
 1702 0008 0B4B     		ldr	r3, .L97
 1703 000a 1A68     		ldr	r2, [r3]
 1704 000c 5B68     		ldr	r3, [r3, #4]
 1705 000e FFF7FEFF 		bl	__aeabi_dmul
 1706              	.LVL113:
 1707 0012 FFF7FEFF 		bl	__aeabi_d2iz
 1708              	.LVL114:
 1709 0016 0400     		movs	r4, r0
 1710              	.LVL115:
 582:main.c        ****     if(uart_debug) {
 1711              		.loc 1 582 0
 1712 0018 084B     		ldr	r3, .L97+4
 1713 001a 1B78     		ldrb	r3, [r3]
 1714 001c 002B     		cmp	r3, #0
 1715 001e 09D0     		beq	.L96
 583:main.c        ****         sprintf(txData, "degree: %d ticks: %d\r\n", degrees, ticks);
 1716              		.loc 1 583 0
 1717 0020 074E     		ldr	r6, .L97+8
 1718 0022 0300     		movs	r3, r0
 1719 0024 2A00     		movs	r2, r5
 1720 0026 0749     		ldr	r1, .L97+12
 1721 0028 3000     		movs	r0, r6
 1722              	.LVL116:
 1723 002a FFF7FEFF 		bl	sprintf
 1724              	.LVL117:
 584:main.c        ****         UART_UartPutString(txData);
 1725              		.loc 1 584 0
 1726 002e 3000     		movs	r0, r6
 1727 0030 FFF7FEFF 		bl	UART_UartPutString
 1728              	.LVL118:
 1729              	.L96:
 585:main.c        ****     }
 586:main.c        ****     return(ticks);
 587:main.c        **** }
 1730              		.loc 1 587 0
 1731 0034 2000     		movs	r0, r4
 1732              		@ sp needed
 1733              	.LVL119:
 1734 0036 70BD     		pop	{r4, r5, r6, pc}
 1735              	.L98:
 1736              		.align	2
 1737              	.L97:
 1738 0038 00000000 		.word	ratio
 1739 003c 00000000 		.word	.LANCHOR0
 1740 0040 00000000 		.word	txData
 1741 0044 D4010000 		.word	.LC84
 1742              		.cfi_endproc
 1743              	.LFE50:
 1744              		.size	degrees_to_tick, .-degrees_to_tick
 1745              		.global	__aeabi_idiv
ARM GAS  C:\Users\austc\AppData\Local\Temp\ccKyHRsy.s 			page 46


 1746              		.section	.text.position_PID,"ax",%progbits
 1747              		.align	2
 1748              		.global	position_PID
 1749              		.code	16
 1750              		.thumb_func
 1751              		.type	position_PID, %function
 1752              	position_PID:
 1753              	.LFB51:
 588:main.c        **** 
 589:main.c        **** int position_PID(int target){
 1754              		.loc 1 589 0
 1755              		.cfi_startproc
 1756              		@ args = 0, pretend = 0, frame = 0
 1757              		@ frame_needed = 0, uses_anonymous_args = 0
 1758              	.LVL120:
 1759 0000 70B5     		push	{r4, r5, r6, lr}
 1760              		.cfi_def_cfa_offset 16
 1761              		.cfi_offset 4, -16
 1762              		.cfi_offset 5, -12
 1763              		.cfi_offset 6, -8
 1764              		.cfi_offset 14, -4
 1765 0002 82B0     		sub	sp, sp, #8
 1766              		.cfi_def_cfa_offset 24
 1767 0004 0400     		movs	r4, r0
 590:main.c        ****     int16 current =  QuadDec_GetCounter() * flipEncoder;
 1768              		.loc 1 590 0
 1769 0006 FFF7FEFF 		bl	QuadDec_GetCounter
 1770              	.LVL121:
 1771 000a 2D4B     		ldr	r3, .L106
 1772 000c DB7A     		ldrb	r3, [r3, #11]
 1773 000e 5BB2     		sxtb	r3, r3
 1774 0010 5843     		muls	r0, r3
 1775 0012 02B2     		sxth	r2, r0
 1776              	.LVL122:
 591:main.c        ****     int p = target - current;
 1777              		.loc 1 591 0
 1778 0014 A41A     		subs	r4, r4, r2
 1779              	.LVL123:
 592:main.c        ****     if(p <= 5 && p >= -5) {
 1780              		.loc 1 592 0
 1781 0016 631D     		adds	r3, r4, #5
 1782 0018 0A2B     		cmp	r3, #10
 1783 001a 0ED8     		bhi	.L100
 593:main.c        ****         if(uart_debug) {
 1784              		.loc 1 593 0
 1785 001c 284B     		ldr	r3, .L106
 1786 001e 1B78     		ldrb	r3, [r3]
 1787 0020 002B     		cmp	r3, #0
 1788 0022 49D0     		beq	.L105
 594:main.c        ****             sprintf(txData, "p: %d\r\n",p);
 1789              		.loc 1 594 0
 1790 0024 274D     		ldr	r5, .L106+4
 1791 0026 2200     		movs	r2, r4
 1792              	.LVL124:
 1793 0028 2749     		ldr	r1, .L106+8
 1794 002a 2800     		movs	r0, r5
 1795              	.LVL125:
ARM GAS  C:\Users\austc\AppData\Local\Temp\ccKyHRsy.s 			page 47


 1796 002c FFF7FEFF 		bl	sprintf
 1797              	.LVL126:
 595:main.c        ****             UART_UartPutString(txData);
 1798              		.loc 1 595 0
 1799 0030 2800     		movs	r0, r5
 1800 0032 FFF7FEFF 		bl	UART_UartPutString
 1801              	.LVL127:
 596:main.c        ****         }
 597:main.c        ****       //complete =  1;
 598:main.c        ****       return(0);
 1802              		.loc 1 598 0
 1803 0036 0020     		movs	r0, #0
 1804 0038 3FE0     		b	.L101
 1805              	.LVL128:
 1806              	.L100:
 599:main.c        ****     }
 600:main.c        ****     i = i + p;
 1807              		.loc 1 600 0
 1808 003a 2449     		ldr	r1, .L106+12
 1809 003c 4B68     		ldr	r3, [r1, #4]
 1810 003e E318     		adds	r3, r4, r3
 1811 0040 4B60     		str	r3, [r1, #4]
 601:main.c        ****     if ( i > 500) {
 1812              		.loc 1 601 0
 1813 0042 FA21     		movs	r1, #250
 1814 0044 4900     		lsls	r1, r1, #1
 1815 0046 8B42     		cmp	r3, r1
 1816 0048 01DD     		ble	.L102
 602:main.c        ****         i = 500;   
 1817              		.loc 1 602 0
 1818 004a 204B     		ldr	r3, .L106+12
 1819 004c 5960     		str	r1, [r3, #4]
 1820              	.L102:
 603:main.c        ****     }
 604:main.c        ****     if ( i < -500) {
 1821              		.loc 1 604 0
 1822 004e 1F4B     		ldr	r3, .L106+12
 1823 0050 5968     		ldr	r1, [r3, #4]
 1824 0052 1F4B     		ldr	r3, .L106+16
 1825 0054 9942     		cmp	r1, r3
 1826 0056 02DA     		bge	.L103
 605:main.c        ****         i = -500;
 1827              		.loc 1 605 0
 1828 0058 1900     		movs	r1, r3
 1829 005a 1C4B     		ldr	r3, .L106+12
 1830 005c 5960     		str	r1, [r3, #4]
 1831              	.L103:
 606:main.c        ****     }
 607:main.c        ****     int d = p - lastp;
 1832              		.loc 1 607 0
 1833 005e 1B4B     		ldr	r3, .L106+12
 1834 0060 9969     		ldr	r1, [r3, #24]
 1835 0062 651A     		subs	r5, r4, r1
 1836              	.LVL129:
 608:main.c        ****     lastp = p;
 1837              		.loc 1 608 0
 1838 0064 9C61     		str	r4, [r3, #24]
ARM GAS  C:\Users\austc\AppData\Local\Temp\ccKyHRsy.s 			page 48


 609:main.c        ****     if(uart_debug) {
 1839              		.loc 1 609 0
 1840 0066 164B     		ldr	r3, .L106
 1841 0068 1B78     		ldrb	r3, [r3]
 1842 006a 002B     		cmp	r3, #0
 1843 006c 0CD0     		beq	.L104
 610:main.c        ****         sprintf(txData, "p: %d, i: %d d %d current %d\r\n",p, i, d, current);
 1844              		.loc 1 610 0
 1845 006e 174B     		ldr	r3, .L106+12
 1846 0070 5B68     		ldr	r3, [r3, #4]
 1847 0072 144E     		ldr	r6, .L106+4
 1848 0074 0192     		str	r2, [sp, #4]
 1849 0076 0095     		str	r5, [sp]
 1850 0078 2200     		movs	r2, r4
 1851              	.LVL130:
 1852 007a 1649     		ldr	r1, .L106+20
 1853 007c 3000     		movs	r0, r6
 1854 007e FFF7FEFF 		bl	sprintf
 1855              	.LVL131:
 611:main.c        ****         UART_UartPutString(txData);
 1856              		.loc 1 611 0
 1857 0082 3000     		movs	r0, r6
 1858 0084 FFF7FEFF 		bl	UART_UartPutString
 1859              	.LVL132:
 1860              	.L104:
 612:main.c        ****     }
 613:main.c        ****     return (p*kp/10 + i*ki/10 + d*kd/10);
 1861              		.loc 1 613 0
 1862 0088 134B     		ldr	r3, .L106+24
 1863 008a 1868     		ldr	r0, [r3]
 1864 008c 6043     		muls	r0, r4
 1865 008e 0A21     		movs	r1, #10
 1866 0090 FFF7FEFF 		bl	__aeabi_idiv
 1867              	.LVL133:
 1868 0094 0400     		movs	r4, r0
 1869              	.LVL134:
 1870 0096 0D4B     		ldr	r3, .L106+12
 1871 0098 5868     		ldr	r0, [r3, #4]
 1872 009a 104B     		ldr	r3, .L106+28
 1873 009c 1B68     		ldr	r3, [r3]
 1874 009e 5843     		muls	r0, r3
 1875 00a0 0A21     		movs	r1, #10
 1876 00a2 FFF7FEFF 		bl	__aeabi_idiv
 1877              	.LVL135:
 1878 00a6 2418     		adds	r4, r4, r0
 1879 00a8 0D4B     		ldr	r3, .L106+32
 1880 00aa 1868     		ldr	r0, [r3]
 1881 00ac 6843     		muls	r0, r5
 1882 00ae 0A21     		movs	r1, #10
 1883 00b0 FFF7FEFF 		bl	__aeabi_idiv
 1884              	.LVL136:
 1885 00b4 2018     		adds	r0, r4, r0
 1886 00b6 00E0     		b	.L101
 1887              	.LVL137:
 1888              	.L105:
 598:main.c        ****     }
 1889              		.loc 1 598 0
ARM GAS  C:\Users\austc\AppData\Local\Temp\ccKyHRsy.s 			page 49


 1890 00b8 0020     		movs	r0, #0
 1891              	.LVL138:
 1892              	.L101:
 614:main.c        **** }
 1893              		.loc 1 614 0
 1894 00ba 02B0     		add	sp, sp, #8
 1895              		@ sp needed
 1896 00bc 70BD     		pop	{r4, r5, r6, pc}
 1897              	.L107:
 1898 00be C046     		.align	2
 1899              	.L106:
 1900 00c0 00000000 		.word	.LANCHOR0
 1901 00c4 00000000 		.word	txData
 1902 00c8 EC010000 		.word	.LC88
 1903 00cc 00000000 		.word	.LANCHOR1
 1904 00d0 0CFEFFFF 		.word	-500
 1905 00d4 F4010000 		.word	.LC92
 1906 00d8 00000000 		.word	kp
 1907 00dc 00000000 		.word	ki
 1908 00e0 00000000 		.word	kd
 1909              		.cfi_endproc
 1910              	.LFE51:
 1911              		.size	position_PID, .-position_PID
 1912              		.section	.text.set_Position,"ax",%progbits
 1913              		.align	2
 1914              		.global	set_Position
 1915              		.code	16
 1916              		.thumb_func
 1917              		.type	set_Position, %function
 1918              	set_Position:
 1919              	.LFB49:
 559:main.c        ****     if(uart_debug) {
 1920              		.loc 1 559 0
 1921              		.cfi_startproc
 1922              		@ args = 0, pretend = 0, frame = 0
 1923              		@ frame_needed = 0, uses_anonymous_args = 0
 1924              	.LVL139:
 1925 0000 70B5     		push	{r4, r5, r6, lr}
 1926              		.cfi_def_cfa_offset 16
 1927              		.cfi_offset 4, -16
 1928              		.cfi_offset 5, -12
 1929              		.cfi_offset 6, -8
 1930              		.cfi_offset 14, -4
 1931 0002 0400     		movs	r4, r0
 560:main.c        ****         sprintf(txData, "complete: %d\r\n",complete);
 1932              		.loc 1 560 0
 1933 0004 184B     		ldr	r3, .L114
 1934 0006 1B78     		ldrb	r3, [r3]
 1935 0008 002B     		cmp	r3, #0
 1936 000a 09D0     		beq	.L109
 561:main.c        ****         UART_UartPutString(txData);
 1937              		.loc 1 561 0
 1938 000c 174B     		ldr	r3, .L114+4
 1939 000e 1A7A     		ldrb	r2, [r3, #8]
 1940 0010 174D     		ldr	r5, .L114+8
 1941 0012 1849     		ldr	r1, .L114+12
 1942 0014 2800     		movs	r0, r5
ARM GAS  C:\Users\austc\AppData\Local\Temp\ccKyHRsy.s 			page 50


 1943              	.LVL140:
 1944 0016 FFF7FEFF 		bl	sprintf
 1945              	.LVL141:
 562:main.c        ****     }
 1946              		.loc 1 562 0
 1947 001a 2800     		movs	r0, r5
 1948 001c FFF7FEFF 		bl	UART_UartPutString
 1949              	.LVL142:
 1950              	.L109:
 565:main.c        ****         if(uart_debug) {
 1951              		.loc 1 565 0
 1952 0020 2000     		movs	r0, r4
 1953 0022 FFF7FEFF 		bl	degrees_to_tick
 1954              	.LVL143:
 1955 0026 FFF7FEFF 		bl	position_PID
 1956              	.LVL144:
 1957 002a 0400     		movs	r4, r0
 1958              	.LVL145:
 566:main.c        ****             sprintf(txData, "PWM: %d\r\n",PWM);
 1959              		.loc 1 566 0
 1960 002c 0E4B     		ldr	r3, .L114
 1961 002e 1B78     		ldrb	r3, [r3]
 1962 0030 002B     		cmp	r3, #0
 1963 0032 08D0     		beq	.L110
 567:main.c        ****             UART_UartPutString(txData);
 1964              		.loc 1 567 0
 1965 0034 0E4D     		ldr	r5, .L114+8
 1966 0036 0200     		movs	r2, r0
 1967 0038 0F49     		ldr	r1, .L114+16
 1968 003a 2800     		movs	r0, r5
 1969              	.LVL146:
 1970 003c FFF7FEFF 		bl	sprintf
 1971              	.LVL147:
 568:main.c        ****         }
 1972              		.loc 1 568 0
 1973 0040 2800     		movs	r0, r5
 1974 0042 FFF7FEFF 		bl	UART_UartPutString
 1975              	.LVL148:
 1976              	.L110:
 570:main.c        ****             set_PWM(maxV);   
 1977              		.loc 1 570 0
 1978 0046 094B     		ldr	r3, .L114+4
 1979 0048 187F     		ldrb	r0, [r3, #28]
 1980 004a 8442     		cmp	r4, r0
 1981 004c 02DD     		ble	.L111
 571:main.c        ****         } else if(PWM < -maxV) {
 1982              		.loc 1 571 0
 1983 004e FFF7FEFF 		bl	set_PWM
 1984              	.LVL149:
 1985 0052 08E0     		b	.L108
 1986              	.L111:
 572:main.c        ****             set_PWM(-maxV);
 1987              		.loc 1 572 0
 1988 0054 4042     		rsbs	r0, r0, #0
 1989 0056 8442     		cmp	r4, r0
 1990 0058 02DA     		bge	.L113
 573:main.c        ****         } else {
ARM GAS  C:\Users\austc\AppData\Local\Temp\ccKyHRsy.s 			page 51


 1991              		.loc 1 573 0
 1992 005a FFF7FEFF 		bl	set_PWM
 1993              	.LVL150:
 1994 005e 02E0     		b	.L108
 1995              	.L113:
 575:main.c        ****         }
 1996              		.loc 1 575 0
 1997 0060 2000     		movs	r0, r4
 1998 0062 FFF7FEFF 		bl	set_PWM
 1999              	.LVL151:
 2000              	.L108:
 578:main.c        **** 
 2001              		.loc 1 578 0
 2002              		@ sp needed
 2003              	.LVL152:
 2004 0066 70BD     		pop	{r4, r5, r6, pc}
 2005              	.L115:
 2006              		.align	2
 2007              	.L114:
 2008 0068 00000000 		.word	.LANCHOR0
 2009 006c 00000000 		.word	.LANCHOR1
 2010 0070 00000000 		.word	txData
 2011 0074 14020000 		.word	.LC99
 2012 0078 24020000 		.word	.LC102
 2013              		.cfi_endproc
 2014              	.LFE49:
 2015              		.size	set_Position, .-set_Position
 2016              		.section	.text.main,"ax",%progbits
 2017              		.align	2
 2018              		.global	main
 2019              		.code	16
 2020              		.thumb_func
 2021              		.type	main, %function
 2022              	main:
 2023              	.LFB37:
 117:main.c        ****     #ifdef REV2
 2024              		.loc 1 117 0
 2025              		.cfi_startproc
 2026              		@ args = 0, pretend = 0, frame = 0
 2027              		@ frame_needed = 0, uses_anonymous_args = 0
 2028 0000 10B5     		push	{r4, lr}
 2029              		.cfi_def_cfa_offset 8
 2030              		.cfi_offset 4, -8
 2031              		.cfi_offset 14, -4
 2032 0002 82B0     		sub	sp, sp, #8
 2033              		.cfi_def_cfa_offset 16
 119:main.c        ****         Error_Write(LED_ON);
 2034              		.loc 1 119 0
 2035 0004 0020     		movs	r0, #0
 2036 0006 FFF7FEFF 		bl	Test_LED_Write
 2037              	.LVL153:
 120:main.c        ****     #endif
 2038              		.loc 1 120 0
 2039 000a 0020     		movs	r0, #0
 2040 000c FFF7FEFF 		bl	Error_Write
 2041              	.LVL154:
 122:main.c        ****     stall.done = 1;
ARM GAS  C:\Users\austc\AppData\Local\Temp\ccKyHRsy.s 			page 52


 2042              		.loc 1 122 0
 2043 0010 634A     		ldr	r2, .L130
 2044 0012 0123     		movs	r3, #1
 2045 0014 1370     		strb	r3, [r2]
 123:main.c        ****     command_failed.code = 0x02;
 2046              		.loc 1 123 0
 2047 0016 9370     		strb	r3, [r2, #2]
 124:main.c        ****     command_failed.done = 1;
 2048              		.loc 1 124 0
 2049 0018 624A     		ldr	r2, .L130+4
 2050 001a 0221     		movs	r1, #2
 2051 001c 1170     		strb	r1, [r2]
 125:main.c        ****     invalid_arg.code = 0x03;
 2052              		.loc 1 125 0
 2053 001e 9370     		strb	r3, [r2, #2]
 126:main.c        ****     invalid_arg.done = 1;
 2054              		.loc 1 126 0
 2055 0020 614A     		ldr	r2, .L130+8
 2056 0022 0131     		adds	r1, r1, #1
 2057 0024 1170     		strb	r1, [r2]
 127:main.c        ****     uint8 error;
 2058              		.loc 1 127 0
 2059 0026 9370     		strb	r3, [r2, #2]
 130:main.c        ****     message.ide = MESSAGE_IDE;
 2060              		.loc 1 130 0
 2061 0028 604B     		ldr	r3, .L130+12
 2062 002a 0522     		movs	r2, #5
 2063 002c 9A71     		strb	r2, [r3, #6]
 131:main.c        ****     message.irq = MESSAGE_IRQ;
 2064              		.loc 1 131 0
 2065 002e 0024     		movs	r4, #0
 2066 0030 5C71     		strb	r4, [r3, #5]
 132:main.c        ****     message.msg = &data;
 2067              		.loc 1 132 0
 2068 0032 DC71     		strb	r4, [r3, #7]
 133:main.c        ****     message.rtr = MESSAGE_RTR;
 2069              		.loc 1 133 0
 2070 0034 5E4A     		ldr	r2, .L130+16
 2071 0036 DA60     		str	r2, [r3, #12]
 134:main.c        ****     
 2072              		.loc 1 134 0
 2073 0038 1C71     		strb	r4, [r3, #4]
 137:main.c        ****         Error_Write(0);
 2074              		.loc 1 137 0
 2075 003a 0020     		movs	r0, #0
 2076 003c FFF7FEFF 		bl	Test_LED_Write
 2077              	.LVL155:
 138:main.c        ****     #endif
 2078              		.loc 1 138 0
 2079 0040 0020     		movs	r0, #0
 2080 0042 FFF7FEFF 		bl	Error_Write
 2081              	.LVL156:
 141:main.c        ****     initialize_can_addr();
 2082              		.loc 1 141 0
 2083 0046 FFF7FEFF 		bl	initialize
 2084              	.LVL157:
 142:main.c        ****     int up = 0;
ARM GAS  C:\Users\austc\AppData\Local\Temp\ccKyHRsy.s 			page 53


 2085              		.loc 1 142 0
 2086 004a FFF7FEFF 		bl	initialize_can_addr
 2087              	.LVL158:
 145:main.c        ****     set_PWM(0);
 2088              		.loc 1 145 0
 2089 004e 594B     		ldr	r3, .L130+20
 2090 0050 1C60     		str	r4, [r3]
 146:main.c        ****     
 2091              		.loc 1 146 0
 2092 0052 0020     		movs	r0, #0
 2093 0054 FFF7FEFF 		bl	set_PWM
 2094              	.LVL159:
 149:main.c        ****         Error_Write(LED_OFF);
 2095              		.loc 1 149 0
 2096 0058 0120     		movs	r0, #1
 2097 005a FFF7FEFF 		bl	Test_LED_Write
 2098              	.LVL160:
 150:main.c        ****     #endif
 2099              		.loc 1 150 0
 2100 005e 0120     		movs	r0, #1
 2101 0060 FFF7FEFF 		bl	Error_Write
 2102              	.LVL161:
 2103              	.L117:
 155:main.c        **** 
 2104              		.loc 1 155 0
 2105 0064 544B     		ldr	r3, .L130+24
 2106 0066 1B7B     		ldrb	r3, [r3, #12]
 2107 0068 002B     		cmp	r3, #0
 2108 006a FBD1     		bne	.L117
 164:main.c        ****                     if(mode == 0) {
 2109              		.loc 1 164 0
 2110 006c 534B     		ldr	r3, .L130+28
 2111 006e 5979     		ldrb	r1, [r3, #5]
 2112 0070 0029     		cmp	r1, #0
 2113 0072 34D1     		bne	.L118
 165:main.c        ****                         if(uart_debug) {
 2114              		.loc 1 165 0
 2115 0074 524B     		ldr	r3, .L130+32
 2116 0076 9A7A     		ldrb	r2, [r3, #10]
 2117 0078 002A     		cmp	r2, #0
 2118 007a 1FD1     		bne	.L119
 166:main.c        ****                             sprintf(txData, "B1: %d, B2: %d done %x\r\n",Can_rx_pwm.b1, Can_rx_pwm.
 2119              		.loc 1 166 0
 2120 007c 1B78     		ldrb	r3, [r3]
 2121 007e 002B     		cmp	r3, #0
 2122 0080 0BD0     		beq	.L120
 167:main.c        ****                             UART_UartPutString(txData);
 2123              		.loc 1 167 0
 2124 0082 4E4B     		ldr	r3, .L130+28
 2125 0084 5A78     		ldrb	r2, [r3, #1]
 2126 0086 9B78     		ldrb	r3, [r3, #2]
 2127 0088 4E4C     		ldr	r4, .L130+36
 2128 008a 0091     		str	r1, [sp]
 2129 008c 4E49     		ldr	r1, .L130+40
 2130 008e 2000     		movs	r0, r4
 2131 0090 FFF7FEFF 		bl	sprintf
 2132              	.LVL162:
ARM GAS  C:\Users\austc\AppData\Local\Temp\ccKyHRsy.s 			page 54


 168:main.c        ****                         }
 2133              		.loc 1 168 0
 2134 0094 2000     		movs	r0, r4
 2135 0096 FFF7FEFF 		bl	UART_UartPutString
 2136              	.LVL163:
 2137              	.L120:
 170:main.c        ****                         if(Can_rx_pwm.b2 & 0b01) {
 2138              		.loc 1 170 0
 2139 009a 484B     		ldr	r3, .L130+28
 2140 009c 0122     		movs	r2, #1
 2141 009e 5A71     		strb	r2, [r3, #5]
 171:main.c        ****                             set_PWM((int)Can_rx_pwm.b1);
 2142              		.loc 1 171 0
 2143 00a0 9B78     		ldrb	r3, [r3, #2]
 2144 00a2 DB07     		lsls	r3, r3, #31
 2145 00a4 04D5     		bpl	.L121
 172:main.c        ****                         }
 2146              		.loc 1 172 0
 2147 00a6 454B     		ldr	r3, .L130+28
 2148 00a8 5878     		ldrb	r0, [r3, #1]
 2149 00aa FFF7FEFF 		bl	set_PWM
 2150              	.LVL164:
 2151 00ae 16E0     		b	.L118
 2152              	.L121:
 175:main.c        ****                         }
 2153              		.loc 1 175 0
 2154 00b0 424B     		ldr	r3, .L130+28
 2155 00b2 5878     		ldrb	r0, [r3, #1]
 2156 00b4 4042     		rsbs	r0, r0, #0
 2157 00b6 FFF7FEFF 		bl	set_PWM
 2158              	.LVL165:
 2159 00ba 10E0     		b	.L118
 2160              	.L119:
 178:main.c        ****                         command_failed.param = 0x02;
 2161              		.loc 1 178 0
 2162 00bc 394B     		ldr	r3, .L130+4
 2163 00be 0021     		movs	r1, #0
 2164 00c0 9970     		strb	r1, [r3, #2]
 179:main.c        ****                         if(uart_debug) {
 2165              		.loc 1 179 0
 2166 00c2 0231     		adds	r1, r1, #2
 2167 00c4 5970     		strb	r1, [r3, #1]
 180:main.c        ****                             sprintf(txData, "Mode is not set to 0, mode is %d\r\n",mode);
 2168              		.loc 1 180 0
 2169 00c6 3E4B     		ldr	r3, .L130+32
 2170 00c8 1B78     		ldrb	r3, [r3]
 2171 00ca 002B     		cmp	r3, #0
 2172 00cc 07D0     		beq	.L118
 181:main.c        ****                             UART_UartPutString(txData);
 2173              		.loc 1 181 0
 2174 00ce 3D4C     		ldr	r4, .L130+36
 2175 00d0 3E49     		ldr	r1, .L130+44
 2176 00d2 2000     		movs	r0, r4
 2177 00d4 FFF7FEFF 		bl	sprintf
 2178              	.LVL166:
 182:main.c        ****                         }
 2179              		.loc 1 182 0
ARM GAS  C:\Users\austc\AppData\Local\Temp\ccKyHRsy.s 			page 55


 2180 00d8 2000     		movs	r0, r4
 2181 00da FFF7FEFF 		bl	UART_UartPutString
 2182              	.LVL167:
 2183              	.L118:
 189:main.c        ****                         if(uart_debug) {
 2184              		.loc 1 189 0
 2185 00de 384B     		ldr	r3, .L130+32
 2186 00e0 9A7A     		ldrb	r2, [r3, #10]
 2187 00e2 012A     		cmp	r2, #1
 2188 00e4 20D1     		bne	.L122
 190:main.c        ****                             sprintf(txData, "B1: %d, B3: %d done %x\r\n",Can_rx_angle.b1, Can_rx_an
 2189              		.loc 1 190 0
 2190 00e6 1B78     		ldrb	r3, [r3]
 2191 00e8 002B     		cmp	r3, #0
 2192 00ea 0DD0     		beq	.L123
 191:main.c        ****                             UART_UartPutString(txData);
 2193              		.loc 1 191 0
 2194 00ec 384B     		ldr	r3, .L130+48
 2195 00ee 5A78     		ldrb	r2, [r3, #1]
 2196 00f0 DB78     		ldrb	r3, [r3, #3]
 2197 00f2 3249     		ldr	r1, .L130+28
 2198 00f4 4979     		ldrb	r1, [r1, #5]
 2199 00f6 334C     		ldr	r4, .L130+36
 2200 00f8 0091     		str	r1, [sp]
 2201 00fa 3649     		ldr	r1, .L130+52
 2202 00fc 2000     		movs	r0, r4
 2203 00fe FFF7FEFF 		bl	sprintf
 2204              	.LVL168:
 192:main.c        ****                         }
 2205              		.loc 1 192 0
 2206 0102 2000     		movs	r0, r4
 2207 0104 FFF7FEFF 		bl	UART_UartPutString
 2208              	.LVL169:
 2209              	.L123:
 195:main.c        ****                         maxV = Can_rx_angle.b3;
 2210              		.loc 1 195 0
 2211 0108 2B4A     		ldr	r2, .L130+24
 2212 010a 0021     		movs	r1, #0
 2213 010c 1172     		strb	r1, [r2, #8]
 196:main.c        ****                         i = 0;
 2214              		.loc 1 196 0
 2215 010e 304B     		ldr	r3, .L130+48
 2216 0110 D878     		ldrb	r0, [r3, #3]
 2217 0112 1077     		strb	r0, [r2, #28]
 197:main.c        ****                         
 2218              		.loc 1 197 0
 2219 0114 5160     		str	r1, [r2, #4]
 201:main.c        ****                         set_Position(final_angle);
 2220              		.loc 1 201 0
 2221 0116 9878     		ldrb	r0, [r3, #2]
 2222 0118 0002     		lsls	r0, r0, #8
 2223 011a 5B78     		ldrb	r3, [r3, #1]
 2224 011c 1843     		orrs	r0, r3
 2225 011e 00B2     		sxth	r0, r0
 2226 0120 5080     		strh	r0, [r2, #2]
 202:main.c        ****                     }
 2227              		.loc 1 202 0
ARM GAS  C:\Users\austc\AppData\Local\Temp\ccKyHRsy.s 			page 56


 2228 0122 FFF7FEFF 		bl	set_Position
 2229              	.LVL170:
 2230 0126 14E0     		b	.L124
 2231              	.L122:
 204:main.c        ****                         command_failed.done = 0;
 2232              		.loc 1 204 0
 2233 0128 244B     		ldr	r3, .L130+28
 2234 012a 5B79     		ldrb	r3, [r3, #5]
 2235 012c 002B     		cmp	r3, #0
 2236 012e 10D1     		bne	.L124
 205:main.c        ****                         command_failed.param = 0x04;
 2237              		.loc 1 205 0
 2238 0130 1C4B     		ldr	r3, .L130+4
 2239 0132 0021     		movs	r1, #0
 2240 0134 9970     		strb	r1, [r3, #2]
 206:main.c        ****                         if(uart_debug) {
 2241              		.loc 1 206 0
 2242 0136 0431     		adds	r1, r1, #4
 2243 0138 5970     		strb	r1, [r3, #1]
 207:main.c        ****                             sprintf(txData, "Mode is not set to 1, mode is %d\r\n", mode);
 2244              		.loc 1 207 0
 2245 013a 214B     		ldr	r3, .L130+32
 2246 013c 1B78     		ldrb	r3, [r3]
 2247 013e 002B     		cmp	r3, #0
 2248 0140 07D0     		beq	.L124
 208:main.c        ****                             UART_UartPutString(txData);
 2249              		.loc 1 208 0
 2250 0142 204C     		ldr	r4, .L130+36
 2251 0144 2449     		ldr	r1, .L130+56
 2252 0146 2000     		movs	r0, r4
 2253 0148 FFF7FEFF 		bl	sprintf
 2254              	.LVL171:
 209:main.c        ****                         }
 2255              		.loc 1 209 0
 2256 014c 2000     		movs	r0, r4
 2257 014e FFF7FEFF 		bl	UART_UartPutString
 2258              	.LVL172:
 2259              	.L124:
 214:main.c        ****                     Can_rx_angle.done = 1;
 2260              		.loc 1 214 0
 2261 0152 1B4B     		ldr	r3, .L130+32
 2262 0154 9B7A     		ldrb	r3, [r3, #10]
 2263 0156 012B     		cmp	r3, #1
 2264 0158 04D9     		bls	.L125
 215:main.c        ****                     Can_rx_pwm.done = 1;
 2265              		.loc 1 215 0
 2266 015a 0123     		movs	r3, #1
 2267 015c 1C4A     		ldr	r2, .L130+48
 2268 015e 5371     		strb	r3, [r2, #5]
 216:main.c        ****                 }
 2269              		.loc 1 216 0
 2270 0160 164A     		ldr	r2, .L130+28
 2271 0162 5371     		strb	r3, [r2, #5]
 2272              	.L125:
 240:main.c        ****                 if(uart_debug) {
 2273              		.loc 1 240 0
 2274 0164 164B     		ldr	r3, .L130+32
ARM GAS  C:\Users\austc\AppData\Local\Temp\ccKyHRsy.s 			page 57


 2275 0166 9B7B     		ldrb	r3, [r3, #14]
 2276 0168 002B     		cmp	r3, #0
 2277 016a 0DD0     		beq	.L126
 241:main.c        ****                     sprintf(txData,"\nSending Data... \r\n");
 2278              		.loc 1 241 0
 2279 016c 144B     		ldr	r3, .L130+32
 2280 016e 1B78     		ldrb	r3, [r3]
 2281 0170 002B     		cmp	r3, #0
 2282 0172 04D0     		beq	.L127
 242:main.c        ****                    // UART_UartPutString(txData);
 2283              		.loc 1 242 0
 2284 0174 1422     		movs	r2, #20
 2285 0176 1949     		ldr	r1, .L130+60
 2286 0178 1248     		ldr	r0, .L130+36
 2287 017a FFF7FEFF 		bl	memcpy
 2288              	.LVL173:
 2289              	.L127:
 245:main.c        ****                 send_data = 0;
 2290              		.loc 1 245 0
 2291 017e FFF7FEFF 		bl	CAN_Send_Encoder
 2292              	.LVL174:
 246:main.c        ****             }
 2293              		.loc 1 246 0
 2294 0182 0022     		movs	r2, #0
 2295 0184 0E4B     		ldr	r3, .L130+32
 2296 0186 9A73     		strb	r2, [r3, #14]
 2297              	.L126:
 250:main.c        ****                 CAN_Send_Model();
 2298              		.loc 1 250 0
 2299 0188 0B4B     		ldr	r3, .L130+24
 2300 018a 5B7A     		ldrb	r3, [r3, #9]
 2301 018c 002B     		cmp	r3, #0
 2302 018e 00D1     		bne	.LCB2020
 2303 0190 68E7     		b	.L117	@long jump
 2304              	.LCB2020:
 251:main.c        ****                 model_req = 0;
 2305              		.loc 1 251 0
 2306 0192 FFF7FEFF 		bl	CAN_Send_Model
 2307              	.LVL175:
 252:main.c        ****             }
 2308              		.loc 1 252 0
 2309 0196 0022     		movs	r2, #0
 2310 0198 074B     		ldr	r3, .L130+24
 2311 019a 5A72     		strb	r2, [r3, #9]
 2312 019c 62E7     		b	.L117
 2313              	.L131:
 2314 019e C046     		.align	2
 2315              	.L130:
 2316 01a0 00000000 		.word	stall
 2317 01a4 00000000 		.word	command_failed
 2318 01a8 00000000 		.word	invalid_arg
 2319 01ac 00000000 		.word	message
 2320 01b0 00000000 		.word	data
 2321 01b4 00000000 		.word	pwm_compare
 2322 01b8 00000000 		.word	.LANCHOR1
 2323 01bc 00000000 		.word	Can_rx_pwm
 2324 01c0 00000000 		.word	.LANCHOR0
ARM GAS  C:\Users\austc\AppData\Local\Temp\ccKyHRsy.s 			page 58


 2325 01c4 00000000 		.word	txData
 2326 01c8 30020000 		.word	.LC113
 2327 01cc 4C020000 		.word	.LC116
 2328 01d0 00000000 		.word	Can_rx_angle
 2329 01d4 70020000 		.word	.LC119
 2330 01d8 8C020000 		.word	.LC121
 2331 01dc B0020000 		.word	.LC123
 2332              		.cfi_endproc
 2333              	.LFE37:
 2334              		.size	main, .-main
 2335              		.global	drive
 2336              		.comm	message,16,4
 2337              		.comm	data,8,4
 2338              		.comm	txData,100,4
 2339              		.global	emergency
 2340              		.global	mailbox
 2341              		.comm	invalid_arg,3,4
 2342              		.comm	command_failed,3,4
 2343              		.comm	stall,3,4
 2344              		.comm	Can_rx_angle,6,4
 2345              		.comm	Can_rx_pwm,6,4
 2346              		.global	disable_limit
 2347              		.global	model_req
 2348              		.global	send_data
 2349              		.global	mode
 2350              		.global	maxV
 2351              		.global	complete
 2352              		.comm	ratio,8,8
 2353              		.comm	kd,4,4
 2354              		.comm	ki,4,4
 2355              		.comm	kp,4,4
 2356              		.global	lastp
 2357              		.global	i
 2358              		.global	final_angle
 2359              		.global	flipEncoder
 2360              		.global	invalidate
 2361              		.comm	pwm_compare,4,4
 2362              		.comm	GEAR_RATIO,4,4
 2363              		.global	uart_debug
 2364              		.comm	CAN_TIMEOUT,4,4
 2365              		.global	CAN_RX_MAILBOX_0
 2366              		.global	CAN_RX_MAILBOX_1
 2367              		.global	CAN_RX_MAILBOX_0_SHIFT
 2368              		.global	CAN_RX_MAILBOX_1_SHIFT
 2369              		.global	message_id
 2370              		.global	time_LED
 2371              		.data
 2372              		.align	2
 2373              		.set	.LANCHOR0,. + 0
 2374              		.type	uart_debug, %object
 2375              		.size	uart_debug, 1
 2376              	uart_debug:
 2377 0000 02       		.byte	2
 2378 0001 000000   		.space	3
 2379              		.type	CAN_RX_MAILBOX_0_SHIFT, %object
 2380              		.size	CAN_RX_MAILBOX_0_SHIFT, 4
 2381              	CAN_RX_MAILBOX_0_SHIFT:
ARM GAS  C:\Users\austc\AppData\Local\Temp\ccKyHRsy.s 			page 59


 2382 0004 80000000 		.word	128
 2383              		.type	CAN_RX_MAILBOX_0, %object
 2384              		.size	CAN_RX_MAILBOX_0, 2
 2385              	CAN_RX_MAILBOX_0:
 2386 0008 0700     		.short	7
 2387              		.type	mode, %object
 2388              		.size	mode, 1
 2389              	mode:
 2390 000a 02       		.byte	2
 2391              		.type	flipEncoder, %object
 2392              		.size	flipEncoder, 1
 2393              	flipEncoder:
 2394 000b 01       		.byte	1
 2395              		.type	CAN_RX_MAILBOX_1_SHIFT, %object
 2396              		.size	CAN_RX_MAILBOX_1_SHIFT, 2
 2397              	CAN_RX_MAILBOX_1_SHIFT:
 2398 000c 0100     		.short	1
 2399              		.type	send_data, %object
 2400              		.size	send_data, 1
 2401              	send_data:
 2402 000e 01       		.byte	1
 2403              		.section	.rodata.str1.4,"aMS",%progbits,1
 2404              		.align	2
 2405              	.LC1:
 2406 0000 0A204361 		.ascii	"\012 Can rx triggered\012\000"
 2406      6E207278 
 2406      20747269 
 2406      67676572 
 2406      65640A00 
 2407              	.LC3:
 2408 0014 50302072 		.ascii	"P0 recieved\012\000"
 2408      65636965 
 2408      7665640A 
 2408      00
 2409 0021 000000   		.space	3
 2410              	.LC9:
 2411 0024 50312072 		.ascii	"P1 recieved\012\012\000"
 2411      65636965 
 2411      7665640A 
 2411      0A00
 2412 0032 0000     		.space	2
 2413              	.LC16:
 2414 0034 43414E5F 		.ascii	"CAN_Start():  %u\015\012\000"
 2414      53746172 
 2414      7428293A 
 2414      20202575 
 2414      0D0A00
 2415 0047 00       		.space	1
 2416              	.LC28:
 2417 0048 43414E20 		.ascii	"CAN dip setting:  %x Message ID: %ld\015\012\000"
 2417      64697020 
 2417      73657474 
 2417      696E673A 
 2417      20202578 
 2418 006f 00       		.space	1
 2419              	.LC31:
 2420 0070 43616E20 		.ascii	"Can shift: %d   P0Mailbox: %d P1Mailbox %d\015\012\000"
ARM GAS  C:\Users\austc\AppData\Local\Temp\ccKyHRsy.s 			page 60


 2420      73686966 
 2420      743A2025 
 2420      64202020 
 2420      50304D61 
 2421 009d 000000   		.space	3
 2422              	.LC33:
 2423 00a0 64697361 		.ascii	"disable_limit: %d\015\012\000"
 2423      626C655F 
 2423      6C696D69 
 2423      743A2025 
 2423      640D0A00 
 2424              	.LC38:
 2425 00b4 50574D3A 		.ascii	"PWM:%d disable_limit: %d\015\012\000"
 2425      25642064 
 2425      69736162 
 2425      6C655F6C 
 2425      696D6974 
 2426 00cf 00       		.space	1
 2427              	.LC42:
 2428 00d0 50657269 		.ascii	"Period interupt triggerd %x\015\012\000"
 2428      6F642069 
 2428      6E746572 
 2428      75707420 
 2428      74726967 
 2429 00ee 0000     		.space	2
 2430              	.LC49:
 2431 00f0 4C696D69 		.ascii	"Limit interupt triggerd\015\012\000"
 2431      7420696E 
 2431      74657275 
 2431      70742074 
 2431      72696767 
 2432 010a 0000     		.space	2
 2433              	.LC56:
 2434 010c 43414E5F 		.ascii	"CAN_Send_Encoder: byte[0u] %x byte[1u] %x byte[2u] "
 2434      53656E64 
 2434      5F456E63 
 2434      6F646572 
 2434      3A206279 
 2435 013f 25782051 		.ascii	"%x QuadDec Count %d\015\012\000"
 2435      75616444 
 2435      65632043 
 2435      6F756E74 
 2435      2025640D 
 2436 0155 000000   		.space	3
 2437              	.LC62:
 2438 0158 54656C65 		.ascii	"Telemerty: byte[0u] %x byte[1u] %x\015\012\000"
 2438      6D657274 
 2438      793A2062 
 2438      7974655B 
 2438      30755D20 
 2439 017d 000000   		.space	3
 2440              	.LC68:
 2441 0180 4D6F6465 		.ascii	"Model: byte[0u] %x byte[1u] %x\015\012\000"
 2441      6C3A2062 
 2441      7974655B 
 2441      30755D20 
 2441      25782062 
ARM GAS  C:\Users\austc\AppData\Local\Temp\ccKyHRsy.s 			page 61


 2442 01a1 000000   		.space	3
 2443              	.LC74:
 2444 01a4 4572726F 		.ascii	"Error: byte[0u] %x byte[1u] %x byte[2u] %x\015\012\000"
 2444      723A2062 
 2444      7974655B 
 2444      30755D20 
 2444      25782062 
 2445 01d1 000000   		.space	3
 2446              	.LC84:
 2447 01d4 64656772 		.ascii	"degree: %d ticks: %d\015\012\000"
 2447      65653A20 
 2447      25642074 
 2447      69636B73 
 2447      3A202564 
 2448 01eb 00       		.space	1
 2449              	.LC88:
 2450 01ec 703A2025 		.ascii	"p: %d\015\012\000"
 2450      640D0A00 
 2451              	.LC92:
 2452 01f4 703A2025 		.ascii	"p: %d, i: %d d %d current %d\015\012\000"
 2452      642C2069 
 2452      3A202564 
 2452      20642025 
 2452      64206375 
 2453 0213 00       		.space	1
 2454              	.LC99:
 2455 0214 636F6D70 		.ascii	"complete: %d\015\012\000"
 2455      6C657465 
 2455      3A202564 
 2455      0D0A00
 2456 0223 00       		.space	1
 2457              	.LC102:
 2458 0224 50574D3A 		.ascii	"PWM: %d\015\012\000"
 2458      2025640D 
 2458      0A00
 2459 022e 0000     		.space	2
 2460              	.LC113:
 2461 0230 42313A20 		.ascii	"B1: %d, B2: %d done %x\015\012\000"
 2461      25642C20 
 2461      42323A20 
 2461      25642064 
 2461      6F6E6520 
 2462 0249 000000   		.space	3
 2463              	.LC116:
 2464 024c 4D6F6465 		.ascii	"Mode is not set to 0, mode is %d\015\012\000"
 2464      20697320 
 2464      6E6F7420 
 2464      73657420 
 2464      746F2030 
 2465 026f 00       		.space	1
 2466              	.LC119:
 2467 0270 42313A20 		.ascii	"B1: %d, B3: %d done %x\015\012\000"
 2467      25642C20 
 2467      42333A20 
 2467      25642064 
 2467      6F6E6520 
 2468 0289 000000   		.space	3
ARM GAS  C:\Users\austc\AppData\Local\Temp\ccKyHRsy.s 			page 62


 2469              	.LC121:
 2470 028c 4D6F6465 		.ascii	"Mode is not set to 1, mode is %d\015\012\000"
 2470      20697320 
 2470      6E6F7420 
 2470      73657420 
 2470      746F2031 
 2471 02af 00       		.space	1
 2472              	.LC123:
 2473 02b0 0A53656E 		.ascii	"\012Sending Data... \015\012\000"
 2473      64696E67 
 2473      20446174 
 2473      612E2E2E 
 2473      200D0A00 
 2474              		.bss
 2475              		.align	2
 2476              		.set	.LANCHOR1,. + 0
 2477              		.type	time_LED, %object
 2478              		.size	time_LED, 1
 2479              	time_LED:
 2480 0000 00       		.space	1
 2481 0001 00       		.space	1
 2482              		.type	final_angle, %object
 2483              		.size	final_angle, 2
 2484              	final_angle:
 2485 0002 0000     		.space	2
 2486              		.type	i, %object
 2487              		.size	i, 4
 2488              	i:
 2489 0004 00000000 		.space	4
 2490              		.type	complete, %object
 2491              		.size	complete, 1
 2492              	complete:
 2493 0008 00       		.space	1
 2494              		.type	model_req, %object
 2495              		.size	model_req, 1
 2496              	model_req:
 2497 0009 00       		.space	1
 2498              		.type	CAN_RX_MAILBOX_1, %object
 2499              		.size	CAN_RX_MAILBOX_1, 2
 2500              	CAN_RX_MAILBOX_1:
 2501 000a 0000     		.space	2
 2502              		.type	emergency, %object
 2503              		.size	emergency, 1
 2504              	emergency:
 2505 000c 00       		.space	1
 2506 000d 000000   		.space	3
 2507              		.type	message_id, %object
 2508              		.size	message_id, 4
 2509              	message_id:
 2510 0010 00000000 		.space	4
 2511              		.type	disable_limit, %object
 2512              		.size	disable_limit, 1
 2513              	disable_limit:
 2514 0014 00       		.space	1
 2515              		.type	invalidate, %object
 2516              		.size	invalidate, 1
 2517              	invalidate:
ARM GAS  C:\Users\austc\AppData\Local\Temp\ccKyHRsy.s 			page 63


 2518 0015 00       		.space	1
 2519 0016 0000     		.space	2
 2520              		.type	lastp, %object
 2521              		.size	lastp, 4
 2522              	lastp:
 2523 0018 00000000 		.space	4
 2524              		.type	maxV, %object
 2525              		.size	maxV, 1
 2526              	maxV:
 2527 001c 00       		.space	1
 2528              		.type	drive, %object
 2529              		.size	drive, 1
 2530              	drive:
 2531 001d 00       		.space	1
 2532 001e 0000     		.space	2
 2533              		.type	mailbox, %object
 2534              		.size	mailbox, 4
 2535              	mailbox:
 2536 0020 00000000 		.space	4
 2537              		.text
 2538              	.Letext0:
 2539              		.file 2 "c:\\program files (x86)\\cypress\\psoc creator\\4.2\\psoc creator\\import\\gnu\\arm\\5.4.
 2540              		.file 3 "c:\\program files (x86)\\cypress\\psoc creator\\4.2\\psoc creator\\import\\gnu\\arm\\5.4.
 2541              		.file 4 "Generated_Source\\PSoC4/cytypes.h"
 2542              		.file 5 "./cyapicallbacks.h"
 2543              		.file 6 "Generated_Source\\PSoC4/CAN.h"
 2544              		.file 7 "Generated_Source\\PSoC4/QuadDec.h"
 2545              		.file 8 "Generated_Source\\PSoC4/UART_SPI_UART.h"
 2546              		.file 9 "Generated_Source\\PSoC4/Test_LED.h"
 2547              		.file 10 "Generated_Source\\PSoC4/PWM_Motor.h"
 2548              		.file 11 "Generated_Source\\PSoC4/Status_Reg_Switches.h"
 2549              		.file 12 "Generated_Source\\PSoC4/Timer_1.h"
 2550              		.file 13 "Generated_Source\\PSoC4/CyLib.h"
 2551              		.file 14 "Generated_Source\\PSoC4/isr_Limit_1.h"
 2552              		.file 15 "Generated_Source\\PSoC4/isr_period.h"
 2553              		.file 16 "Generated_Source\\PSoC4/UART.h"
 2554              		.file 17 "c:\\program files (x86)\\cypress\\psoc creator\\4.2\\psoc creator\\import\\gnu\\arm\\5.4
 2555              		.file 18 "Generated_Source\\PSoC4/Can_addr.h"
 2556              		.file 19 "Generated_Source\\PSoC4/Pin_Direction.h"
 2557              		.file 20 "Generated_Source\\PSoC4/Error.h"