ARM GAS  C:\Users\austc\AppData\Local\Temp\ccdr1zzG.s 			page 1


   1              		.syntax unified
   2              		.cpu cortex-m0
   3              		.fpu softvfp
   4              		.eabi_attribute 20, 1
   5              		.eabi_attribute 21, 1
   6              		.eabi_attribute 23, 3
   7              		.eabi_attribute 24, 1
   8              		.eabi_attribute 25, 1
   9              		.eabi_attribute 26, 1
  10              		.eabi_attribute 30, 1
  11              		.eabi_attribute 34, 0
  12              		.eabi_attribute 18, 4
  13              		.thumb
  14              		.syntax unified
  15              		.file	"Opamp_1.c"
  16              		.text
  17              	.Ltext0:
  18              		.cfi_sections	.debug_frame
  19              		.section	.text.Opamp_1_Init,"ax",%progbits
  20              		.align	2
  21              		.global	Opamp_1_Init
  22              		.code	16
  23              		.thumb_func
  24              		.type	Opamp_1_Init, %function
  25              	Opamp_1_Init:
  26              	.LFB0:
  27              		.file 1 "Generated_Source\\PSoC4\\Opamp_1.c"
   1:Generated_Source\PSoC4/Opamp_1.c **** /*******************************************************************************
   2:Generated_Source\PSoC4/Opamp_1.c **** * File Name: Opamp_1.c
   3:Generated_Source\PSoC4/Opamp_1.c **** * Version 1.20
   4:Generated_Source\PSoC4/Opamp_1.c **** *
   5:Generated_Source\PSoC4/Opamp_1.c **** * Description:
   6:Generated_Source\PSoC4/Opamp_1.c **** *  This file provides the source code to the API for the Opamp (Analog Buffer)
   7:Generated_Source\PSoC4/Opamp_1.c **** *  Component.
   8:Generated_Source\PSoC4/Opamp_1.c **** *
   9:Generated_Source\PSoC4/Opamp_1.c **** *
  10:Generated_Source\PSoC4/Opamp_1.c **** ********************************************************************************
  11:Generated_Source\PSoC4/Opamp_1.c **** * Copyright 2013-2015, Cypress Semiconductor Corporation.  All rights reserved.
  12:Generated_Source\PSoC4/Opamp_1.c **** * You may use this file only in accordance with the license, terms, conditions,
  13:Generated_Source\PSoC4/Opamp_1.c **** * disclaimers, and limitations in the end user license agreement accompanying
  14:Generated_Source\PSoC4/Opamp_1.c **** * the software package with which this file was provided.
  15:Generated_Source\PSoC4/Opamp_1.c **** *******************************************************************************/
  16:Generated_Source\PSoC4/Opamp_1.c **** 
  17:Generated_Source\PSoC4/Opamp_1.c **** #include "Opamp_1.h"
  18:Generated_Source\PSoC4/Opamp_1.c **** 
  19:Generated_Source\PSoC4/Opamp_1.c **** uint8 Opamp_1_initVar = 0u; /* Defines if component was initialized */
  20:Generated_Source\PSoC4/Opamp_1.c **** static uint32 Opamp_1_internalPower = 0u; /* Defines component Power value */
  21:Generated_Source\PSoC4/Opamp_1.c **** 
  22:Generated_Source\PSoC4/Opamp_1.c **** 
  23:Generated_Source\PSoC4/Opamp_1.c **** /*******************************************************************************
  24:Generated_Source\PSoC4/Opamp_1.c **** * Function Name: Opamp_1_Init
  25:Generated_Source\PSoC4/Opamp_1.c **** ********************************************************************************
  26:Generated_Source\PSoC4/Opamp_1.c **** *
  27:Generated_Source\PSoC4/Opamp_1.c **** * Summary:
  28:Generated_Source\PSoC4/Opamp_1.c **** *  Initializes or restores the component according to the customizer Configure 
  29:Generated_Source\PSoC4/Opamp_1.c **** *  dialog settings. It is not necessary to call Init() because the Start() API 
  30:Generated_Source\PSoC4/Opamp_1.c **** *  calls this function and is the preferred method to begin the component operation.
ARM GAS  C:\Users\austc\AppData\Local\Temp\ccdr1zzG.s 			page 2


  31:Generated_Source\PSoC4/Opamp_1.c **** *
  32:Generated_Source\PSoC4/Opamp_1.c **** * Parameters:
  33:Generated_Source\PSoC4/Opamp_1.c **** *  None
  34:Generated_Source\PSoC4/Opamp_1.c **** *
  35:Generated_Source\PSoC4/Opamp_1.c **** * Return:
  36:Generated_Source\PSoC4/Opamp_1.c **** *  None
  37:Generated_Source\PSoC4/Opamp_1.c **** *
  38:Generated_Source\PSoC4/Opamp_1.c **** *******************************************************************************/
  39:Generated_Source\PSoC4/Opamp_1.c **** void Opamp_1_Init(void)
  40:Generated_Source\PSoC4/Opamp_1.c **** {
  28              		.loc 1 40 0
  29              		.cfi_startproc
  30              		@ args = 0, pretend = 0, frame = 0
  31              		@ frame_needed = 0, uses_anonymous_args = 0
  32              		@ link register save eliminated.
  41:Generated_Source\PSoC4/Opamp_1.c ****     Opamp_1_internalPower = Opamp_1_POWER;
  33              		.loc 1 41 0
  34 0000 0222     		movs	r2, #2
  35 0002 064B     		ldr	r3, .L2
  36 0004 1A60     		str	r2, [r3]
  42:Generated_Source\PSoC4/Opamp_1.c ****     Opamp_1_CTB_CTRL_REG = Opamp_1_DEFAULT_CTB_CTRL;
  37              		.loc 1 42 0
  38 0006 8022     		movs	r2, #128
  39 0008 1206     		lsls	r2, r2, #24
  40 000a 054B     		ldr	r3, .L2+4
  41 000c 1A60     		str	r2, [r3]
  43:Generated_Source\PSoC4/Opamp_1.c ****     Opamp_1_OA_RES_CTRL_REG = Opamp_1_DEFAULT_OA_RES_CTRL;
  42              		.loc 1 43 0
  43 000e 0422     		movs	r2, #4
  44 0010 044B     		ldr	r3, .L2+8
  45 0012 1A60     		str	r2, [r3]
  44:Generated_Source\PSoC4/Opamp_1.c ****     Opamp_1_OA_COMP_TRIM_REG = Opamp_1_DEFAULT_OA_COMP_TRIM_REG;
  46              		.loc 1 44 0
  47 0014 013A     		subs	r2, r2, #1
  48 0016 044B     		ldr	r3, .L2+12
  49 0018 1A60     		str	r2, [r3]
  45:Generated_Source\PSoC4/Opamp_1.c **** }
  50              		.loc 1 45 0
  51              		@ sp needed
  52 001a 7047     		bx	lr
  53              	.L3:
  54              		.align	2
  55              	.L2:
  56 001c 00000000 		.word	.LANCHOR0
  57 0020 00003040 		.word	1076887552
  58 0024 04003040 		.word	1076887556
  59 0028 080F3040 		.word	1076891400
  60              		.cfi_endproc
  61              	.LFE0:
  62              		.size	Opamp_1_Init, .-Opamp_1_Init
  63              		.section	.text.Opamp_1_Enable,"ax",%progbits
  64              		.align	2
  65              		.global	Opamp_1_Enable
  66              		.code	16
  67              		.thumb_func
  68              		.type	Opamp_1_Enable, %function
  69              	Opamp_1_Enable:
ARM GAS  C:\Users\austc\AppData\Local\Temp\ccdr1zzG.s 			page 3


  70              	.LFB1:
  46:Generated_Source\PSoC4/Opamp_1.c **** 
  47:Generated_Source\PSoC4/Opamp_1.c **** 
  48:Generated_Source\PSoC4/Opamp_1.c **** /*******************************************************************************
  49:Generated_Source\PSoC4/Opamp_1.c **** * Function Name: Opamp_1_Enable
  50:Generated_Source\PSoC4/Opamp_1.c **** ********************************************************************************
  51:Generated_Source\PSoC4/Opamp_1.c **** *
  52:Generated_Source\PSoC4/Opamp_1.c **** * Summary:
  53:Generated_Source\PSoC4/Opamp_1.c **** *  Activates the hardware and begins the component operation. It is not necessary to 
  54:Generated_Source\PSoC4/Opamp_1.c **** *  call Enable() because the Start() API calls this function, which is the 
  55:Generated_Source\PSoC4/Opamp_1.c **** *  preferred method to begin the component operation.
  56:Generated_Source\PSoC4/Opamp_1.c **** *
  57:Generated_Source\PSoC4/Opamp_1.c **** * Parameters:
  58:Generated_Source\PSoC4/Opamp_1.c **** *  None
  59:Generated_Source\PSoC4/Opamp_1.c **** *
  60:Generated_Source\PSoC4/Opamp_1.c **** * Return:
  61:Generated_Source\PSoC4/Opamp_1.c **** *  None
  62:Generated_Source\PSoC4/Opamp_1.c **** *
  63:Generated_Source\PSoC4/Opamp_1.c **** *******************************************************************************/
  64:Generated_Source\PSoC4/Opamp_1.c **** void Opamp_1_Enable(void)
  65:Generated_Source\PSoC4/Opamp_1.c **** {
  71              		.loc 1 65 0
  72              		.cfi_startproc
  73              		@ args = 0, pretend = 0, frame = 0
  74              		@ frame_needed = 0, uses_anonymous_args = 0
  75              		@ link register save eliminated.
  66:Generated_Source\PSoC4/Opamp_1.c ****     Opamp_1_OA_RES_CTRL_REG |= Opamp_1_internalPower | \
  76              		.loc 1 66 0
  77 0000 044A     		ldr	r2, .L5
  78 0002 1168     		ldr	r1, [r2]
  79 0004 044B     		ldr	r3, .L5+4
  80 0006 1B68     		ldr	r3, [r3]
  81 0008 0B43     		orrs	r3, r1
  82 000a 8021     		movs	r1, #128
  83 000c 0901     		lsls	r1, r1, #4
  84 000e 0B43     		orrs	r3, r1
  85 0010 1360     		str	r3, [r2]
  67:Generated_Source\PSoC4/Opamp_1.c ****                                         Opamp_1_OA_PUMP_EN;
  68:Generated_Source\PSoC4/Opamp_1.c **** }
  86              		.loc 1 68 0
  87              		@ sp needed
  88 0012 7047     		bx	lr
  89              	.L6:
  90              		.align	2
  91              	.L5:
  92 0014 04003040 		.word	1076887556
  93 0018 00000000 		.word	.LANCHOR0
  94              		.cfi_endproc
  95              	.LFE1:
  96              		.size	Opamp_1_Enable, .-Opamp_1_Enable
  97              		.section	.text.Opamp_1_Start,"ax",%progbits
  98              		.align	2
  99              		.global	Opamp_1_Start
 100              		.code	16
 101              		.thumb_func
 102              		.type	Opamp_1_Start, %function
 103              	Opamp_1_Start:
ARM GAS  C:\Users\austc\AppData\Local\Temp\ccdr1zzG.s 			page 4


 104              	.LFB2:
  69:Generated_Source\PSoC4/Opamp_1.c **** 
  70:Generated_Source\PSoC4/Opamp_1.c **** 
  71:Generated_Source\PSoC4/Opamp_1.c **** /*******************************************************************************
  72:Generated_Source\PSoC4/Opamp_1.c **** * Function Name: Opamp_1_Start
  73:Generated_Source\PSoC4/Opamp_1.c **** ********************************************************************************
  74:Generated_Source\PSoC4/Opamp_1.c **** *
  75:Generated_Source\PSoC4/Opamp_1.c **** * Summary:
  76:Generated_Source\PSoC4/Opamp_1.c **** *  Performs all of the required initialization for the component and enables power 
  77:Generated_Source\PSoC4/Opamp_1.c **** *  to the block. The first time the routine is executed, the Power level, Mode, 
  78:Generated_Source\PSoC4/Opamp_1.c **** *  and Output mode are set. When called to restart the Opamp following a Stop() call, 
  79:Generated_Source\PSoC4/Opamp_1.c **** *  the current component parameter settings are retained.
  80:Generated_Source\PSoC4/Opamp_1.c **** *
  81:Generated_Source\PSoC4/Opamp_1.c **** * Parameters:
  82:Generated_Source\PSoC4/Opamp_1.c **** *  None
  83:Generated_Source\PSoC4/Opamp_1.c **** *
  84:Generated_Source\PSoC4/Opamp_1.c **** * Return:
  85:Generated_Source\PSoC4/Opamp_1.c **** *  None
  86:Generated_Source\PSoC4/Opamp_1.c **** *
  87:Generated_Source\PSoC4/Opamp_1.c **** * Global variables:
  88:Generated_Source\PSoC4/Opamp_1.c **** *  Opamp_1_initVar: Used to check the initial configuration, modified
  89:Generated_Source\PSoC4/Opamp_1.c **** *  when this function is called for the first time.
  90:Generated_Source\PSoC4/Opamp_1.c **** *
  91:Generated_Source\PSoC4/Opamp_1.c **** *******************************************************************************/
  92:Generated_Source\PSoC4/Opamp_1.c **** void Opamp_1_Start(void)
  93:Generated_Source\PSoC4/Opamp_1.c **** {
 105              		.loc 1 93 0
 106              		.cfi_startproc
 107              		@ args = 0, pretend = 0, frame = 0
 108              		@ frame_needed = 0, uses_anonymous_args = 0
 109 0000 10B5     		push	{r4, lr}
 110              		.cfi_def_cfa_offset 8
 111              		.cfi_offset 4, -8
 112              		.cfi_offset 14, -4
  94:Generated_Source\PSoC4/Opamp_1.c ****     if( 0u == Opamp_1_initVar)
 113              		.loc 1 94 0
 114 0002 064B     		ldr	r3, .L9
 115 0004 1B79     		ldrb	r3, [r3, #4]
 116 0006 002B     		cmp	r3, #0
 117 0008 04D1     		bne	.L8
  95:Generated_Source\PSoC4/Opamp_1.c ****     {
  96:Generated_Source\PSoC4/Opamp_1.c ****         Opamp_1_Init();
 118              		.loc 1 96 0
 119 000a FFF7FEFF 		bl	Opamp_1_Init
 120              	.LVL0:
  97:Generated_Source\PSoC4/Opamp_1.c ****         Opamp_1_initVar = 1u;
 121              		.loc 1 97 0
 122 000e 0122     		movs	r2, #1
 123 0010 024B     		ldr	r3, .L9
 124 0012 1A71     		strb	r2, [r3, #4]
 125              	.L8:
  98:Generated_Source\PSoC4/Opamp_1.c ****     }
  99:Generated_Source\PSoC4/Opamp_1.c ****     Opamp_1_Enable();
 126              		.loc 1 99 0
 127 0014 FFF7FEFF 		bl	Opamp_1_Enable
 128              	.LVL1:
 100:Generated_Source\PSoC4/Opamp_1.c **** }
ARM GAS  C:\Users\austc\AppData\Local\Temp\ccdr1zzG.s 			page 5


 129              		.loc 1 100 0
 130              		@ sp needed
 131 0018 10BD     		pop	{r4, pc}
 132              	.L10:
 133 001a C046     		.align	2
 134              	.L9:
 135 001c 00000000 		.word	.LANCHOR0
 136              		.cfi_endproc
 137              	.LFE2:
 138              		.size	Opamp_1_Start, .-Opamp_1_Start
 139              		.section	.text.Opamp_1_Stop,"ax",%progbits
 140              		.align	2
 141              		.global	Opamp_1_Stop
 142              		.code	16
 143              		.thumb_func
 144              		.type	Opamp_1_Stop, %function
 145              	Opamp_1_Stop:
 146              	.LFB3:
 101:Generated_Source\PSoC4/Opamp_1.c **** 
 102:Generated_Source\PSoC4/Opamp_1.c **** 
 103:Generated_Source\PSoC4/Opamp_1.c **** /*******************************************************************************
 104:Generated_Source\PSoC4/Opamp_1.c **** * Function Name: Opamp_1_Stop
 105:Generated_Source\PSoC4/Opamp_1.c **** ********************************************************************************
 106:Generated_Source\PSoC4/Opamp_1.c **** *
 107:Generated_Source\PSoC4/Opamp_1.c **** * Summary:
 108:Generated_Source\PSoC4/Opamp_1.c **** *  Turn off the Opamp block.
 109:Generated_Source\PSoC4/Opamp_1.c **** *
 110:Generated_Source\PSoC4/Opamp_1.c **** * Parameters:
 111:Generated_Source\PSoC4/Opamp_1.c **** *  None
 112:Generated_Source\PSoC4/Opamp_1.c **** *
 113:Generated_Source\PSoC4/Opamp_1.c **** * Return:
 114:Generated_Source\PSoC4/Opamp_1.c **** *  None
 115:Generated_Source\PSoC4/Opamp_1.c **** *
 116:Generated_Source\PSoC4/Opamp_1.c **** *******************************************************************************/
 117:Generated_Source\PSoC4/Opamp_1.c **** void Opamp_1_Stop(void)
 118:Generated_Source\PSoC4/Opamp_1.c **** {
 147              		.loc 1 118 0
 148              		.cfi_startproc
 149              		@ args = 0, pretend = 0, frame = 0
 150              		@ frame_needed = 0, uses_anonymous_args = 0
 151              		@ link register save eliminated.
 119:Generated_Source\PSoC4/Opamp_1.c ****     Opamp_1_OA_RES_CTRL_REG &= ((uint32)~(Opamp_1_OA_PWR_MODE_MASK | \
 152              		.loc 1 119 0
 153 0000 024A     		ldr	r2, .L12
 154 0002 1168     		ldr	r1, [r2]
 155 0004 024B     		ldr	r3, .L12+4
 156 0006 0B40     		ands	r3, r1
 157 0008 1360     		str	r3, [r2]
 120:Generated_Source\PSoC4/Opamp_1.c ****                                                    Opamp_1_OA_PUMP_EN));
 121:Generated_Source\PSoC4/Opamp_1.c **** }
 158              		.loc 1 121 0
 159              		@ sp needed
 160 000a 7047     		bx	lr
 161              	.L13:
 162              		.align	2
 163              	.L12:
 164 000c 04003040 		.word	1076887556
ARM GAS  C:\Users\austc\AppData\Local\Temp\ccdr1zzG.s 			page 6


 165 0010 FCF7FFFF 		.word	-2052
 166              		.cfi_endproc
 167              	.LFE3:
 168              		.size	Opamp_1_Stop, .-Opamp_1_Stop
 169              		.section	.text.Opamp_1_SetPower,"ax",%progbits
 170              		.align	2
 171              		.global	Opamp_1_SetPower
 172              		.code	16
 173              		.thumb_func
 174              		.type	Opamp_1_SetPower, %function
 175              	Opamp_1_SetPower:
 176              	.LFB4:
 122:Generated_Source\PSoC4/Opamp_1.c **** 
 123:Generated_Source\PSoC4/Opamp_1.c **** 
 124:Generated_Source\PSoC4/Opamp_1.c **** /*******************************************************************************
 125:Generated_Source\PSoC4/Opamp_1.c **** * Function Name: Opamp_1_SetPower
 126:Generated_Source\PSoC4/Opamp_1.c **** ********************************************************************************
 127:Generated_Source\PSoC4/Opamp_1.c **** *
 128:Generated_Source\PSoC4/Opamp_1.c **** * Summary:
 129:Generated_Source\PSoC4/Opamp_1.c **** *  Sets the Opamp to one of the three power levels.
 130:Generated_Source\PSoC4/Opamp_1.c **** *
 131:Generated_Source\PSoC4/Opamp_1.c **** * Parameters:
 132:Generated_Source\PSoC4/Opamp_1.c **** *  power: power levels.
 133:Generated_Source\PSoC4/Opamp_1.c **** *   Opamp_1_LOW_POWER - Lowest active power
 134:Generated_Source\PSoC4/Opamp_1.c **** *   Opamp_1_MED_POWER - Medium power
 135:Generated_Source\PSoC4/Opamp_1.c **** *   Opamp_1_HIGH_POWER - Highest active power
 136:Generated_Source\PSoC4/Opamp_1.c **** *
 137:Generated_Source\PSoC4/Opamp_1.c **** * Return:
 138:Generated_Source\PSoC4/Opamp_1.c **** *  None
 139:Generated_Source\PSoC4/Opamp_1.c **** *
 140:Generated_Source\PSoC4/Opamp_1.c **** **********************************************************************************/
 141:Generated_Source\PSoC4/Opamp_1.c **** void Opamp_1_SetPower(uint32 power)
 142:Generated_Source\PSoC4/Opamp_1.c **** {
 177              		.loc 1 142 0
 178              		.cfi_startproc
 179              		@ args = 0, pretend = 0, frame = 0
 180              		@ frame_needed = 0, uses_anonymous_args = 0
 181              		@ link register save eliminated.
 182              	.LVL2:
 143:Generated_Source\PSoC4/Opamp_1.c ****     uint32 tmp;
 144:Generated_Source\PSoC4/Opamp_1.c ****     
 145:Generated_Source\PSoC4/Opamp_1.c ****     Opamp_1_internalPower = Opamp_1_GET_OA_PWR_MODE(power);
 183              		.loc 1 145 0
 184 0000 0321     		movs	r1, #3
 185 0002 0840     		ands	r0, r1
 186              	.LVL3:
 187 0004 034B     		ldr	r3, .L15
 188 0006 1860     		str	r0, [r3]
 146:Generated_Source\PSoC4/Opamp_1.c ****     tmp = Opamp_1_OA_RES_CTRL_REG & \
 189              		.loc 1 146 0
 190 0008 034A     		ldr	r2, .L15+4
 191 000a 1368     		ldr	r3, [r2]
 192 000c 8B43     		bics	r3, r1
 193              	.LVL4:
 147:Generated_Source\PSoC4/Opamp_1.c ****            (uint32)~Opamp_1_OA_PWR_MODE_MASK;
 148:Generated_Source\PSoC4/Opamp_1.c ****     Opamp_1_OA_RES_CTRL_REG = tmp | Opamp_1_internalPower;
 194              		.loc 1 148 0
ARM GAS  C:\Users\austc\AppData\Local\Temp\ccdr1zzG.s 			page 7


 195 000e 1843     		orrs	r0, r3
 196 0010 1060     		str	r0, [r2]
 149:Generated_Source\PSoC4/Opamp_1.c **** }
 197              		.loc 1 149 0
 198              		@ sp needed
 199 0012 7047     		bx	lr
 200              	.L16:
 201              		.align	2
 202              	.L15:
 203 0014 00000000 		.word	.LANCHOR0
 204 0018 04003040 		.word	1076887556
 205              		.cfi_endproc
 206              	.LFE4:
 207              		.size	Opamp_1_SetPower, .-Opamp_1_SetPower
 208              		.section	.text.Opamp_1_PumpControl,"ax",%progbits
 209              		.align	2
 210              		.global	Opamp_1_PumpControl
 211              		.code	16
 212              		.thumb_func
 213              		.type	Opamp_1_PumpControl, %function
 214              	Opamp_1_PumpControl:
 215              	.LFB5:
 150:Generated_Source\PSoC4/Opamp_1.c **** 
 151:Generated_Source\PSoC4/Opamp_1.c **** 
 152:Generated_Source\PSoC4/Opamp_1.c **** /*******************************************************************************
 153:Generated_Source\PSoC4/Opamp_1.c **** * Function Name: Opamp_1_PumpControl
 154:Generated_Source\PSoC4/Opamp_1.c **** ********************************************************************************
 155:Generated_Source\PSoC4/Opamp_1.c **** *
 156:Generated_Source\PSoC4/Opamp_1.c **** * Summary:
 157:Generated_Source\PSoC4/Opamp_1.c **** *  Allows the user to turn the Opamp's boost pump on or off. By Default the Start() 
 158:Generated_Source\PSoC4/Opamp_1.c **** *  function turns on the pump. Use this API to turn it off. The boost must be 
 159:Generated_Source\PSoC4/Opamp_1.c **** *  turned on when the supply is less than 2.7 volts and off if the supply is more 
 160:Generated_Source\PSoC4/Opamp_1.c **** *  than 4 volts.
 161:Generated_Source\PSoC4/Opamp_1.c **** *
 162:Generated_Source\PSoC4/Opamp_1.c **** * Parameters:
 163:Generated_Source\PSoC4/Opamp_1.c **** *  onOff: Control the pump.
 164:Generated_Source\PSoC4/Opamp_1.c **** *   Opamp_1_PUMP_OFF - Turn off the pump
 165:Generated_Source\PSoC4/Opamp_1.c **** *   Opamp_1_PUMP_ON - Turn on the pump
 166:Generated_Source\PSoC4/Opamp_1.c **** *
 167:Generated_Source\PSoC4/Opamp_1.c **** * Return:
 168:Generated_Source\PSoC4/Opamp_1.c **** *  None
 169:Generated_Source\PSoC4/Opamp_1.c **** *
 170:Generated_Source\PSoC4/Opamp_1.c **** **********************************************************************************/
 171:Generated_Source\PSoC4/Opamp_1.c **** void Opamp_1_PumpControl(uint32 onOff)
 172:Generated_Source\PSoC4/Opamp_1.c **** {
 216              		.loc 1 172 0
 217              		.cfi_startproc
 218              		@ args = 0, pretend = 0, frame = 0
 219              		@ frame_needed = 0, uses_anonymous_args = 0
 220              		@ link register save eliminated.
 221              	.LVL5:
 173:Generated_Source\PSoC4/Opamp_1.c ****     
 174:Generated_Source\PSoC4/Opamp_1.c ****     if(0u != onOff)
 222              		.loc 1 174 0
 223 0000 0028     		cmp	r0, #0
 224 0002 06D0     		beq	.L18
 175:Generated_Source\PSoC4/Opamp_1.c ****     {
ARM GAS  C:\Users\austc\AppData\Local\Temp\ccdr1zzG.s 			page 8


 176:Generated_Source\PSoC4/Opamp_1.c ****         Opamp_1_OA_RES_CTRL |= Opamp_1_OA_PUMP_EN;    
 225              		.loc 1 176 0
 226 0004 064A     		ldr	r2, .L20
 227 0006 1368     		ldr	r3, [r2]
 228 0008 8021     		movs	r1, #128
 229 000a 0901     		lsls	r1, r1, #4
 230 000c 0B43     		orrs	r3, r1
 231 000e 1360     		str	r3, [r2]
 232 0010 04E0     		b	.L17
 233              	.L18:
 177:Generated_Source\PSoC4/Opamp_1.c ****     }
 178:Generated_Source\PSoC4/Opamp_1.c ****     else
 179:Generated_Source\PSoC4/Opamp_1.c ****     {
 180:Generated_Source\PSoC4/Opamp_1.c ****         Opamp_1_OA_RES_CTRL &= (uint32)~Opamp_1_OA_PUMP_EN;
 234              		.loc 1 180 0
 235 0012 034A     		ldr	r2, .L20
 236 0014 1168     		ldr	r1, [r2]
 237 0016 034B     		ldr	r3, .L20+4
 238 0018 0B40     		ands	r3, r1
 239 001a 1360     		str	r3, [r2]
 240              	.L17:
 181:Generated_Source\PSoC4/Opamp_1.c ****     }
 182:Generated_Source\PSoC4/Opamp_1.c **** }
 241              		.loc 1 182 0
 242              		@ sp needed
 243 001c 7047     		bx	lr
 244              	.L21:
 245 001e C046     		.align	2
 246              	.L20:
 247 0020 04003040 		.word	1076887556
 248 0024 FFF7FFFF 		.word	-2049
 249              		.cfi_endproc
 250              	.LFE5:
 251              		.size	Opamp_1_PumpControl, .-Opamp_1_PumpControl
 252              		.global	Opamp_1_initVar
 253              		.bss
 254              		.align	2
 255              		.set	.LANCHOR0,. + 0
 256              		.type	Opamp_1_internalPower, %object
 257              		.size	Opamp_1_internalPower, 4
 258              	Opamp_1_internalPower:
 259 0000 00000000 		.space	4
 260              		.type	Opamp_1_initVar, %object
 261              		.size	Opamp_1_initVar, 1
 262              	Opamp_1_initVar:
 263 0004 00       		.space	1
 264              		.text
 265              	.Letext0:
 266              		.file 2 "Generated_Source\\PSoC4\\cytypes.h"